 ui_mp_x86

 Timestamp is 69e6ea65 (Mon Apr 20 20:09:25 2026)

 Preferred load address is 40000000

 Start         Length     Name                   Class
 0001:00000000 000fc0a2H .textbss                DATA
 0002:00000000 00016d80H .text$di                CODE
 0002:00016d80 001eebb0H .text$mn                CODE
 0002:00205930 0000b930H .text$x                 CODE
 0002:00211260 00002b1fH .text$yd                CODE
 0003:00000000 00000104H .CRT$XCA                DATA
 0003:00000104 000001acH .CRT$XCC                DATA
 0003:000002b0 00000124H .CRT$XCL                DATA
 0003:000003d4 00000290H .CRT$XCU                DATA
 0003:00000664 00000104H .CRT$XCZ                DATA
 0003:00000768 00000104H .CRT$XIA                DATA
 0003:0000086c 00000114H .CRT$XIC                DATA
 0003:00000980 00000104H .CRT$XIZ                DATA
 0003:00000a84 00000104H .CRT$XPA                DATA
 0003:00000b88 0000010cH .CRT$XPX                DATA
 0003:00000c94 00000104H .CRT$XPXA               DATA
 0003:00000d98 00000104H .CRT$XPZ                DATA
 0003:00000e9c 00000104H .CRT$XTA                DATA
 0003:00000fa0 00000120H .CRT$XTZ                DATA
 0003:000010c0 0003a940H .rdata                  DATA
 0003:0003ba00 00000180H .rdata$CastGuardVftablesA DATA
 0003:0003bb80 0000014cH .rdata$CastGuardVftablesC DATA
 0003:0003bccc 0000232cH .rdata$r                DATA
 0003:0003dff8 00000174H .rdata$zzzdbg           DATA
 0003:0003e16c 00000104H .rtc$IAA                DATA
 0003:0003e270 0000016cH .rtc$IMZ                DATA
 0003:0003e3dc 00000104H .rtc$IZZ                DATA
 0003:0003e4e0 00000104H .rtc$TAA                DATA
 0003:0003e5e4 0000016cH .rtc$TMZ                DATA
 0003:0003e750 00000108H .rtc$TZZ                DATA
 0003:0003e858 00009588H .xdata$x                DATA
 0003:00047de0 0000016cH .edata                  DATA
 0004:00000000 00007fe8H .data                   DATA
 0004:00007fe8 00000388H .data$r                 DATA
 0004:00008370 00001110H .data$rs                DATA
 0004:00009480 003de708H .bss                    DATA
 0005:00000000 000001e8H .idata$5                DATA
 0005:000001e8 00000014H .idata$2                DATA
 0005:000001fc 00000014H .idata$3                DATA
 0005:00000210 000001e8H .idata$4                DATA
 0005:000003f8 00000877H .idata$6                DATA
 0006:00000000 00000458H .msvcjmc                DATA
 0007:00000000 0000010eH .00cfg                  DATA
 0008:00000000 00000199H .fptable                DATA
 0009:00000000 00000170H .rsrc$01                DATA
 0009:00000170 000002ccH .rsrc$02                DATA

  Address         Publics by Value              Rva+Base       Lib:Object

 0000:00000000       ___AbsoluteZero            00000000     <absolute>
 0000:00000000       ___arm64x_extra_rfe_table  00000000     <absolute>
 0000:00000000       ___arm64x_extra_rfe_table_size 00000000     <absolute>
 0000:00000000       ___arm64x_native_entrypoint 00000000     <absolute>
 0000:00000000       ___arm64x_redirection_metadata 00000000     <absolute>
 0000:00000000       ___arm64x_redirection_metadata_count 00000000     <absolute>
 0000:00000000       ___dynamic_value_reloc_table 00000000     <absolute>
 0000:00000000       ___enclave_config          00000000     <absolute>
 0000:00000000       ___guard_check_icall_a64n_fptr 00000000     <absolute>
 0000:00000000       ___guard_eh_cont_count     00000000     <absolute>
 0000:00000000       ___guard_eh_cont_table     00000000     <absolute>
 0000:00000000       ___guard_fids_count        00000000     <absolute>
 0000:00000000       ___guard_fids_table        00000000     <absolute>
 0000:00000000       ___guard_iat_count         00000000     <absolute>
 0000:00000000       ___guard_iat_table         00000000     <absolute>
 0000:00000000       ___guard_longjmp_count     00000000     <absolute>
 0000:00000000       ___guard_longjmp_table     00000000     <absolute>
 0000:00000000       ___hybrid_auxiliary_delayload_iat 00000000     <absolute>
 0000:00000000       ___hybrid_auxiliary_delayload_iat_copy 00000000     <absolute>
 0000:00000000       ___hybrid_auxiliary_iat    00000000     <absolute>
 0000:00000000       ___hybrid_auxiliary_iat_copy 00000000     <absolute>
 0000:00000000       ___hybrid_code_map         00000000     <absolute>
 0000:00000000       ___hybrid_code_map_count   00000000     <absolute>
 0000:00000000       ___hybrid_image_info_bitfield 00000000     <absolute>
 0000:00000000       ___safe_se_handler_count   00000000     <absolute>
 0000:00000000       ___safe_se_handler_table   00000000     <absolute>
 0000:00000000       ___volatile_metadata       00000000     <absolute>
 0000:00000000       ___x64_code_ranges_to_entry_points 00000000     <absolute>
 0000:00000000       ___x64_code_ranges_to_entry_points_count 00000000     <absolute>
 0000:00000000       __except_list              00000000     <absolute>
 0000:00000100       ___guard_flags             00000100     <absolute>
 0000:00000000       ___ImageBase               40000000     <linker-defined>
 0001:00000000       __enc$textbss$begin        40001000     <linker-defined>
 0001:000fc0a2       __enc$textbss$end          400fd0a2     <linker-defined>
 0002:00016d80       ?AssetCache@@YAXXZ         40114d80 f   ui_main.obj
 0002:00017060       ?Asset_Parse@@YA?AW4qboolean@@H@Z 40115060 f   ui_main.obj
 0002:00017720       ?Count_Text_AutoWrap_Paint@@YAHMMHMQAMPBDMH@Z 40115720 f   ui_main.obj
 0002:00017b10       ?GetMenuBuffer@@YAPADPBD@Z 40115b10 f   ui_main.obj
 0002:00017c90       ?Load_Menu@@YA?AW4qboolean@@H@Z 40115c90 f   ui_main.obj
 0002:00017e00       ?Multiline_Text_Height@@YAHPBDMH@Z 40115e00 f   ui_main.obj
 0002:00018070       ?Multiline_Text_Width@@YAHPBDMH@Z 40116070 f   ui_main.obj
 0002:000182b0       ?Text_AutoWrap_Paint@@YAXMMHHMQAMPBDMH@Z 401162b0 f   ui_main.obj
 0002:00018570       ?Text_AutoWrap_Paint_Chunk@@YAPADMMHMQAMPADMHHW4qboolean@@0@Z 40116570 f   ui_main.obj
 0002:00018bf0       ?Text_Height@@YAHPBDMH@Z   40116bf0 f   ui_main.obj
 0002:00018c80       ?Text_Height_Ext@@YAHPBDMHPAUfontInfo_t@@@Z 40116c80 f   ui_main.obj
 0002:00018df0       ?Text_Paint@@YAXMMMQAMPBDMHH@Z 40116df0 f   ui_main.obj
 0002:00018ec0       ?Text_PaintCenter@@YAXMMMQAMPBDM@Z 40116ec0 f   ui_main.obj
 0002:00018f90       ?Text_PaintChar@@YAXMMMMMMMMMH@Z 40116f90 f   ui_main.obj
 0002:000190a0       ?Text_PaintCharExt@@YAXMMMMMMMMMMH@Z 401170a0 f   ui_main.obj
 0002:000191b0       ?Text_PaintWithCursor@@YAXMMMQAMPBDHDHH@Z 401171b0 f   ui_main.obj
 0002:000197f0       ?Text_Paint_Ext@@YAXMMMMQAMPBDMHHPAUfontInfo_t@@@Z 401177f0 f   ui_main.obj
 0002:0001a130       ?Text_SetActiveFont@@YAXH@Z 40118130 f   ui_main.obj
 0002:0001a180       ?Text_Width@@YAHPBDMH@Z    40118180 f   ui_main.obj
 0002:0001a210       ?Text_Width_Ext@@YAHPBDMHPAUfontInfo_t@@@Z 40118210 f   ui_main.obj
 0002:0001bf50       ?UI_Campaign_f@@YAXXZ      40119f50 f   ui_main.obj
 0002:0001c1d0       ?UI_CheckExecKey@@YA?AW4qboolean@@H@Z 4011a1d0 f   ui_main.obj
 0002:0001c9e0       ?UI_DrawCampaignDescription@@YAXPAUrectDef_s@@MQAMMMHHW4qboolean@@@Z 4011a9e0 f   ui_main.obj
 0002:0001dd60       ?UI_DrawCenteredPic@@YAXHHH@Z 4011bd60 f   ui_main.obj
 0002:0001e2f0       ?UI_DrawConnectScreen@@YAXW4qboolean@@@Z 4011c2f0 f   ui_main.obj
 0002:0001e780       ?UI_DrawGametypeDescription@@YAXPAUrectDef_s@@MQAMMMHHW4qboolean@@@Z 4011c780 f   ui_main.obj
 0002:0001f320       ?UI_DrawMapPreview@@YAXPAUrectDef_s@@MQAMW4qboolean@@@Z 4011d320 f   ui_main.obj
 0002:00021010       ?UI_DrawNetMapPreview@@YAXPAUrectDef_s@@MQAMW4qboolean@@@Z 4011f010 f   ui_main.obj
 0002:000236f0       ?UI_FeederItemText@@YAPBDMHHPAH0@Z 401216f0 f   ui_main.obj
 0002:00024fe0       ?UI_FeederSelectionClick@@YA?AW4qboolean@@PAUitemDef_s@@@Z 40122fe0 f   ui_main.obj
 0002:00026350       ?UI_ListCampaigns_f@@YAXXZ 40124350 f   ui_main.obj
 0002:00026490       ?UI_Load@@YAXXZ            40124490 f   ui_main.obj
 0002:000268b0       ?UI_LoadMenus@@YAXPBDW4qboolean@@@Z 401248b0 f   ui_main.obj
 0002:00026f30       ?UI_LoadNonIngame@@YAXXZ   40124f30 f   ui_main.obj
 0002:00028860       ?UI_OwnerDrawVisible@@YA?AW4qboolean@@H@Z 40126860 f   ui_main.obj
 0002:000295c0       ?UI_ParseMenu@@YA?AW4qboolean@@PBD@Z 401275c0 f   ui_main.obj
 0002:000298b0       ?UI_PrintTime@@YAXPADHH@Z  401278b0 f   ui_main.obj
 0002:00029aa0       ?UI_ReadableSize@@YAXPADHH@Z 40127aa0 f   ui_main.obj
 0002:00029d20       ?UI_RegisterCvars@@YAXXZ   40127d20 f   ui_main.obj
 0002:00029f40       ?UI_Report@@YAXXZ          40127f40 f   ui_main.obj
 0002:00029ff0       ?UI_RunMenuScript@@YAXPAPAD@Z 40127ff0 f   ui_main.obj
 0002:00030250       ?UI_ServersSort@@YAXHW4qboolean@@@Z 4012e250 f   ui_main.obj
 0002:00030340       ?UI_ShowPostGame@@YAXW4qboolean@@@Z 4012e340 f   ui_main.obj
 0002:00030fa0       ?UI_Update@@YAXPBD@Z       4012efa0 f   ui_main.obj
 0002:00031440       ?UI_UpdateCvars@@YAXXZ     4012f440 f   ui_main.obj
 0002:00031630       ?WM_ActivateLimboChat@@YAXXZ 4012f630 f   ui_main.obj
 0002:00031720       ?WM_setItemPic@@YAXPADPBD@Z 4012f720 f   ui_main.obj
 0002:000317c0       ?WM_setVisibility@@YAXPADW4qboolean@@@Z 4012f7c0 f   ui_main.obj
 0002:00031870       ?_UI_DrawRect@@YAXMMMMMPBM@Z 4012f870 f   ui_main.obj
 0002:00031970       ?_UI_DrawSides@@YAXMMMMM@Z 4012f970 f   ui_main.obj
 0002:00031ae0       ?_UI_DrawTopBottom@@YAXMMMMM@Z 4012fae0 f   ui_main.obj
 0002:00031c50       ?_UI_GetActiveMenu@@YA?AW4uiMenuCommand_t@@XZ 4012fc50 f   ui_main.obj
 0002:00031ca0       ?_UI_Init@@YAXW4qboolean@@@Z 4012fca0 f   ui_main.obj
 0002:000324f0       ?_UI_IsFullscreen@@YA?AW4qboolean@@XZ 401304f0 f   ui_main.obj
 0002:00032540       ?_UI_KeyEvent@@YAXHW4qboolean@@@Z 40130540 f   ui_main.obj
 0002:00032680       ?_UI_MouseEvent@@YAXHH@Z   40130680 f   ui_main.obj
 0002:00032770       ?_UI_Refresh@@YAXH@Z       40130770 f   ui_main.obj
 0002:00032aa0       ?_UI_SetActiveMenu@@YAXW4uiMenuCommand_t@@@Z 40130aa0 f   ui_main.obj
 0002:000332e0       ?_UI_Shutdown@@YAXXZ       401312e0 f   ui_main.obj
 0002:00033330       ?__empty_global_delete@@YAXPAX@Z 40131330 f i ui_main.obj
 0002:00033380       ?__empty_global_delete@@YAXPAXI@Z 40131380 f i ui_main.obj
 0002:00033380       ?__global_delete@@YAXPAXI@Z 40131380 f i ui_main.obj
 0002:000333d0       ?sin@@YAMM@Z               401313d0 f i ui_main.obj
 0002:00033430       ?strchr@@YAPADQADH@Z       40131430 f i ui_main.obj
 0002:00033580       ?strstr@@YAPADQADQBD@Z     40131580 f i ui_main.obj
 0002:000335e0       __JustMyCode_Default       401315e0 f i ui_main.obj
 0002:000335f0       _sinf                      401315f0 f i ui_main.obj
 0002:00033670       _vmMain                    40131670 f   ui_main.obj
 0002:00033860       ??$?0$$V@?$_Compressed_pair@V?$allocator@D@std@@V?$_String_val@U?$_Simple_types@D@std@@@2@$00@std@@QAE@U_Zero_then_variadic_args_t@1@@Z 40131860 f i static.obj
 0002:000338d0       ??$?0$$V@?$_Compressed_pair@V?$allocator@U?$_List_node@PAVCvar@cvar@@PAX@std@@@std@@V?$_List_val@U?$_List_simple_types@PAVCvar@cvar@@@std@@@2@$00@std@@QAE@U_Zero_then_variadic_args_t@1@@Z 401318d0 f i static.obj
 0002:00033940       ??$?0D@?$allocator@U_Container_proxy@std@@@std@@QAE@ABV?$allocator@D@1@@Z 40131940 f i static.obj
 0002:000339a0       ??$?0U?$_List_node@PAVCvar@cvar@@PAX@std@@@?$allocator@U_Container_proxy@std@@@std@@QAE@ABV?$allocator@U?$_List_node@PAVCvar@cvar@@PAX@std@@@1@@Z 401319a0 f i static.obj
 0002:00033a00       ??$_Allocate@$07U_Default_allocate_traits@std@@@std@@YAPAXI@Z 40131a00 f i static.obj
 0002:00033a80       ??$_Allocate_at_least_helper@V?$allocator@D@std@@@std@@YAPADAAV?$allocator@D@0@AAI@Z 40131a80 f i static.obj
 0002:00033ae0       ??$_Allocate_for_capacity@$0A@@?$basic_string@DU?$char_traits@D@std@@V?$allocator@D@2@@std@@CAPADAAV?$allocator@D@1@AAI@Z 40131ae0 f i static.obj
 0002:00033b70       ??$_Allocate_manually_vector_aligned@U_Default_allocate_traits@std@@@std@@YAPAXI@Z 40131b70 f i static.obj
 0002:00033c70       ??$_Construct@$00PBD@?$basic_string@DU?$char_traits@D@std@@V?$allocator@D@2@@std@@AAEXQBDI@Z 40131c70 f i static.obj
 0002:00033f50       ??$_Construct_in_place@PADABQAD@std@@YAXAAPADABQAD@Z 40131f50 f i static.obj
 0002:00033fe0       ??$_Construct_in_place@PAU?$_List_node@PAVCvar@cvar@@PAX@std@@AAPAU12@@std@@YAXAAPAU?$_List_node@PAVCvar@cvar@@PAX@0@0@Z 40131fe0 f i static.obj
 0002:00034070       ??$_Construct_in_place@U_Container_proxy@std@@PAU_Container_base12@2@@std@@YAXAAU_Container_proxy@0@$$QAPAU_Container_base12@0@@Z 40132070 f i static.obj
 0002:00034100       ??$_Convert_size@II@std@@YAII@Z 40132100 f i static.obj
 0002:00034150       ??$_Deallocate@$07@std@@YAXPAXI@Z 40132150 f i static.obj
 0002:00034210       ??$_Deallocate_plain@V?$allocator@U_Container_proxy@std@@@std@@@std@@YAXAAV?$allocator@U_Container_proxy@std@@@0@QAU_Container_proxy@0@@Z 40132210 f i static.obj
 0002:00034270       ??$_Delete_plain_internal@V?$allocator@U_Container_proxy@std@@@std@@@std@@YAXAAV?$allocator@U_Container_proxy@std@@@0@QAU_Container_proxy@0@@Z 40132270 f i static.obj
 0002:000342d0       ??$_Destroy_in_place@PAD@std@@YAXAAPAD@Z 401322d0 f i static.obj
 0002:00034320       ??$_Destroy_in_place@PAU?$_List_node@PAVCvar@cvar@@PAX@std@@@std@@YAXAAPAU?$_List_node@PAVCvar@cvar@@PAX@0@@Z 40132320 f i static.obj
 0002:00034370       ??$_Free_non_head@V?$allocator@U?$_List_node@PAVCvar@cvar@@PAX@std@@@std@@@?$_List_node@PAVCvar@cvar@@PAX@std@@SAXAAV?$allocator@U?$_List_node@PAVCvar@cvar@@PAX@std@@@1@PAU01@@Z 40132370 f i static.obj
 0002:00034410       ??$_Freenode0@V?$allocator@U?$_List_node@PAVCvar@cvar@@PAX@std@@@std@@@?$_List_node@PAVCvar@cvar@@PAX@std@@SAXAAV?$allocator@U?$_List_node@PAVCvar@cvar@@PAX@std@@@1@PAU01@@Z 40132410 f i static.obj
 0002:00034490       ??$_Freenode@V?$allocator@U?$_List_node@PAVCvar@cvar@@PAX@std@@@std@@@?$_List_node@PAVCvar@cvar@@PAX@std@@SAXAAV?$allocator@U?$_List_node@PAVCvar@cvar@@PAX@std@@@1@PAU01@@Z 40132490 f i static.obj
 0002:00034550       ??$_Get_proxy_allocator@V?$allocator@D@std@@@std@@YA?AV?$allocator@U_Container_proxy@std@@@0@ABV?$allocator@D@0@@Z 40132550 f i static.obj
 0002:000345b0       ??$_Get_proxy_allocator@V?$allocator@U?$_List_node@PAVCvar@cvar@@PAX@std@@@std@@@std@@YA?AV?$allocator@U_Container_proxy@std@@@0@ABV?$allocator@U?$_List_node@PAVCvar@cvar@@PAX@std@@@0@@Z 401325b0 f i static.obj
 0002:00034610       ??$_Get_size_of_n@$00@std@@YAII@Z 40132610 f i static.obj
 0002:00034670       ??$_Get_size_of_n@$07@std@@YAII@Z 40132670 f i static.obj
 0002:000346e0       ??$_Get_size_of_n@$0M@@std@@YAII@Z 401326e0 f i static.obj
 0002:00034750       ??$_Max_limit@H@std@@YAHXZ 40132750 f i static.obj
 0002:000347b0       ??$_Traits_copy_batch@U?$char_traits@D@std@@D@std@@YAXQADQBDI@Z 401327b0 f i static.obj
 0002:00034810       ??$_Unfancy@D@std@@YAPADPAD@Z 40132810 f i static.obj
 0002:00034860       ??$_Unfancy@U_Container_proxy@std@@@std@@YAPAU_Container_proxy@0@PAU10@@Z 40132860 f i static.obj
 0002:000348b0       ??$addressof@PAD@std@@YAPAPADAAPAD@Z 401328b0 f i static.obj
 0002:00034900       ??$addressof@PAU?$_List_node@PAVCvar@cvar@@PAX@std@@@std@@YAPAPAU?$_List_node@PAVCvar@cvar@@PAX@0@AAPAU10@@Z 40132900 f i static.obj
 0002:00034950       ??$addressof@PAVCvar@cvar@@@std@@YAPAPAVCvar@cvar@@AAPAV12@@Z 40132950 f i static.obj
 0002:000349a0       ??$addressof@U_Container_base12@std@@@std@@YAPAU_Container_base12@0@AAU10@@Z 401329a0 f i static.obj
 0002:000349f0       ??$addressof@U_Container_proxy@std@@@std@@YAPAU_Container_proxy@0@AAU10@@Z 401329f0 f i static.obj
 0002:00034a40       ??$destroy@PAVCvar@cvar@@@?$_Default_allocator_traits@V?$allocator@U?$_List_node@PAVCvar@cvar@@PAX@std@@@std@@@std@@SAXAAV?$allocator@U?$_List_node@PAVCvar@cvar@@PAX@std@@@1@QAPAVCvar@cvar@@@Z 40132a40 f i static.obj
 0002:00034a90       ??$exchange@PAU_Iterator_base12@std@@$$T@std@@YAPAU_Iterator_base12@0@AAPAU10@$$QA$$T@Z 40132a90 f i static.obj
 0002:00034b00       ??$forward@AAPAU?$_List_node@PAVCvar@cvar@@PAX@std@@@std@@YAAAPAU?$_List_node@PAVCvar@cvar@@PAX@0@AAPAU10@@Z 40132b00 f i static.obj
 0002:00034b50       ??$forward@ABQAD@std@@YAABQADABQAD@Z 40132b50 f i static.obj
 0002:00034ba0       ??$forward@PAU_Container_base12@std@@@std@@YA$$QAPAU_Container_base12@0@AAPAU10@@Z 40132ba0 f i static.obj
 0002:00034bf0       ??$max@I@std@@YAABIABI0@Z  40132bf0 f i static.obj
 0002:00034c80       ??$min@I@std@@YAABIABI0@Z  40132c80 f i static.obj
 0002:00034d10       ??0?$_Container_proxy_ptr12@V?$allocator@U_Container_proxy@std@@@std@@@std@@QAE@AAV?$allocator@U_Container_proxy@std@@@1@AAU_Container_base12@1@@Z 40132d10 f i static.obj
 0002:00034de0       ??0?$_List_val@U?$_List_simple_types@PAVCvar@cvar@@@std@@@std@@QAE@XZ 40132de0 f i static.obj
 0002:00034e60       ??0?$_String_val@U?$_Simple_types@D@std@@@std@@QAE@XZ 40132e60 f i static.obj
 0002:00034ef0       ??0?$allocator@D@std@@QAE@XZ 40132ef0 f i static.obj
 0002:00034f50       ??0?$allocator@U?$_List_node@PAVCvar@cvar@@PAX@std@@@std@@QAE@XZ 40132f50 f i static.obj
 0002:00034fb0       ??0?$basic_string@DU?$char_traits@D@std@@V?$allocator@D@2@@std@@QAE@QBD@Z 40132fb0 f i static.obj
 0002:00035090       ??0?$list@PAVCvar@cvar@@V?$allocator@PAVCvar@cvar@@@std@@@std@@QAE@XZ 40133090 f i static.obj
 0002:00035110       ??0_Basic_container_proxy_ptr12@std@@IAE@XZ 40133110 f i static.obj
 0002:00035170       ??0_Bxty@?$_String_val@U?$_Simple_types@D@std@@@std@@QAE@XZ 40133170 f i static.obj
 0002:000351e0       ??0_Container_base12@std@@QAE@XZ 401331e0 f i static.obj
 0002:00035240       ??0_Container_proxy@std@@QAE@PAU_Container_base12@1@@Z 40133240 f i static.obj
 0002:000352b0       ??0bad_alloc@std@@AAE@QBD@Z 401332b0 f i static.obj
 0002:00035330       ??0bad_alloc@std@@QAE@ABV01@@Z 40133330 f i static.obj
 0002:000353a0       ??0bad_array_new_length@std@@QAE@ABV01@@Z 401333a0 f i static.obj
 0002:00035410       ??0bad_array_new_length@std@@QAE@XZ 40133410 f i static.obj
 0002:00035480       ??0exception@std@@QAE@ABV01@@Z 40133480 f i static.obj
 0002:00035510       ??0exception@std@@QAE@QBDH@Z 40133510 f i static.obj
 0002:00035590       ??1?$_Compressed_pair@V?$allocator@D@std@@V?$_String_val@U?$_Simple_types@D@std@@@2@$00@std@@QAE@XZ 40133590 f i static.obj
 0002:000355e0       ??1?$_Container_proxy_ptr12@V?$allocator@U_Container_proxy@std@@@std@@@std@@QAE@XZ 401335e0 f i static.obj
 0002:00035660       ??1?$_String_val@U?$_Simple_types@D@std@@@std@@QAE@XZ 40133660 f i static.obj
 0002:000356b0       ??1?$basic_string@DU?$char_traits@D@std@@V?$allocator@D@2@@std@@QAE@XZ 401336b0 f i static.obj
 0002:000357a0       ??1?$list@PAVCvar@cvar@@V?$allocator@PAVCvar@cvar@@@std@@@std@@QAE@XZ 401337a0 f i static.obj
 0002:00035870       ??1_Bxty@?$_String_val@U?$_Simple_types@D@std@@@std@@QAE@XZ 40133870 f i static.obj
 0002:000358c0       ??1bad_alloc@std@@UAE@XZ   401338c0 f i static.obj
 0002:00035910       ??1bad_array_new_length@std@@UAE@XZ 40133910 f i static.obj
 0002:00035960       ??1exception@std@@UAE@XZ   40133960 f i static.obj
 0002:000359d0       ??2@YAPAXIPAX@Z            401339d0 f i static.obj
 0002:00035a20       ??_Ebad_alloc@std@@UAEPAXI@Z 40133a20 f i static.obj
 0002:00035a20       ??_Gbad_alloc@std@@UAEPAXI@Z 40133a20 f i static.obj
 0002:00035a90       ??_Ebad_array_new_length@std@@UAEPAXI@Z 40133a90 f i static.obj
 0002:00035a90       ??_Gbad_array_new_length@std@@UAEPAXI@Z 40133a90 f i static.obj
 0002:00035b00       ??_Eexception@std@@UAEPAXI@Z 40133b00 f i static.obj
 0002:00035b00       ??_Gexception@std@@UAEPAXI@Z 40133b00 f i static.obj
 0002:00035b70       ?_Adjust_manually_vector_aligned@std@@YAXAAPAXAAI@Z 40133b70 f i static.obj
 0002:00035cb0       ?_Alloc_sentinel_and_proxy@?$list@PAVCvar@cvar@@V?$allocator@PAVCvar@cvar@@@std@@@std@@AAEXXZ 40133cb0 f i static.obj
 0002:00035e50       ?_Allocate@_Default_allocate_traits@std@@SAPAXI@Z 40133e50 f i static.obj
 0002:00035eb0       ?_Calculate_growth@?$basic_string@DU?$char_traits@D@std@@V?$allocator@D@2@@std@@CAIIII@Z 40133eb0 f i static.obj
 0002:00035fa0       ?_Deallocate_for_capacity@?$basic_string@DU?$char_traits@D@std@@V?$allocator@D@2@@std@@CAXAAV?$allocator@D@2@QADI@Z 40133fa0 f i static.obj
 0002:00036000       ?_Get_first@?$_Compressed_pair@V?$allocator@D@std@@V?$_String_val@U?$_Simple_types@D@std@@@2@$00@std@@QAEAAV?$allocator@D@2@XZ 40134000 f i static.obj
 0002:00036060       ?_Get_first@?$_Compressed_pair@V?$allocator@D@std@@V?$_String_val@U?$_Simple_types@D@std@@@2@$00@std@@QBEABV?$allocator@D@2@XZ 40134060 f i static.obj
 0002:000360c0       ?_Get_first@?$_Compressed_pair@V?$allocator@U?$_List_node@PAVCvar@cvar@@PAX@std@@@std@@V?$_List_val@U?$_List_simple_types@PAVCvar@cvar@@@std@@@2@$00@std@@QAEAAV?$allocator@U?$_List_node@PAVCvar@cvar@@PAX@std@@@2@XZ 401340c0 f i static.obj
 0002:00036120       ?_Getal@?$basic_string@DU?$char_traits@D@std@@V?$allocator@D@2@@std@@AAEAAV?$allocator@D@2@XZ 40134120 f i static.obj
 0002:00036180       ?_Getal@?$basic_string@DU?$char_traits@D@std@@V?$allocator@D@2@@std@@ABEABV?$allocator@D@2@XZ 40134180 f i static.obj
 0002:000361e0       ?_Getal@?$list@PAVCvar@cvar@@V?$allocator@PAVCvar@cvar@@@std@@@std@@AAEAAV?$allocator@U?$_List_node@PAVCvar@cvar@@PAX@std@@@2@XZ 401341e0 f i static.obj
 0002:00036240       ?_Large_mode_engaged@?$_String_val@U?$_Simple_types@D@std@@@std@@QBE_NXZ 40134240 f i static.obj
 0002:000362c0       ?_Orphan_all@_Container_base12@std@@QAEXXZ 401342c0 f i static.obj
 0002:00036320       ?_Orphan_all_locked_v3@_Container_base12@std@@AAEXXZ 40134320 f i static.obj
 0002:000363d0       ?_Orphan_all_unlocked_v3@_Container_base12@std@@AAEXXZ 401343d0 f i static.obj
 0002:00036480       ?_Release@_Basic_container_proxy_ptr12@std@@QAEXXZ 40134480 f i static.obj
 0002:000364e0       ?_Switch_to_buf@_Bxty@?$_String_val@U?$_Simple_types@D@std@@@std@@QAEXXZ 401344e0 f i static.obj
 0002:00036540       ?_Throw_bad_array_new_length@std@@YAXXZ 40134540 f i static.obj
 0002:000365b0       ?_Tidy@?$list@PAVCvar@cvar@@V?$allocator@PAVCvar@cvar@@@std@@@std@@AAEXXZ 401345b0 f i static.obj
 0002:00036650       ?_Tidy_deallocate@?$basic_string@DU?$char_traits@D@std@@V?$allocator@D@2@@std@@AAEXXZ 40134650 f i static.obj
 0002:00036750       ?_Xlen_string@std@@YAXXZ   40134750 f i static.obj
 0002:000367b0       ?allocate@?$allocator@D@std@@QAEPADI@Z 401347b0 f i static.obj
 0002:00036820       ?allocate@?$allocator@U?$_List_node@PAVCvar@cvar@@PAX@std@@@std@@QAEPAU?$_List_node@PAVCvar@cvar@@PAX@2@I@Z 40134820 f i static.obj
 0002:00036890       ?allocate@?$allocator@U_Container_proxy@std@@@std@@QAEPAU_Container_proxy@2@I@Z 40134890 f i static.obj
 0002:00036900       ?assign@?$_Narrow_char_traits@DH@std@@SAXAADABD@Z 40134900 f i static.obj
 0002:00036950       ?copy@?$_Char_traits@DH@std@@SAPADQADQBDI@Z 40134950 f i static.obj
 0002:000369b0       ?deallocate@?$_Default_allocator_traits@V?$allocator@U?$_List_node@PAVCvar@cvar@@PAX@std@@@std@@@std@@SAXAAV?$allocator@U?$_List_node@PAVCvar@cvar@@PAX@std@@@2@QAU?$_List_node@PAVCvar@cvar@@PAX@2@I@Z 401349b0 f i static.obj
 0002:00036a10       ?deallocate@?$_Default_allocator_traits@V?$allocator@U_Container_proxy@std@@@std@@@std@@SAXAAV?$allocator@U_Container_proxy@std@@@2@QAU_Container_proxy@2@I@Z 40134a10 f i static.obj
 0002:00036a70       ?deallocate@?$allocator@D@std@@QAEXQADI@Z 40134a70 f i static.obj
 0002:00036b20       ?length@?$_Narrow_char_traits@DH@std@@SAIQBD@Z 40134b20 f i static.obj
 0002:00036b80       ?max_size@?$_Default_allocator_traits@V?$allocator@D@std@@@std@@SAIABV?$allocator@D@2@@Z 40134b80 f i static.obj
 0002:00036bd0       ?max_size@?$basic_string@DU?$char_traits@D@std@@V?$allocator@D@2@@std@@QBEIXZ 40134bd0 f i static.obj
 0002:00036ce0       ?what@exception@std@@UBEPBDXZ 40134ce0 f i static.obj
 0002:00036d60       ?Com_DPrintf@@YAXPBDZZ     40134d60 f   ui_atoms.obj
 0002:00036e80       ?Com_Error@@YAXHPBDZZ      40134e80 f   ui_atoms.obj
 0002:00036f80       ?Com_Printf@@YAXPBDZZ      40134f80 f   ui_atoms.obj
 0002:00037080       ?UI_AdjustFrom640@@YAXPAM000@Z 40135080 f   ui_atoms.obj
 0002:00037140       ?UI_Argv@@YAPADH@Z         40135140 f   ui_atoms.obj
 0002:00037250       ?UI_ClampCvar@@YAMMMM@Z    40135250 f   ui_atoms.obj
 0002:000372c0       ?UI_ClearScores@@YAXXZ     401352c0 f   ui_atoms.obj
 0002:00037310       ?UI_ConsoleCommand@@YA?AW4qboolean@@H@Z 40135310 f   ui_atoms.obj
 0002:00037630       ?UI_CursorInRect@@YA?AW4qboolean@@HHHH@Z 40135630 f   ui_atoms.obj
 0002:000376c0       ?UI_Cvar_VariableString@@YAPADPBD@Z 401356c0 f   ui_atoms.obj
 0002:00037750       ?UI_DrawHandlePic@@YAXMMMMH@Z 40135750 f   ui_atoms.obj
 0002:000378f0       ?UI_DrawNamedPic@@YAXMMMMPBD@Z 401358f0 f   ui_atoms.obj
 0002:000379f0       ?UI_DrawRect@@YAXMMMMPBM@Z 401359f0 f   ui_atoms.obj
 0002:00037ae0       ?UI_DrawRotatedPic@@YAXMMMMHM@Z 40135ae0 f   ui_atoms.obj
 0002:00037bd0       ?UI_DrawSides@@YAXMMMM@Z   40135bd0 f   ui_atoms.obj
 0002:00037d40       ?UI_DrawTextBox@@YAXHHHH@Z 40135d40 f   ui_atoms.obj
 0002:00037e60       ?UI_DrawTopBottom@@YAXMMMM@Z 40135e60 f   ui_atoms.obj
 0002:00037fd0       ?UI_FillRect@@YAXMMMMPBM@Z 40135fd0 f   ui_atoms.obj
 0002:000380d0       ?UI_LoadBestScores@@YAXPBDH@Z 401360d0 f   ui_atoms.obj
 0002:00038120       ?UI_SetColor@@YAXPBM@Z     40136120 f   ui_atoms.obj
 0002:00038180       ?UI_Shutdown@@YAXXZ        40136180 f   ui_atoms.obj
 0002:000381d0       ?UI_UpdateScreen@@YAXXZ    401361d0 f   ui_atoms.obj
 0002:00038220       ?UI_DescriptionForCampaign@@YAPBDXZ 40136220 f   ui_gameinfo.obj
 0002:00038380       ?UI_FindCampaignInCampaignList@@YAHPBD@Z 40136380 f   ui_gameinfo.obj
 0002:00038430       ?UI_FindMapInfoByMapname@@YAPAUmapInfo@@PBD@Z 40136430 f   ui_gameinfo.obj
 0002:000384f0       ?UI_GetBotInfoByName@@YAPADPBD@Z 401364f0 f   ui_gameinfo.obj
 0002:000385b0       ?UI_GetBotInfoByNumber@@YAPADH@Z 401365b0 f   ui_gameinfo.obj
 0002:00038640       ?UI_GetBotNameByNumber@@YAPADH@Z 40136640 f   ui_gameinfo.obj
 0002:000386c0       ?UI_GetNumBots@@YAHXZ      401366c0 f   ui_gameinfo.obj
 0002:00038710       ?UI_LoadArenas@@YAXXZ      40136710 f   ui_gameinfo.obj
 0002:00039210       ?UI_LoadBots@@YAXXZ        40137210 f   ui_gameinfo.obj
 0002:00039670       ?UI_LoadCampaigns@@YAXXZ   40137670 f   ui_gameinfo.obj
 0002:0003a650       ?UI_NameForCampaign@@YAPBDXZ 40138650 f   ui_gameinfo.obj
 0002:0003a7b0       ?UI_ParseInfos@@YAHPADHQAPADH@Z 401387b0 f   ui_gameinfo.obj
 0002:0003aae0       ?UI_LoadPanel_RenderHeaderText@@YAXPAUpanel_button_s@@@Z 40138ae0 f   ui_loadpanel.obj
 0002:0003ac30       ?UI_LoadPanel_RenderLoadingText@@YAXPAUpanel_button_s@@@Z 40138c30 f   ui_loadpanel.obj
 0002:0003b1d0       ?MiniAngleToAxis@@YAXMQAY01M@Z 401391d0 f   ui_loadpanel.obj
 0002:0003b330       ?SetupRotatedThing@@YAXPAUpolyVert_t@@QAMMMM@Z 40139330 f   ui_loadpanel.obj
 0002:0003ba90       ?UI_DownloadInfo@@YAPBDPBD@Z 40139a90 f   ui_loadpanel.obj
 0002:0003bff0       ?UI_DrawLoadPanel@@YAXW4qboolean@@00@Z 40139ff0 f   ui_loadpanel.obj
 0002:0003c180       ?UI_LoadPanel_RenderPercentageMeter@@YAXPAUpanel_button_s@@@Z 4013a180 f   ui_loadpanel.obj
 0002:0003c370       ?cos@@YAMM@Z               4013a370 f i ui_loadpanel.obj
 0002:0003c3d0       _cosf                      4013a3d0 f i ui_loadpanel.obj
 0002:0003c450       ??$atan2@HM$0A@@@YANHM@Z   4013a450 f i ui_players.obj
 0002:0003cfa0       ?UI_DrawPlayer@@YAXMMMMPAUplayerInfo_t@@H@Z 4013afa0 f   ui_players.obj
 0002:0003e4c0       ?UI_MachinegunSpinAngle@@YAMPAUplayerInfo_t@@@Z 4013c4c0 f   ui_players.obj
 0002:0003f3c0       ?UI_PlayerInfo_SetInfo@@YAXPAUplayerInfo_t@@HHQAM1W4weapon_t@@W4qboolean@@@Z 4013d3c0 f   ui_players.obj
 0002:0003f900       ?UI_PlayerInfo_SetModel@@YAXPAUplayerInfo_t@@PBD@Z 4013d900 f   ui_players.obj
 0002:00040300       ?UI_RegisterClientModelname@@YA?AW4qboolean@@PAUplayerInfo_t@@PBD@Z 4013e300 f   ui_players.obj
 0002:00040f30       ?fabs@@YAMM@Z              4013ef30 f i ui_players.obj
 0002:00040f90       ?tan@@YAMM@Z               4013ef90 f i ui_players.obj
 0002:00040ff0       _fabsf                     4013eff0 f i ui_players.obj
 0002:00041070       _tanf                      4013f070 f i ui_players.obj
 0002:000410f0       ?Script_SetColor@@YAXPAUitemDef_s@@PAW4qboolean@@PAPAD@Z 4013f0f0 f   ui_shared.obj
 0002:000412c0       ?Script_SetAsset@@YAXPAUitemDef_s@@PAW4qboolean@@PAPAD@Z 4013f2c0 f   ui_shared.obj
 0002:00041360       ?Script_SetBackground@@YAXPAUitemDef_s@@PAW4qboolean@@PAPAD@Z 4013f360 f   ui_shared.obj
 0002:00041430       ?Script_SetTeamColor@@YAXPAUitemDef_s@@PAW4qboolean@@PAPAD@Z 4013f430 f   ui_shared.obj
 0002:00041540       ?Script_SetItemColor@@YAXPAUitemDef_s@@PAW4qboolean@@PAPAD@Z 4013f540 f   ui_shared.obj
 0002:000417d0       ?Script_SetMenuItemColor@@YAXPAUitemDef_s@@PAW4qboolean@@PAPAD@Z 4013f7d0 f   ui_shared.obj
 0002:00041ac0       ?Script_Show@@YAXPAUitemDef_s@@PAW4qboolean@@PAPAD@Z 4013fac0 f   ui_shared.obj
 0002:00041b80       ?Script_Hide@@YAXPAUitemDef_s@@PAW4qboolean@@PAPAD@Z 4013fb80 f   ui_shared.obj
 0002:00041c40       ?Script_FadeIn@@YAXPAUitemDef_s@@PAW4qboolean@@PAPAD@Z 4013fc40 f   ui_shared.obj
 0002:00041d00       ?Script_FadeOut@@YAXPAUitemDef_s@@PAW4qboolean@@PAPAD@Z 4013fd00 f   ui_shared.obj
 0002:00041dc0       ?Script_Open@@YAXPAUitemDef_s@@PAW4qboolean@@PAPAD@Z 4013fdc0 f   ui_shared.obj
 0002:00041e70       ?Script_FadeInMenu@@YAXPAUitemDef_s@@PAW4qboolean@@PAPAD@Z 4013fe70 f   ui_shared.obj
 0002:00041f30       ?Script_FadeOutMenu@@YAXPAUitemDef_s@@PAW4qboolean@@PAPAD@Z 4013ff30 f   ui_shared.obj
 0002:00041ff0       ?Script_ConditionalOpen@@YAXPAUitemDef_s@@PAW4qboolean@@PAPAD@Z 4013fff0 f   ui_shared.obj
 0002:00042270       ?Script_ConditionalScript@@YAXPAUitemDef_s@@PAW4qboolean@@PAPAD@Z 40140270 f   ui_shared.obj
 0002:000435d0       ?Script_Close@@YAXPAUitemDef_s@@PAW4qboolean@@PAPAD@Z 401415d0 f   ui_shared.obj
 0002:00043680       ?Script_CloseAll@@YAXPAUitemDef_s@@PAW4qboolean@@PAPAD@Z 40141680 f   ui_shared.obj
 0002:000436d0       ?Script_CloseAllOtherMenus@@YAXPAUitemDef_s@@PAW4qboolean@@PAPAD@Z 401416d0 f   ui_shared.obj
 0002:000437a0       ?Script_Clipboard@@YAXPAUitemDef_s@@PAW4qboolean@@PAPAD@Z 401417a0 f   ui_shared.obj
 0002:000437f0       ?Script_NotebookShowpage@@YAXPAUitemDef_s@@PAW4qboolean@@PAPAD@Z 401417f0 f   ui_shared.obj
 0002:00043840       ?Script_Transition@@YAXPAUitemDef_s@@PAW4qboolean@@PAPAD@Z 40141840 f   ui_shared.obj
 0002:00043a50       ?Script_Orbit@@YAXPAUitemDef_s@@PAW4qboolean@@PAPAD@Z 40141a50 f   ui_shared.obj
 0002:00043c70       ?Script_SetFocus@@YAXPAUitemDef_s@@PAW4qboolean@@PAPAD@Z 40141c70 f   ui_shared.obj
 0002:00043e00       ?Script_ClearFocus@@YAXPAUitemDef_s@@PAW4qboolean@@PAPAD@Z 40141e00 f   ui_shared.obj
 0002:00043e60       ?Script_SetPlayerModel@@YAXPAUitemDef_s@@PAW4qboolean@@PAPAD@Z 40141e60 f   ui_shared.obj
 0002:00043f30       ?Script_SetPlayerHead@@YAXPAUitemDef_s@@PAW4qboolean@@PAPAD@Z 40141f30 f   ui_shared.obj
 0002:00044000       ?Script_ClearCvar@@YAXPAUitemDef_s@@PAW4qboolean@@PAPAD@Z 40142000 f   ui_shared.obj
 0002:000440c0       ?Script_SetCvar@@YAXPAUitemDef_s@@PAW4qboolean@@PAPAD@Z 401420c0 f   ui_shared.obj
 0002:000441c0       ?Script_CopyCvar@@YAXPAUitemDef_s@@PAW4qboolean@@PAPAD@Z 401421c0 f   ui_shared.obj
 0002:00044330       ?Script_Exec@@YAXPAUitemDef_s@@PAW4qboolean@@PAPAD@Z 40142330 f   ui_shared.obj
 0002:00044410       ?Script_ExecNOW@@YAXPAUitemDef_s@@PAW4qboolean@@PAPAD@Z 40142410 f   ui_shared.obj
 0002:000444f0       ?Script_Play@@YAXPAUitemDef_s@@PAW4qboolean@@PAPAD@Z 401424f0 f   ui_shared.obj
 0002:000445e0       ?Script_playLooped@@YAXPAUitemDef_s@@PAW4qboolean@@PAPAD@Z 401425e0 f   ui_shared.obj
 0002:000446d0       ?Script_AddListItem@@YAXPAUitemDef_s@@PAW4qboolean@@PAPAD@Z 401426d0 f   ui_shared.obj
 0002:00044880       ?Script_CheckAutoUpdate@@YAXPAUitemDef_s@@PAW4qboolean@@PAPAD@Z 40142880 f   ui_shared.obj
 0002:000448e0       ?Script_GetAutoUpdate@@YAXPAUitemDef_s@@PAW4qboolean@@PAPAD@Z 401428e0 f   ui_shared.obj
 0002:00044940       ?Script_SetMenuFocus@@YAXPAUitemDef_s@@PAW4qboolean@@PAPAD@Z 40142940 f   ui_shared.obj
 0002:00044a30       ?Script_ExecWolfConfig@@YAXPAUitemDef_s@@PAW4qboolean@@PAPAD@Z 40142a30 f   ui_shared.obj
 0002:00044cc0       ?Script_SetEditFocus@@YAXPAUitemDef_s@@PAW4qboolean@@PAPAD@Z 40142cc0 f   ui_shared.obj
 0002:00044ea0       ?Script_Abort@@YAXPAUitemDef_s@@PAW4qboolean@@PAPAD@Z 40142ea0 f   ui_shared.obj
 0002:00044ef0       ?ItemParse_name@@YA?AW4qboolean@@PAUitemDef_s@@H@Z 40142ef0 f   ui_shared.obj
 0002:00044f60       ?ItemParse_focusSound@@YA?AW4qboolean@@PAUitemDef_s@@H@Z 40142f60 f   ui_shared.obj
 0002:00045040       ?ItemParse_text@@YA?AW4qboolean@@PAUitemDef_s@@H@Z 40143040 f   ui_shared.obj
 0002:000450b0       ?ItemParse_textfile@@YA?AW4qboolean@@PAUitemDef_s@@H@Z 401430b0 f   ui_shared.obj
 0002:000451c0       ?ItemParse_group@@YA?AW4qboolean@@PAUitemDef_s@@H@Z 401431c0 f   ui_shared.obj
 0002:00045230       ?ItemParse_asset_model@@YA?AW4qboolean@@PAUitemDef_s@@H@Z 40143230 f   ui_shared.obj
 0002:00045340       ?ItemParse_asset_shader@@YA?AW4qboolean@@PAUitemDef_s@@H@Z 40143340 f   ui_shared.obj
 0002:00045420       ?ItemParse_model_origin@@YA?AW4qboolean@@PAUitemDef_s@@H@Z 40143420 f   ui_shared.obj
 0002:00045510       ?ItemParse_model_fovx@@YA?AW4qboolean@@PAUitemDef_s@@H@Z 40143510 f   ui_shared.obj
 0002:000455a0       ?ItemParse_model_fovy@@YA?AW4qboolean@@PAUitemDef_s@@H@Z 401435a0 f   ui_shared.obj
 0002:00045630       ?ItemParse_model_rotation@@YA?AW4qboolean@@PAUitemDef_s@@H@Z 40143630 f   ui_shared.obj
 0002:000456c0       ?ItemParse_model_angle@@YA?AW4qboolean@@PAUitemDef_s@@H@Z 401436c0 f   ui_shared.obj
 0002:00045750       ?ItemParse_model_animplay@@YA?AW4qboolean@@PAUitemDef_s@@H@Z 40143750 f   ui_shared.obj
 0002:000458a0       ?ItemParse_rect@@YA?AW4qboolean@@PAUitemDef_s@@H@Z 401438a0 f   ui_shared.obj
 0002:00045900       ?ItemParse_origin@@YA?AW4qboolean@@PAUitemDef_s@@H@Z 40143900 f   ui_shared.obj
 0002:00045a20       ?ItemParse_style@@YA?AW4qboolean@@PAUitemDef_s@@H@Z 40143a20 f   ui_shared.obj
 0002:00045a90       ?ItemParse_decoration@@YA?AW4qboolean@@PAUitemDef_s@@H@Z 40143a90 f   ui_shared.obj
 0002:00045af0       ?ItemParse_textasint@@YA?AW4qboolean@@PAUitemDef_s@@H@Z 40143af0 f   ui_shared.obj
 0002:00045b50       ?ItemParse_textasfloat@@YA?AW4qboolean@@PAUitemDef_s@@H@Z 40143b50 f   ui_shared.obj
 0002:00045bb0       ?ItemParse_notselectable@@YA?AW4qboolean@@PAUitemDef_s@@H@Z 40143bb0 f   ui_shared.obj
 0002:00045c50       ?ItemParse_wrapped@@YA?AW4qboolean@@PAUitemDef_s@@H@Z 40143c50 f   ui_shared.obj
 0002:00045cb0       ?ItemParse_autowrapped@@YA?AW4qboolean@@PAUitemDef_s@@H@Z 40143cb0 f   ui_shared.obj
 0002:00045d10       ?ItemParse_horizontalscroll@@YA?AW4qboolean@@PAUitemDef_s@@H@Z 40143d10 f   ui_shared.obj
 0002:00045d70       ?ItemParse_type@@YA?AW4qboolean@@PAUitemDef_s@@H@Z 40143d70 f   ui_shared.obj
 0002:00045df0       ?ItemParse_elementwidth@@YA?AW4qboolean@@PAUitemDef_s@@H@Z 40143df0 f   ui_shared.obj
 0002:00045e80       ?ItemParse_elementheight@@YA?AW4qboolean@@PAUitemDef_s@@H@Z 40143e80 f   ui_shared.obj
 0002:00045f10       ?ItemParse_feeder@@YA?AW4qboolean@@PAUitemDef_s@@H@Z 40143f10 f   ui_shared.obj
 0002:00045f80       ?ItemParse_elementtype@@YA?AW4qboolean@@PAUitemDef_s@@H@Z 40143f80 f   ui_shared.obj
 0002:00046030       ?ItemParse_columns@@YA?AW4qboolean@@PAUitemDef_s@@H@Z 40144030 f   ui_shared.obj
 0002:00046250       ?ItemParse_border@@YA?AW4qboolean@@PAUitemDef_s@@H@Z 40144250 f   ui_shared.obj
 0002:000462c0       ?ItemParse_bordersize@@YA?AW4qboolean@@PAUitemDef_s@@H@Z 401442c0 f   ui_shared.obj
 0002:00046330       ?ItemParse_visible@@YA?AW4qboolean@@PAUitemDef_s@@H@Z 40144330 f   ui_shared.obj
 0002:000463f0       ?ItemParse_ownerdraw@@YA?AW4qboolean@@PAUitemDef_s@@H@Z 401443f0 f   ui_shared.obj
 0002:00046470       ?ItemParse_align@@YA?AW4qboolean@@PAUitemDef_s@@H@Z 40144470 f   ui_shared.obj
 0002:000464e0       ?ItemParse_textalign@@YA?AW4qboolean@@PAUitemDef_s@@H@Z 401444e0 f   ui_shared.obj
 0002:00046550       ?ItemParse_textalignx@@YA?AW4qboolean@@PAUitemDef_s@@H@Z 40144550 f   ui_shared.obj
 0002:000465c0       ?ItemParse_textaligny@@YA?AW4qboolean@@PAUitemDef_s@@H@Z 401445c0 f   ui_shared.obj
 0002:00046630       ?ItemParse_textscale@@YA?AW4qboolean@@PAUitemDef_s@@H@Z 40144630 f   ui_shared.obj
 0002:000466a0       ?ItemParse_textstyle@@YA?AW4qboolean@@PAUitemDef_s@@H@Z 401446a0 f   ui_shared.obj
 0002:00046710       ?ItemParse_textfont@@YA?AW4qboolean@@PAUitemDef_s@@H@Z 40144710 f   ui_shared.obj
 0002:00046780       ?ItemParse_backcolor@@YA?AW4qboolean@@PAUitemDef_s@@H@Z 40144780 f   ui_shared.obj
 0002:00046870       ?ItemParse_forecolor@@YA?AW4qboolean@@PAUitemDef_s@@H@Z 40144870 f   ui_shared.obj
 0002:00046970       ?ItemParse_bordercolor@@YA?AW4qboolean@@PAUitemDef_s@@H@Z 40144970 f   ui_shared.obj
 0002:00046a60       ?ItemParse_outlinecolor@@YA?AW4qboolean@@PAUitemDef_s@@H@Z 40144a60 f   ui_shared.obj
 0002:00046ad0       ?ItemParse_background@@YA?AW4qboolean@@PAUitemDef_s@@H@Z 40144ad0 f   ui_shared.obj
 0002:00046bb0       ?ItemParse_cinematic@@YA?AW4qboolean@@PAUitemDef_s@@H@Z 40144bb0 f   ui_shared.obj
 0002:00046c20       ?ItemParse_doubleClick@@YA?AW4qboolean@@PAUitemDef_s@@H@Z 40144c20 f   ui_shared.obj
 0002:00046cd0       ?ItemParse_onEsc@@YA?AW4qboolean@@PAUitemDef_s@@H@Z 40144cd0 f   ui_shared.obj
 0002:00046d40       ?ItemParse_onEnter@@YA?AW4qboolean@@PAUitemDef_s@@H@Z 40144d40 f   ui_shared.obj
 0002:00046db0       ?ItemParse_contextMenu@@YA?AW4qboolean@@PAUitemDef_s@@H@Z 40144db0 f   ui_shared.obj
 0002:00046e60       ?ItemParse_onFocus@@YA?AW4qboolean@@PAUitemDef_s@@H@Z 40144e60 f   ui_shared.obj
 0002:00046ed0       ?ItemParse_leaveFocus@@YA?AW4qboolean@@PAUitemDef_s@@H@Z 40144ed0 f   ui_shared.obj
 0002:00046f40       ?ItemParse_mouseEnter@@YA?AW4qboolean@@PAUitemDef_s@@H@Z 40144f40 f   ui_shared.obj
 0002:00046fb0       ?ItemParse_mouseExit@@YA?AW4qboolean@@PAUitemDef_s@@H@Z 40144fb0 f   ui_shared.obj
 0002:00047020       ?ItemParse_mouseEnterText@@YA?AW4qboolean@@PAUitemDef_s@@H@Z 40145020 f   ui_shared.obj
 0002:00047090       ?ItemParse_mouseExitText@@YA?AW4qboolean@@PAUitemDef_s@@H@Z 40145090 f   ui_shared.obj
 0002:00047100       ?ItemParse_action@@YA?AW4qboolean@@PAUitemDef_s@@H@Z 40145100 f   ui_shared.obj
 0002:00047170       ?ItemParse_accept@@YA?AW4qboolean@@PAUitemDef_s@@H@Z 40145170 f   ui_shared.obj
 0002:000471e0       ?ItemParse_special@@YA?AW4qboolean@@PAUitemDef_s@@H@Z 401451e0 f   ui_shared.obj
 0002:00047250       ?ItemParse_cvarTest@@YA?AW4qboolean@@PAUitemDef_s@@H@Z 40145250 f   ui_shared.obj
 0002:000472c0       ?ItemParse_cvar@@YA?AW4qboolean@@PAUitemDef_s@@H@Z 401452c0 f   ui_shared.obj
 0002:000473c0       ?ItemParse_maxChars@@YA?AW4qboolean@@PAUitemDef_s@@H@Z 401453c0 f   ui_shared.obj
 0002:000474b0       ?ItemParse_maxPaintChars@@YA?AW4qboolean@@PAUitemDef_s@@H@Z 401454b0 f   ui_shared.obj
 0002:000475a0       ?ItemParse_cvarFloat@@YA?AW4qboolean@@PAUitemDef_s@@H@Z 401455a0 f   ui_shared.obj
 0002:000476a0       ?ItemParse_cvarStrList@@YA?AW4qboolean@@PAUitemDef_s@@H@Z 401456a0 f   ui_shared.obj
 0002:00047970       ?ItemParse_cvarFloatList@@YA?AW4qboolean@@PAUitemDef_s@@H@Z 40145970 f   ui_shared.obj
 0002:00047c10       ?ItemParse_cvarListUndefined@@YA?AW4qboolean@@PAUitemDef_s@@H@Z 40145c10 f   ui_shared.obj
 0002:00047d40       ?ItemParse_addColorRangeRel@@YA?AW4qboolean@@PAUitemDef_s@@H@Z 40145d40 f   ui_shared.obj
 0002:00047da0       ?ItemParse_addColorRange@@YA?AW4qboolean@@PAUitemDef_s@@H@Z 40145da0 f   ui_shared.obj
 0002:00047e00       ?ItemParse_ownerdrawFlag@@YA?AW4qboolean@@PAUitemDef_s@@H@Z 40145e00 f   ui_shared.obj
 0002:00047ec0       ?ItemParse_enableCvar@@YA?AW4qboolean@@PAUitemDef_s@@H@Z 40145ec0 f   ui_shared.obj
 0002:00047f40       ?ItemParse_disableCvar@@YA?AW4qboolean@@PAUitemDef_s@@H@Z 40145f40 f   ui_shared.obj
 0002:00047fc0       ?ItemParse_noToggle@@YA?AW4qboolean@@PAUitemDef_s@@H@Z 40145fc0 f   ui_shared.obj
 0002:00048030       ?ItemParse_showCvar@@YA?AW4qboolean@@PAUitemDef_s@@H@Z 40146030 f   ui_shared.obj
 0002:000480b0       ?ItemParse_hideCvar@@YA?AW4qboolean@@PAUitemDef_s@@H@Z 401460b0 f   ui_shared.obj
 0002:00048130       ?ItemParse_execKey@@YA?AW4qboolean@@PAUitemDef_s@@H@Z 40146130 f   ui_shared.obj
 0002:00048210       ?ItemParse_settingDisabled@@YA?AW4qboolean@@PAUitemDef_s@@H@Z 40146210 f   ui_shared.obj
 0002:000482a0       ?ItemParse_settingEnabled@@YA?AW4qboolean@@PAUitemDef_s@@H@Z 401462a0 f   ui_shared.obj
 0002:00048330       ?ItemParse_tooltip@@YA?AW4qboolean@@PAUitemDef_s@@H@Z 40146330 f   ui_shared.obj
 0002:000483e0       ?ItemParse_tooltipalignx@@YA?AW4qboolean@@PAUitemDef_s@@H@Z 401463e0 f   ui_shared.obj
 0002:00048490       ?ItemParse_tooltipaligny@@YA?AW4qboolean@@PAUitemDef_s@@H@Z 40146490 f   ui_shared.obj
 0002:00048540       ?ItemParse_voteFlag@@YA?AW4qboolean@@PAUitemDef_s@@H@Z 40146540 f   ui_shared.obj
 0002:000485a0       ?MenuParse_name@@YA?AW4qboolean@@PAUitemDef_s@@H@Z 401465a0 f   ui_shared.obj
 0002:00048640       ?MenuParse_fullscreen@@YA?AW4qboolean@@PAUitemDef_s@@H@Z 40146640 f   ui_shared.obj
 0002:000486c0       ?MenuParse_rect@@YA?AW4qboolean@@PAUitemDef_s@@H@Z 401466c0 f   ui_shared.obj
 0002:00048730       ?MenuParse_style@@YA?AW4qboolean@@PAUitemDef_s@@H@Z 40146730 f   ui_shared.obj
 0002:000487b0       ?MenuParse_visible@@YA?AW4qboolean@@PAUitemDef_s@@H@Z 401467b0 f   ui_shared.obj
 0002:00048880       ?MenuParse_onOpen@@YA?AW4qboolean@@PAUitemDef_s@@H@Z 40146880 f   ui_shared.obj
 0002:00048900       ?MenuParse_onClose@@YA?AW4qboolean@@PAUitemDef_s@@H@Z 40146900 f   ui_shared.obj
 0002:00048980       ?MenuParse_onESC@@YA?AW4qboolean@@PAUitemDef_s@@H@Z 40146980 f   ui_shared.obj
 0002:00048a00       ?MenuParse_onEnter@@YA?AW4qboolean@@PAUitemDef_s@@H@Z 40146a00 f   ui_shared.obj
 0002:00048a80       ?MenuParse_onTimeout@@YA?AW4qboolean@@PAUitemDef_s@@H@Z 40146a80 f   ui_shared.obj
 0002:00048b20       ?MenuParse_border@@YA?AW4qboolean@@PAUitemDef_s@@H@Z 40146b20 f   ui_shared.obj
 0002:00048ba0       ?MenuParse_borderSize@@YA?AW4qboolean@@PAUitemDef_s@@H@Z 40146ba0 f   ui_shared.obj
 0002:00048c20       ?MenuParse_backcolor@@YA?AW4qboolean@@PAUitemDef_s@@H@Z 40146c20 f   ui_shared.obj
 0002:00048d10       ?MenuParse_forecolor@@YA?AW4qboolean@@PAUitemDef_s@@H@Z 40146d10 f   ui_shared.obj
 0002:00048e10       ?MenuParse_bordercolor@@YA?AW4qboolean@@PAUitemDef_s@@H@Z 40146e10 f   ui_shared.obj
 0002:00048f00       ?MenuParse_focuscolor@@YA?AW4qboolean@@PAUitemDef_s@@H@Z 40146f00 f   ui_shared.obj
 0002:00049010       ?MenuParse_disablecolor@@YA?AW4qboolean@@PAUitemDef_s@@H@Z 40147010 f   ui_shared.obj
 0002:00049100       ?MenuParse_outlinecolor@@YA?AW4qboolean@@PAUitemDef_s@@H@Z 40147100 f   ui_shared.obj
 0002:00049180       ?MenuParse_background@@YA?AW4qboolean@@PAUitemDef_s@@H@Z 40147180 f   ui_shared.obj
 0002:00049260       ?MenuParse_cinematic@@YA?AW4qboolean@@PAUitemDef_s@@H@Z 40147260 f   ui_shared.obj
 0002:000492e0       ?MenuParse_ownerdrawFlag@@YA?AW4qboolean@@PAUitemDef_s@@H@Z 401472e0 f   ui_shared.obj
 0002:000493a0       ?MenuParse_ownerdraw@@YA?AW4qboolean@@PAUitemDef_s@@H@Z 401473a0 f   ui_shared.obj
 0002:00049420       ?MenuParse_popup@@YA?AW4qboolean@@PAUitemDef_s@@H@Z 40147420 f   ui_shared.obj
 0002:00049490       ?MenuParse_outOfBounds@@YA?AW4qboolean@@PAUitemDef_s@@H@Z 40147490 f   ui_shared.obj
 0002:00049500       ?MenuParse_soundLoop@@YA?AW4qboolean@@PAUitemDef_s@@H@Z 40147500 f   ui_shared.obj
 0002:00049580       ?MenuParse_fadeClamp@@YA?AW4qboolean@@PAUitemDef_s@@H@Z 40147580 f   ui_shared.obj
 0002:00049600       ?MenuParse_fadeAmount@@YA?AW4qboolean@@PAUitemDef_s@@H@Z 40147600 f   ui_shared.obj
 0002:00049680       ?MenuParse_fadeCycle@@YA?AW4qboolean@@PAUitemDef_s@@H@Z 40147680 f   ui_shared.obj
 0002:00049700       ?MenuParse_itemDef@@YA?AW4qboolean@@PAUitemDef_s@@H@Z 40147700 f   ui_shared.obj
 0002:000498f0       ?MenuParse_execKey@@YA?AW4qboolean@@PAUitemDef_s@@H@Z 401478f0 f   ui_shared.obj
 0002:000499e0       ?MenuParse_execKeyInt@@YA?AW4qboolean@@PAUitemDef_s@@H@Z 401479e0 f   ui_shared.obj
 0002:00049ad0       ?MenuParse_drawAlwaysOnTop@@YA?AW4qboolean@@PAUitemDef_s@@H@Z 40147ad0 f   ui_shared.obj
 0002:00049b40       ?MenuParse_itemHotkeyMode@@YA?AW4qboolean@@PAUitemDef_s@@H@Z 40147b40 f   ui_shared.obj
 0002:00049bc0       ?MenuParse_modal@@YA?AW4qboolean@@PAUitemDef_s@@H@Z 40147bc0 f   ui_shared.obj
 0002:00049c30       ?AdjustFrom640@@YAXPAM000@Z 40147c30 f   ui_shared.obj
 0002:00049d00       ?BG_CursorInRect@@YA?AW4qboolean@@PAUrectDef_s@@@Z 40147d00 f   ui_shared.obj
 0002:00049dd0       ?BG_FitTextToWidth_Ext@@YAXPADMMHPAUfontInfo_t@@@Z 40147dd0 f   ui_shared.obj
 0002:0004a0d0       ?BG_PanelButton_EditClick@@YA?AW4qboolean@@PAUpanel_button_s@@H@Z 401480d0 f   ui_shared.obj
 0002:0004a590       ?BG_PanelButton_RenderEdit@@YAXPAUpanel_button_s@@@Z 40148590 f   ui_shared.obj
 0002:0004aa80       ?BG_PanelButtonsGetHighlightButton@@YAPAUpanel_button_s@@PAPAU1@@Z 40148a80 f   ui_shared.obj
 0002:0004ab20       ?BG_PanelButtonsKeyEvent@@YA?AW4qboolean@@HW41@PAPAUpanel_button_s@@@Z 40148b20 f   ui_shared.obj
 0002:0004ad70       ?BG_PanelButtonsRender@@YAXPAPAUpanel_button_s@@@Z 40148d70 f   ui_shared.obj
 0002:0004ae10       ?BG_PanelButtonsRender_Img@@YAXPAUpanel_button_s@@@Z 40148e10 f   ui_shared.obj
 0002:0004b100       ?BG_PanelButtonsRender_Text@@YAXPAUpanel_button_s@@@Z 40149100 f   ui_shared.obj
 0002:0004b160       ?BG_PanelButtonsRender_TextExt@@YAXPAUpanel_button_s@@PBD@Z 40149160 f   ui_shared.obj
 0002:0004b560       ?BG_PanelButtonsSetup@@YAXPAPAUpanel_button_s@@@Z 40149560 f   ui_shared.obj
 0002:0004b5f0       ?BG_PanelButtons_GetFocusButton@@YAPAUpanel_button_s@@XZ 401495f0 f   ui_shared.obj
 0002:0004b640       ?BG_PanelButtons_SetFocusButton@@YAXPAUpanel_button_s@@@Z 40149640 f   ui_shared.obj
 0002:0004b690       ?BG_RectContainsPoint@@YA?AW4qboolean@@MMMMMM@Z 40149690 f   ui_shared.obj
 0002:0004b730       ?BindingFromName@@YAPADPBD@Z 40149730 f   ui_shared.obj
 0002:0004b900       ?BindingIDFromName@@YAHPBD@Z 40149900 f   ui_shared.obj
 0002:0004b9a0       ?Color_Parse@@YA?AW4qboolean@@PAPADPAY03M@Z 401499a0 f   ui_shared.obj
 0002:0004ba80       ?Controls_GetConfig@@YAXXZ 40149a80 f   ui_shared.obj
 0002:0004bb40       ?Controls_SetConfig@@YAXW4qboolean@@@Z 40149b40 f   ui_shared.obj
 0002:0004bc90       ?Controls_SetDefaults@@YAXW4qboolean@@@Z 40149c90 f   ui_shared.obj
 0002:0004bda0       ?Display_CacheAll@@YAXXZ   40149da0 f   ui_shared.obj
 0002:0004be30       ?Display_CaptureItem@@YAPAXHH@Z 40149e30 f   ui_shared.obj
 0002:0004bf80       ?Display_CursorType@@YAHHH@Z 40149f80 f   ui_shared.obj
 0002:0004c0f0       ?Display_GetContext@@YAPAUdisplayContextDef_t@@XZ 4014a0f0 f   ui_shared.obj
 0002:0004c140       ?Display_HandleKey@@YAXHW4qboolean@@HH@Z 4014a140 f   ui_shared.obj
 0002:0004c1e0       ?Display_KeyBindPending@@YA?AW4qboolean@@XZ 4014a1e0 f   ui_shared.obj
 0002:0004c230       ?Display_MouseMove@@YA?AW4qboolean@@PAXHH@Z 4014a230 f   ui_shared.obj
 0002:0004c390       ?Display_VisibleMenuCount@@YAHXZ 4014a390 f   ui_shared.obj
 0002:0004c440       ?Fade@@YAXPAHPAMM0HW4qboolean@@M@Z 4014a440 f   ui_shared.obj
 0002:0004c570       ?FileExists@@YA?AW4qboolean@@PAD@Z 4014a570 f   ui_shared.obj
 0002:0004c630       ?Float_Parse@@YA?AW4qboolean@@PAPADPAM@Z 4014a630 f   ui_shared.obj
 0002:0004c6d0       ?GradientBar_Paint@@YAXPAUrectDef_s@@QAM@Z 4014a6d0 f   ui_shared.obj
 0002:0004c7d0       ?Init_Display@@YAXPAUdisplayContextDef_t@@@Z 4014a7d0 f   ui_shared.obj
 0002:0004c820       ?Int_Parse@@YA?AW4qboolean@@PAPADPAH@Z 4014a820 f   ui_shared.obj
 0002:0004c8c0       ?IsVisible@@YA?AW4qboolean@@H@Z 4014a8c0 f   ui_shared.obj
 0002:0004c940       ?Item_Action@@YAXPAUitemDef_s@@@Z 4014a940 f   ui_shared.obj
 0002:0004c9b0       ?Item_Bind_HandleKey@@YA?AW4qboolean@@PAUitemDef_s@@HW41@@Z 4014a9b0 f   ui_shared.obj
 0002:0004ce80       ?Item_Bind_Paint@@YAXPAUitemDef_s@@@Z 4014ae80 f   ui_shared.obj
 0002:0004d4c0       ?Item_CheckBox_HandleKey@@YA?AW4qboolean@@PAUitemDef_s@@H@Z 4014b4c0 f   ui_shared.obj
 0002:0004d720       ?Item_CheckBox_Paint@@YAXPAUitemDef_s@@@Z 4014b720 f   ui_shared.obj
 0002:0004e090       ?Item_EnableShowViaCvar@@YA?AW4qboolean@@PAUitemDef_s@@H@Z 4014c090 f   ui_shared.obj
 0002:0004e3c0       ?Item_HandleKey@@YA?AW4qboolean@@PAUitemDef_s@@HW41@@Z 4014c3c0 f   ui_shared.obj
 0002:0004e6e0       ?Item_Image_Paint@@YAXPAUitemDef_s@@@Z 4014c6e0 f   ui_shared.obj
 0002:0004e7d0       ?Item_Init@@YAXPAUitemDef_s@@@Z 4014c7d0 f   ui_shared.obj
 0002:0004e870       ?Item_InitControls@@YAXPAUitemDef_s@@@Z 4014c870 f   ui_shared.obj
 0002:0004e940       ?Item_ListBox_HandleKey@@YA?AW4qboolean@@PAUitemDef_s@@HW41@1@Z 4014c940 f   ui_shared.obj
 0002:0004f580       ?Item_ListBox_MaxScroll@@YAHPAUitemDef_s@@@Z 4014d580 f   ui_shared.obj
 0002:0004f680       ?Item_ListBox_MouseEnter@@YAXPAUitemDef_s@@MMW4qboolean@@@Z 4014d680 f   ui_shared.obj
 0002:0004f9a0       ?Item_ListBox_OverLB@@YAHPAUitemDef_s@@MM@Z 4014d9a0 f   ui_shared.obj
 0002:0004fff0       ?Item_ListBox_Paint@@YAXPAUitemDef_s@@@Z 4014dff0 f   ui_shared.obj
 0002:000512b0       ?Item_ListBox_ThumbDrawPosition@@YAHPAUitemDef_s@@@Z 4014f2b0 f   ui_shared.obj
 0002:00051510       ?Item_ListBox_ThumbPosition@@YAHPAUitemDef_s@@@Z 4014f510 f   ui_shared.obj
 0002:00051710       ?Item_Model_Paint@@YAXPAUitemDef_s@@@Z 4014f710 f   ui_shared.obj
 0002:000520c0       ?Item_MouseEnter@@YAXPAUitemDef_s@@MM@Z 401500c0 f   ui_shared.obj
 0002:000523d0       ?Item_MouseLeave@@YAXPAUitemDef_s@@@Z 401503d0 f   ui_shared.obj
 0002:000524a0       ?Item_Multi_CountSettings@@YAHPAUitemDef_s@@@Z 401504a0 f   ui_shared.obj
 0002:00052510       ?Item_Multi_FindCvarByValue@@YAHPAUitemDef_s@@@Z 40150510 f   ui_shared.obj
 0002:00052730       ?Item_Multi_HandleKey@@YA?AW4qboolean@@PAUitemDef_s@@H@Z 40150730 f   ui_shared.obj
 0002:000529d0       ?Item_Multi_Paint@@YAXPAUitemDef_s@@@Z 401509d0 f   ui_shared.obj
 0002:00052da0       ?Item_Multi_Setting@@YAPBDPAUitemDef_s@@@Z 40150da0 f   ui_shared.obj
 0002:00053030       ?Item_OwnerDraw_HandleKey@@YA?AW4qboolean@@PAUitemDef_s@@H@Z 40151030 f   ui_shared.obj
 0002:000530e0       ?Item_OwnerDraw_Paint@@YAXPAUitemDef_s@@@Z 401510e0 f   ui_shared.obj
 0002:000539e0       ?Item_Paint@@YAXPAUitemDef_s@@@Z 401519e0 f   ui_shared.obj
 0002:00054510       ?Item_Parse@@YA?AW4qboolean@@HPAUitemDef_s@@@Z 40152510 f   ui_shared.obj
 0002:00054710       ?Item_RunScript@@YAXPAUitemDef_s@@PAW4qboolean@@PBD@Z 40152710 f   ui_shared.obj
 0002:00054a20       ?Item_SetFocus@@YA?AW4qboolean@@PAUitemDef_s@@MM@Z 40152a20 f   ui_shared.obj
 0002:00054df0       ?Item_SetMouseOver@@YAXPAUitemDef_s@@W4qboolean@@@Z 40152df0 f   ui_shared.obj
 0002:00054e70       ?Item_SetScreenCoords@@YAXPAUitemDef_s@@MM@Z 40152e70 f   ui_shared.obj
 0002:00055020       ?Item_SetTextExtents@@YAXPAUitemDef_s@@PAH1PBD@Z 40153020 f   ui_shared.obj
 0002:000554b0       ?Item_SettingShow@@YA?AW4qboolean@@PAUitemDef_s@@W41@@Z 401534b0 f   ui_shared.obj
 0002:00055690       ?Item_SetupKeywordHash@@YAXXZ 40153690 f   ui_shared.obj
 0002:00055740       ?Item_Slider_HandleKey@@YA?AW4qboolean@@PAUitemDef_s@@HW41@@Z 40153740 f   ui_shared.obj
 0002:00055a60       ?Item_Slider_OverSlider@@YAHPAUitemDef_s@@MM@Z 40153a60 f   ui_shared.obj
 0002:00055ba0       ?Item_Slider_Paint@@YAXPAUitemDef_s@@@Z 40153ba0 f   ui_shared.obj
 0002:00056000       ?Item_Slider_ThumbPosition@@YAMPAUitemDef_s@@@Z 40154000 f   ui_shared.obj
 0002:000561b0       ?Item_StartCapture@@YAXPAUitemDef_s@@H@Z 401541b0 f   ui_shared.obj
 0002:000564b0       ?Item_StopCapture@@YAXPAUitemDef_s@@@Z 401544b0 f   ui_shared.obj
 0002:00056500       ?Item_TextColor@@YAXPAUitemDef_s@@PAY03M@Z 40154500 f   ui_shared.obj
 0002:000569d0       ?Item_TextField_HandleKey@@YA?AW4qboolean@@PAUitemDef_s@@H@Z 401549d0 f   ui_shared.obj
 0002:000573d0       ?Item_TextField_Paint@@YAXPAUitemDef_s@@@Z 401553d0 f   ui_shared.obj
 0002:00057b30       ?Item_Text_AutoWrapped_Paint@@YAXPAUitemDef_s@@@Z 40155b30 f   ui_shared.obj
 0002:00058210       ?Item_Text_Paint@@YAXPAUitemDef_s@@@Z 40156210 f   ui_shared.obj
 0002:00058690       ?Item_Text_Wrapped_Paint@@YAXPAUitemDef_s@@@Z 40156690 f   ui_shared.obj
 0002:00058ad0       ?Item_UpdatePosition@@YAXPAUitemDef_s@@@Z 40156ad0 f   ui_shared.obj
 0002:00058b90       ?Item_ValidateTooltipData@@YA?AW4qboolean@@PAUitemDef_s@@@Z 40156b90 f   ui_shared.obj
 0002:00058c50       ?Item_ValidateTypeData@@YAXPAUitemDef_s@@@Z 40156c50 f   ui_shared.obj
 0002:00058e60       ?Item_YesNo_HandleKey@@YA?AW4qboolean@@PAUitemDef_s@@H@Z 40156e60 f   ui_shared.obj
 0002:00059020       ?Item_YesNo_Paint@@YAXPAUitemDef_s@@@Z 40157020 f   ui_shared.obj
 0002:000594e0       ?KeywordHash_Add@@YAXQAPAUkeywordHash_s@@PAU1@@Z 401574e0 f   ui_shared.obj
 0002:00059560       ?KeywordHash_Find@@YAPAUkeywordHash_s@@QAPAU1@PAD@Z 40157560 f   ui_shared.obj
 0002:00059610       ?KeywordHash_Key@@YAHPAD@Z 40157610 f   ui_shared.obj
 0002:00059720       ?LerpColor@@YAXQAM00M@Z    40157720 f   ui_shared.obj
 0002:00059930       ?Menu_ClearFocus@@YAPAUitemDef_s@@PAUmenuDef_t@@@Z 40157930 f   ui_shared.obj
 0002:00059bd0       ?Menu_Count@@YAHXZ         40157bd0 f   ui_shared.obj
 0002:00059c20       ?Menu_FadeItemByName@@YAXPAUmenuDef_t@@PBDW4qboolean@@@Z 40157c20 f   ui_shared.obj
 0002:00059d20       ?Menu_FadeMenuByName@@YAXPBDPAW4qboolean@@W41@@Z 40157d20 f   ui_shared.obj
 0002:00059e20       ?Menu_FindItemByName@@YAPAUitemDef_s@@PAUmenuDef_t@@PBD@Z 40157e20 f   ui_shared.obj
 0002:00059ef0       ?Menu_Get@@YAPAUmenuDef_t@@H@Z 40157ef0 f   ui_shared.obj
 0002:00059f60       ?Menu_GetFocused@@YAPAUmenuDef_t@@XZ 40157f60 f   ui_shared.obj
 0002:0005a010       ?Menu_GetFocusedItem@@YAPAUitemDef_s@@PAUmenuDef_t@@@Z 40158010 f   ui_shared.obj
 0002:0005a0c0       ?Menu_GetMatchingItemByNumber@@YAPAUitemDef_s@@PAUmenuDef_t@@HPBD@Z 401580c0 f   ui_shared.obj
 0002:0005a2c0       ?Menu_HandleKey@@YAXPAUmenuDef_t@@HW4qboolean@@@Z 401582c0 f   ui_shared.obj
 0002:0005ad50       ?Menu_HandleMouseMove@@YAXPAUmenuDef_t@@MM@Z 40158d50 f   ui_shared.obj
 0002:0005b190       ?Menu_HitTest@@YAPAUitemDef_s@@PAUmenuDef_t@@MM@Z 40159190 f   ui_shared.obj
 0002:0005b260       ?Menu_Init@@YAXPAUmenuDef_t@@@Z 40159260 f   ui_shared.obj
 0002:0005b340       ?Menu_ItemsMatchingGroup@@YAHPAUmenuDef_t@@PBD@Z 40159340 f   ui_shared.obj
 0002:0005b500       ?Menu_New@@YAXH@Z          40159500 f   ui_shared.obj
 0002:0005b5c0       ?Menu_OrbitItemByName@@YAXPAUmenuDef_t@@PBDMMMMH@Z 401595c0 f   ui_shared.obj
 0002:0005b8c0       ?Menu_Paint@@YAXPAUmenuDef_t@@W4qboolean@@@Z 401598c0 f   ui_shared.obj
 0002:0005bd90       ?Menu_PaintAll@@YAXXZ      40159d90 f   ui_shared.obj
 0002:0005c0b0       ?Menu_Parse@@YA?AW4qboolean@@HPAUmenuDef_t@@@Z 4015a0b0 f   ui_shared.obj
 0002:0005c2d0       ?Menu_PostParse@@YAXPAUmenuDef_t@@@Z 4015a2d0 f   ui_shared.obj
 0002:0005c380       ?Menu_Reset@@YAXXZ         4015a380 f   ui_shared.obj
 0002:0005c4c0       ?Menu_ScrollFeeder@@YAXPAUmenuDef_t@@HW4qboolean@@@Z 4015a4c0 f   ui_shared.obj
 0002:0005c5c0       ?Menu_SetFeederSelection@@YAXPAUmenuDef_t@@HHPBD@Z 4015a5c0 f   ui_shared.obj
 0002:0005c760       ?Menu_SetNextCursorItem@@YAPAUitemDef_s@@PAUmenuDef_t@@@Z 4015a760 f   ui_shared.obj
 0002:0005c980       ?Menu_SetPrevCursorItem@@YAPAUitemDef_s@@PAUmenuDef_t@@@Z 4015a980 f   ui_shared.obj
 0002:0005cba0       ?Menu_SetupKeywordHash@@YAXXZ 4015aba0 f   ui_shared.obj
 0002:0005cc50       ?Menu_ShowItemByName@@YAXPAUmenuDef_t@@PBDW4qboolean@@@Z 4015ac50 f   ui_shared.obj
 0002:0005cdb0       ?Menu_TransitionItemByName@@YAXPAUmenuDef_t@@PBDUrectDef_s@@2HM@Z 4015adb0 f   ui_shared.obj
 0002:0005cfa0       ?Menu_UpdatePosition@@YAXPAUmenuDef_t@@@Z 4015afa0 f   ui_shared.obj
 0002:0005d080       ?Menus_Activate@@YAXPAUmenuDef_t@@@Z 4015b080 f   ui_shared.obj
 0002:0005d240       ?Menus_ActivateByName@@YAPAUmenuDef_t@@PBDW4qboolean@@@Z 4015b240 f   ui_shared.obj
 0002:0005d3b0       ?Menus_AnyFullScreenVisible@@YA?AW4qboolean@@XZ 4015b3b0 f   ui_shared.obj
 0002:0005d460       ?Menus_CaptureFuncActive@@YA?AW4qboolean@@XZ 4015b460 f   ui_shared.obj
 0002:0005d4c0       ?Menus_CloseAll@@YAXXZ     4015b4c0 f   ui_shared.obj
 0002:0005d570       ?Menus_CloseByName@@YAXPBD@Z 4015b570 f   ui_shared.obj
 0002:0005d6f0       ?Menus_FindByName@@YAPAUmenuDef_t@@PBD@Z 4015b6f0 f   ui_shared.obj
 0002:0005d7a0       ?Menus_HandleOOBClick@@YAXPAUmenuDef_t@@HW4qboolean@@@Z 4015b7a0 f   ui_shared.obj
 0002:0005d9b0       ?Menus_OpenByName@@YAXPBD@Z 4015b9b0 f   ui_shared.obj
 0002:0005da10       ?Menus_ShowByName@@YAXPBD@Z 4015ba10 f   ui_shared.obj
 0002:0005da90       ?PC_Char_Parse@@YA?AW4qboolean@@HPAD@Z 4015ba90 f   ui_shared.obj
 0002:0005db70       ?PC_Rect_Parse@@YA?AW4qboolean@@HPAUrectDef_s@@@Z 4015bb70 f   ui_shared.obj
 0002:0005dc30       ?PC_Script_Parse@@YA?AW4qboolean@@HPAPBD@Z 4015bc30 f   ui_shared.obj
 0002:0005de70       ?PC_String_Parse_Trans@@YA?AW4qboolean@@HPAPBD@Z 4015be70 f   ui_shared.obj
 0002:0005df80       ?ParseColorRange@@YA?AW4qboolean@@PAUitemDef_s@@HH@Z 4015bf80 f   ui_shared.obj
 0002:0005e120       ?Rect_ContainsPoint@@YA?AW4qboolean@@PAUrectDef_s@@MM@Z 4015c120 f   ui_shared.obj
 0002:0005e1d0       ?Rect_Parse@@YA?AW4qboolean@@PAPADPAUrectDef_s@@@Z 4015c1d0 f   ui_shared.obj
 0002:0005e290       ?Rect_ToWindowCoords@@YAXPAUrectDef_s@@PAUwindowDef_t@@@Z 4015c290 f   ui_shared.obj
 0002:0005e2f0       ?Script_CheckProfile@@YA?AW4qboolean@@PAD@Z 4015c2f0 f   ui_shared.obj
 0002:0005e490       ?Script_WriteProfile@@YA?AW4qboolean@@PAD@Z 4015c490 f   ui_shared.obj
 0002:0005eda0       ?String_Alloc@@YAPBDPBD@Z  4015cda0 f   ui_shared.obj
 0002:0005ef90       ?String_Init@@YAXXZ        4015cf90 f   ui_shared.obj
 0002:0005f080       ?String_Parse@@YA?AW4qboolean@@PAPADPAPBD@Z 4015d080 f   ui_shared.obj
 0002:0005f120       ?String_Report@@YAXXZ      4015d120 f   ui_shared.obj
 0002:0005f260       ?ToWindowCoords@@YAXPAM0PAUwindowDef_t@@@Z 4015d260 f   ui_shared.obj
 0002:0005f2e0       ?Tooltip_ComputePosition@@YAXPAUitemDef_s@@@Z 4015d2e0 f   ui_shared.obj
 0002:0005f560       ?Tooltip_Initialize@@YAXPAUitemDef_s@@@Z 4015d560 f   ui_shared.obj
 0002:0005f7c0       ?UI_Alloc@@YAPAXH@Z        4015d7c0 f   ui_shared.obj
 0002:0005f8a0       ?UI_InitMemory@@YAXXZ      4015d8a0 f   ui_shared.obj
 0002:0005f900       ?UI_OutOfMemory@@YA?AW4qboolean@@XZ 4015d900 f   ui_shared.obj
 0002:0005fad0       ?Window_Init@@YAXPAUwindowDef_t@@@Z 4015dad0 f   ui_shared.obj
 0002:0005fbd0       ?Window_Paint@@YAXPAUwindowDef_t@@MMM@Z 4015dbd0 f   ui_shared.obj
 0002:000607a0       ?PASSFLOAT@@YAHM@Z         4015e7a0 f   ui_syscalls.obj
 0002:00060800       ?trap_AddCommand@@YAXPBD@Z 4015e800 f   ui_syscalls.obj
 0002:00060870       ?trap_Argc@@YAHXZ          4015e870 f   ui_syscalls.obj
 0002:000608d0       ?trap_Argv@@YAXHPADH@Z     4015e8d0 f   ui_syscalls.obj
 0002:00060940       ?trap_CIN_DrawCinematic@@YAXH@Z 4015e940 f   ui_syscalls.obj
 0002:000609b0       ?trap_CIN_PlayCinematic@@YAHPBDHHHHH@Z 4015e9b0 f   ui_syscalls.obj
 0002:00060a30       ?trap_CIN_RunCinematic@@YA?AW4e_status@@H@Z 4015ea30 f   ui_syscalls.obj
 0002:00060aa0       ?trap_CIN_SetExtents@@YAXHHHHH@Z 4015eaa0 f   ui_syscalls.obj
 0002:00060b20       ?trap_CIN_StopCinematic@@YA?AW4e_status@@H@Z 4015eb20 f   ui_syscalls.obj
 0002:00060b90       ?trap_CM_LerpTag@@YAHPAUorientation_t@@PBUrefEntity_t@@PBDH@Z 4015eb90 f   ui_syscalls.obj
 0002:00060c00       ?trap_CheckAutoUpdate@@YAXXZ 4015ec00 f   ui_syscalls.obj
 0002:00060c60       ?trap_Cmd_ExecuteText@@YAXHPBD@Z 4015ec60 f   ui_syscalls.obj
 0002:00060cd0       ?trap_Cvar_Create@@YAXPBD0H@Z 4015ecd0 f   ui_syscalls.obj
 0002:00060d40       ?trap_Cvar_InfoStringBuffer@@YAXHPADH@Z 4015ed40 f   ui_syscalls.obj
 0002:00060db0       ?trap_Cvar_LatchedVariableStringBuffer@@YAXPBDPADH@Z 4015edb0 f   ui_syscalls.obj
 0002:00060e20       ?trap_Cvar_Register@@YAXPAUvmCvar_t@@PBD1H@Z 4015ee20 f   ui_syscalls.obj
 0002:00060ea0       ?trap_Cvar_Reset@@YAXPBD@Z 4015eea0 f   ui_syscalls.obj
 0002:00060f10       ?trap_Cvar_Set@@YAXPBD0@Z  4015ef10 f   ui_syscalls.obj
 0002:00060f80       ?trap_Cvar_SetValue@@YAXPBDM@Z 4015ef80 f   ui_syscalls.obj
 0002:00061000       ?trap_Cvar_Update@@YAXPAUvmCvar_t@@@Z 4015f000 f   ui_syscalls.obj
 0002:00061070       ?trap_Cvar_VariableStringBuffer@@YAXPBDPADH@Z 4015f070 f   ui_syscalls.obj
 0002:000610e0       ?trap_Cvar_VariableValue@@YAMPBD@Z 4015f0e0 f   ui_syscalls.obj
 0002:00061150       ?trap_Error@@YAXPBD@Z      4015f150 f   ui_syscalls.obj
 0002:000611c0       ?trap_FS_Delete@@YAHPBD@Z  4015f1c0 f   ui_syscalls.obj
 0002:00061230       ?trap_FS_FCloseFile@@YAXH@Z 4015f230 f   ui_syscalls.obj
 0002:000612a0       ?trap_FS_FOpenFile@@YAHPBDPAHW4fsMode_t@@@Z 4015f2a0 f   ui_syscalls.obj
 0002:00061310       ?trap_FS_GetFileList@@YAHPBD0PADH@Z 4015f310 f   ui_syscalls.obj
 0002:00061380       ?trap_FS_Read@@YAXPAXHH@Z  4015f380 f   ui_syscalls.obj
 0002:000613f0       ?trap_FS_Write@@YAXPBXHH@Z 4015f3f0 f   ui_syscalls.obj
 0002:00061460       ?trap_GetAutoUpdate@@YAXXZ 4015f460 f   ui_syscalls.obj
 0002:000614c0       ?trap_GetCDKey@@YAXPADH@Z  4015f4c0 f   ui_syscalls.obj
 0002:00061530       ?trap_GetClientState@@YAXPAUuiClientState_t@@@Z 4015f530 f   ui_syscalls.obj
 0002:000615a0       ?trap_GetClipboardData@@YAXPADH@Z 4015f5a0 f   ui_syscalls.obj
 0002:00061610       ?trap_GetConfigString@@YAHHPADH@Z 4015f610 f   ui_syscalls.obj
 0002:00061680       ?trap_GetGlconfig@@YAXPAUglconfig_t@@@Z 4015f680 f   ui_syscalls.obj
 0002:000616f0       ?trap_GetHunkData@@YAXPAH0@Z 4015f6f0 f   ui_syscalls.obj
 0002:00061760       ?trap_GetLimboString@@YA?AW4qboolean@@HPAD@Z 4015f760 f   ui_syscalls.obj
 0002:000617d0       ?trap_Key_ClearStates@@YAXXZ 4015f7d0 f   ui_syscalls.obj
 0002:00061830       ?trap_Key_GetBindingBuf@@YAXHPADH@Z 4015f830 f   ui_syscalls.obj
 0002:000618a0       ?trap_Key_GetCatcher@@YAHXZ 4015f8a0 f   ui_syscalls.obj
 0002:00061900       ?trap_Key_GetOverstrikeMode@@YA?AW4qboolean@@XZ 4015f900 f   ui_syscalls.obj
 0002:00061960       ?trap_Key_IsDown@@YA?AW4qboolean@@H@Z 4015f960 f   ui_syscalls.obj
 0002:000619d0       ?trap_Key_KeynumToStringBuf@@YAXHPADH@Z 4015f9d0 f   ui_syscalls.obj
 0002:00061a40       ?trap_Key_KeysForBinding@@YAXPBDPAH1@Z 4015fa40 f   ui_syscalls.obj
 0002:00061ab0       ?trap_Key_SetBinding@@YAXHPBD@Z 4015fab0 f   ui_syscalls.obj
 0002:00061b20       ?trap_Key_SetCatcher@@YAXH@Z 4015fb20 f   ui_syscalls.obj
 0002:00061b90       ?trap_Key_SetOverstrikeMode@@YAXW4qboolean@@@Z 4015fb90 f   ui_syscalls.obj
 0002:00061c00       ?trap_LAN_AddServer@@YAHHPBD0@Z 4015fc00 f   ui_syscalls.obj
 0002:00061c70       ?trap_LAN_ClearPing@@YAXH@Z 4015fc70 f   ui_syscalls.obj
 0002:00061ce0       ?trap_LAN_CompareServers@@YAHHHHHH@Z 4015fce0 f   ui_syscalls.obj
 0002:00061d60       ?trap_LAN_GetGlobalServerAddressString@@YAXHPADH@Z 4015fd60 f   ui_syscalls.obj
 0002:00061dd0       ?trap_LAN_GetGlobalServerCount@@YAHXZ 4015fdd0 f   ui_syscalls.obj
 0002:00061e30       ?trap_LAN_GetLocalServerAddressString@@YAXHPADH@Z 4015fe30 f   ui_syscalls.obj
 0002:00061ea0       ?trap_LAN_GetLocalServerCount@@YAHXZ 4015fea0 f   ui_syscalls.obj
 0002:00061f00       ?trap_LAN_GetPing@@YAXHPADHPAH@Z 4015ff00 f   ui_syscalls.obj
 0002:00061f80       ?trap_LAN_GetPingInfo@@YAXHPADH@Z 4015ff80 f   ui_syscalls.obj
 0002:00061ff0       ?trap_LAN_GetPingQueueCount@@YAHXZ 4015fff0 f   ui_syscalls.obj
 0002:00062050       ?trap_LAN_GetServerAddressString@@YAXHHPADH@Z 40160050 f   ui_syscalls.obj
 0002:000620d0       ?trap_LAN_GetServerCount@@YAHH@Z 401600d0 f   ui_syscalls.obj
 0002:00062140       ?trap_LAN_GetServerInfo@@YAXHHPADH@Z 40160140 f   ui_syscalls.obj
 0002:000621c0       ?trap_LAN_GetServerPing@@YAHHH@Z 401601c0 f   ui_syscalls.obj
 0002:00062230       ?trap_LAN_LoadCachedServers@@YAXXZ 40160230 f   ui_syscalls.obj
 0002:00062290       ?trap_LAN_MarkServerVisible@@YAXHHW4qboolean@@@Z 40160290 f   ui_syscalls.obj
 0002:00062300       ?trap_LAN_RemoveServer@@YAXHPBD@Z 40160300 f   ui_syscalls.obj
 0002:00062370       ?trap_LAN_ResetPings@@YAXH@Z 40160370 f   ui_syscalls.obj
 0002:000623e0       ?trap_LAN_SaveCachedServers@@YAXXZ 401603e0 f   ui_syscalls.obj
 0002:00062440       ?trap_LAN_ServerIsInFavoriteList@@YA?AW4qboolean@@HH@Z 40160440 f   ui_syscalls.obj
 0002:000624b0       ?trap_LAN_ServerIsVisible@@YAHHH@Z 401604b0 f   ui_syscalls.obj
 0002:00062520       ?trap_LAN_ServerStatus@@YAHPBDPADH@Z 40160520 f   ui_syscalls.obj
 0002:00062590       ?trap_LAN_UpdateVisiblePings@@YA?AW4qboolean@@H@Z 40160590 f   ui_syscalls.obj
 0002:00062600       ?trap_MemoryRemaining@@YAHXZ 40160600 f   ui_syscalls.obj
 0002:00062660       ?trap_Milliseconds@@YAHXZ  40160660 f   ui_syscalls.obj
 0002:000626c0       ?trap_PC_AddGlobalDefine@@YAHPAD@Z 401606c0 f   ui_syscalls.obj
 0002:00062730       ?trap_PC_FreeSource@@YAHH@Z 40160730 f   ui_syscalls.obj
 0002:000627a0       ?trap_PC_LoadSource@@YAHPBD@Z 401607a0 f   ui_syscalls.obj
 0002:00062810       ?trap_PC_ReadToken@@YAHHPAUpc_token_s@@@Z 40160810 f   ui_syscalls.obj
 0002:00062880       ?trap_PC_RemoveAllGlobalDefines@@YAHXZ 40160880 f   ui_syscalls.obj
 0002:000628e0       ?trap_PC_SourceFileAndLine@@YAHHPADPAH@Z 401608e0 f   ui_syscalls.obj
 0002:00062950       ?trap_PC_UnReadToken@@YAHH@Z 40160950 f   ui_syscalls.obj
 0002:000629c0       ?trap_Print@@YAXPBD@Z      401609c0 f   ui_syscalls.obj
 0002:00062a30       ?trap_R_Add2dPolys@@YAXPAUpolyVert_t@@HH@Z 40160a30 f   ui_syscalls.obj
 0002:00062aa0       ?trap_R_AddCoronaToScene@@YAXQBMMMMMHW4qboolean@@@Z 40160aa0 f   ui_syscalls.obj
 0002:00062b70       ?trap_R_AddLightToScene@@YAXQBMMMMMMHH@Z 40160b70 f   ui_syscalls.obj
 0002:00062c60       ?trap_R_AddPolyToScene@@YAXHHPBUpolyVert_t@@@Z 40160c60 f   ui_syscalls.obj
 0002:00062cd0       ?trap_R_AddRefEntityToScene@@YAXPBUrefEntity_t@@@Z 40160cd0 f   ui_syscalls.obj
 0002:00062d40       ?trap_R_ClearScene@@YAXXZ  40160d40 f   ui_syscalls.obj
 0002:00062da0       ?trap_R_DrawRotatedPic@@YAXMMMMMMMMHM@Z 40160da0 f   ui_syscalls.obj
 0002:00062ef0       ?trap_R_DrawStretchPic@@YAXMMMMMMMMH@Z 40160ef0 f   ui_syscalls.obj
 0002:00063020       ?trap_R_ModelBounds@@YAXHQAM0@Z 40161020 f   ui_syscalls.obj
 0002:00063090       ?trap_R_RegisterFont@@YAXPBDHPAUfontInfo_t@@@Z 40161090 f   ui_syscalls.obj
 0002:00063100       ?trap_R_RegisterModel@@YAHPBD@Z 40161100 f   ui_syscalls.obj
 0002:00063170       ?trap_R_RegisterShaderNoMip@@YAHPBD@Z 40161170 f   ui_syscalls.obj
 0002:000631e0       ?trap_R_RegisterSkin@@YAHPBD@Z 401611e0 f   ui_syscalls.obj
 0002:00063250       ?trap_R_RemapShader@@YAXPBD00@Z 40161250 f   ui_syscalls.obj
 0002:000632c0       ?trap_R_RenderScene@@YAXPBUrefdef_t@@@Z 401612c0 f   ui_syscalls.obj
 0002:00063330       ?trap_R_SetColor@@YAXPBM@Z 40161330 f   ui_syscalls.obj
 0002:000633a0       ?trap_RealTime@@YAHPAUqtime_s@@@Z 401613a0 f   ui_syscalls.obj
 0002:00063410       ?trap_S_FadeAllSound@@YAXMHW4qboolean@@@Z 40161410 f   ui_syscalls.obj
 0002:00063490       ?trap_S_FadeBackgroundTrack@@YAXMHH@Z 40161490 f   ui_syscalls.obj
 0002:00063510       ?trap_S_RegisterSound@@YAHPBDW4qboolean@@@Z 40161510 f   ui_syscalls.obj
 0002:00063580       ?trap_S_StartBackgroundTrack@@YAXPBD0H@Z 40161580 f   ui_syscalls.obj
 0002:000635f0       ?trap_S_StartLocalSound@@YAXHH@Z 401615f0 f   ui_syscalls.obj
 0002:00063660       ?trap_S_StopBackgroundTrack@@YAXXZ 40161660 f   ui_syscalls.obj
 0002:000636c0       ?trap_SetCDKey@@YAXPAD@Z   401616c0 f   ui_syscalls.obj
 0002:00063730       ?trap_SetPbClStatus@@YAXH@Z 40161730 f   ui_syscalls.obj
 0002:000637a0       ?trap_SetPbSvStatus@@YAXH@Z 401617a0 f   ui_syscalls.obj
 0002:00063810       ?trap_TranslateString@@YAPADPBD@Z 40161810 f   ui_syscalls.obj
 0002:000638c0       ?trap_UpdateScreen@@YAXXZ  401618c0 f   ui_syscalls.obj
 0002:00063920       ?trap_VerifyCDKey@@YA?AW4qboolean@@PBD0@Z 40161920 f   ui_syscalls.obj
 0002:00063990       ?trap_openURL@@YAXPBD@Z    40161990 f   ui_syscalls.obj
 0002:00063a00       _dllEntry                  40161a00 f   ui_syscalls.obj
 0002:00063a50       ?AddPointToBounds@@YAXQBMQAM1@Z 40161a50 f   q_math.obj
 0002:00063c60       ?AngleDelta@@YAMMM@Z       40161c60 f   q_math.obj
 0002:00063cd0       ?AngleMod@@YAMM@Z          40161cd0 f   q_math.obj
 0002:00063d60       ?AngleNormalize180@@YAMM@Z 40161d60 f   q_math.obj
 0002:00063e00       ?AngleNormalize2Pi@@YAMM@Z 40161e00 f   q_math.obj
 0002:00063eb0       ?AngleNormalize360@@YAMM@Z 40161eb0 f   q_math.obj
 0002:00063f40       ?AngleSubtract@@YAMMM@Z    40161f40 f   q_math.obj
 0002:00064000       ?AngleVectors@@YAXQBMQAM11@Z 40162000 f   q_math.obj
 0002:000643e0       ?AnglesSubtract@@YAXQAM00@Z 401623e0 f   q_math.obj
 0002:00064520       ?AnglesToAxis@@YAXQBMQAY02M@Z 40162520 f   q_math.obj
 0002:000646d0       ?AxisClear@@YAXQAY02M@Z    401626d0 f   q_math.obj
 0002:00064850       ?AxisCopy@@YAXQAY02$$CBMQAY02M@Z 40162850 f   q_math.obj
 0002:00064a80       ?AxisToAngles@@YAXQAY02MQAM@Z 40162a80 f   q_math.obj
 0002:00064e20       ?BoxOnPlaneSide@@YAHQAM0PAUcplane_s@@@Z 40162e20 f   q_math.obj
 0002:00064ef0       ?BoxOnPlaneSide_fast@@YAHQAM0PAUcplane_s@@@Z 40162ef0 f i q_math.obj
 0002:000651c0       ?ByteToDir@@YAXHQAM@Z      401631c0 f   q_math.obj
 0002:00065300       ?ClampChar@@YACH@Z         40163300 f   q_math.obj
 0002:00065360       ?ClampShort@@YAFH@Z        40163360 f   q_math.obj
 0002:000653d0       ?ClearBounds@@YAXQAM0@Z    401633d0 f   q_math.obj
 0002:000654d0       ?ColorBytes3@@YAIMMM@Z     401634d0 f   q_math.obj
 0002:000655c0       ?ColorBytes4@@YAIMMMM@Z    401635c0 f   q_math.obj
 0002:000656d0       ?CrossProduct@@YAXQBM0QAM@Z 401636d0 f   q_math.obj
 0002:00065850       ?DirToByte@@YAHQAM@Z       40163850 f   q_math.obj
 0002:000659b0       ?Distance@@YAMQBM0@Z       401639b0 f   q_math.obj
 0002:00065b10       ?DistanceFromLineSquared@@YAMQAM00@Z 40163b10 f   q_math.obj
 0002:00065f60       ?DistanceFromVectorSquared@@YAMQAM00@Z 40163f60 f   q_math.obj
 0002:000660f0       ?DistanceSquared@@YAMQBM0@Z 401640f0 f   q_math.obj
 0002:000662d0       ?GetPerpendicularViewVector@@YAXQBM00QAM@Z 401642d0 f   q_math.obj
 0002:00066540       ?LerpAngle@@YAMMMM@Z       40164540 f   q_math.obj
 0002:00066620       ?LerpPosition@@YAXQAM0M0@Z 40164620 f   q_math.obj
 0002:00066850       ?MakeNormalVectors@@YAXQBMQAM1@Z 40164850 f   q_math.obj
 0002:00066ac0       ?MatrixMultiply@@YAXQAY02M00@Z 40164ac0 f   q_math.obj
 0002:00067290       ?NormalizeColor@@YAMQBMQAM@Z 40165290 f   q_math.obj
 0002:00067450       ?PerpendicularVector@@YAXQAMQBM@Z 40165450 f   q_math.obj
 0002:00067610       ?PlaneFromPoints@@YA?AW4qboolean@@QAMQBM11@Z 40165610 f   q_math.obj
 0002:00067920       ?PointInBounds@@YA?AW4qboolean@@QBM00@Z 40165920 f   q_math.obj
 0002:00067a90       ?ProjectPointOnPlane@@YAXQAMQBM1@Z 40165a90 f   q_math.obj
 0002:00067d90       ?ProjectPointOntoVector@@YAXQAM000@Z 40165d90 f   q_math.obj
 0002:000681e0       ?ProjectPointOntoVectorBounded@@YAXQAM000@Z 401661e0 f   q_math.obj
 0002:00068840       ?Q_crandom@@YAMPAH@Z       40166840 f   q_math.obj
 0002:000688e0       ?Q_fabs@@YAMM@Z            401668e0 f   q_math.obj
 0002:00068940       ?Q_log2@@YAHH@Z            40166940 f   q_math.obj
 0002:000689b0       ?Q_rand@@YAHPAH@Z          401669b0 f   q_math.obj
 0002:00068a10       ?Q_random@@YAMPAH@Z        40166a10 f   q_math.obj
 0002:00068a90       ?Q_rsqrt@@YAMM@Z           40166a90 f   q_math.obj
 0002:00068b70       ?RadiusFromBounds@@YAMQBM0@Z 40166b70 f   q_math.obj
 0002:00068cd0       ?RotateAroundDirection@@YAXQAY02MM@Z 40166cd0 f   q_math.obj
 0002:00068ea0       ?RotateAroundPitch@@YAXQAY02MM@Z 40166ea0 f   q_math.obj
 0002:00069070       ?RotatePointAroundVector@@YAXQAMQBM1M@Z 40167070 f   q_math.obj
 0002:00069850       ?RotatePointAroundVertex@@YAXQAMMMMQBM@Z 40167850 f   q_math.obj
 0002:00069e50       ?SetPlaneSignbits@@YAXPAUcplane_s@@@Z 40167e50 f   q_math.obj
 0002:00069f00       ?Vector4Scale@@YAXQBMMQAM@Z 40167f00 f   q_math.obj
 0002:0006a000       ?VectorCompare@@YAHQBM0@Z  40168000 f   q_math.obj
 0002:0006a0e0       ?VectorDistance@@YAMQAM0@Z 401680e0 f   q_math.obj
 0002:0006a250       ?VectorDistanceSquared@@YAMQAM0@Z 40168250 f   q_math.obj
 0002:0006a3c0       ?VectorInverse@@YAXQAM@Z   401683c0 f   q_math.obj
 0002:0006a4a0       ?VectorLength@@YAMQBM@Z    401684a0 f   q_math.obj
 0002:0006a580       ?VectorLengthSquared@@YAMQBM@Z 40168580 f   q_math.obj
 0002:0006a660       ?VectorNormalize2@@YAMQBMQAM@Z 40168660 f   q_math.obj
 0002:0006a850       ?VectorNormalize@@YAMQAM@Z 40168850 f   q_math.obj
 0002:0006aa00       ?VectorNormalizeFast@@YAXQAM@Z 40168a00 f   q_math.obj
 0002:0006ab70       ?VectorRotate@@YAXQAMQAY02M0@Z 40168b70 f   q_math.obj
 0002:0006add0       ?_DotProduct@@YAMQBM0@Z    40168dd0 f   q_math.obj
 0002:0006aeb0       ?_VectorAdd@@YAXQBM0QAM@Z  40168eb0 f   q_math.obj
 0002:0006afb0       ?_VectorCopy@@YAXQBMQAM@Z  40168fb0 f   q_math.obj
 0002:0006b060       ?_VectorMA@@YAXQBMM0QAM@Z  40169060 f   q_math.obj
 0002:0006b170       ?_VectorScale@@YAXQBMMQAM@Z 40169170 f   q_math.obj
 0002:0006b240       ?_VectorSubtract@@YAXQBM0QAM@Z 40169240 f   q_math.obj
 0002:0006b340       ?atan2@@YAMMM@Z            40169340 f i q_math.obj
 0002:0006b3b0       ?myftol@@YAJM@Z            401693b0 f   q_math.obj
 0002:0006b400       ?sqrt@@YAMM@Z              40169400 f i q_math.obj
 0002:0006b460       ?vectoangles@@YAXQBMQAM@Z  40169460 f   q_math.obj
 0002:0006b780       ?vectoyaw@@YAMQBM@Z        40169780 f   q_math.obj
 0002:0006b920       _atan2f                    40169920 f i q_math.obj
 0002:0006b9b0       _sqrtf                     401699b0 f i q_math.obj
 0002:0006ba30       ??$?0$$V@?$_Compressed_pair@V?$allocator@U?$_Tree_node@U?$pair@$$CBV?$basic_string@DU?$char_traits@D@std@@V?$allocator@D@2@@std@@V12@@std@@PAX@std@@@std@@V?$_Tree_val@U?$_Tree_simple_types@U?$pair@$$CBV?$basic_string@DU?$char_traits@D@std@@V?$allocator@D@2@@std@@V12@@std@@@std@@@2@$00@std@@QAE@U_Zero_then_variadic_args_t@1@@Z 40169a30 f i q_shared.obj
 0002:0006baa0       ??$?0ABQAU?$_Tree_node@U?$pair@$$CBV?$basic_string@DU?$char_traits@D@std@@V?$allocator@D@2@@std@@V12@@std@@PAX@std@@_N$0A@@?$pair@PAU?$_Tree_node@U?$pair@$$CBV?$basic_string@DU?$char_traits@D@std@@V?$allocator@D@2@@std@@V12@@std@@PAX@std@@_N@std@@QAE@ABQAU?$_Tree_node@U?$pair@$$CBV?$basic_string@DU?$char_traits@D@std@@V?$allocator@D@2@@std@@V12@@std@@PAX@1@$$QA_N@Z 40169aa0 f i q_shared.obj
 0002:0006bb30       ??$?0ABU?$less@V?$basic_string@DU?$char_traits@D@std@@V?$allocator@D@2@@std@@@std@@U_Zero_then_variadic_args_t@1@@?$_Compressed_pair@U?$less@V?$basic_string@DU?$char_traits@D@std@@V?$allocator@D@2@@std@@@std@@V?$_Compressed_pair@V?$allocator@U?$_Tree_node@U?$pair@$$CBV?$basic_string@DU?$char_traits@D@std@@V?$allocator@D@2@@std@@V12@@std@@PAX@std@@@std@@V?$_Tree_val@U?$_Tree_simple_types@U?$pair@$$CBV?$basic_string@DU?$char_traits@D@std@@V?$allocator@D@2@@std@@V12@@std@@@std@@@2@$00@2@$00@std@@QAE@U_One_then_variadic_args_t@1@ABU?$less@V?$basic_string@DU?$char_traits@D@std@@V?$allocator@D@2@@std@@@1@$$QAU_Zero_then_variadic_args_t@1@@Z 40169b30 f i q_shared.obj
 0002:0006bbc0       ??$?0ABUpiecewise_construct_t@std@@V?$tuple@ABV?$basic_string@DU?$char_traits@D@std@@V?$allocator@D@2@@std@@@1@V?$tuple@$$V@1@@?$_Tree_temp_node@V?$allocator@U?$_Tree_node@U?$pair@$$CBV?$basic_string@DU?$char_traits@D@std@@V?$allocator@D@2@@std@@V12@@std@@PAX@std@@@std@@@std@@QAE@AAV?$allocator@U?$_Tree_node@U?$pair@$$CBV?$basic_string@DU?$char_traits@D@std@@V?$allocator@D@2@@std@@V12@@std@@PAX@std@@@1@PAU?$_Tree_node@U?$pair@$$CBV?$basic_string@DU?$char_traits@D@std@@V?$allocator@D@2@@std@@V12@@std@@PAX@1@ABUpiecewise_construct_t@1@$$QAV?$tuple@ABV?$basic_string@DU?$char_traits@D@std@@V?$allocator@D@2@@std@@@1@$$QAV?$tuple@$$V@1@@Z 40169bc0 f i q_shared.obj
 0002:0006bd30       ??$?0ABV?$basic_string@DU?$char_traits@D@std@@V?$allocator@D@2@@std@@$$Z$$V@?$pair@$$CBV?$basic_string@DU?$char_traits@D@std@@V?$allocator@D@2@@std@@V12@@std@@QAE@Upiecewise_construct_t@1@V?$tuple@ABV?$basic_string@DU?$char_traits@D@std@@V?$allocator@D@2@@std@@@1@V?$tuple@$$V@1@@Z 40169d30 f i q_shared.obj
 0002:0006bdd0       ??$?0ABV?$basic_string@DU?$char_traits@D@std@@V?$allocator@D@2@@std@@$0A@@?$tuple@ABV?$basic_string@DU?$char_traits@D@std@@V?$allocator@D@2@@std@@@std@@QAE@ABV?$basic_string@DU?$char_traits@D@std@@V?$allocator@D@2@@1@@Z 40169dd0 f i q_shared.obj
 0002:0006be80       ??$?0ABV?$basic_string@DU?$char_traits@D@std@@V?$allocator@D@2@@std@@@?$_Tuple_val@ABV?$basic_string@DU?$char_traits@D@std@@V?$allocator@D@2@@std@@@std@@QAE@ABV?$basic_string@DU?$char_traits@D@std@@V?$allocator@D@2@@1@@Z 40169e80 f i q_shared.obj
 0002:0006bef0       ??$?0PAU?$_Tree_node@U?$pair@$$CBV?$basic_string@DU?$char_traits@D@std@@V?$allocator@D@2@@std@@V12@@std@@PAX@std@@_N$0A@@?$pair@PAU?$_Tree_node@U?$pair@$$CBV?$basic_string@DU?$char_traits@D@std@@V?$allocator@D@2@@std@@V12@@std@@PAX@std@@_N@std@@QAE@$$QAPAU?$_Tree_node@U?$pair@$$CBV?$basic_string@DU?$char_traits@D@std@@V?$allocator@D@2@@std@@V12@@std@@PAX@1@$$QA_N@Z 40169ef0 f i q_shared.obj
 0002:0006bf80       ??$?0U?$_Tree_node@U?$pair@$$CBV?$basic_string@DU?$char_traits@D@std@@V?$allocator@D@2@@std@@V12@@std@@PAX@std@@@?$allocator@U_Container_proxy@std@@@std@@QAE@ABV?$allocator@U?$_Tree_node@U?$pair@$$CBV?$basic_string@DU?$char_traits@D@std@@V?$allocator@D@2@@std@@V12@@std@@PAX@std@@@1@@Z 40169f80 f i q_shared.obj
 0002:0006bfe0       ??$?0U_Exact_args_t@std@@$0A@@?$tuple@$$V@std@@QAE@U_Exact_args_t@1@@Z 40169fe0 f i q_shared.obj
 0002:0006c040       ??$?0U_Exact_args_t@std@@ABV?$basic_string@DU?$char_traits@D@std@@V?$allocator@D@2@@1@$$V$0A@@?$tuple@ABV?$basic_string@DU?$char_traits@D@std@@V?$allocator@D@2@@std@@@std@@QAE@U_Exact_args_t@1@ABV?$basic_string@DU?$char_traits@D@std@@V?$allocator@D@2@@1@@Z 4016a040 f i q_shared.obj
 0002:0006c0d0       ??$?0V?$allocator@D@std@@$$V@?$_Compressed_pair@V?$allocator@D@std@@V?$_String_val@U?$_Simple_types@D@std@@@2@$00@std@@QAE@U_One_then_variadic_args_t@1@$$QAV?$allocator@D@1@@Z 4016a0d0 f i q_shared.obj
 0002:0006c140       ??$?0V?$tuple@ABV?$basic_string@DU?$char_traits@D@std@@V?$allocator@D@2@@std@@@std@@V?$tuple@$$V@1@$0A@$$Z$S@?$pair@$$CBV?$basic_string@DU?$char_traits@D@std@@V?$allocator@D@2@@std@@V12@@std@@AAE@AAV?$tuple@ABV?$basic_string@DU?$char_traits@D@std@@V?$allocator@D@2@@std@@@1@AAV?$tuple@$$V@1@U?$integer_sequence@I$0A@@1@U?$integer_sequence@I$S@1@@Z 4016a140 f i q_shared.obj
 0002:0006c1d0       ??$?MDU?$char_traits@D@std@@V?$allocator@D@1@@std@@YA_NABV?$basic_string@DU?$char_traits@D@std@@V?$allocator@D@2@@0@0@Z 4016a1d0 f i q_shared.obj
 0002:0006c250       ??$_Alloc_proxy@V?$allocator@U_Container_proxy@std@@@std@@@_Container_base12@std@@QAEX$$QAV?$allocator@U_Container_proxy@std@@@1@@Z 4016a250 f i q_shared.obj
 0002:0006c300       ??$_Assign@D@?$basic_string@DU?$char_traits@D@std@@V?$allocator@D@2@@std@@AAEAAV01@QBDI@Z 4016a300 f i q_shared.obj
 0002:0006c3f0       ??$_Buyheadnode@V?$allocator@U?$_Tree_node@U?$pair@$$CBV?$basic_string@DU?$char_traits@D@std@@V?$allocator@D@2@@std@@V12@@std@@PAX@std@@@std@@@?$_Tree_node@U?$pair@$$CBV?$basic_string@DU?$char_traits@D@std@@V?$allocator@D@2@@std@@V12@@std@@PAX@std@@SAPAU01@AAV?$allocator@U?$_Tree_node@U?$pair@$$CBV?$basic_string@DU?$char_traits@D@std@@V?$allocator@D@2@@std@@V12@@std@@PAX@std@@@1@@Z 4016a3f0 f i q_shared.obj
 0002:0006c4e0       ??$_Construct@$01PBD@?$basic_string@DU?$char_traits@D@std@@V?$allocator@D@2@@std@@AAEXQBDI@Z 4016a4e0 f i q_shared.obj
 0002:0006c760       ??$_Construct_in_place@PAU?$_Tree_node@U?$pair@$$CBV?$basic_string@DU?$char_traits@D@std@@V?$allocator@D@2@@std@@V12@@std@@PAX@std@@AAPAU12@@std@@YAXAAPAU?$_Tree_node@U?$pair@$$CBV?$basic_string@DU?$char_traits@D@std@@V?$allocator@D@2@@std@@V12@@std@@PAX@0@0@Z 4016a760 f i q_shared.obj
 0002:0006c7f0       ??$_Construct_in_place@PAU?$_Tree_node@U?$pair@$$CBV?$basic_string@DU?$char_traits@D@std@@V?$allocator@D@2@@std@@V12@@std@@PAX@std@@ABQAU12@@std@@YAXAAPAU?$_Tree_node@U?$pair@$$CBV?$basic_string@DU?$char_traits@D@std@@V?$allocator@D@2@@std@@V12@@std@@PAX@0@ABQAU10@@Z 4016a7f0 f i q_shared.obj
 0002:0006c880       ??$_Debug_lt_pred@ABU?$less@V?$basic_string@DU?$char_traits@D@std@@V?$allocator@D@2@@std@@@std@@ABV?$basic_string@DU?$char_traits@D@std@@V?$allocator@D@2@@2@ABV32@@std@@YA_NABU?$less@V?$basic_string@DU?$char_traits@D@std@@V?$allocator@D@2@@std@@@0@ABV?$basic_string@DU?$char_traits@D@std@@V?$allocator@D@2@@0@1@Z 4016a880 f i q_shared.obj
 0002:0006c950       ??$_Destroy_in_place@PAU?$_Tree_node@U?$pair@$$CBV?$basic_string@DU?$char_traits@D@std@@V?$allocator@D@2@@std@@V12@@std@@PAX@std@@@std@@YAXAAPAU?$_Tree_node@U?$pair@$$CBV?$basic_string@DU?$char_traits@D@std@@V?$allocator@D@2@@std@@V12@@std@@PAX@0@@Z 4016a950 f i q_shared.obj
 0002:0006c9a0       ??$_Erase_head@V?$allocator@U?$_Tree_node@U?$pair@$$CBV?$basic_string@DU?$char_traits@D@std@@V?$allocator@D@2@@std@@V12@@std@@PAX@std@@@std@@@?$_Tree_val@U?$_Tree_simple_types@U?$pair@$$CBV?$basic_string@DU?$char_traits@D@std@@V?$allocator@D@2@@std@@V12@@std@@@std@@@std@@QAEXAAV?$allocator@U?$_Tree_node@U?$pair@$$CBV?$basic_string@DU?$char_traits@D@std@@V?$allocator@D@2@@std@@V12@@std@@PAX@std@@@1@@Z 4016a9a0 f i q_shared.obj
 0002:0006ca40       ??$_Erase_tree@V?$allocator@U?$_Tree_node@U?$pair@$$CBV?$basic_string@DU?$char_traits@D@std@@V?$allocator@D@2@@std@@V12@@std@@PAX@std@@@std@@@?$_Tree_val@U?$_Tree_simple_types@U?$pair@$$CBV?$basic_string@DU?$char_traits@D@std@@V?$allocator@D@2@@std@@V12@@std@@@std@@@std@@QAEXAAV?$allocator@U?$_Tree_node@U?$pair@$$CBV?$basic_string@DU?$char_traits@D@std@@V?$allocator@D@2@@std@@V12@@std@@PAX@std@@@1@PAU?$_Tree_node@U?$pair@$$CBV?$basic_string@DU?$char_traits@D@std@@V?$allocator@D@2@@std@@V12@@std@@PAX@1@@Z 4016aa40 f i q_shared.obj
 0002:0006cae0       ??$_Find@V?$basic_string@DU?$char_traits@D@std@@V?$allocator@D@2@@std@@@?$_Tree@V?$_Tmap_traits@V?$basic_string@DU?$char_traits@D@std@@V?$allocator@D@2@@std@@V12@U?$less@V?$basic_string@DU?$char_traits@D@std@@V?$allocator@D@2@@std@@@2@V?$allocator@U?$pair@$$CBV?$basic_string@DU?$char_traits@D@std@@V?$allocator@D@2@@std@@V12@@std@@@2@$0A@@std@@@std@@ABEPAU?$_Tree_node@U?$pair@$$CBV?$basic_string@DU?$char_traits@D@std@@V?$allocator@D@2@@std@@V12@@std@@PAX@1@ABV?$basic_string@DU?$char_traits@D@std@@V?$allocator@D@2@@1@@Z 4016aae0 f i q_shared.obj
 0002:0006cbb0       ??$_Find_lower_bound@V?$basic_string@DU?$char_traits@D@std@@V?$allocator@D@2@@std@@@?$_Tree@V?$_Tmap_traits@V?$basic_string@DU?$char_traits@D@std@@V?$allocator@D@2@@std@@V12@U?$less@V?$basic_string@DU?$char_traits@D@std@@V?$allocator@D@2@@std@@@2@V?$allocator@U?$pair@$$CBV?$basic_string@DU?$char_traits@D@std@@V?$allocator@D@2@@std@@V12@@std@@@2@$0A@@std@@@std@@IBE?AU?$_Tree_find_result@PAU?$_Tree_node@U?$pair@$$CBV?$basic_string@DU?$char_traits@D@std@@V?$allocator@D@2@@std@@V12@@std@@PAX@std@@@1@ABV?$basic_string@DU?$char_traits@D@std@@V?$allocator@D@2@@1@@Z 4016abb0 f i q_shared.obj
 0002:0006cd10       ??$_Freenode0@V?$allocator@U?$_Tree_node@U?$pair@$$CBV?$basic_string@DU?$char_traits@D@std@@V?$allocator@D@2@@std@@V12@@std@@PAX@std@@@std@@@?$_Tree_node@U?$pair@$$CBV?$basic_string@DU?$char_traits@D@std@@V?$allocator@D@2@@std@@V12@@std@@PAX@std@@SAXAAV?$allocator@U?$_Tree_node@U?$pair@$$CBV?$basic_string@DU?$char_traits@D@std@@V?$allocator@D@2@@std@@V12@@std@@PAX@std@@@1@PAU01@@Z 4016ad10 f i q_shared.obj
 0002:0006cda0       ??$_Freenode@V?$allocator@U?$_Tree_node@U?$pair@$$CBV?$basic_string@DU?$char_traits@D@std@@V?$allocator@D@2@@std@@V12@@std@@PAX@std@@@std@@@?$_Tree_node@U?$pair@$$CBV?$basic_string@DU?$char_traits@D@std@@V?$allocator@D@2@@std@@V12@@std@@PAX@std@@SAXAAV?$allocator@U?$_Tree_node@U?$pair@$$CBV?$basic_string@DU?$char_traits@D@std@@V?$allocator@D@2@@std@@V12@@std@@PAX@std@@@1@PAU01@@Z 4016ada0 f i q_shared.obj
 0002:0006ce60       ??$_Get_proxy_allocator@V?$allocator@U?$_Tree_node@U?$pair@$$CBV?$basic_string@DU?$char_traits@D@std@@V?$allocator@D@2@@std@@V12@@std@@PAX@std@@@std@@@std@@YA?AV?$allocator@U_Container_proxy@std@@@0@ABV?$allocator@U?$_Tree_node@U?$pair@$$CBV?$basic_string@DU?$char_traits@D@std@@V?$allocator@D@2@@std@@V12@@std@@PAX@std@@@0@@Z 4016ae60 f i q_shared.obj
 0002:0006cec0       ??$_Get_size_of_n@$0EI@@std@@YAII@Z 4016aec0 f i q_shared.obj
 0002:0006cf30       ??$_Kfn@$$CBV?$basic_string@DU?$char_traits@D@std@@V?$allocator@D@2@@std@@V12@@?$_Tmap_traits@V?$basic_string@DU?$char_traits@D@std@@V?$allocator@D@2@@std@@V12@U?$less@V?$basic_string@DU?$char_traits@D@std@@V?$allocator@D@2@@std@@@2@V?$allocator@U?$pair@$$CBV?$basic_string@DU?$char_traits@D@std@@V?$allocator@D@2@@std@@V12@@std@@@2@$0A@@std@@SAABV?$basic_string@DU?$char_traits@D@std@@V?$allocator@D@2@@1@ABU?$pair@$$CBV?$basic_string@DU?$char_traits@D@std@@V?$allocator@D@2@@std@@V12@@1@@Z 4016af30 f i q_shared.obj
 0002:0006cf80       ??$_Lower_bound_duplicate@V?$basic_string@DU?$char_traits@D@std@@V?$allocator@D@2@@std@@@?$_Tree@V?$_Tmap_traits@V?$basic_string@DU?$char_traits@D@std@@V?$allocator@D@2@@std@@V12@U?$less@V?$basic_string@DU?$char_traits@D@std@@V?$allocator@D@2@@std@@@2@V?$allocator@U?$pair@$$CBV?$basic_string@DU?$char_traits@D@std@@V?$allocator@D@2@@std@@V12@@std@@@2@$0A@@std@@@std@@IBE_NQAU?$_Tree_node@U?$pair@$$CBV?$basic_string@DU?$char_traits@D@std@@V?$allocator@D@2@@std@@V12@@std@@PAX@1@ABV?$basic_string@DU?$char_traits@D@std@@V?$allocator@D@2@@1@@Z 4016af80 f i q_shared.obj
 0002:0006d040       ??$_Pocca@V?$allocator@D@std@@@std@@YAXAAV?$allocator@D@0@ABV10@@Z 4016b040 f i q_shared.obj
 0002:0006d090       ??$_Reallocate_for@V<lambda_c85e266a9e31778a9f60ed6807618c29>@@PBD@?$basic_string@DU?$char_traits@D@std@@V?$allocator@D@2@@std@@AAEAAV01@IV<lambda_c85e266a9e31778a9f60ed6807618c29>@@PBD@Z 4016b090 f i q_shared.obj
 0002:0006d230       ??$_Traits_compare@U?$char_traits@D@std@@@std@@YAHQBDI0I@Z 4016b230 f i q_shared.obj
 0002:0006d2e0       ??$_Traits_move_batch@U?$char_traits@D@std@@D@std@@YAXQADQBDI@Z 4016b2e0 f i q_shared.obj
 0002:0006d340       ??$_Try_emplace@ABV?$basic_string@DU?$char_traits@D@std@@V?$allocator@D@2@@std@@$$V@?$map@V?$basic_string@DU?$char_traits@D@std@@V?$allocator@D@2@@std@@V12@U?$less@V?$basic_string@DU?$char_traits@D@std@@V?$allocator@D@2@@std@@@2@V?$allocator@U?$pair@$$CBV?$basic_string@DU?$char_traits@D@std@@V?$allocator@D@2@@std@@V12@@std@@@2@@std@@AAE?AU?$pair@PAU?$_Tree_node@U?$pair@$$CBV?$basic_string@DU?$char_traits@D@std@@V?$allocator@D@2@@std@@V12@@std@@PAX@std@@_N@1@ABV?$basic_string@DU?$char_traits@D@std@@V?$allocator@D@2@@1@@Z 4016b340 f i q_shared.obj
 0002:0006d520       ??$_Tuple_get@$0A@ABV?$basic_string@DU?$char_traits@D@std@@V?$allocator@D@2@@std@@@std@@YA$$QA_P$$QAV?$tuple@ABV?$basic_string@DU?$char_traits@D@std@@V?$allocator@D@2@@std@@@0@@Z 4016b520 f i q_shared.obj
 0002:0006d570       ??$addressof@$$CBV?$_Tree_val@U?$_Tree_simple_types@U?$pair@$$CBV?$basic_string@DU?$char_traits@D@std@@V?$allocator@D@2@@std@@V12@@std@@@std@@@std@@@std@@YAPBV?$_Tree_val@U?$_Tree_simple_types@U?$pair@$$CBV?$basic_string@DU?$char_traits@D@std@@V?$allocator@D@2@@std@@V12@@std@@@std@@@0@ABV10@@Z 4016b570 f i q_shared.obj
 0002:0006d5c0       ??$addressof@$$CBV?$basic_string@DU?$char_traits@D@std@@V?$allocator@D@2@@std@@@std@@YAPBV?$basic_string@DU?$char_traits@D@std@@V?$allocator@D@2@@0@ABV10@@Z 4016b5c0 f i q_shared.obj
 0002:0006d610       ??$addressof@PAU?$_Tree_node@U?$pair@$$CBV?$basic_string@DU?$char_traits@D@std@@V?$allocator@D@2@@std@@V12@@std@@PAX@std@@@std@@YAPAPAU?$_Tree_node@U?$pair@$$CBV?$basic_string@DU?$char_traits@D@std@@V?$allocator@D@2@@std@@V12@@std@@PAX@0@AAPAU10@@Z 4016b610 f i q_shared.obj
 0002:0006d660       ??$addressof@U?$pair@$$CBV?$basic_string@DU?$char_traits@D@std@@V?$allocator@D@2@@std@@V12@@std@@@std@@YAPAU?$pair@$$CBV?$basic_string@DU?$char_traits@D@std@@V?$allocator@D@2@@std@@V12@@0@AAU10@@Z 4016b660 f i q_shared.obj
 0002:0006d6b0       ??$addressof@V?$_Tree_val@U?$_Tree_simple_types@U?$pair@$$CBV?$basic_string@DU?$char_traits@D@std@@V?$allocator@D@2@@std@@V12@@std@@@std@@@std@@@std@@YAPAV?$_Tree_val@U?$_Tree_simple_types@U?$pair@$$CBV?$basic_string@DU?$char_traits@D@std@@V?$allocator@D@2@@std@@V12@@std@@@std@@@0@AAV10@@Z 4016b6b0 f i q_shared.obj
 0002:0006d700       ??$construct@U?$pair@$$CBV?$basic_string@DU?$char_traits@D@std@@V?$allocator@D@2@@std@@V12@@std@@ABUpiecewise_construct_t@2@V?$tuple@ABV?$basic_string@DU?$char_traits@D@std@@V?$allocator@D@2@@std@@@2@V?$tuple@$$V@2@@?$_Default_allocator_traits@V?$allocator@U?$_Tree_node@U?$pair@$$CBV?$basic_string@DU?$char_traits@D@std@@V?$allocator@D@2@@std@@V12@@std@@PAX@std@@@std@@@std@@SAXAAV?$allocator@U?$_Tree_node@U?$pair@$$CBV?$basic_string@DU?$char_traits@D@std@@V?$allocator@D@2@@std@@V12@@std@@PAX@std@@@1@QAU?$pair@$$CBV?$basic_string@DU?$char_traits@D@std@@V?$allocator@D@2@@std@@V12@@1@ABUpiecewise_construct_t@1@$$QAV?$tuple@ABV?$basic_string@DU?$char_traits@D@std@@V?$allocator@D@2@@std@@@1@$$QAV?$tuple@$$V@1@@Z 4016b700 f i q_shared.obj
 0002:0006d7c0       ??$destroy@U?$pair@$$CBV?$basic_string@DU?$char_traits@D@std@@V?$allocator@D@2@@std@@V12@@std@@@?$_Default_allocator_traits@V?$allocator@U?$_Tree_node@U?$pair@$$CBV?$basic_string@DU?$char_traits@D@std@@V?$allocator@D@2@@std@@V12@@std@@PAX@std@@@std@@@std@@SAXAAV?$allocator@U?$_Tree_node@U?$pair@$$CBV?$basic_string@DU?$char_traits@D@std@@V?$allocator@D@2@@std@@V12@@std@@PAX@std@@@1@QAU?$pair@$$CBV?$basic_string@DU?$char_traits@D@std@@V?$allocator@D@2@@std@@V12@@1@@Z 4016b7c0 f i q_shared.obj
 0002:0006d820       ??$exchange@PAU?$_Tree_node@U?$pair@$$CBV?$basic_string@DU?$char_traits@D@std@@V?$allocator@D@2@@std@@V12@@std@@PAX@std@@$$T@std@@YAPAU?$_Tree_node@U?$pair@$$CBV?$basic_string@DU?$char_traits@D@std@@V?$allocator@D@2@@std@@V12@@std@@PAX@0@AAPAU10@$$QA$$T@Z 4016b820 f i q_shared.obj
 0002:0006d890       ??$exchange@PAU?$_Tree_node@U?$pair@$$CBV?$basic_string@DU?$char_traits@D@std@@V?$allocator@D@2@@std@@V12@@std@@PAX@std@@AAPAU12@@std@@YAPAU?$_Tree_node@U?$pair@$$CBV?$basic_string@DU?$char_traits@D@std@@V?$allocator@D@2@@std@@V12@@std@@PAX@0@AAPAU10@0@Z 4016b890 f i q_shared.obj
 0002:0006d900       ??$forward@AAPAU?$_Tree_node@U?$pair@$$CBV?$basic_string@DU?$char_traits@D@std@@V?$allocator@D@2@@std@@V12@@std@@PAX@std@@@std@@YAAAPAU?$_Tree_node@U?$pair@$$CBV?$basic_string@DU?$char_traits@D@std@@V?$allocator@D@2@@std@@V12@@std@@PAX@0@AAPAU10@@Z 4016b900 f i q_shared.obj
 0002:0006d950       ??$forward@ABQAU?$_Tree_node@U?$pair@$$CBV?$basic_string@DU?$char_traits@D@std@@V?$allocator@D@2@@std@@V12@@std@@PAX@std@@@std@@YAABQAU?$_Tree_node@U?$pair@$$CBV?$basic_string@DU?$char_traits@D@std@@V?$allocator@D@2@@std@@V12@@std@@PAX@0@ABQAU10@@Z 4016b950 f i q_shared.obj
 0002:0006d9a0       ??$forward@ABU?$less@V?$basic_string@DU?$char_traits@D@std@@V?$allocator@D@2@@std@@@std@@@std@@YAABU?$less@V?$basic_string@DU?$char_traits@D@std@@V?$allocator@D@2@@std@@@0@ABU10@@Z 4016b9a0 f i q_shared.obj
 0002:0006d9f0       ??$forward@ABUpiecewise_construct_t@std@@@std@@YAABUpiecewise_construct_t@0@ABU10@@Z 4016b9f0 f i q_shared.obj
 0002:0006da40       ??$forward@ABV?$basic_string@DU?$char_traits@D@std@@V?$allocator@D@2@@std@@@std@@YAABV?$basic_string@DU?$char_traits@D@std@@V?$allocator@D@2@@0@ABV10@@Z 4016ba40 f i q_shared.obj
 0002:0006da90       ??$forward@PAU?$_Tree_node@U?$pair@$$CBV?$basic_string@DU?$char_traits@D@std@@V?$allocator@D@2@@std@@V12@@std@@PAX@std@@@std@@YA$$QAPAU?$_Tree_node@U?$pair@$$CBV?$basic_string@DU?$char_traits@D@std@@V?$allocator@D@2@@std@@V12@@std@@PAX@0@AAPAU10@@Z 4016ba90 f i q_shared.obj
 0002:0006dae0       ??$forward@U_Zero_then_variadic_args_t@std@@@std@@YA$$QAU_Zero_then_variadic_args_t@0@AAU10@@Z 4016bae0 f i q_shared.obj
 0002:0006db30       ??$forward@V?$allocator@D@std@@@std@@YA$$QAV?$allocator@D@0@AAV10@@Z 4016bb30 f i q_shared.obj
 0002:0006db80       ??$forward@V?$tuple@$$V@std@@@std@@YA$$QAV?$tuple@$$V@0@AAV10@@Z 4016bb80 f i q_shared.obj
 0002:0006dbd0       ??$forward@V?$tuple@ABV?$basic_string@DU?$char_traits@D@std@@V?$allocator@D@2@@std@@@std@@@std@@YA$$QAV?$tuple@ABV?$basic_string@DU?$char_traits@D@std@@V?$allocator@D@2@@std@@@0@AAV10@@Z 4016bbd0 f i q_shared.obj
 0002:0006dc20       ??$forward@_N@std@@YA$$QA_NAA_N@Z 4016bc20 f i q_shared.obj
 0002:0006dc70       ??$forward_as_tuple@$$V@std@@YA?AV?$tuple@$$V@0@XZ 4016bc70 f i q_shared.obj
 0002:0006dcc0       ??$forward_as_tuple@ABV?$basic_string@DU?$char_traits@D@std@@V?$allocator@D@2@@std@@@std@@YA?AV?$tuple@ABV?$basic_string@DU?$char_traits@D@std@@V?$allocator@D@2@@std@@@0@ABV?$basic_string@DU?$char_traits@D@std@@V?$allocator@D@2@@0@@Z 4016bcc0 f i q_shared.obj
 0002:0006dd30       ??$move@AAV?$tuple@ABV?$basic_string@DU?$char_traits@D@std@@V?$allocator@D@2@@std@@@std@@@std@@YA$$QAV?$tuple@ABV?$basic_string@DU?$char_traits@D@std@@V?$allocator@D@2@@std@@@0@AAV10@@Z 4016bd30 f i q_shared.obj
 0002:0006dd80       ??0?$_Alloc_construct_ptr@V?$allocator@U?$_Tree_node@U?$pair@$$CBV?$basic_string@DU?$char_traits@D@std@@V?$allocator@D@2@@std@@V12@@std@@PAX@std@@@std@@@std@@QAE@AAV?$allocator@U?$_Tree_node@U?$pair@$$CBV?$basic_string@DU?$char_traits@D@std@@V?$allocator@D@2@@std@@V12@@std@@PAX@std@@@1@@Z 4016bd80 f i q_shared.obj
 0002:0006ddf0       ??0?$_Tree@V?$_Tmap_traits@V?$basic_string@DU?$char_traits@D@std@@V?$allocator@D@2@@std@@V12@U?$less@V?$basic_string@DU?$char_traits@D@std@@V?$allocator@D@2@@std@@@2@V?$allocator@U?$pair@$$CBV?$basic_string@DU?$char_traits@D@std@@V?$allocator@D@2@@std@@V12@@std@@@2@$0A@@std@@@std@@QAE@ABU?$less@V?$basic_string@DU?$char_traits@D@std@@V?$allocator@D@2@@std@@@1@@Z 4016bdf0 f i q_shared.obj
 0002:0006de80       ??0?$_Tree_const_iterator@V?$_Tree_val@U?$_Tree_simple_types@U?$pair@$$CBV?$basic_string@DU?$char_traits@D@std@@V?$allocator@D@2@@std@@V12@@std@@@std@@@std@@@std@@QAE@PAU?$_Tree_node@U?$pair@$$CBV?$basic_string@DU?$char_traits@D@std@@V?$allocator@D@2@@std@@V12@@std@@PAX@1@PBV?$_Tree_val@U?$_Tree_simple_types@U?$pair@$$CBV?$basic_string@DU?$char_traits@D@std@@V?$allocator@D@2@@std@@V12@@std@@@std@@@1@@Z 4016be80 f i q_shared.obj
 0002:0006dee0       ??0?$_Tree_iterator@V?$_Tree_val@U?$_Tree_simple_types@U?$pair@$$CBV?$basic_string@DU?$char_traits@D@std@@V?$allocator@D@2@@std@@V12@@std@@@std@@@std@@@std@@QAE@PAU?$_Tree_node@U?$pair@$$CBV?$basic_string@DU?$char_traits@D@std@@V?$allocator@D@2@@std@@V12@@std@@PAX@1@PBV?$_Tree_val@U?$_Tree_simple_types@U?$pair@$$CBV?$basic_string@DU?$char_traits@D@std@@V?$allocator@D@2@@std@@V12@@std@@@std@@@1@@Z 4016bee0 f i q_shared.obj
 0002:0006df40       ??0?$_Tree_temp_node_alloc@V?$allocator@U?$_Tree_node@U?$pair@$$CBV?$basic_string@DU?$char_traits@D@std@@V?$allocator@D@2@@std@@V12@@std@@PAX@std@@@std@@@std@@QAE@AAV?$allocator@U?$_Tree_node@U?$pair@$$CBV?$basic_string@DU?$char_traits@D@std@@V?$allocator@D@2@@std@@V12@@std@@PAX@std@@@1@@Z 4016bf40 f i q_shared.obj
 0002:0006e000       ??0?$_Tree_unchecked_const_iterator@V?$_Tree_val@U?$_Tree_simple_types@U?$pair@$$CBV?$basic_string@DU?$char_traits@D@std@@V?$allocator@D@2@@std@@V12@@std@@@std@@@std@@U_Iterator_base12@2@@std@@QAE@PAU?$_Tree_node@U?$pair@$$CBV?$basic_string@DU?$char_traits@D@std@@V?$allocator@D@2@@std@@V12@@std@@PAX@1@PBV?$_Tree_val@U?$_Tree_simple_types@U?$pair@$$CBV?$basic_string@DU?$char_traits@D@std@@V?$allocator@D@2@@std@@V12@@std@@@std@@@1@@Z 4016c000 f i q_shared.obj
 0002:0006e080       ??0?$_Tree_val@U?$_Tree_simple_types@U?$pair@$$CBV?$basic_string@DU?$char_traits@D@std@@V?$allocator@D@2@@std@@V12@@std@@@std@@@std@@QAE@XZ 4016c080 f i q_shared.obj
 0002:0006e100       ??0?$allocator@U?$_Tree_node@U?$pair@$$CBV?$basic_string@DU?$char_traits@D@std@@V?$allocator@D@2@@std@@V12@@std@@PAX@std@@@std@@QAE@XZ 4016c100 f i q_shared.obj
 0002:0006e160       ??0?$basic_string@DU?$char_traits@D@std@@V?$allocator@D@2@@std@@QAE@ABV01@@Z 4016c160 f i q_shared.obj
 0002:0006e250       ??0?$basic_string@DU?$char_traits@D@std@@V?$allocator@D@2@@std@@QAE@XZ 4016c250 f i q_shared.obj
 0002:0006e300       ??0?$map@V?$basic_string@DU?$char_traits@D@std@@V?$allocator@D@2@@std@@V12@U?$less@V?$basic_string@DU?$char_traits@D@std@@V?$allocator@D@2@@std@@@2@V?$allocator@U?$pair@$$CBV?$basic_string@DU?$char_traits@D@std@@V?$allocator@D@2@@std@@V12@@std@@@2@@std@@QAE@XZ 4016c300 f i q_shared.obj
 0002:0006e370       ??0?$tuple@$$V@std@@QAE@ABV01@@Z 4016c370 f i q_shared.obj
 0002:0006e3d0       ??0?$tuple@ABV?$basic_string@DU?$char_traits@D@std@@V?$allocator@D@2@@std@@@std@@QAE@$$QAV01@@Z 4016c3d0 f i q_shared.obj
 0002:0006e450       ??0_Iterator_base12@std@@QAE@XZ 4016c450 f i q_shared.obj
 0002:0006e4c0       ??1?$_Alloc_construct_ptr@V?$allocator@U?$_Tree_node@U?$pair@$$CBV?$basic_string@DU?$char_traits@D@std@@V?$allocator@D@2@@std@@V12@@std@@PAX@std@@@std@@@std@@QAE@XZ 4016c4c0 f i q_shared.obj
 0002:0006e540       ??1?$_Tree@V?$_Tmap_traits@V?$basic_string@DU?$char_traits@D@std@@V?$allocator@D@2@@std@@V12@U?$less@V?$basic_string@DU?$char_traits@D@std@@V?$allocator@D@2@@std@@@2@V?$allocator@U?$pair@$$CBV?$basic_string@DU?$char_traits@D@std@@V?$allocator@D@2@@std@@V12@@std@@@2@$0A@@std@@@std@@QAE@XZ 4016c540 f i q_shared.obj
 0002:0006e620       ??1?$_Tree_const_iterator@V?$_Tree_val@U?$_Tree_simple_types@U?$pair@$$CBV?$basic_string@DU?$char_traits@D@std@@V?$allocator@D@2@@std@@V12@@std@@@std@@@std@@@std@@QAE@XZ 4016c620 f i q_shared.obj
 0002:0006e670       ??1?$_Tree_iterator@V?$_Tree_val@U?$_Tree_simple_types@U?$pair@$$CBV?$basic_string@DU?$char_traits@D@std@@V?$allocator@D@2@@std@@V12@@std@@@std@@@std@@@std@@QAE@XZ 4016c670 f i q_shared.obj
 0002:0006e6c0       ??1?$_Tree_temp_node@V?$allocator@U?$_Tree_node@U?$pair@$$CBV?$basic_string@DU?$char_traits@D@std@@V?$allocator@D@2@@std@@V12@@std@@PAX@std@@@std@@@std@@QAE@XZ 4016c6c0 f i q_shared.obj
 0002:0006e7d0       ??1?$_Tree_temp_node_alloc@V?$allocator@U?$_Tree_node@U?$pair@$$CBV?$basic_string@DU?$char_traits@D@std@@V?$allocator@D@2@@std@@V12@@std@@PAX@std@@@std@@@std@@QAE@XZ 4016c7d0 f i q_shared.obj
 0002:0006e820       ??1?$_Tree_unchecked_const_iterator@V?$_Tree_val@U?$_Tree_simple_types@U?$pair@$$CBV?$basic_string@DU?$char_traits@D@std@@V?$allocator@D@2@@std@@V12@@std@@@std@@@std@@U_Iterator_base12@2@@std@@QAE@XZ 4016c820 f i q_shared.obj
 0002:0006e870       ??1?$map@V?$basic_string@DU?$char_traits@D@std@@V?$allocator@D@2@@std@@V12@U?$less@V?$basic_string@DU?$char_traits@D@std@@V?$allocator@D@2@@std@@@2@V?$allocator@U?$pair@$$CBV?$basic_string@DU?$char_traits@D@std@@V?$allocator@D@2@@std@@V12@@std@@@2@@std@@QAE@XZ 4016c870 f i q_shared.obj
 0002:0006e8c0       ??1?$pair@$$CBV?$basic_string@DU?$char_traits@D@std@@V?$allocator@D@2@@std@@V12@@std@@QAE@XZ 4016c8c0 f i q_shared.obj
 0002:0006e920       ??1_Iterator_base12@std@@QAE@XZ 4016c920 f i q_shared.obj
 0002:0006e980       ??4?$basic_string@DU?$char_traits@D@std@@V?$allocator@D@2@@std@@QAEAAV01@ABV01@@Z 4016c980 f i q_shared.obj
 0002:0006ea40       ??8?$_Tree_const_iterator@V?$_Tree_val@U?$_Tree_simple_types@U?$pair@$$CBV?$basic_string@DU?$char_traits@D@std@@V?$allocator@D@2@@std@@V12@@std@@@std@@@std@@@std@@QBE_NABV01@@Z 4016ca40 f i q_shared.obj
 0002:0006eb20       ??9?$_Tree_const_iterator@V?$_Tree_val@U?$_Tree_simple_types@U?$pair@$$CBV?$basic_string@DU?$char_traits@D@std@@V?$allocator@D@2@@std@@V12@@std@@@std@@@std@@@std@@QBE_NABV01@@Z 4016cb20 f i q_shared.obj
 0002:0006ebb0       ??A?$map@V?$basic_string@DU?$char_traits@D@std@@V?$allocator@D@2@@std@@V12@U?$less@V?$basic_string@DU?$char_traits@D@std@@V?$allocator@D@2@@std@@@2@V?$allocator@U?$pair@$$CBV?$basic_string@DU?$char_traits@D@std@@V?$allocator@D@2@@std@@V12@@std@@@2@@std@@QAEAAV?$basic_string@DU?$char_traits@D@std@@V?$allocator@D@2@@1@ABV21@@Z 4016cbb0 f i q_shared.obj
 0002:0006ec20       ??R<lambda_c85e266a9e31778a9f60ed6807618c29>@@SA@QADIQBD@Z 4016cc20 f i q_shared.obj
 0002:0006ecb0       ??R?$less@V?$basic_string@DU?$char_traits@D@std@@V?$allocator@D@2@@std@@@std@@QBE_NABV?$basic_string@DU?$char_traits@D@std@@V?$allocator@D@2@@1@0@Z 4016ccb0 f i q_shared.obj
 0002:0006ed20       ??_G?$pair@$$CBV?$basic_string@DU?$char_traits@D@std@@V?$allocator@D@2@@std@@V12@@std@@QAEPAXI@Z 4016cd20 f i q_shared.obj
 0002:0006ed90       ?BigFloat@@YAMM@Z          4016cd90 f   q_shared.obj
 0002:0006ee00       ?BigLong64@@YA?AUqint64@@U1@@Z 4016ce00 f   q_shared.obj
 0002:0006ee90       ?BigLong@@YAHH@Z           4016ce90 f   q_shared.obj
 0002:0006eef0       ?BigShort@@YAFF@Z          4016cef0 f   q_shared.obj
 0002:0006ef50       ?COM_BackupParseSession@@YAXPAPAD@Z 4016cf50 f   q_shared.obj
 0002:0006efb0       ?COM_BeginParseSession@@YAXPBD@Z 4016cfb0 f   q_shared.obj
 0002:0006f030       ?COM_BitCheck@@YA?AW4qboolean@@QBHH@Z 4016d030 f   q_shared.obj
 0002:0006f0f0       ?COM_BitClear@@YAXQAHH@Z   4016d0f0 f   q_shared.obj
 0002:0006f1a0       ?COM_BitSet@@YAXQAHH@Z     4016d1a0 f   q_shared.obj
 0002:0006f240       ?COM_Compress@@YAHPAD@Z    4016d240 f   q_shared.obj
 0002:0006f480       ?COM_DefaultExtension@@YAXPADHPBD@Z 4016d480 f   q_shared.obj
 0002:0006f5b0       ?COM_FixPath@@YAXPAD@Z     4016d5b0 f   q_shared.obj
 0002:0006f630       ?COM_GetCurrentParseLine@@YAHXZ 4016d630 f   q_shared.obj
 0002:0006f680       ?COM_MatchToken@@YAXPAPADPAD@Z 4016d680 f   q_shared.obj
 0002:0006f720       ?COM_Parse@@YAPADPAPAD@Z   4016d720 f   q_shared.obj
 0002:0006f780       ?COM_ParseError@@YAXPADZZ  4016d780 f   q_shared.obj
 0002:0006f820       ?COM_ParseExt@@YAPADPAPADW4qboolean@@@Z 4016d820 f   q_shared.obj
 0002:0006fd60       ?COM_ParseWarning@@YAXPADZZ 4016dd60 f   q_shared.obj
 0002:0006fe00       ?COM_RestoreParseSession@@YAXPAPAD@Z 4016de00 f   q_shared.obj
 0002:0006fe60       ?COM_SetCurrentParseLine@@YAXH@Z 4016de60 f   q_shared.obj
 0002:0006feb0       ?COM_SkipPath@@YAPADPAD@Z  4016deb0 f   q_shared.obj
 0002:0006ff40       ?COM_StripExtension@@YAXPBDPAD@Z 4016df40 f   q_shared.obj
 0002:0006ffd0       ?COM_StripFilename@@YAXPAD0@Z 4016dfd0 f   q_shared.obj
 0002:00070060       ?Com_Clamp@@YAMMMM@Z       4016e060 f   q_shared.obj
 0002:000700d0       ?Com_ParseInfos@@YAHPADHQAY0EAA@D@Z 4016e0d0 f   q_shared.obj
 0002:00070320       ?Com_sprintf@@YAXPADHPBDZZ 4016e320 f   q_shared.obj
 0002:000703c0       ?FloatNoSwap@@YAMM@Z       4016e3c0 f   q_shared.obj
 0002:00070410       ?FloatSwap@@YAMM@Z         4016e410 f   q_shared.obj
 0002:00070530       ?Info_NextPair@@YAXPAPBDPAD1@Z 4016e530 f   q_shared.obj
 0002:00070690       ?Info_RemoveKey@@YAXPADPBD@Z 4016e690 f   q_shared.obj
 0002:00070910       ?Info_RemoveKey_Big@@YAXPADPBD@Z 4016e910 f   q_shared.obj
 0002:00070b80       ?Info_SetValueForKey@@YAXPADPBD1@Z 4016eb80 f   q_shared.obj
 0002:00070de0       ?Info_SetValueForKey_Big@@YAXPADPBD1@Z 4016ede0 f   q_shared.obj
 0002:00071040       ?Info_Validate@@YA?AW4qboolean@@PBD@Z 4016f040 f   q_shared.obj
 0002:00071630       ?Info_ValueForKey@@YAPADPBD0@Z 4016f630 f   q_shared.obj
 0002:000718a0       ?LittleFloat@@YAMM@Z       4016f8a0 f   q_shared.obj
 0002:00071910       ?LittleLong64@@YA?AUqint64@@U1@@Z 4016f910 f   q_shared.obj
 0002:000719a0       ?LittleLong@@YAHH@Z        4016f9a0 f   q_shared.obj
 0002:00071a00       ?LittleShort@@YAFF@Z       4016fa00 f   q_shared.obj
 0002:00071a60       ?Long64NoSwap@@YA?AUqint64@@U1@@Z 4016fa60 f   q_shared.obj
 0002:00071ab0       ?Long64Swap@@YA?AUqint64@@U1@@Z 4016fab0 f   q_shared.obj
 0002:00071b80       ?LongNoSwap@@YAHH@Z        4016fb80 f   q_shared.obj
 0002:00071bd0       ?LongSwap@@YAHH@Z          4016fbd0 f   q_shared.obj
 0002:00071c90       ?Parse1DMatrix@@YAXPAPADHPAM@Z 4016fc90 f   q_shared.obj
 0002:00071d60       ?Parse2DMatrix@@YAXPAPADHHPAM@Z 4016fd60 f   q_shared.obj
 0002:00071e20       ?Parse3DMatrix@@YAXPAPADHHHPAM@Z 4016fe20 f   q_shared.obj
 0002:00071ef0       ?Q_CleanDirName@@YAPADPAD@Z 4016fef0 f   q_shared.obj
 0002:00071fc0       ?Q_CleanStr@@YAPADPAD@Z    4016ffc0 f   q_shared.obj
 0002:000720b0       ?Q_PrintStrlen@@YAHPBD@Z   401700b0 f   q_shared.obj
 0002:00072400       ?Q_isBadDirChar@@YA?AW4qboolean@@D@Z 40170400 f   q_shared.obj
 0002:00072550       ?Q_isalpha@@YAHH@Z         40170550 f   q_shared.obj
 0002:000725c0       ?Q_isalphanumeric@@YAHH@Z  401705c0 f   q_shared.obj
 0002:00072640       ?Q_isforfilename@@YAHH@Z   40170640 f   q_shared.obj
 0002:000726c0       ?Q_islower@@YAHH@Z         401706c0 f   q_shared.obj
 0002:00072720       ?Q_isnumeric@@YAHH@Z       40170720 f   q_shared.obj
 0002:00072780       ?Q_isprint@@YAHH@Z         40170780 f   q_shared.obj
 0002:000727e0       ?Q_isupper@@YAHH@Z         401707e0 f   q_shared.obj
 0002:00072840       ?Q_strcat@@YAXPADHPBD@Z    40170840 f   q_shared.obj
 0002:000728e0       ?Q_stricmp@@YAHPBD0@Z      401708e0 f   q_shared.obj
 0002:00072970       ?Q_stricmpn@@YAHPBD0H@Z    40170970 f   q_shared.obj
 0002:00072aa0       ?Q_strlwr@@YAPADPAD@Z      40170aa0 f   q_shared.obj
 0002:00072b40       ?Q_strncmp@@YAHPBD0H@Z     40170b40 f   q_shared.obj
 0002:00072c20       ?Q_strncpyz@@YAXPADPBDH@Z  40170c20 f   q_shared.obj
 0002:00072cd0       ?Q_strrchr@@YAPADPBDH@Z    40170cd0 f   q_shared.obj
 0002:00072d80       ?Q_strupr@@YAPADPAD@Z      40170d80 f   q_shared.obj
 0002:00072e20       ?ShortNoSwap@@YAFF@Z       40170e20 f   q_shared.obj
 0002:00072e70       ?ShortSwap@@YAFF@Z         40170e70 f   q_shared.obj
 0002:00072ef0       ?SkipBracedSection@@YAXPAPAD@Z 40170ef0 f   q_shared.obj
 0002:00072fd0       ?SkipBracedSection_Depth@@YAXPAPADH@Z 40170fd0 f   q_shared.obj
 0002:000730b0       ?SkipRestOfLine@@YAXPAPAD@Z 401710b0 f   q_shared.obj
 0002:00073220       ?Swap_Init@@YAXXZ          40171220 f   q_shared.obj
 0002:00073390       ?_Activate_SSO_buffer@?$_String_val@U?$_Simple_types@D@std@@@std@@QAEXXZ 40171390 f i q_shared.obj
 0002:000733e0       ?_Adopt@_Iterator_base12@std@@QAEXPBU_Container_base12@2@@Z 401713e0 f i q_shared.obj
 0002:00073450       ?_Adopt_locked@_Iterator_base12@std@@AAEXPBU_Container_base12@2@@Z 40171450 f i q_shared.obj
 0002:00073510       ?_Adopt_unlocked@_Iterator_base12@std@@AAEXPBU_Container_base12@2@@Z 40171510 f i q_shared.obj
 0002:000735d0       ?_Alloc_sentinel_and_proxy@?$_Tree@V?$_Tmap_traits@V?$basic_string@DU?$char_traits@D@std@@V?$allocator@D@2@@std@@V12@U?$less@V?$basic_string@DU?$char_traits@D@std@@V?$allocator@D@2@@std@@@2@V?$allocator@U?$pair@$$CBV?$basic_string@DU?$char_traits@D@std@@V?$allocator@D@2@@std@@V12@@std@@@2@$0A@@std@@@std@@IAEXXZ 401715d0 f i q_shared.obj
 0002:00073730       ?_Allocate@?$_Alloc_construct_ptr@V?$allocator@U?$_Tree_node@U?$pair@$$CBV?$basic_string@DU?$char_traits@D@std@@V?$allocator@D@2@@std@@V12@@std@@PAX@std@@@std@@@std@@QAEXXZ 40171730 f i q_shared.obj
 0002:000737b0       ?_Calculate_growth@?$basic_string@DU?$char_traits@D@std@@V?$allocator@D@2@@std@@ABEII@Z 401717b0 f i q_shared.obj
 0002:00073830       ?_Check_grow_by_1@?$_Tree@V?$_Tmap_traits@V?$basic_string@DU?$char_traits@D@std@@V?$allocator@D@2@@std@@V12@U?$less@V?$basic_string@DU?$char_traits@D@std@@V?$allocator@D@2@@std@@@2@V?$allocator@U?$pair@$$CBV?$basic_string@DU?$char_traits@D@std@@V?$allocator@D@2@@std@@V12@@std@@@2@$0A@@std@@@std@@IAEXXZ 40171830 f i q_shared.obj
 0002:000738b0       ?_Construct_empty@?$basic_string@DU?$char_traits@D@std@@V?$allocator@D@2@@std@@AAEXXZ 401718b0 f i q_shared.obj
 0002:00073990       ?_Get_first@?$_Compressed_pair@U?$less@V?$basic_string@DU?$char_traits@D@std@@V?$allocator@D@2@@std@@@std@@V?$_Compressed_pair@V?$allocator@U?$_Tree_node@U?$pair@$$CBV?$basic_string@DU?$char_traits@D@std@@V?$allocator@D@2@@std@@V12@@std@@PAX@std@@@std@@V?$_Tree_val@U?$_Tree_simple_types@U?$pair@$$CBV?$basic_string@DU?$char_traits@D@std@@V?$allocator@D@2@@std@@V12@@std@@@std@@@2@$00@2@$00@std@@QBEABU?$less@V?$basic_string@DU?$char_traits@D@std@@V?$allocator@D@2@@std@@@2@XZ 40171990 f i q_shared.obj
 0002:000739f0       ?_Get_first@?$_Compressed_pair@V?$allocator@U?$_Tree_node@U?$pair@$$CBV?$basic_string@DU?$char_traits@D@std@@V?$allocator@D@2@@std@@V12@@std@@PAX@std@@@std@@V?$_Tree_val@U?$_Tree_simple_types@U?$pair@$$CBV?$basic_string@DU?$char_traits@D@std@@V?$allocator@D@2@@std@@V12@@std@@@std@@@2@$00@std@@QAEAAV?$allocator@U?$_Tree_node@U?$pair@$$CBV?$basic_string@DU?$char_traits@D@std@@V?$allocator@D@2@@std@@V12@@std@@PAX@std@@@2@XZ 401719f0 f i q_shared.obj
 0002:00073a50       ?_Get_first@?$_Compressed_pair@V?$allocator@U?$_Tree_node@U?$pair@$$CBV?$basic_string@DU?$char_traits@D@std@@V?$allocator@D@2@@std@@V12@@std@@PAX@std@@@std@@V?$_Tree_val@U?$_Tree_simple_types@U?$pair@$$CBV?$basic_string@DU?$char_traits@D@std@@V?$allocator@D@2@@std@@V12@@std@@@std@@@2@$00@std@@QBEABV?$allocator@U?$_Tree_node@U?$pair@$$CBV?$basic_string@DU?$char_traits@D@std@@V?$allocator@D@2@@std@@V12@@std@@PAX@std@@@2@XZ 40171a50 f i q_shared.obj
 0002:00073ab0       ?_Get_scary@?$_Tree@V?$_Tmap_traits@V?$basic_string@DU?$char_traits@D@std@@V?$allocator@D@2@@std@@V12@U?$less@V?$basic_string@DU?$char_traits@D@std@@V?$allocator@D@2@@std@@@2@V?$allocator@U?$pair@$$CBV?$basic_string@DU?$char_traits@D@std@@V?$allocator@D@2@@std@@V12@@std@@@2@$0A@@std@@@std@@IAEPAV?$_Tree_val@U?$_Tree_simple_types@U?$pair@$$CBV?$basic_string@DU?$char_traits@D@std@@V?$allocator@D@2@@std@@V12@@std@@@std@@@2@XZ 40171ab0 f i q_shared.obj
 0002:00073b10       ?_Get_scary@?$_Tree@V?$_Tmap_traits@V?$basic_string@DU?$char_traits@D@std@@V?$allocator@D@2@@std@@V12@U?$less@V?$basic_string@DU?$char_traits@D@std@@V?$allocator@D@2@@std@@@2@V?$allocator@U?$pair@$$CBV?$basic_string@DU?$char_traits@D@std@@V?$allocator@D@2@@std@@V12@@std@@@2@$0A@@std@@@std@@IBEPBV?$_Tree_val@U?$_Tree_simple_types@U?$pair@$$CBV?$basic_string@DU?$char_traits@D@std@@V?$allocator@D@2@@std@@V12@@std@@@std@@@2@XZ 40171b10 f i q_shared.obj
 0002:00073b70       ?_Getal@?$_Tree@V?$_Tmap_traits@V?$basic_string@DU?$char_traits@D@std@@V?$allocator@D@2@@std@@V12@U?$less@V?$basic_string@DU?$char_traits@D@std@@V?$allocator@D@2@@std@@@2@V?$allocator@U?$pair@$$CBV?$basic_string@DU?$char_traits@D@std@@V?$allocator@D@2@@std@@V12@@std@@@2@$0A@@std@@@std@@IAEAAV?$allocator@U?$_Tree_node@U?$pair@$$CBV?$basic_string@DU?$char_traits@D@std@@V?$allocator@D@2@@std@@V12@@std@@PAX@std@@@2@XZ 40171b70 f i q_shared.obj
 0002:00073bd0       ?_Getal@?$_Tree@V?$_Tmap_traits@V?$basic_string@DU?$char_traits@D@std@@V?$allocator@D@2@@std@@V12@U?$less@V?$basic_string@DU?$char_traits@D@std@@V?$allocator@D@2@@std@@@2@V?$allocator@U?$pair@$$CBV?$basic_string@DU?$char_traits@D@std@@V?$allocator@D@2@@std@@V12@@std@@@2@$0A@@std@@@std@@IBEABV?$allocator@U?$_Tree_node@U?$pair@$$CBV?$basic_string@DU?$char_traits@D@std@@V?$allocator@D@2@@std@@V12@@std@@PAX@std@@@2@XZ 40171bd0 f i q_shared.obj
 0002:00073c30       ?_Getcomp@?$_Tree@V?$_Tmap_traits@V?$basic_string@DU?$char_traits@D@std@@V?$allocator@D@2@@std@@V12@U?$less@V?$basic_string@DU?$char_traits@D@std@@V?$allocator@D@2@@std@@@2@V?$allocator@U?$pair@$$CBV?$basic_string@DU?$char_traits@D@std@@V?$allocator@D@2@@std@@V12@@std@@@2@$0A@@std@@@std@@IBEABU?$less@V?$basic_string@DU?$char_traits@D@std@@V?$allocator@D@2@@std@@@2@XZ 40171c30 f i q_shared.obj
 0002:00073c90       ?_Getcont@_Iterator_base12@std@@QBEPBU_Container_base12@2@XZ 40171c90 f i q_shared.obj
 0002:00073d10       ?_Insert_node@?$_Tree_val@U?$_Tree_simple_types@U?$pair@$$CBV?$basic_string@DU?$char_traits@D@std@@V?$allocator@D@2@@std@@V12@@std@@@std@@@std@@QAEPAU?$_Tree_node@U?$pair@$$CBV?$basic_string@DU?$char_traits@D@std@@V?$allocator@D@2@@std@@V12@@std@@PAX@2@U?$_Tree_id@PAU?$_Tree_node@U?$pair@$$CBV?$basic_string@DU?$char_traits@D@std@@V?$allocator@D@2@@std@@V12@@std@@PAX@std@@@2@QAU32@@Z 40171d10 f i q_shared.obj
 0002:00073fe0       ?_Lrotate@?$_Tree_val@U?$_Tree_simple_types@U?$pair@$$CBV?$basic_string@DU?$char_traits@D@std@@V?$allocator@D@2@@std@@V12@@std@@@std@@@std@@QAEXPAU?$_Tree_node@U?$pair@$$CBV?$basic_string@DU?$char_traits@D@std@@V?$allocator@D@2@@std@@V12@@std@@PAX@2@@Z 40171fe0 f i q_shared.obj
 0002:000740e0       ?_Myptr@?$_String_val@U?$_Simple_types@D@std@@@std@@QAEPADXZ 401720e0 f i q_shared.obj
 0002:00074170       ?_Myptr@?$_String_val@U?$_Simple_types@D@std@@@std@@QBEPBDXZ 40172170 f i q_shared.obj
 0002:00074200       ?_Orphan_me_locked_v3@_Iterator_base12@std@@AAEXXZ 40172200 f i q_shared.obj
 0002:000742b0       ?_Orphan_me_unlocked_v3@_Iterator_base12@std@@AAEXXZ 401722b0 f i q_shared.obj
 0002:000743a0       ?_Release@?$_Alloc_construct_ptr@V?$allocator@U?$_Tree_node@U?$pair@$$CBV?$basic_string@DU?$char_traits@D@std@@V?$allocator@D@2@@std@@V12@@std@@PAX@std@@@std@@@std@@QAEPAU?$_Tree_node@U?$pair@$$CBV?$basic_string@DU?$char_traits@D@std@@V?$allocator@D@2@@std@@V12@@std@@PAX@2@XZ 401723a0 f i q_shared.obj
 0002:00074420       ?_Rrotate@?$_Tree_val@U?$_Tree_simple_types@U?$pair@$$CBV?$basic_string@DU?$char_traits@D@std@@V?$allocator@D@2@@std@@V12@@std@@@std@@@std@@QAEXPAU?$_Tree_node@U?$pair@$$CBV?$basic_string@DU?$char_traits@D@std@@V?$allocator@D@2@@std@@V12@@std@@PAX@2@@Z 40172420 f i q_shared.obj
 0002:00074530       ?_Throw_tree_length_error@std@@YAXXZ 40172530 f i q_shared.obj
 0002:00074590       ?allocate@?$allocator@U?$_Tree_node@U?$pair@$$CBV?$basic_string@DU?$char_traits@D@std@@V?$allocator@D@2@@std@@V12@@std@@PAX@std@@@std@@QAEPAU?$_Tree_node@U?$pair@$$CBV?$basic_string@DU?$char_traits@D@std@@V?$allocator@D@2@@std@@V12@@std@@PAX@2@I@Z 40172590 f i q_shared.obj
 0002:00074600       ?assign@?$basic_string@DU?$char_traits@D@std@@V?$allocator@D@2@@std@@QAEAAV12@QBDI@Z 40172600 f i q_shared.obj
 0002:00074670       ?compare@?$_Narrow_char_traits@DH@std@@SAHQBD0I@Z 40172670 f i q_shared.obj
 0002:000746d0       ?compare@?$basic_string@DU?$char_traits@D@std@@V?$allocator@D@2@@std@@QBEHABV12@@Z 401726d0 f i q_shared.obj
 0002:00074760       ?deallocate@?$_Default_allocator_traits@V?$allocator@U?$_Tree_node@U?$pair@$$CBV?$basic_string@DU?$char_traits@D@std@@V?$allocator@D@2@@std@@V12@@std@@PAX@std@@@std@@@std@@SAXAAV?$allocator@U?$_Tree_node@U?$pair@$$CBV?$basic_string@DU?$char_traits@D@std@@V?$allocator@D@2@@std@@V12@@std@@PAX@std@@@2@QAU?$_Tree_node@U?$pair@$$CBV?$basic_string@DU?$char_traits@D@std@@V?$allocator@D@2@@std@@V12@@std@@PAX@2@I@Z 40172760 f i q_shared.obj
 0002:000747c0       ?deallocate@?$allocator@U?$_Tree_node@U?$pair@$$CBV?$basic_string@DU?$char_traits@D@std@@V?$allocator@D@2@@std@@V12@@std@@PAX@std@@@std@@QAEXQAU?$_Tree_node@U?$pair@$$CBV?$basic_string@DU?$char_traits@D@std@@V?$allocator@D@2@@std@@V12@@std@@PAX@2@I@Z 401727c0 f i q_shared.obj
 0002:00074870       ?end@?$_Tree@V?$_Tmap_traits@V?$basic_string@DU?$char_traits@D@std@@V?$allocator@D@2@@std@@V12@U?$less@V?$basic_string@DU?$char_traits@D@std@@V?$allocator@D@2@@std@@@2@V?$allocator@U?$pair@$$CBV?$basic_string@DU?$char_traits@D@std@@V?$allocator@D@2@@std@@V12@@std@@@2@$0A@@std@@@std@@QAE?AV?$_Tree_iterator@V?$_Tree_val@U?$_Tree_simple_types@U?$pair@$$CBV?$basic_string@DU?$char_traits@D@std@@V?$allocator@D@2@@std@@V12@@std@@@std@@@std@@@2@XZ 40172870 f i q_shared.obj
 0002:000748f0       ?find@?$_Tree@V?$_Tmap_traits@V?$basic_string@DU?$char_traits@D@std@@V?$allocator@D@2@@std@@V12@U?$less@V?$basic_string@DU?$char_traits@D@std@@V?$allocator@D@2@@std@@@2@V?$allocator@U?$pair@$$CBV?$basic_string@DU?$char_traits@D@std@@V?$allocator@D@2@@std@@V12@@std@@@2@$0A@@std@@@std@@QAE?AV?$_Tree_iterator@V?$_Tree_val@U?$_Tree_simple_types@U?$pair@$$CBV?$basic_string@DU?$char_traits@D@std@@V?$allocator@D@2@@std@@V12@@std@@@std@@@std@@@2@ABV?$basic_string@DU?$char_traits@D@std@@V?$allocator@D@2@@2@@Z 401728f0 f i q_shared.obj
 0002:00074990       ?max_size@?$_Default_allocator_traits@V?$allocator@U?$_Tree_node@U?$pair@$$CBV?$basic_string@DU?$char_traits@D@std@@V?$allocator@D@2@@std@@V12@@std@@PAX@std@@@std@@@std@@SAIABV?$allocator@U?$_Tree_node@U?$pair@$$CBV?$basic_string@DU?$char_traits@D@std@@V?$allocator@D@2@@std@@V12@@std@@PAX@std@@@2@@Z 40172990 f i q_shared.obj
 0002:000749e0       ?max_size@?$_Tree@V?$_Tmap_traits@V?$basic_string@DU?$char_traits@D@std@@V?$allocator@D@2@@std@@V12@U?$less@V?$basic_string@DU?$char_traits@D@std@@V?$allocator@D@2@@std@@@2@V?$allocator@U?$pair@$$CBV?$basic_string@DU?$char_traits@D@std@@V?$allocator@D@2@@std@@V12@@std@@@2@$0A@@std@@@std@@QBEIXZ 401729e0 f i q_shared.obj
 0002:00074a80       ?move@?$_Char_traits@DH@std@@SAPADQADQBDI@Z 40172a80 f i q_shared.obj
 0002:00074ae0       ?select_on_container_copy_construction@?$_Default_allocator_traits@V?$allocator@D@std@@@std@@SA?AV?$allocator@D@2@ABV32@@Z 40172ae0 f i q_shared.obj
 0002:00074b30       ?tv@@YAPAMMMM@Z            40172b30 f   q_shared.obj
 0002:00074bf0       ?va@@YAPADPBDZZ            40172bf0 f   q_shared.obj
 0002:00074d00       ___local_stdio_printf_options 40172d00 f i q_shared.obj
 0002:00074d50       __vsnprintf_l              40172d50 f i q_shared.obj
 0002:00074e00       _vsprintf                  40172e00 f i q_shared.obj
 0002:00074e70       ?BG_cpuUpdate@@YAXXZ       40172e70 f   bg_cpu.obj
 0002:00074fd0       ??$?0$0A@@id@locale@std@@QAE@XZ 40172fd0 f i Cvar.obj
 0002:00075030       ??$?0AAPAV_Facet_base@std@@@?$_Compressed_pair@U?$default_delete@V_Facet_base@std@@@std@@PAV_Facet_base@2@$00@std@@QAE@U_Zero_then_variadic_args_t@1@AAPAV_Facet_base@1@@Z 40173030 f i Cvar.obj
 0002:000750a0       ??$?0ABV?$allocator@D@std@@$$V@?$_Compressed_pair@V?$allocator@D@std@@V?$_String_val@U?$_Simple_types@D@std@@@2@$00@std@@QAE@U_One_then_variadic_args_t@1@ABV?$allocator@D@1@@Z 401730a0 f i Cvar.obj
 0002:00075110       ??$?0PAVCvar@cvar@@@?$_List_node_emplace_op2@V?$allocator@U?$_List_node@PAVCvar@cvar@@PAX@std@@@std@@@std@@QAE@AAV?$allocator@U?$_List_node@PAVCvar@cvar@@PAX@std@@@1@$$QAPAVCvar@cvar@@@Z 40173110 f i Cvar.obj
 0002:00075200       ??$?0U?$default_delete@V_Facet_base@std@@@std@@$0A@@?$unique_ptr@V_Facet_base@std@@U?$default_delete@V_Facet_base@std@@@2@@std@@QAE@PAV_Facet_base@1@@Z 40173200 f i Cvar.obj
 0002:00075270       ??$_Adl_verify_range@PADPBD@std@@YAXABQADABQBD@Z 40173270 f i Cvar.obj
 0002:00075300       ??$_Adl_verify_range@PBDPBD@std@@YAXABQBD0@Z 40173300 f i Cvar.obj
 0002:00075390       ??$_Append@D@?$basic_string@DU?$char_traits@D@std@@V?$allocator@D@2@@std@@AAEAAV01@QBDI@Z 40173390 f i Cvar.obj
 0002:000754a0       ??$_Bit_cast@IT_Addr_storage@error_category@std@@$0A@@std@@YAIABT_Addr_storage@error_category@0@@Z 401734a0 f i Cvar.obj
 0002:00075500       ??$_Construct@$0A@D@?$basic_string@DU?$char_traits@D@std@@V?$allocator@D@2@@std@@AAEXDI@Z 40173500 f i Cvar.obj
 0002:000757e0       ??$_Construct_in_place@PADAAPAD@std@@YAXAAPAD0@Z 401737e0 f i Cvar.obj
 0002:00075870       ??$_Construct_in_place@PAU?$_List_node@PAVCvar@cvar@@PAX@std@@ABQAU12@@std@@YAXAAPAU?$_List_node@PAVCvar@cvar@@PAX@0@ABQAU10@@Z 40173870 f i Cvar.obj
 0002:00075900       ??$_Emplace@PAVCvar@cvar@@@?$list@PAVCvar@cvar@@V?$allocator@PAVCvar@cvar@@@std@@@std@@QAEPAU?$_List_node@PAVCvar@cvar@@PAX@1@QAU21@$$QAPAVCvar@cvar@@@Z 40173900 f i Cvar.obj
 0002:00075a40       ??$_Float_put_desired_precision@N@std@@YAH_JH@Z 40173a40 f i Cvar.obj
 0002:00075b40       ??$_Float_put_desired_precision@O@std@@YAH_JH@Z 40173b40 f i Cvar.obj
 0002:00075c40       ??$_Fput_v3@$0A@@?$num_put@DV?$ostreambuf_iterator@DU?$char_traits@D@std@@@std@@@std@@ABE?AV?$ostreambuf_iterator@DU?$char_traits@D@std@@@1@V21@AAVios_base@1@DPBDI_N@Z 40173c40 f i Cvar.obj
 0002:000763f0       ??$_Get_index@$0A@@id@locale@std@@QAEIXZ 401743f0 f i Cvar.obj
 0002:000764d0       ??$_Immortalize_memcpy_image@V_Iostream_error_category2@std@@@std@@YAABV_Iostream_error_category2@0@XZ 401744d0 f i Cvar.obj
 0002:00076520       ??$_Maklocchr@D@std@@YADDPADABU_Cvtvec@@@Z 40174520 f i Cvar.obj
 0002:00076570       ??$_Maklocstr@D@std@@YAPADPBDPADABU_Cvtvec@@@Z 40174570 f i Cvar.obj
 0002:00076650       ??$_Pocma@V?$allocator@D@std@@@std@@YAXAAV?$allocator@D@0@0@Z 40174650 f i Cvar.obj
 0002:000766b0       ??$_Reallocate_grow_by@V<lambda_6607a66f2a10a1261ff9db96cba1015b>@@IID@?$basic_string@DU?$char_traits@D@std@@V?$allocator@D@2@@std@@AAEAAV01@IV<lambda_6607a66f2a10a1261ff9db96cba1015b>@@IID@Z 401746b0 f i Cvar.obj
 0002:000768d0       ??$_Reallocate_grow_by@V<lambda_73347dd824626abab36262ed74192d8f>@@PBDI@?$basic_string@DU?$char_traits@D@std@@V?$allocator@D@2@@std@@AAEAAV01@IV<lambda_73347dd824626abab36262ed74192d8f>@@PBDI@Z 401748d0 f i Cvar.obj
 0002:00076ae0       ??$_Reallocate_grow_by@V<lambda_c1b8c41cb4019640539cfd828748c4d4>@@ID@?$basic_string@DU?$char_traits@D@std@@V?$allocator@D@2@@std@@AAEAAV01@IV<lambda_c1b8c41cb4019640539cfd828748c4d4>@@ID@Z 40174ae0 f i Cvar.obj
 0002:00076cf0       ??$addressof@D@std@@YAPADAAD@Z 40174cf0 f i Cvar.obj
 0002:00076d40       ??$addressof@V?$_List_val@U?$_List_simple_types@PAVCvar@cvar@@@std@@@std@@@std@@YAPAV?$_List_val@U?$_List_simple_types@PAVCvar@cvar@@@std@@@0@AAV10@@Z 40174d40 f i Cvar.obj
 0002:00076d90       ??$addressof@V?$_String_val@U?$_Simple_types@D@std@@@std@@@std@@YAPAV?$_String_val@U?$_Simple_types@D@std@@@0@AAV10@@Z 40174d90 f i Cvar.obj
 0002:00076de0       ??$addressof@V?$basic_ostream@DU?$char_traits@D@std@@@std@@@std@@YAPAV?$basic_ostream@DU?$char_traits@D@std@@@0@AAV10@@Z 40174de0 f i Cvar.obj
 0002:00076e30       ??$addressof@V?$basic_string@DU?$char_traits@D@std@@V?$allocator@D@2@@std@@@std@@YAPAV?$basic_string@DU?$char_traits@D@std@@V?$allocator@D@2@@0@AAV10@@Z 40174e30 f i Cvar.obj
 0002:00076e80       ??$addressof@V?$basic_stringbuf@DU?$char_traits@D@std@@V?$allocator@D@2@@std@@@std@@YAPAV?$basic_stringbuf@DU?$char_traits@D@std@@V?$allocator@D@2@@0@AAV10@@Z 40174e80 f i Cvar.obj
 0002:00076ed0       ??$construct@PAVCvar@cvar@@PAV12@@?$_Default_allocator_traits@V?$allocator@U?$_List_node@PAVCvar@cvar@@PAX@std@@@std@@@std@@SAXAAV?$allocator@U?$_List_node@PAVCvar@cvar@@PAX@std@@@1@QAPAVCvar@cvar@@$$QAPAV34@@Z 40174ed0 f i Cvar.obj
 0002:00076f50       ??$exchange@PAV_Facet_base@std@@$$T@std@@YAPAV_Facet_base@0@AAPAV10@$$QA$$T@Z 40174f50 f i Cvar.obj
 0002:00076fc0       ??$forward@AAPAD@std@@YAAAPADAAPAD@Z 40174fc0 f i Cvar.obj
 0002:00077010       ??$forward@AAPAV_Facet_base@std@@@std@@YAAAPAV_Facet_base@0@AAPAV10@@Z 40175010 f i Cvar.obj
 0002:00077060       ??$forward@ABQAU?$_List_node@PAVCvar@cvar@@PAX@std@@@std@@YAABQAU?$_List_node@PAVCvar@cvar@@PAX@0@ABQAU10@@Z 40175060 f i Cvar.obj
 0002:000770b0       ??$forward@ABV?$allocator@D@std@@@std@@YAABV?$allocator@D@0@ABV10@@Z 401750b0 f i Cvar.obj
 0002:00077100       ??$forward@PAVCvar@cvar@@@std@@YA$$QAPAVCvar@cvar@@AAPAV12@@Z 40175100 f i Cvar.obj
 0002:00077150       ??$isfinite@N@@YA_NN@Z     40175150 f i Cvar.obj
 0002:000771e0       ??$isfinite@O@@YA_NO@Z     401751e0 f i Cvar.obj
 0002:00077270       ??$max@PAD@std@@YAABQADABQAD0@Z 40175270 f i Cvar.obj
 0002:00077300       ??$move@AAPAVCvar@cvar@@@std@@YA$$QAPAVCvar@cvar@@AAPAV12@@Z 40175300 f i Cvar.obj
 0002:00077350       ??$move@AAV?$allocator@D@std@@@std@@YA$$QAV?$allocator@D@0@AAV10@@Z 40175350 f i Cvar.obj
 0002:000773a0       ??$move@AAV?$basic_string@DU?$char_traits@D@std@@V?$allocator@D@2@@std@@@std@@YA$$QAV?$basic_string@DU?$char_traits@D@std@@V?$allocator@D@2@@0@AAV10@@Z 401753a0 f i Cvar.obj
 0002:000773f0       ??$use_facet@V?$ctype@D@std@@@std@@YAABV?$ctype@D@0@ABVlocale@0@@Z 401753f0 f i Cvar.obj
 0002:00077600       ??$use_facet@V?$num_put@DV?$ostreambuf_iterator@DU?$char_traits@D@std@@@std@@@std@@@std@@YAABV?$num_put@DV?$ostreambuf_iterator@DU?$char_traits@D@std@@@std@@@0@ABVlocale@0@@Z 40175600 f i Cvar.obj
 0002:00077810       ??$use_facet@V?$numpunct@D@std@@@std@@YAABV?$numpunct@D@0@ABVlocale@0@@Z 40175810 f i Cvar.obj
 0002:00077a20       ??0?$_Alloc_construct_ptr@V?$allocator@U?$_List_node@PAVCvar@cvar@@PAX@std@@@std@@@std@@QAE@AAV?$allocator@U?$_List_node@PAVCvar@cvar@@PAX@std@@@1@@Z 40175a20 f i Cvar.obj
 0002:00077a90       ??0?$_List_const_iterator@V?$_List_val@U?$_List_simple_types@PAVCvar@cvar@@@std@@@std@@@std@@QAE@$$QAV01@@Z 40175a90 f i Cvar.obj
 0002:00077af0       ??0?$_List_const_iterator@V?$_List_val@U?$_List_simple_types@PAVCvar@cvar@@@std@@@std@@@std@@QAE@ABV01@@Z 40175af0 f i Cvar.obj
 0002:00077b50       ??0?$_List_const_iterator@V?$_List_val@U?$_List_simple_types@PAVCvar@cvar@@@std@@@std@@@std@@QAE@PAU?$_List_node@PAVCvar@cvar@@PAX@1@PBV?$_List_val@U?$_List_simple_types@PAVCvar@cvar@@@std@@@1@@Z 40175b50 f i Cvar.obj
 0002:00077bb0       ??0?$_List_iterator@V?$_List_val@U?$_List_simple_types@PAVCvar@cvar@@@std@@@std@@@std@@QAE@$$QAV01@@Z 40175bb0 f i Cvar.obj
 0002:00077c10       ??0?$_List_iterator@V?$_List_val@U?$_List_simple_types@PAVCvar@cvar@@@std@@@std@@@std@@QAE@ABV01@@Z 40175c10 f i Cvar.obj
 0002:00077c70       ??0?$_List_iterator@V?$_List_val@U?$_List_simple_types@PAVCvar@cvar@@@std@@@std@@@std@@QAE@PAU?$_List_node@PAVCvar@cvar@@PAX@1@PBV?$_List_val@U?$_List_simple_types@PAVCvar@cvar@@@std@@@1@@Z 40175c70 f i Cvar.obj
 0002:00077cd0       ??0?$_List_unchecked_const_iterator@V?$_List_val@U?$_List_simple_types@PAVCvar@cvar@@@std@@@std@@U_Iterator_base12@2@@std@@QAE@$$QAV01@@Z 40175cd0 f i Cvar.obj
 0002:00077d40       ??0?$_List_unchecked_const_iterator@V?$_List_val@U?$_List_simple_types@PAVCvar@cvar@@@std@@@std@@U_Iterator_base12@2@@std@@QAE@ABV01@@Z 40175d40 f i Cvar.obj
 0002:00077db0       ??0?$_List_unchecked_const_iterator@V?$_List_val@U?$_List_simple_types@PAVCvar@cvar@@@std@@@std@@U_Iterator_base12@2@@std@@QAE@PAU?$_List_node@PAVCvar@cvar@@PAX@1@PBV?$_List_val@U?$_List_simple_types@PAVCvar@cvar@@@std@@@1@@Z 40175db0 f i Cvar.obj
 0002:00077e30       ??0?$_Yarn@D@std@@QAE@XZ   40175e30 f i Cvar.obj
 0002:00077ea0       ??0?$_Yarn@_W@std@@QAE@XZ  40175ea0 f i Cvar.obj
 0002:00077f10       ??0?$basic_ios@DU?$char_traits@D@std@@@std@@IAE@XZ 40175f10 f i Cvar.obj
 0002:00077fa0       ??0?$basic_ostream@DU?$char_traits@D@std@@@std@@QAE@PAV?$basic_streambuf@DU?$char_traits@D@std@@@1@_N@Z 40175fa0 f i Cvar.obj
 0002:000780e0       ??0?$basic_ostringstream@DU?$char_traits@D@std@@V?$allocator@D@2@@std@@QAE@XZ 401760e0 f i Cvar.obj
 0002:00078230       ??0?$basic_streambuf@DU?$char_traits@D@std@@@std@@IAE@XZ 40176230 f i Cvar.obj
 0002:00078390       ??0?$basic_string@DU?$char_traits@D@std@@V?$allocator@D@2@@std@@QAE@$$QAV01@@Z 40176390 f i Cvar.obj
 0002:00078490       ??0?$basic_string@DU?$char_traits@D@std@@V?$allocator@D@2@@std@@QAE@ABV?$allocator@D@1@@Z 40176490 f i Cvar.obj
 0002:00078550       ??0?$basic_string@DU?$char_traits@D@std@@V?$allocator@D@2@@std@@QAE@ID@Z 40176550 f i Cvar.obj
 0002:00078620       ??0?$basic_string@DU?$char_traits@D@std@@V?$allocator@D@2@@std@@QAE@QBDI@Z 40176620 f i Cvar.obj
 0002:000786f0       ??0?$basic_stringbuf@DU?$char_traits@D@std@@V?$allocator@D@2@@std@@QAE@H@Z 401766f0 f i Cvar.obj
 0002:00078790       ??0?$ctype@D@std@@QAE@ABV_Locinfo@1@I@Z 40176790 f i Cvar.obj
 0002:00078860       ??0?$fpos@U_Mbstatet@@@std@@QAE@_J@Z 40176860 f i Cvar.obj
 0002:000788f0       ??0?$num_put@DV?$ostreambuf_iterator@DU?$char_traits@D@std@@@std@@@std@@QAE@ABV_Locinfo@1@I@Z 401768f0 f i Cvar.obj
 0002:000789c0       ??0?$numpunct@D@std@@QAE@ABV_Locinfo@1@I_N@Z 401769c0 f i Cvar.obj
 0002:00078a90       ??0?$ostreambuf_iterator@DU?$char_traits@D@std@@@std@@QAE@PAV?$basic_streambuf@DU?$char_traits@D@std@@@1@@Z 40176a90 f i Cvar.obj
 0002:00078b00       ??0Cvar@cvar@@QAE@ABV?$basic_string@DU?$char_traits@D@std@@V?$allocator@D@2@@std@@0HP6AXAAV01@@Z_N@Z 40176b00 f   Cvar.obj
 0002:00078cc0       ??0_Facet_base@std@@QAE@XZ 40176cc0 f i Cvar.obj
 0002:00078cf0       ??0_Iterator_base12@std@@QAE@ABU01@@Z 40176cf0 f i Cvar.obj
 0002:00078d70       ??0_Locinfo@std@@QAE@PBD@Z 40176d70 f i Cvar.obj
 0002:00078ec0       ??0_Sentry_base@?$basic_ostream@DU?$char_traits@D@std@@@std@@QAE@AAV12@@Z 40176ec0 f i Cvar.obj
 0002:00078f70       ??0_System_error@std@@IAE@Verror_code@1@ABV?$basic_string@DU?$char_traits@D@std@@V?$allocator@D@2@@1@@Z 40176f70 f i Cvar.obj
 0002:000790b0       ??0_System_error@std@@QAE@ABV01@@Z 401770b0 f i Cvar.obj
 0002:00079130       ??0bad_cast@std@@QAE@ABV01@@Z 40177130 f i Cvar.obj
 0002:000791a0       ??0bad_cast@std@@QAE@XZ    401771a0 f i Cvar.obj
 0002:00079220       ??0ctype_base@std@@QAE@I@Z 40177220 f i Cvar.obj
 0002:00079290       ??0error_code@std@@QAE@HABVerror_category@1@@Z 40177290 f i Cvar.obj
 0002:00079300       ??0error_condition@std@@QAE@HABVerror_category@1@@Z 40177300 f i Cvar.obj
 0002:00079370       ??0exception@std@@QAE@QBD@Z 40177370 f i Cvar.obj
 0002:00079440       ??0facet@locale@std@@IAE@I@Z 40177440 f i Cvar.obj
 0002:000794c0       ??0failure@ios_base@std@@QAE@ABV012@@Z 401774c0 f i Cvar.obj
 0002:00079530       ??0failure@ios_base@std@@QAE@PBDABVerror_code@2@@Z 40177530 f i Cvar.obj
 0002:000795b0       ??0ios_base@std@@IAE@XZ    401775b0 f i Cvar.obj
 0002:00079690       ??0locale@std@@QAE@ABV01@@Z 40177690 f i Cvar.obj
 0002:00079720       ??0locale@std@@QAE@XZ      40177720 f i Cvar.obj
 0002:000797d0       ??0runtime_error@std@@QAE@ABV01@@Z 401777d0 f i Cvar.obj
 0002:00079840       ??0runtime_error@std@@QAE@ABV?$basic_string@DU?$char_traits@D@std@@V?$allocator@D@2@@1@@Z 40177840 f i Cvar.obj
 0002:000798c0       ??0sentry@?$basic_ostream@DU?$char_traits@D@std@@@std@@QAE@AAV12@@Z 401778c0 f i Cvar.obj
 0002:00079a00       ??0system_error@std@@QAE@ABV01@@Z 40177a00 f i Cvar.obj
 0002:00079a70       ??0system_error@std@@QAE@Verror_code@1@PBD@Z 40177a70 f i Cvar.obj
 0002:00079b70       ??1?$_Alloc_construct_ptr@V?$allocator@U?$_List_node@PAVCvar@cvar@@PAX@std@@@std@@@std@@QAE@XZ 40177b70 f i Cvar.obj
 0002:00079bf0       ??1?$_List_const_iterator@V?$_List_val@U?$_List_simple_types@PAVCvar@cvar@@@std@@@std@@@std@@QAE@XZ 40177bf0 f i Cvar.obj
 0002:00079c40       ??1?$_List_iterator@V?$_List_val@U?$_List_simple_types@PAVCvar@cvar@@@std@@@std@@@std@@QAE@XZ 40177c40 f i Cvar.obj
 0002:00079c90       ??1?$_List_node_emplace_op2@V?$allocator@U?$_List_node@PAVCvar@cvar@@PAX@std@@@std@@@std@@QAE@XZ 40177c90 f i Cvar.obj
 0002:00079d60       ??1?$_List_unchecked_const_iterator@V?$_List_val@U?$_List_simple_types@PAVCvar@cvar@@@std@@@std@@U_Iterator_base12@2@@std@@QAE@XZ 40177d60 f i Cvar.obj
 0002:00079db0       ??1?$_Tidy_guard@V?$numpunct@D@std@@@std@@QAE@XZ 40177db0 f i Cvar.obj
 0002:00079e20       ??1?$_Yarn@D@std@@QAE@XZ   40177e20 f i Cvar.obj
 0002:00079e80       ??1?$_Yarn@_W@std@@QAE@XZ  40177e80 f i Cvar.obj
 0002:00079ee0       ??1?$basic_ios@DU?$char_traits@D@std@@@std@@UAE@XZ 40177ee0 f i Cvar.obj
 0002:00079f50       ??1?$basic_ostream@DU?$char_traits@D@std@@@std@@UAE@XZ 40177f50 f i Cvar.obj
 0002:00079fe0       ??1?$basic_ostringstream@DU?$char_traits@D@std@@V?$allocator@D@2@@std@@UAE@XZ 40177fe0 f i Cvar.obj
 0002:0007a090       ??1?$basic_streambuf@DU?$char_traits@D@std@@@std@@UAE@XZ 40178090 f i Cvar.obj
 0002:0007a130       ??1?$basic_stringbuf@DU?$char_traits@D@std@@V?$allocator@D@2@@std@@UAE@XZ 40178130 f i Cvar.obj
 0002:0007a1a0       ??1?$ctype@D@std@@MAE@XZ   401781a0 f i Cvar.obj
 0002:0007a210       ??1?$num_put@DV?$ostreambuf_iterator@DU?$char_traits@D@std@@@std@@@std@@MAE@XZ 40178210 f i Cvar.obj
 0002:0007a280       ??1?$numpunct@D@std@@MAE@XZ 40178280 f i Cvar.obj
 0002:0007a2f0       ??1?$unique_ptr@V_Facet_base@std@@U?$default_delete@V_Facet_base@std@@@2@@std@@QAE@XZ 401782f0 f i Cvar.obj
 0002:0007a370       ??1Cvar@cvar@@QAE@XZ       40178370 f   Cvar.obj
 0002:0007a3f0       ??1_Facet_base@std@@UAE@XZ 401783f0 f i Cvar.obj
 0002:0007a450       ??1_Iostream_error_category2@std@@UAE@XZ 40178450 f i Cvar.obj
 0002:0007a4a0       ??1_Locinfo@std@@QAE@XZ    401784a0 f i Cvar.obj
 0002:0007a5a0       ??1_Sentry_base@?$basic_ostream@DU?$char_traits@D@std@@@std@@QAE@XZ 401785a0 f i Cvar.obj
 0002:0007a680       ??1_System_error@std@@UAE@XZ 40178680 f i Cvar.obj
 0002:0007a6d0       ??1bad_cast@std@@UAE@XZ    401786d0 f i Cvar.obj
 0002:0007a720       ??1ctype_base@std@@UAE@XZ  40178720 f i Cvar.obj
 0002:0007a790       ??1error_category@std@@UAE@XZ 40178790 f i Cvar.obj
 0002:0007a7e0       ??1facet@locale@std@@MAE@XZ 401787e0 f i Cvar.obj
 0002:0007a850       ??1failure@ios_base@std@@UAE@XZ 40178850 f i Cvar.obj
 0002:0007a8a0       ??1ios_base@std@@UAE@XZ    401788a0 f i Cvar.obj
 0002:0007a950       ??1locale@std@@QAE@XZ      40178950 f i Cvar.obj
 0002:0007aa20       ??1runtime_error@std@@UAE@XZ 40178a20 f i Cvar.obj
 0002:0007aa70       ??1sentry@?$basic_ostream@DU?$char_traits@D@std@@@std@@QAE@XZ 40178a70 f i Cvar.obj
 0002:0007ab10       ??1system_error@std@@UAE@XZ 40178b10 f i Cvar.obj
 0002:0007ab60       ??2_Crt_new_delete@std@@SAPAXI@Z 40178b60 f i Cvar.obj
 0002:0007abe0       ??2_Crt_new_delete@std@@SAPAXIABUnothrow_t@1@@Z 40178be0 f i Cvar.obj
 0002:0007ac70       ??3_Crt_new_delete@std@@SAXPAX@Z 40178c70 f i Cvar.obj
 0002:0007acd0       ??4?$basic_string@DU?$char_traits@D@std@@V?$allocator@D@2@@std@@QAEAAV01@$$QAV01@@Z 40178cd0 f i Cvar.obj
 0002:0007ada0       ??4?$ostreambuf_iterator@DU?$char_traits@D@std@@@std@@QAEAAV01@D@Z 40178da0 f i Cvar.obj
 0002:0007ae40       ??4_Iterator_base12@std@@QAEAAU01@ABU01@@Z 40178e40 f i Cvar.obj
 0002:0007aeb0       ??6?$basic_ostream@DU?$char_traits@D@std@@@std@@QAEAAV01@H@Z 40178eb0 f i Cvar.obj
 0002:0007b170       ??6?$basic_ostream@DU?$char_traits@D@std@@@std@@QAEAAV01@M@Z 40179170 f i Cvar.obj
 0002:0007b400       ??8?$_List_const_iterator@V?$_List_val@U?$_List_simple_types@PAVCvar@cvar@@@std@@@std@@@std@@QBE_NABV01@@Z 40179400 f i Cvar.obj
 0002:0007b4e0       ??8error_category@std@@QBE_NABV01@@Z 401794e0 f i Cvar.obj
 0002:0007b590       ??8std@@YA_NABVerror_condition@0@0@Z 40179590 f i Cvar.obj
 0002:0007b640       ??9?$_List_const_iterator@V?$_List_val@U?$_List_simple_types@PAVCvar@cvar@@@std@@@std@@@std@@QBE_NABV01@@Z 40179640 f i Cvar.obj
 0002:0007b6d0       ??A?$basic_string@DU?$char_traits@D@std@@V?$allocator@D@2@@std@@QAEAADI@Z 401796d0 f i Cvar.obj
 0002:0007b780       ??A?$basic_string@DU?$char_traits@D@std@@V?$allocator@D@2@@std@@QBEABDI@Z 40179780 f i Cvar.obj
 0002:0007b830       ??B?$fpos@U_Mbstatet@@@std@@QBE_JXZ 40179830 f i Cvar.obj
 0002:0007b8a0       ??Bsentry@?$basic_ostream@DU?$char_traits@D@std@@@std@@QBE_NXZ 401798a0 f i Cvar.obj
 0002:0007b900       ??D?$_List_const_iterator@V?$_List_val@U?$_List_simple_types@PAVCvar@cvar@@@std@@@std@@@std@@QBEABQAVCvar@cvar@@XZ 40179900 f i Cvar.obj
 0002:0007ba00       ??D?$_List_iterator@V?$_List_val@U?$_List_simple_types@PAVCvar@cvar@@@std@@@std@@@std@@QBEAAPAVCvar@cvar@@XZ 40179a00 f i Cvar.obj
 0002:0007ba60       ??D?$ostreambuf_iterator@DU?$char_traits@D@std@@@std@@QAEAAV01@XZ 40179a60 f i Cvar.obj
 0002:0007bac0       ??E?$_List_const_iterator@V?$_List_val@U?$_List_simple_types@PAVCvar@cvar@@@std@@@std@@@std@@QAEAAV01@XZ 40179ac0 f i Cvar.obj
 0002:0007bbc0       ??E?$_List_iterator@V?$_List_val@U?$_List_simple_types@PAVCvar@cvar@@@std@@@std@@@std@@QAE?AV01@H@Z 40179bc0 f i Cvar.obj
 0002:0007bc80       ??E?$ostreambuf_iterator@DU?$char_traits@D@std@@@std@@QAEAAV01@XZ 40179c80 f i Cvar.obj
 0002:0007bce0       ??R<lambda_6607a66f2a10a1261ff9db96cba1015b>@@SA@QADQBDIIID@Z 40179ce0 f i Cvar.obj
 0002:0007bd90       ??R<lambda_73347dd824626abab36262ed74192d8f>@@SA@QADQBDI1I@Z 40179d90 f i Cvar.obj
 0002:0007be40       ??R<lambda_c1b8c41cb4019640539cfd828748c4d4>@@SA@QADQBDIID@Z 40179e40 f i Cvar.obj
 0002:0007bef0       ??R?$default_delete@V_Facet_base@std@@@std@@QBEXPAV_Facet_base@1@@Z 40179ef0 f i Cvar.obj
 0002:0007bfa0       ??_D?$basic_ostream@DU?$char_traits@D@std@@@std@@QAEXXZ 40179fa0 f i Cvar.obj
 0002:0007c000       ??_D?$basic_ostringstream@DU?$char_traits@D@std@@V?$allocator@D@2@@std@@QAEXXZ 4017a000 f i Cvar.obj
 0002:0007c05f       ??_E?$basic_ostream@DU?$char_traits@D@std@@@std@@$4PPPPPPPM@A@AEPAXI@Z 4017a05f f i Cvar.obj
 0002:0007c069       ??_E?$basic_ostringstream@DU?$char_traits@D@std@@V?$allocator@D@2@@std@@$4PPPPPPPM@A@AEPAXI@Z 4017a069 f i Cvar.obj
 0002:0007c080       ??_E?$basic_ios@DU?$char_traits@D@std@@@std@@UAEPAXI@Z 4017a080 f i Cvar.obj
 0002:0007c080       ??_G?$basic_ios@DU?$char_traits@D@std@@@std@@UAEPAXI@Z 4017a080 f i Cvar.obj
 0002:0007c0f0       ??_E?$basic_ostream@DU?$char_traits@D@std@@@std@@UAEPAXI@Z 4017a0f0 f i Cvar.obj
 0002:0007c0f0       ??_G?$basic_ostream@DU?$char_traits@D@std@@@std@@UAEPAXI@Z 4017a0f0 f i Cvar.obj
 0002:0007c170       ??_E?$basic_ostringstream@DU?$char_traits@D@std@@V?$allocator@D@2@@std@@UAEPAXI@Z 4017a170 f i Cvar.obj
 0002:0007c170       ??_G?$basic_ostringstream@DU?$char_traits@D@std@@V?$allocator@D@2@@std@@UAEPAXI@Z 4017a170 f i Cvar.obj
 0002:0007c1f0       ??_E?$basic_streambuf@DU?$char_traits@D@std@@@std@@UAEPAXI@Z 4017a1f0 f i Cvar.obj
 0002:0007c1f0       ??_G?$basic_streambuf@DU?$char_traits@D@std@@@std@@UAEPAXI@Z 4017a1f0 f i Cvar.obj
 0002:0007c260       ??_E?$basic_stringbuf@DU?$char_traits@D@std@@V?$allocator@D@2@@std@@UAEPAXI@Z 4017a260 f i Cvar.obj
 0002:0007c260       ??_G?$basic_stringbuf@DU?$char_traits@D@std@@V?$allocator@D@2@@std@@UAEPAXI@Z 4017a260 f i Cvar.obj
 0002:0007c2d0       ??_E?$ctype@D@std@@MAEPAXI@Z 4017a2d0 f i Cvar.obj
 0002:0007c2d0       ??_G?$ctype@D@std@@MAEPAXI@Z 4017a2d0 f i Cvar.obj
 0002:0007c360       ??_E?$num_put@DV?$ostreambuf_iterator@DU?$char_traits@D@std@@@std@@@std@@MAEPAXI@Z 4017a360 f i Cvar.obj
 0002:0007c360       ??_G?$num_put@DV?$ostreambuf_iterator@DU?$char_traits@D@std@@@std@@@std@@MAEPAXI@Z 4017a360 f i Cvar.obj
 0002:0007c3f0       ??_E?$numpunct@D@std@@MAEPAXI@Z 4017a3f0 f i Cvar.obj
 0002:0007c3f0       ??_G?$numpunct@D@std@@MAEPAXI@Z 4017a3f0 f i Cvar.obj
 0002:0007c480       ??_E_Facet_base@std@@UAEPAXI@Z 4017a480 f i Cvar.obj
 0002:0007c480       ??_G_Facet_base@std@@UAEPAXI@Z 4017a480 f i Cvar.obj
 0002:0007c4f0       ??_E_Iostream_error_category2@std@@UAEPAXI@Z 4017a4f0 f i Cvar.obj
 0002:0007c4f0       ??_G_Iostream_error_category2@std@@UAEPAXI@Z 4017a4f0 f i Cvar.obj
 0002:0007c560       ??_E_System_error@std@@UAEPAXI@Z 4017a560 f i Cvar.obj
 0002:0007c560       ??_G_System_error@std@@UAEPAXI@Z 4017a560 f i Cvar.obj
 0002:0007c5d0       ??_Ebad_cast@std@@UAEPAXI@Z 4017a5d0 f i Cvar.obj
 0002:0007c5d0       ??_Gbad_cast@std@@UAEPAXI@Z 4017a5d0 f i Cvar.obj
 0002:0007c640       ??_Ectype_base@std@@UAEPAXI@Z 4017a640 f i Cvar.obj
 0002:0007c640       ??_Gctype_base@std@@UAEPAXI@Z 4017a640 f i Cvar.obj
 0002:0007c6d0       ??_Efacet@locale@std@@MAEPAXI@Z 4017a6d0 f i Cvar.obj
 0002:0007c6d0       ??_Gfacet@locale@std@@MAEPAXI@Z 4017a6d0 f i Cvar.obj
 0002:0007c760       ??_Efailure@ios_base@std@@UAEPAXI@Z 4017a760 f i Cvar.obj
 0002:0007c760       ??_Gfailure@ios_base@std@@UAEPAXI@Z 4017a760 f i Cvar.obj
 0002:0007c7d0       ??_Eios_base@std@@UAEPAXI@Z 4017a7d0 f i Cvar.obj
 0002:0007c7d0       ??_Gios_base@std@@UAEPAXI@Z 4017a7d0 f i Cvar.obj
 0002:0007c840       ??_Glocale@std@@QAEPAXI@Z  4017a840 f i Cvar.obj
 0002:0007c8d0       ??_Eruntime_error@std@@UAEPAXI@Z 4017a8d0 f i Cvar.obj
 0002:0007c8d0       ??_Gruntime_error@std@@UAEPAXI@Z 4017a8d0 f i Cvar.obj
 0002:0007c940       ??_Esystem_error@std@@UAEPAXI@Z 4017a940 f i Cvar.obj
 0002:0007c940       ??_Gsystem_error@std@@UAEPAXI@Z 4017a940 f i Cvar.obj
 0002:0007c9b0       ?_Allocate@?$_Alloc_construct_ptr@V?$allocator@U?$_List_node@PAVCvar@cvar@@PAX@std@@@std@@@std@@QAEXXZ 4017a9b0 f i Cvar.obj
 0002:0007ca30       ?_Assign_locked@_Iterator_base12@std@@AAEXABU12@@Z 4017aa30 f i Cvar.obj
 0002:0007caf0       ?_Assign_unlocked@_Iterator_base12@std@@AAEXABU12@@Z 4017aaf0 f i Cvar.obj
 0002:0007cb80       ?_C_str@locale@std@@QBEPBDXZ 4017ab80 f i Cvar.obj
 0002:0007cc10       ?_Check_offset@?$_String_val@U?$_Simple_types@D@std@@@std@@QBEXI@Z 4017ac10 f i Cvar.obj
 0002:0007cc80       ?_Decref@facet@locale@std@@UAEPAV_Facet_base@3@XZ 4017ac80 f i Cvar.obj
 0002:0007ccf0       ?_Eos@?$basic_string@DU?$char_traits@D@std@@V?$allocator@D@2@@std@@AAEXI@Z 4017acf0 f i Cvar.obj
 0002:0007cd80       ?_Ffmt@?$num_put@DV?$ostreambuf_iterator@DU?$char_traits@D@std@@@std@@@std@@ABAPADPADDH@Z 4017ad80 f i Cvar.obj
 0002:0007cf20       ?_Get_buffer_view@?$basic_stringbuf@DU?$char_traits@D@std@@V?$allocator@D@2@@std@@QBE?AU_Buffer_view@12@XZ 4017af20 f i Cvar.obj
 0002:0007d0b0       ?_Get_first@?$_Compressed_pair@U?$default_delete@V_Facet_base@std@@@std@@PAV_Facet_base@2@$00@std@@QAEAAU?$default_delete@V_Facet_base@std@@@2@XZ 4017b0b0 f i Cvar.obj
 0002:0007d110       ?_Get_first@?$_Compressed_pair@V?$allocator@U?$_List_node@PAVCvar@cvar@@PAX@std@@@std@@V?$_List_val@U?$_List_simple_types@PAVCvar@cvar@@@std@@@2@$00@std@@QBEABV?$allocator@U?$_List_node@PAVCvar@cvar@@PAX@std@@@2@XZ 4017b110 f i Cvar.obj
 0002:0007d170       ?_Getal@?$list@PAVCvar@cvar@@V?$allocator@PAVCvar@cvar@@@std@@@std@@ABEABV?$allocator@U?$_List_node@PAVCvar@cvar@@PAX@std@@@2@XZ 4017b170 f i Cvar.obj
 0002:0007d1d0       ?_Getcat@?$ctype@D@std@@SAIPAPBVfacet@locale@2@PBV42@@Z 4017b1d0 f i Cvar.obj
 0002:0007d370       ?_Getcat@?$num_put@DV?$ostreambuf_iterator@DU?$char_traits@D@std@@@std@@@std@@SAIPAPBVfacet@locale@2@PBV42@@Z 4017b370 f i Cvar.obj
 0002:0007d510       ?_Getcat@?$numpunct@D@std@@SAIPAPBVfacet@locale@2@PBV42@@Z 4017b510 f i Cvar.obj
 0002:0007d6b0       ?_Getctype@_Locinfo@std@@QBE?AU_Ctypevec@@XZ 4017b6b0 f i Cvar.obj
 0002:0007d780       ?_Getcvt@_Locinfo@std@@QBE?AU_Cvtvec@@XZ 4017b780 f i Cvar.obj
 0002:0007d830       ?_Getfacet@locale@std@@QBEPBVfacet@12@I@Z 4017b830 f i Cvar.obj
 0002:0007d920       ?_Getfalse@_Locinfo@std@@QBEPBDXZ 4017b920 f i Cvar.obj
 0002:0007d980       ?_Getlconv@_Locinfo@std@@QBEPBUlconv@@XZ 4017b980 f i Cvar.obj
 0002:0007d9e0       ?_Getstate@?$basic_stringbuf@DU?$char_traits@D@std@@V?$allocator@D@2@@std@@CAHH@Z 4017b9e0 f i Cvar.obj
 0002:0007da90       ?_Gettrue@_Locinfo@std@@QBEPBDXZ 4017ba90 f i Cvar.obj
 0002:0007daf0       ?_Gnavail@?$basic_streambuf@DU?$char_traits@D@std@@@std@@IBE_JXZ 4017baf0 f i Cvar.obj
 0002:0007db80       ?_Gninc@?$basic_streambuf@DU?$char_traits@D@std@@@std@@IAEPADXZ 4017bb80 f i Cvar.obj
 0002:0007dc20       ?_Ifmt@?$num_put@DV?$ostreambuf_iterator@DU?$char_traits@D@std@@@std@@@std@@ABAPADPADPBDH@Z 4017bc20 f i Cvar.obj
 0002:0007dde0       ?_Incref@facet@locale@std@@UAEXXZ 4017bde0 f i Cvar.obj
 0002:0007de40       ?_Init@?$basic_streambuf@DU?$char_traits@D@std@@@std@@IAEXXZ 4017be40 f i Cvar.obj
 0002:0007df10       ?_Init@?$ctype@D@std@@IAEXABV_Locinfo@2@@Z 4017bf10 f i Cvar.obj
 0002:0007dfa0       ?_Init@?$num_put@DV?$ostreambuf_iterator@DU?$char_traits@D@std@@@std@@@std@@IAEXABV_Locinfo@2@@Z 4017bfa0 f i Cvar.obj
 0002:0007e000       ?_Init@?$numpunct@D@std@@IAEXABV_Locinfo@2@_N@Z 4017c000 f i Cvar.obj
 0002:0007e290       ?_Init@ios_base@std@@IAEXXZ 4017c290 f i Cvar.obj
 0002:0007e3b0       ?_Iput@?$num_put@DV?$ostreambuf_iterator@DU?$char_traits@D@std@@@std@@@std@@ABA?AV?$ostreambuf_iterator@DU?$char_traits@D@std@@@2@V32@AAVios_base@2@DPADI@Z 4017c3b0 f i Cvar.obj
 0002:0007ea20       ?_Lock@?$basic_streambuf@DU?$char_traits@D@std@@@std@@UAEXXZ 4017ca20 f i Cvar.obj
 0002:0007ea70       ?_Makestr@_System_error@std@@CA?AV?$basic_string@DU?$char_traits@D@std@@V?$allocator@D@2@@2@Verror_code@2@V32@@Z 4017ca70 f i Cvar.obj
 0002:0007ebd0       ?_Osfx@?$basic_ostream@DU?$char_traits@D@std@@@std@@QAEXXZ 4017cbd0 f i Cvar.obj
 0002:0007ed10       ?_Pnavail@?$basic_streambuf@DU?$char_traits@D@std@@@std@@IBE_JXZ 4017cd10 f i Cvar.obj
 0002:0007eda0       ?_Pninc@?$basic_streambuf@DU?$char_traits@D@std@@@std@@IAEPADXZ 4017cda0 f i Cvar.obj
 0002:0007ee40       ?_Put@?$num_put@DV?$ostreambuf_iterator@DU?$char_traits@D@std@@@std@@@std@@ABA?AV?$ostreambuf_iterator@DU?$char_traits@D@std@@@2@V32@PBDI@Z 4017ce40 f i Cvar.obj
 0002:0007eef0       ?_Rep@?$num_put@DV?$ostreambuf_iterator@DU?$char_traits@D@std@@@std@@@std@@ABA?AV?$ostreambuf_iterator@DU?$char_traits@D@std@@@2@V32@DI@Z 4017cef0 f i Cvar.obj
 0002:0007ef90       ?_Swap_proxy_and_iterators@?$basic_string@DU?$char_traits@D@std@@V?$allocator@D@2@@std@@AAEXAAV12@@Z 4017cf90 f i Cvar.obj
 0002:0007f000       ?_Swap_proxy_and_iterators@_Container_base12@std@@QAEXAAU12@@Z 4017d000 f i Cvar.obj
 0002:0007f070       ?_Swap_proxy_and_iterators_locked@_Container_base12@std@@AAEXAAU12@@Z 4017d070 f i Cvar.obj
 0002:0007f130       ?_Swap_proxy_and_iterators_unlocked@_Container_base12@std@@AAEXAAU12@@Z 4017d130 f i Cvar.obj
 0002:0007f1d0       ?_Take_contents@?$basic_string@DU?$char_traits@D@std@@V?$allocator@D@2@@std@@AAEXAAV12@@Z 4017d1d0 f i Cvar.obj
 0002:0007f400       ?_Throw_bad_cast@std@@YAXXZ 4017d400 f i Cvar.obj
 0002:0007f470       ?_Tidy@?$_Yarn@D@std@@AAEXXZ 4017d470 f i Cvar.obj
 0002:0007f4f0       ?_Tidy@?$_Yarn@_W@std@@AAEXXZ 4017d4f0 f i Cvar.obj
 0002:0007f570       ?_Tidy@?$basic_stringbuf@DU?$char_traits@D@std@@V?$allocator@D@2@@std@@IAEXXZ 4017d570 f i Cvar.obj
 0002:0007f680       ?_Tidy@?$ctype@D@std@@IAEXXZ 4017d680 f i Cvar.obj
 0002:0007f730       ?_Tidy@?$numpunct@D@std@@AAEXXZ 4017d730 f i Cvar.obj
 0002:0007f7c0       ?_Transfer_before@?$_List_node_emplace_op2@V?$allocator@U?$_List_node@PAVCvar@cvar@@PAX@std@@@std@@@std@@QAEPAU?$_List_node@PAVCvar@cvar@@PAX@2@QAU32@@Z 4017d7c0 f i Cvar.obj
 0002:0007f8d0       ?_Unlock@?$basic_streambuf@DU?$char_traits@D@std@@@std@@UAEXXZ 4017d8d0 f i Cvar.obj
 0002:0007f920       ?_Xran@?$_String_val@U?$_Simple_types@D@std@@@std@@SAXXZ 4017d920 f i Cvar.obj
 0002:0007f980       ?append@?$basic_string@DU?$char_traits@D@std@@V?$allocator@D@2@@std@@QAEAAV12@ABV12@@Z 4017d980 f i Cvar.obj
 0002:0007f9f0       ?append@?$basic_string@DU?$char_traits@D@std@@V?$allocator@D@2@@std@@QAEAAV12@ID@Z 4017d9f0 f i Cvar.obj
 0002:0007fb00       ?append@?$basic_string@DU?$char_traits@D@std@@V?$allocator@D@2@@std@@QAEAAV12@QBD@Z 4017db00 f i Cvar.obj
 0002:0007fb80       ?assign@?$_Narrow_char_traits@DH@std@@SAPADQADID@Z 4017db80 f i Cvar.obj
 0002:0007fbe0       ?assign@?$basic_string@DU?$char_traits@D@std@@V?$allocator@D@2@@std@@QAEAAV12@$$QAV12@@Z 4017dbe0 f i Cvar.obj
 0002:0007fc50       ?begin@?$list@PAVCvar@cvar@@V?$allocator@PAVCvar@cvar@@@std@@@std@@QAE?AV?$_List_iterator@V?$_List_val@U?$_List_simple_types@PAVCvar@cvar@@@std@@@std@@@2@XZ 4017dc50 f i Cvar.obj
 0002:0007fcd0       ?c_str@?$_Yarn@D@std@@QBEPBDXZ 4017dcd0 f i Cvar.obj
 0002:0007fd50       ?c_str@?$basic_string@DU?$char_traits@D@std@@V?$allocator@D@2@@std@@QBEPBDXZ 4017dd50 f i Cvar.obj
 0002:0007fdb0       ?category@error_code@std@@QBEABVerror_category@2@XZ 4017ddb0 f i Cvar.obj
 0002:0007fe10       ?category@error_condition@std@@QBEABVerror_category@2@XZ 4017de10 f i Cvar.obj
 0002:0007fe70       ?clear@?$basic_ios@DU?$char_traits@D@std@@@std@@QAEXH_N@Z 4017de70 f i Cvar.obj
 0002:0007ff10       ?clear@ios_base@std@@QAEXH@Z 4017df10 f i Cvar.obj
 0002:0007ff80       ?clear@ios_base@std@@QAEXH_N@Z 4017df80 f i Cvar.obj
 0002:00080090       ?deallocate@?$allocator@U?$_List_node@PAVCvar@cvar@@PAX@std@@@std@@QAEXQAU?$_List_node@PAVCvar@cvar@@PAX@2@I@Z 4017e090 f i Cvar.obj
 0002:00080140       ?decimal_point@?$numpunct@D@std@@QBEDXZ 4017e140 f i Cvar.obj
 0002:000801b0       ?default_error_condition@error_category@std@@UBE?AVerror_condition@2@H@Z 4017e1b0 f i Cvar.obj
 0002:00080220       ?do_decimal_point@?$numpunct@D@std@@MBEDXZ 4017e220 f i Cvar.obj
 0002:00080280       ?do_falsename@?$numpunct@D@std@@MBE?AV?$basic_string@DU?$char_traits@D@std@@V?$allocator@D@2@@2@XZ 4017e280 f i Cvar.obj
 0002:00080310       ?do_grouping@?$numpunct@D@std@@MBE?AV?$basic_string@DU?$char_traits@D@std@@V?$allocator@D@2@@2@XZ 4017e310 f i Cvar.obj
 0002:000803a0       ?do_narrow@?$ctype@D@std@@MBEDDD@Z 4017e3a0 f i Cvar.obj
 0002:00080400       ?do_narrow@?$ctype@D@std@@MBEPBDPBD0DPAD@Z 4017e400 f i Cvar.obj
 0002:00080490       ?do_put@?$num_put@DV?$ostreambuf_iterator@DU?$char_traits@D@std@@@std@@@std@@MBE?AV?$ostreambuf_iterator@DU?$char_traits@D@std@@@2@V32@AAVios_base@2@DJ@Z 4017e490 f i Cvar.obj
 0002:000805c0       ?do_put@?$num_put@DV?$ostreambuf_iterator@DU?$char_traits@D@std@@@std@@@std@@MBE?AV?$ostreambuf_iterator@DU?$char_traits@D@std@@@2@V32@AAVios_base@2@DK@Z 4017e5c0 f i Cvar.obj
 0002:000806f0       ?do_put@?$num_put@DV?$ostreambuf_iterator@DU?$char_traits@D@std@@@std@@@std@@MBE?AV?$ostreambuf_iterator@DU?$char_traits@D@std@@@2@V32@AAVios_base@2@DN@Z 4017e6f0 f i Cvar.obj
 0002:00080ad0       ?do_put@?$num_put@DV?$ostreambuf_iterator@DU?$char_traits@D@std@@@std@@@std@@MBE?AV?$ostreambuf_iterator@DU?$char_traits@D@std@@@2@V32@AAVios_base@2@DO@Z 4017ead0 f i Cvar.obj
 0002:00080eb0       ?do_put@?$num_put@DV?$ostreambuf_iterator@DU?$char_traits@D@std@@@std@@@std@@MBE?AV?$ostreambuf_iterator@DU?$char_traits@D@std@@@2@V32@AAVios_base@2@DPBX@Z 4017eeb0 f i Cvar.obj
 0002:00080fb0       ?do_put@?$num_put@DV?$ostreambuf_iterator@DU?$char_traits@D@std@@@std@@@std@@MBE?AV?$ostreambuf_iterator@DU?$char_traits@D@std@@@2@V32@AAVios_base@2@D_J@Z 4017efb0 f i Cvar.obj
 0002:000810e0       ?do_put@?$num_put@DV?$ostreambuf_iterator@DU?$char_traits@D@std@@@std@@@std@@MBE?AV?$ostreambuf_iterator@DU?$char_traits@D@std@@@2@V32@AAVios_base@2@D_K@Z 4017f0e0 f i Cvar.obj
 0002:00081210       ?do_put@?$num_put@DV?$ostreambuf_iterator@DU?$char_traits@D@std@@@std@@@std@@MBE?AV?$ostreambuf_iterator@DU?$char_traits@D@std@@@2@V32@AAVios_base@2@D_N@Z 4017f210 f i Cvar.obj
 0002:000815a0       ?do_thousands_sep@?$numpunct@D@std@@MBEDXZ 4017f5a0 f i Cvar.obj
 0002:00081600       ?do_tolower@?$ctype@D@std@@MBEDD@Z 4017f600 f i Cvar.obj
 0002:00081670       ?do_tolower@?$ctype@D@std@@MBEPBDPADPBD@Z 4017f670 f i Cvar.obj
 0002:00081720       ?do_toupper@?$ctype@D@std@@MBEDD@Z 4017f720 f i Cvar.obj
 0002:00081790       ?do_toupper@?$ctype@D@std@@MBEPBDPADPBD@Z 4017f790 f i Cvar.obj
 0002:00081840       ?do_truename@?$numpunct@D@std@@MBE?AV?$basic_string@DU?$char_traits@D@std@@V?$allocator@D@2@@2@XZ 4017f840 f i Cvar.obj
 0002:000818d0       ?do_widen@?$ctype@D@std@@MBEDD@Z 4017f8d0 f i Cvar.obj
 0002:00081930       ?do_widen@?$ctype@D@std@@MBEPBDPBD0PAD@Z 4017f930 f i Cvar.obj
 0002:000819c0       ?eback@?$basic_streambuf@DU?$char_traits@D@std@@@std@@IBEPADXZ 4017f9c0 f i Cvar.obj
 0002:00081a20       ?egptr@?$basic_streambuf@DU?$char_traits@D@std@@@std@@IBEPADXZ 4017fa20 f i Cvar.obj
 0002:00081a90       ?empty@?$basic_string@DU?$char_traits@D@std@@V?$allocator@D@2@@std@@QBE_NXZ 4017fa90 f i Cvar.obj
 0002:00081b10       ?end@?$list@PAVCvar@cvar@@V?$allocator@PAVCvar@cvar@@@std@@@std@@QAE?AV?$_List_iterator@V?$_List_val@U?$_List_simple_types@PAVCvar@cvar@@@std@@@std@@@2@XZ 4017fb10 f i Cvar.obj
 0002:00081b90       ?eof@?$_Narrow_char_traits@DH@std@@SAHXZ 4017fb90 f i Cvar.obj
 0002:00081be0       ?epptr@?$basic_streambuf@DU?$char_traits@D@std@@@std@@IBEPADXZ 4017fbe0 f i Cvar.obj
 0002:00081c50       ?eq@?$_Narrow_char_traits@DH@std@@SA_NDD@Z 4017fc50 f i Cvar.obj
 0002:00081cd0       ?eq_int_type@?$_Narrow_char_traits@DH@std@@SA_NHH@Z 4017fcd0 f i Cvar.obj
 0002:00081d50       ?equivalent@error_category@std@@UBE_NABVerror_code@2@H@Z 4017fd50 f i Cvar.obj
 0002:00081e00       ?equivalent@error_category@std@@UBE_NHABVerror_condition@2@@Z 4017fe00 f i Cvar.obj
 0002:00081e90       ?failed@?$ostreambuf_iterator@DU?$char_traits@D@std@@@std@@QBE_NXZ 4017fe90 f i Cvar.obj
 0002:00081ef0       ?falsename@?$numpunct@D@std@@QBE?AV?$basic_string@DU?$char_traits@D@std@@V?$allocator@D@2@@2@XZ 4017fef0 f i Cvar.obj
 0002:00081f90       ?fill@?$basic_ios@DU?$char_traits@D@std@@@std@@QBEDXZ 4017ff90 f i Cvar.obj
 0002:00081ff0       ?flags@ios_base@std@@QBEHXZ 4017fff0 f i Cvar.obj
 0002:00082050       ?flush@?$basic_ostream@DU?$char_traits@D@std@@@std@@QAEAAV12@XZ 40180050 f i Cvar.obj
 0002:00082210       ?fpclassify@@YAHN@Z        40180210 f i Cvar.obj
 0002:00082270       ?fpclassify@@YAHO@Z        40180270 f i Cvar.obj
 0002:000822d0       ?gbump@?$basic_streambuf@DU?$char_traits@D@std@@@std@@IAEXH@Z 401802d0 f i Cvar.obj
 0002:00082350       ?getUpdateList@Cvar@cvar@@SAABV?$list@PAVCvar@cvar@@V?$allocator@PAVCvar@cvar@@@std@@@std@@XZ 40180350 f   Cvar.obj
 0002:000823a0       ?getloc@ios_base@std@@QBE?AVlocale@2@XZ 401803a0 f i Cvar.obj
 0002:00082410       ?good@ios_base@std@@QBE_NXZ 40180410 f i Cvar.obj
 0002:000824a0       ?gptr@?$basic_streambuf@DU?$char_traits@D@std@@@std@@IBEPADXZ 401804a0 f i Cvar.obj
 0002:00082500       ?grouping@?$numpunct@D@std@@QBE?AV?$basic_string@DU?$char_traits@D@std@@V?$allocator@D@2@@2@XZ 40180500 f i Cvar.obj
 0002:000825a0       ?imbue@?$basic_streambuf@DU?$char_traits@D@std@@@std@@MAEXABVlocale@2@@Z 401805a0 f i Cvar.obj
 0002:00082600       ?init@?$basic_ios@DU?$char_traits@D@std@@@std@@IAEXPAV?$basic_streambuf@DU?$char_traits@D@std@@@2@_N@Z 40180600 f i Cvar.obj
 0002:000826c0       ?init@Cvar@cvar@@SAXXZ     401806c0 f   Cvar.obj
 0002:00082870       ?insert@?$basic_string@DU?$char_traits@D@std@@V?$allocator@D@2@@std@@QAEAAV12@IID@Z 40180870 f i Cvar.obj
 0002:00082990       ?iostream_category@std@@YAABVerror_category@1@XZ 40180990 f i Cvar.obj
 0002:000829e0       ?make_error_code@std@@YA?AVerror_code@1@W4io_errc@1@@Z 401809e0 f i Cvar.obj
 0002:00082a40       ?max_size@?$_Default_allocator_traits@V?$allocator@U?$_List_node@PAVCvar@cvar@@PAX@std@@@std@@@std@@SAIABV?$allocator@U?$_List_node@PAVCvar@cvar@@PAX@std@@@2@@Z 40180a40 f i Cvar.obj
 0002:00082a90       ?max_size@?$list@PAVCvar@cvar@@V?$allocator@PAVCvar@cvar@@@std@@@std@@QBEIXZ 40180a90 f i Cvar.obj
 0002:00082b30       ?message@_Iostream_error_category2@std@@UBE?AV?$basic_string@DU?$char_traits@D@std@@V?$allocator@D@2@@2@H@Z 40180b30 f i Cvar.obj
 0002:00082c00       ?message@error_code@std@@QBE?AV?$basic_string@DU?$char_traits@D@std@@V?$allocator@D@2@@2@XZ 40180c00 f i Cvar.obj
 0002:00082cc0       ?name@_Iostream_error_category2@std@@UBEPBDXZ 40180cc0 f i Cvar.obj
 0002:00082d20       ?not_eof@?$_Narrow_char_traits@DH@std@@SAHH@Z 40180d20 f i Cvar.obj
 0002:00082dc0       ?overflow@?$basic_streambuf@DU?$char_traits@D@std@@@std@@MAEHH@Z 40180dc0 f i Cvar.obj
 0002:00082e20       ?overflow@?$basic_stringbuf@DU?$char_traits@D@std@@V?$allocator@D@2@@std@@MAEHH@Z 40180e20 f i Cvar.obj
 0002:00083110       ?pbackfail@?$basic_streambuf@DU?$char_traits@D@std@@@std@@MAEHH@Z 40181110 f i Cvar.obj
 0002:00083170       ?pbackfail@?$basic_stringbuf@DU?$char_traits@D@std@@V?$allocator@D@2@@std@@MAEHH@Z 40181170 f i Cvar.obj
 0002:000832c0       ?pbase@?$basic_streambuf@DU?$char_traits@D@std@@@std@@IBEPADXZ 401812c0 f i Cvar.obj
 0002:00083320       ?pbump@?$basic_streambuf@DU?$char_traits@D@std@@@std@@IAEXH@Z 40181320 f i Cvar.obj
 0002:000833a0       ?pointer_to@?$pointer_traits@PAD@std@@SAPADAAD@Z 401813a0 f i Cvar.obj
 0002:00083400       ?pptr@?$basic_streambuf@DU?$char_traits@D@std@@@std@@IBEPADXZ 40181400 f i Cvar.obj
 0002:00083460       ?precision@ios_base@std@@QBE_JXZ 40181460 f i Cvar.obj
 0002:000834c0       ?pubsync@?$basic_streambuf@DU?$char_traits@D@std@@@std@@QAEHXZ 401814c0 f i Cvar.obj
 0002:00083530       ?push_back@?$list@PAVCvar@cvar@@V?$allocator@PAVCvar@cvar@@@std@@@std@@QAEX$$QAPAVCvar@cvar@@@Z 40181530 f i Cvar.obj
 0002:000835b0       ?put@?$num_put@DV?$ostreambuf_iterator@DU?$char_traits@D@std@@@std@@@std@@QBE?AV?$ostreambuf_iterator@DU?$char_traits@D@std@@@2@V32@AAVios_base@2@DJ@Z 401815b0 f i Cvar.obj
 0002:00083650       ?put@?$num_put@DV?$ostreambuf_iterator@DU?$char_traits@D@std@@@std@@@std@@QBE?AV?$ostreambuf_iterator@DU?$char_traits@D@std@@@2@V32@AAVios_base@2@DN@Z 40181650 f i Cvar.obj
 0002:000836f0       ?rdbuf@?$basic_ios@DU?$char_traits@D@std@@@std@@QBEPAV?$basic_streambuf@DU?$char_traits@D@std@@@2@XZ 401816f0 f i Cvar.obj
 0002:00083750       ?rdstate@ios_base@std@@QBEHXZ 40181750 f i Cvar.obj
 0002:000837b0       ?release@?$unique_ptr@V_Facet_base@std@@U?$default_delete@V_Facet_base@std@@@2@@std@@QAEPAV_Facet_base@2@XZ 401817b0 f i Cvar.obj
 0002:00083830       ?resize@?$basic_string@DU?$char_traits@D@std@@V?$allocator@D@2@@std@@QAEXID@Z 40181830 f i Cvar.obj
 0002:000838d0       ?seekoff@?$basic_streambuf@DU?$char_traits@D@std@@@std@@MAE?AV?$fpos@U_Mbstatet@@@2@_JHH@Z 401818d0 f i Cvar.obj
 0002:00083940       ?seekoff@?$basic_stringbuf@DU?$char_traits@D@std@@V?$allocator@D@2@@std@@MAE?AV?$fpos@U_Mbstatet@@@2@_JHH@Z 40181940 f i Cvar.obj
 0002:00083ce0       ?seekpos@?$basic_streambuf@DU?$char_traits@D@std@@@std@@MAE?AV?$fpos@U_Mbstatet@@@2@V32@H@Z 40181ce0 f i Cvar.obj
 0002:00083d50       ?seekpos@?$basic_stringbuf@DU?$char_traits@D@std@@V?$allocator@D@2@@std@@MAE?AV?$fpos@U_Mbstatet@@@2@V32@H@Z 40181d50 f i Cvar.obj
 0002:00083ff0       ?set@Cvar@cvar@@QAEXABV?$basic_string@DU?$char_traits@D@std@@V?$allocator@D@2@@std@@@Z 40181ff0 f   Cvar.obj
 0002:00084080       ?set@Cvar@cvar@@QAEXH@Z    40182080 f   Cvar.obj
 0002:00084210       ?set@Cvar@cvar@@QAEXM@Z    40182210 f   Cvar.obj
 0002:000843b0       ?setbuf@?$basic_streambuf@DU?$char_traits@D@std@@@std@@MAEPAV12@PAD_J@Z 401823b0 f i Cvar.obj
 0002:00084410       ?setg@?$basic_streambuf@DU?$char_traits@D@std@@@std@@IAEXPAD00@Z 40182410 f i Cvar.obj
 0002:00084490       ?setp@?$basic_streambuf@DU?$char_traits@D@std@@@std@@IAEXPAD00@Z 40182490 f i Cvar.obj
 0002:00084510       ?setp@?$basic_streambuf@DU?$char_traits@D@std@@@std@@IAEXPAD0@Z 40182510 f i Cvar.obj
 0002:00084590       ?setstate@?$basic_ios@DU?$char_traits@D@std@@@std@@QAEXH_N@Z 40182590 f i Cvar.obj
 0002:00084610       ?showmanyc@?$basic_streambuf@DU?$char_traits@D@std@@@std@@MAE_JXZ 40182610 f i Cvar.obj
 0002:00084670       ?size@?$basic_string@DU?$char_traits@D@std@@V?$allocator@D@2@@std@@QBEIXZ 40182670 f i Cvar.obj
 0002:000846d0       ?sputc@?$basic_streambuf@DU?$char_traits@D@std@@@std@@QAEHD@Z 401826d0 f i Cvar.obj
 0002:000847c0       ?str@?$basic_ostringstream@DU?$char_traits@D@std@@V?$allocator@D@2@@std@@QBE?AV?$basic_string@DU?$char_traits@D@std@@V?$allocator@D@2@@2@XZ 401827c0 f i Cvar.obj
 0002:00084850       ?str@?$basic_stringbuf@DU?$char_traits@D@std@@V?$allocator@D@2@@std@@QBE?AV?$basic_string@DU?$char_traits@D@std@@V?$allocator@D@2@@2@XZ 40182850 f i Cvar.obj
 0002:000849d0       ?sync@?$basic_streambuf@DU?$char_traits@D@std@@@std@@MAEHXZ 401829d0 f i Cvar.obj
 0002:00084a30       ?thousands_sep@?$numpunct@D@std@@QBEDXZ 40182a30 f i Cvar.obj
 0002:00084aa0       ?tie@?$basic_ios@DU?$char_traits@D@std@@@std@@QBEPAV?$basic_ostream@DU?$char_traits@D@std@@@2@XZ 40182aa0 f i Cvar.obj
 0002:00084b00       ?to_char_type@?$_Narrow_char_traits@DH@std@@SADH@Z 40182b00 f i Cvar.obj
 0002:00084b50       ?to_int_type@?$_Narrow_char_traits@DH@std@@SAHD@Z 40182b50 f i Cvar.obj
 0002:00084ba0       ?trapRegister@Cvar@cvar@@AAEXXZ 40182ba0 f   Cvar.obj
 0002:00084c40       ?trapUpdate@Cvar@cvar@@AAEXXZ 40182c40 f   Cvar.obj
 0002:00084d20       ?truename@?$numpunct@D@std@@QBE?AV?$basic_string@DU?$char_traits@D@std@@V?$allocator@D@2@@2@XZ 40182d20 f i Cvar.obj
 0002:00084dc0       ?uflow@?$basic_streambuf@DU?$char_traits@D@std@@@std@@MAEHXZ 40182dc0 f i Cvar.obj
 0002:00084e80       ?underflow@?$basic_streambuf@DU?$char_traits@D@std@@@std@@MAEHXZ 40182e80 f i Cvar.obj
 0002:00084ee0       ?underflow@?$basic_stringbuf@DU?$char_traits@D@std@@V?$allocator@D@2@@std@@MAEHXZ 40182ee0 f i Cvar.obj
 0002:00085060       ?value@error_code@std@@QBEHXZ 40183060 f i Cvar.obj
 0002:000850c0       ?value@error_condition@std@@QBEHXZ 401830c0 f i Cvar.obj
 0002:00085120       ?widen@?$basic_ios@DU?$char_traits@D@std@@@std@@QBEDD@Z 40183120 f i Cvar.obj
 0002:00085220       ?widen@?$ctype@D@std@@QBEDD@Z 40183220 f i Cvar.obj
 0002:000852a0       ?widen@?$ctype@D@std@@QBEPBDPBD0PAD@Z 401832a0 f i Cvar.obj
 0002:00085320       ?width@ios_base@std@@QAE_J_J@Z 40183320 f i Cvar.obj
 0002:000853a0       ?width@ios_base@std@@QBE_JXZ 401833a0 f i Cvar.obj
 0002:00085400       ?xsgetn@?$basic_streambuf@DU?$char_traits@D@std@@@std@@MAE_JPAD_J@Z 40183400 f i Cvar.obj
 0002:000855b0       ?xsputn@?$basic_streambuf@DU?$char_traits@D@std@@@std@@MAE_JPBD_J@Z 401835b0 f i Cvar.obj
 0002:00085750       __vsprintf_s_l             40183750 f i Cvar.obj
 0002:00085800       _fabsl                     40183800 f i Cvar.obj
 0002:00085860       _frexpl                    40183860 f i Cvar.obj
 0002:000858d0       _sprintf_s                 401838d0 f i Cvar.obj
 0002:00085950       ??$?0$$QAV?$basic_string@DU?$char_traits@D@std@@V?$allocator@D@2@@std@@$$Z$$V@?$pair@$$CBV?$basic_string@DU?$char_traits@D@std@@V?$allocator@D@2@@std@@PBUData@PairDump@str@@@std@@QAE@Upiecewise_construct_t@1@V?$tuple@$$QAV?$basic_string@DU?$char_traits@D@std@@V?$allocator@D@2@@std@@@1@V?$tuple@$$V@1@@Z 40183950 f i PairDump.obj
 0002:000859f0       ??$?0$$V@?$_Compressed_pair@V?$allocator@U?$_List_node@UData@PairDump@str@@PAX@std@@@std@@V?$_List_val@U?$_List_simple_types@UData@PairDump@str@@@std@@@2@$00@std@@QAE@U_Zero_then_variadic_args_t@1@@Z 401839f0 f i PairDump.obj
 0002:00085a60       ??$?0$$V@?$_Compressed_pair@V?$allocator@U?$_List_node@USection@PairDump@str@@PAX@std@@@std@@V?$_List_val@U?$_List_simple_types@USection@PairDump@str@@@std@@@2@$00@std@@QAE@U_Zero_then_variadic_args_t@1@@Z 40183a60 f i PairDump.obj
 0002:00085ad0       ??$?0$$V@?$_Compressed_pair@V?$allocator@U?$_Tree_node@U?$pair@$$CBV?$basic_string@DU?$char_traits@D@std@@V?$allocator@D@2@@std@@PBUData@PairDump@str@@@std@@PAX@std@@@std@@V?$_Tree_val@U?$_Tree_simple_types@U?$pair@$$CBV?$basic_string@DU?$char_traits@D@std@@V?$allocator@D@2@@std@@PBUData@PairDump@str@@@std@@@std@@@2@$00@std@@QAE@U_Zero_then_variadic_args_t@1@@Z 40183ad0 f i PairDump.obj
 0002:00085b40       ??$?0ABQAU?$_Tree_node@U?$pair@$$CBV?$basic_string@DU?$char_traits@D@std@@V?$allocator@D@2@@std@@PBUData@PairDump@str@@@std@@PAX@std@@_N$0A@@?$pair@PAU?$_Tree_node@U?$pair@$$CBV?$basic_string@DU?$char_traits@D@std@@V?$allocator@D@2@@std@@PBUData@PairDump@str@@@std@@PAX@std@@_N@std@@QAE@ABQAU?$_Tree_node@U?$pair@$$CBV?$basic_string@DU?$char_traits@D@std@@V?$allocator@D@2@@std@@PBUData@PairDump@str@@@std@@PAX@1@$$QA_N@Z 40183b40 f i PairDump.obj
 0002:00085bd0       ??$?0ABU?$less@V?$basic_string@DU?$char_traits@D@std@@V?$allocator@D@2@@std@@@std@@U_Zero_then_variadic_args_t@1@@?$_Compressed_pair@U?$less@V?$basic_string@DU?$char_traits@D@std@@V?$allocator@D@2@@std@@@std@@V?$_Compressed_pair@V?$allocator@U?$_Tree_node@U?$pair@$$CBV?$basic_string@DU?$char_traits@D@std@@V?$allocator@D@2@@std@@PBUData@PairDump@str@@@std@@PAX@std@@@std@@V?$_Tree_val@U?$_Tree_simple_types@U?$pair@$$CBV?$basic_string@DU?$char_traits@D@std@@V?$allocator@D@2@@std@@PBUData@PairDump@str@@@std@@@std@@@2@$00@2@$00@std@@QAE@U_One_then_variadic_args_t@1@ABU?$less@V?$basic_string@DU?$char_traits@D@std@@V?$allocator@D@2@@std@@@1@$$QAU_Zero_then_variadic_args_t@1@@Z 40183bd0 f i PairDump.obj
 0002:00085c60       ??$?0ABUData@PairDump@str@@@?$_List_node_emplace_op2@V?$allocator@U?$_List_node@UData@PairDump@str@@PAX@std@@@std@@@std@@QAE@AAV?$allocator@U?$_List_node@UData@PairDump@str@@PAX@std@@@1@ABUData@PairDump@str@@@Z 40183c60 f i PairDump.obj
 0002:00085d50       ??$?0ABUSection@PairDump@str@@@?$_List_node_emplace_op2@V?$allocator@U?$_List_node@USection@PairDump@str@@PAX@std@@@std@@@std@@QAE@AAV?$allocator@U?$_List_node@USection@PairDump@str@@PAX@std@@@1@ABUSection@PairDump@str@@@Z 40183d50 f i PairDump.obj
 0002:00085e40       ??$?0ABUpiecewise_construct_t@std@@V?$tuple@$$QAV?$basic_string@DU?$char_traits@D@std@@V?$allocator@D@2@@std@@@1@V?$tuple@$$V@1@@?$_Tree_temp_node@V?$allocator@U?$_Tree_node@U?$pair@$$CBV?$basic_string@DU?$char_traits@D@std@@V?$allocator@D@2@@std@@PBUData@PairDump@str@@@std@@PAX@std@@@std@@@std@@QAE@AAV?$allocator@U?$_Tree_node@U?$pair@$$CBV?$basic_string@DU?$char_traits@D@std@@V?$allocator@D@2@@std@@PBUData@PairDump@str@@@std@@PAX@std@@@1@PAU?$_Tree_node@U?$pair@$$CBV?$basic_string@DU?$char_traits@D@std@@V?$allocator@D@2@@std@@PBUData@PairDump@str@@@std@@PAX@1@ABUpiecewise_construct_t@1@$$QAV?$tuple@$$QAV?$basic_string@DU?$char_traits@D@std@@V?$allocator@D@2@@std@@@1@$$QAV?$tuple@$$V@1@@Z 40183e40 f i PairDump.obj
 0002:00085fb0       ??$?0PAU?$_Tree_node@U?$pair@$$CBV?$basic_string@DU?$char_traits@D@std@@V?$allocator@D@2@@std@@PBUData@PairDump@str@@@std@@PAX@std@@_N$0A@@?$pair@PAU?$_Tree_node@U?$pair@$$CBV?$basic_string@DU?$char_traits@D@std@@V?$allocator@D@2@@std@@PBUData@PairDump@str@@@std@@PAX@std@@_N@std@@QAE@$$QAPAU?$_Tree_node@U?$pair@$$CBV?$basic_string@DU?$char_traits@D@std@@V?$allocator@D@2@@std@@PBUData@PairDump@str@@@std@@PAX@1@$$QA_N@Z 40183fb0 f i PairDump.obj
 0002:00086040       ??$?0U?$_List_node@UData@PairDump@str@@PAX@std@@@?$allocator@U_Container_proxy@std@@@std@@QAE@ABV?$allocator@U?$_List_node@UData@PairDump@str@@PAX@std@@@1@@Z 40184040 f i PairDump.obj
 0002:000860a0       ??$?0U?$_List_node@USection@PairDump@str@@PAX@std@@@?$allocator@U_Container_proxy@std@@@std@@QAE@ABV?$allocator@U?$_List_node@USection@PairDump@str@@PAX@std@@@1@@Z 401840a0 f i PairDump.obj
 0002:00086100       ??$?0U?$_Tree_node@U?$pair@$$CBV?$basic_string@DU?$char_traits@D@std@@V?$allocator@D@2@@std@@PBUData@PairDump@str@@@std@@PAX@std@@@?$allocator@U_Container_proxy@std@@@std@@QAE@ABV?$allocator@U?$_Tree_node@U?$pair@$$CBV?$basic_string@DU?$char_traits@D@std@@V?$allocator@D@2@@std@@PBUData@PairDump@str@@@std@@PAX@std@@@1@@Z 40184100 f i PairDump.obj
 0002:00086160       ??$?0USection@PairDump@str@@@?$_List_node_emplace_op2@V?$allocator@U?$_List_node@USection@PairDump@str@@PAX@std@@@std@@@std@@QAE@AAV?$allocator@U?$_List_node@USection@PairDump@str@@PAX@std@@@1@$$QAUSection@PairDump@str@@@Z 40184160 f i PairDump.obj
 0002:00086250       ??$?0U_Exact_args_t@std@@V?$basic_string@DU?$char_traits@D@std@@V?$allocator@D@2@@1@$$V$0A@@?$tuple@$$QAV?$basic_string@DU?$char_traits@D@std@@V?$allocator@D@2@@std@@@std@@QAE@U_Exact_args_t@1@$$QAV?$basic_string@DU?$char_traits@D@std@@V?$allocator@D@2@@1@@Z 40184250 f i PairDump.obj
 0002:000862e0       ??$?0V?$allocator@U?$_List_node@UData@PairDump@str@@PAX@std@@@std@@$$V@?$_Compressed_pair@V?$allocator@U?$_List_node@UData@PairDump@str@@PAX@std@@@std@@V?$_List_val@U?$_List_simple_types@UData@PairDump@str@@@std@@@2@$00@std@@QAE@U_One_then_variadic_args_t@1@$$QAV?$allocator@U?$_List_node@UData@PairDump@str@@PAX@std@@@1@@Z 401842e0 f i PairDump.obj
 0002:00086350       ??$?0V?$basic_string@DU?$char_traits@D@std@@V?$allocator@D@2@@std@@$$V$0A@@?$tuple@$$QAV?$basic_string@DU?$char_traits@D@std@@V?$allocator@D@2@@std@@@std@@QAE@$$QAV?$basic_string@DU?$char_traits@D@std@@V?$allocator@D@2@@1@@Z 40184350 f i PairDump.obj
 0002:00086410       ??$?0V?$basic_string@DU?$char_traits@D@std@@V?$allocator@D@2@@std@@@?$_Tuple_val@$$QAV?$basic_string@DU?$char_traits@D@std@@V?$allocator@D@2@@std@@@std@@QAE@$$QAV?$basic_string@DU?$char_traits@D@std@@V?$allocator@D@2@@1@@Z 40184410 f i PairDump.obj
 0002:00086480       ??$?0V?$tuple@$$QAV?$basic_string@DU?$char_traits@D@std@@V?$allocator@D@2@@std@@@std@@V?$tuple@$$V@1@$0A@$$Z$S@?$pair@$$CBV?$basic_string@DU?$char_traits@D@std@@V?$allocator@D@2@@std@@PBUData@PairDump@str@@@std@@AAE@AAV?$tuple@$$QAV?$basic_string@DU?$char_traits@D@std@@V?$allocator@D@2@@std@@@1@AAV?$tuple@$$V@1@U?$integer_sequence@I$0A@@1@U?$integer_sequence@I$S@1@@Z 40184480 f i PairDump.obj
 0002:00086510       ??$?6DU?$char_traits@D@std@@@std@@YAAAV?$basic_ostream@DU?$char_traits@D@std@@@0@AAV10@ABU?$_Smanip@_J@0@@Z 40184510 f i PairDump.obj
 0002:00086590       ??$?6DU?$char_traits@D@std@@V?$allocator@D@1@@std@@YAAAV?$basic_ostream@DU?$char_traits@D@std@@@0@AAV10@ABV?$basic_string@DU?$char_traits@D@std@@V?$allocator@D@2@@0@@Z 40184590 f i PairDump.obj
 0002:00086600       ??$?6U?$char_traits@D@std@@@std@@YAAAV?$basic_ostream@DU?$char_traits@D@std@@@0@AAV10@PBD@Z 40184600 f i PairDump.obj
 0002:00086a60       ??$?8DU?$char_traits@D@std@@V?$allocator@D@1@@std@@YA_NABV?$basic_string@DU?$char_traits@D@std@@V?$allocator@D@2@@0@0@Z 40184a60 f i PairDump.obj
 0002:00086ac0       ??$?HDU?$char_traits@D@std@@V?$allocator@D@1@@std@@YA?AV?$basic_string@DU?$char_traits@D@std@@V?$allocator@D@2@@0@$$QAV10@ABV10@@Z 40184ac0 f i PairDump.obj
 0002:00086b60       ??$?HDU?$char_traits@D@std@@V?$allocator@D@1@@std@@YA?AV?$basic_string@DU?$char_traits@D@std@@V?$allocator@D@2@@0@ABV10@QBD@Z 40184b60 f i PairDump.obj
 0002:00086c70       ??$_Append_range_unchecked@V?$_List_unchecked_const_iterator@V?$_List_val@U?$_List_simple_types@UData@PairDump@str@@@std@@@std@@U_Iterator_base0@2@@std@@V12@@?$_List_node_insert_op2@V?$allocator@U?$_List_node@UData@PairDump@str@@PAX@std@@@std@@@std@@QAEXV?$_List_unchecked_const_iterator@V?$_List_val@U?$_List_simple_types@UData@PairDump@str@@@std@@@std@@U_Iterator_base0@2@@1@V21@@Z 40184c70 f i PairDump.obj
 0002:00086f00       ??$_Attach_head@U?$_List_simple_types@UData@PairDump@str@@@std@@@?$_List_node_insert_op2@V?$allocator@U?$_List_node@UData@PairDump@str@@PAX@std@@@std@@@std@@QAEXAAV?$_List_val@U?$_List_simple_types@UData@PairDump@str@@@std@@@1@@Z 40184f00 f i PairDump.obj
 0002:00087130       ??$_Buyheadnode@V?$allocator@U?$_Tree_node@U?$pair@$$CBV?$basic_string@DU?$char_traits@D@std@@V?$allocator@D@2@@std@@PBUData@PairDump@str@@@std@@PAX@std@@@std@@@?$_Tree_node@U?$pair@$$CBV?$basic_string@DU?$char_traits@D@std@@V?$allocator@D@2@@std@@PBUData@PairDump@str@@@std@@PAX@std@@SAPAU01@AAV?$allocator@U?$_Tree_node@U?$pair@$$CBV?$basic_string@DU?$char_traits@D@std@@V?$allocator@D@2@@std@@PBUData@PairDump@str@@@std@@PAX@std@@@1@@Z 40185130 f i PairDump.obj
 0002:00087220       ??$_Construct_in_place@PAU?$_List_node@UData@PairDump@str@@PAX@std@@AAPAU12@@std@@YAXAAPAU?$_List_node@UData@PairDump@str@@PAX@0@0@Z 40185220 f i PairDump.obj
 0002:000872b0       ??$_Construct_in_place@PAU?$_List_node@UData@PairDump@str@@PAX@std@@ABQAU12@@std@@YAXAAPAU?$_List_node@UData@PairDump@str@@PAX@0@ABQAU10@@Z 401852b0 f i PairDump.obj
 0002:00087340       ??$_Construct_in_place@PAU?$_List_node@UData@PairDump@str@@PAX@std@@PAU12@@std@@YAXAAPAU?$_List_node@UData@PairDump@str@@PAX@0@$$QAPAU10@@Z 40185340 f i PairDump.obj
 0002:000873d0       ??$_Construct_in_place@PAU?$_List_node@USection@PairDump@str@@PAX@std@@AAPAU12@@std@@YAXAAPAU?$_List_node@USection@PairDump@str@@PAX@0@0@Z 401853d0 f i PairDump.obj
 0002:00087460       ??$_Construct_in_place@PAU?$_List_node@USection@PairDump@str@@PAX@std@@ABQAU12@@std@@YAXAAPAU?$_List_node@USection@PairDump@str@@PAX@0@ABQAU10@@Z 40185460 f i PairDump.obj
 0002:000874f0       ??$_Construct_in_place@PAU?$_Tree_node@U?$pair@$$CBV?$basic_string@DU?$char_traits@D@std@@V?$allocator@D@2@@std@@PBUData@PairDump@str@@@std@@PAX@std@@AAPAU12@@std@@YAXAAPAU?$_Tree_node@U?$pair@$$CBV?$basic_string@DU?$char_traits@D@std@@V?$allocator@D@2@@std@@PBUData@PairDump@str@@@std@@PAX@0@0@Z 401854f0 f i PairDump.obj
 0002:00087580       ??$_Construct_in_place@PAU?$_Tree_node@U?$pair@$$CBV?$basic_string@DU?$char_traits@D@std@@V?$allocator@D@2@@std@@PBUData@PairDump@str@@@std@@PAX@std@@ABQAU12@@std@@YAXAAPAU?$_Tree_node@U?$pair@$$CBV?$basic_string@DU?$char_traits@D@std@@V?$allocator@D@2@@std@@PBUData@PairDump@str@@@std@@PAX@0@ABQAU10@@Z 40185580 f i PairDump.obj
 0002:00087610       ??$_Construct_range_unchecked@V?$_List_unchecked_const_iterator@V?$_List_val@U?$_List_simple_types@UData@PairDump@str@@@std@@@std@@U_Iterator_base0@2@@std@@V12@@?$list@UData@PairDump@str@@V?$allocator@UData@PairDump@str@@@std@@@std@@AAEXV?$_List_unchecked_const_iterator@V?$_List_val@U?$_List_simple_types@UData@PairDump@str@@@std@@@std@@U_Iterator_base0@2@@1@V21@@Z 40185610 f i PairDump.obj
 0002:000877c0       ??$_Destroy_in_place@PAU?$_List_node@UData@PairDump@str@@PAX@std@@@std@@YAXAAPAU?$_List_node@UData@PairDump@str@@PAX@0@@Z 401857c0 f i PairDump.obj
 0002:00087810       ??$_Destroy_in_place@PAU?$_List_node@USection@PairDump@str@@PAX@std@@@std@@YAXAAPAU?$_List_node@USection@PairDump@str@@PAX@0@@Z 40185810 f i PairDump.obj
 0002:00087860       ??$_Destroy_in_place@PAU?$_Tree_node@U?$pair@$$CBV?$basic_string@DU?$char_traits@D@std@@V?$allocator@D@2@@std@@PBUData@PairDump@str@@@std@@PAX@std@@@std@@YAXAAPAU?$_Tree_node@U?$pair@$$CBV?$basic_string@DU?$char_traits@D@std@@V?$allocator@D@2@@std@@PBUData@PairDump@str@@@std@@PAX@0@@Z 40185860 f i PairDump.obj
 0002:000878b0       ??$_Emplace@ABUData@PairDump@str@@@?$list@UData@PairDump@str@@V?$allocator@UData@PairDump@str@@@std@@@std@@QAEPAU?$_List_node@UData@PairDump@str@@PAX@1@QAU21@ABUData@PairDump@str@@@Z 401858b0 f i PairDump.obj
 0002:000879f0       ??$_Emplace@ABUSection@PairDump@str@@@?$list@USection@PairDump@str@@V?$allocator@USection@PairDump@str@@@std@@@std@@QAEPAU?$_List_node@USection@PairDump@str@@PAX@1@QAU21@ABUSection@PairDump@str@@@Z 401859f0 f i PairDump.obj
 0002:00087b30       ??$_Emplace@USection@PairDump@str@@@?$list@USection@PairDump@str@@V?$allocator@USection@PairDump@str@@@std@@@std@@QAEPAU?$_List_node@USection@PairDump@str@@PAX@1@QAU21@$$QAUSection@PairDump@str@@@Z 40185b30 f i PairDump.obj
 0002:00087c70       ??$_Erase_head@V?$allocator@U?$_Tree_node@U?$pair@$$CBV?$basic_string@DU?$char_traits@D@std@@V?$allocator@D@2@@std@@PBUData@PairDump@str@@@std@@PAX@std@@@std@@@?$_Tree_val@U?$_Tree_simple_types@U?$pair@$$CBV?$basic_string@DU?$char_traits@D@std@@V?$allocator@D@2@@std@@PBUData@PairDump@str@@@std@@@std@@@std@@QAEXAAV?$allocator@U?$_Tree_node@U?$pair@$$CBV?$basic_string@DU?$char_traits@D@std@@V?$allocator@D@2@@std@@PBUData@PairDump@str@@@std@@PAX@std@@@1@@Z 40185c70 f i PairDump.obj
 0002:00087d10       ??$_Erase_tree@V?$allocator@U?$_Tree_node@U?$pair@$$CBV?$basic_string@DU?$char_traits@D@std@@V?$allocator@D@2@@std@@PBUData@PairDump@str@@@std@@PAX@std@@@std@@@?$_Tree_val@U?$_Tree_simple_types@U?$pair@$$CBV?$basic_string@DU?$char_traits@D@std@@V?$allocator@D@2@@std@@PBUData@PairDump@str@@@std@@@std@@@std@@QAEXAAV?$allocator@U?$_Tree_node@U?$pair@$$CBV?$basic_string@DU?$char_traits@D@std@@V?$allocator@D@2@@std@@PBUData@PairDump@str@@@std@@PAX@std@@@1@PAU?$_Tree_node@U?$pair@$$CBV?$basic_string@DU?$char_traits@D@std@@V?$allocator@D@2@@std@@PBUData@PairDump@str@@@std@@PAX@1@@Z 40185d10 f i PairDump.obj
 0002:00087db0       ??$_Find@V?$basic_string@DU?$char_traits@D@std@@V?$allocator@D@2@@std@@@?$_Tree@V?$_Tmap_traits@V?$basic_string@DU?$char_traits@D@std@@V?$allocator@D@2@@std@@PBUData@PairDump@str@@U?$less@V?$basic_string@DU?$char_traits@D@std@@V?$allocator@D@2@@std@@@2@V?$allocator@U?$pair@$$CBV?$basic_string@DU?$char_traits@D@std@@V?$allocator@D@2@@std@@PBUData@PairDump@str@@@std@@@2@$0A@@std@@@std@@ABEPAU?$_Tree_node@U?$pair@$$CBV?$basic_string@DU?$char_traits@D@std@@V?$allocator@D@2@@std@@PBUData@PairDump@str@@@std@@PAX@1@ABV?$basic_string@DU?$char_traits@D@std@@V?$allocator@D@2@@1@@Z 40185db0 f i PairDump.obj
 0002:00087e80       ??$_Find_lower_bound@V?$basic_string@DU?$char_traits@D@std@@V?$allocator@D@2@@std@@@?$_Tree@V?$_Tmap_traits@V?$basic_string@DU?$char_traits@D@std@@V?$allocator@D@2@@std@@PBUData@PairDump@str@@U?$less@V?$basic_string@DU?$char_traits@D@std@@V?$allocator@D@2@@std@@@2@V?$allocator@U?$pair@$$CBV?$basic_string@DU?$char_traits@D@std@@V?$allocator@D@2@@std@@PBUData@PairDump@str@@@std@@@2@$0A@@std@@@std@@IBE?AU?$_Tree_find_result@PAU?$_Tree_node@U?$pair@$$CBV?$basic_string@DU?$char_traits@D@std@@V?$allocator@D@2@@std@@PBUData@PairDump@str@@@std@@PAX@std@@@1@ABV?$basic_string@DU?$char_traits@D@std@@V?$allocator@D@2@@1@@Z 40185e80 f i PairDump.obj
 0002:00087fe0       ??$_Free_non_head@V?$allocator@U?$_List_node@UData@PairDump@str@@PAX@std@@@std@@@?$_List_node@UData@PairDump@str@@PAX@std@@SAXAAV?$allocator@U?$_List_node@UData@PairDump@str@@PAX@std@@@1@PAU01@@Z 40185fe0 f i PairDump.obj
 0002:00088080       ??$_Free_non_head@V?$allocator@U?$_List_node@USection@PairDump@str@@PAX@std@@@std@@@?$_List_node@USection@PairDump@str@@PAX@std@@SAXAAV?$allocator@U?$_List_node@USection@PairDump@str@@PAX@std@@@1@PAU01@@Z 40186080 f i PairDump.obj
 0002:00088120       ??$_Freenode0@V?$allocator@U?$_List_node@UData@PairDump@str@@PAX@std@@@std@@@?$_List_node@UData@PairDump@str@@PAX@std@@SAXAAV?$allocator@U?$_List_node@UData@PairDump@str@@PAX@std@@@1@PAU01@@Z 40186120 f i PairDump.obj
 0002:000881a0       ??$_Freenode0@V?$allocator@U?$_List_node@USection@PairDump@str@@PAX@std@@@std@@@?$_List_node@USection@PairDump@str@@PAX@std@@SAXAAV?$allocator@U?$_List_node@USection@PairDump@str@@PAX@std@@@1@PAU01@@Z 401861a0 f i PairDump.obj
 0002:00088220       ??$_Freenode0@V?$allocator@U?$_Tree_node@U?$pair@$$CBV?$basic_string@DU?$char_traits@D@std@@V?$allocator@D@2@@std@@PBUData@PairDump@str@@@std@@PAX@std@@@std@@@?$_Tree_node@U?$pair@$$CBV?$basic_string@DU?$char_traits@D@std@@V?$allocator@D@2@@std@@PBUData@PairDump@str@@@std@@PAX@std@@SAXAAV?$allocator@U?$_Tree_node@U?$pair@$$CBV?$basic_string@DU?$char_traits@D@std@@V?$allocator@D@2@@std@@PBUData@PairDump@str@@@std@@PAX@std@@@1@PAU01@@Z 40186220 f i PairDump.obj
 0002:000882b0       ??$_Freenode@V?$allocator@U?$_List_node@UData@PairDump@str@@PAX@std@@@std@@@?$_List_node@UData@PairDump@str@@PAX@std@@SAXAAV?$allocator@U?$_List_node@UData@PairDump@str@@PAX@std@@@1@PAU01@@Z 401862b0 f i PairDump.obj
 0002:00088370       ??$_Freenode@V?$allocator@U?$_List_node@USection@PairDump@str@@PAX@std@@@std@@@?$_List_node@USection@PairDump@str@@PAX@std@@SAXAAV?$allocator@U?$_List_node@USection@PairDump@str@@PAX@std@@@1@PAU01@@Z 40186370 f i PairDump.obj
 0002:00088430       ??$_Freenode@V?$allocator@U?$_Tree_node@U?$pair@$$CBV?$basic_string@DU?$char_traits@D@std@@V?$allocator@D@2@@std@@PBUData@PairDump@str@@@std@@PAX@std@@@std@@@?$_Tree_node@U?$pair@$$CBV?$basic_string@DU?$char_traits@D@std@@V?$allocator@D@2@@std@@PBUData@PairDump@str@@@std@@PAX@std@@SAXAAV?$allocator@U?$_Tree_node@U?$pair@$$CBV?$basic_string@DU?$char_traits@D@std@@V?$allocator@D@2@@std@@PBUData@PairDump@str@@@std@@PAX@std@@@1@PAU01@@Z 40186430 f i PairDump.obj
 0002:000884f0       ??$_Get_proxy_allocator@V?$allocator@U?$_List_node@UData@PairDump@str@@PAX@std@@@std@@@std@@YA?AV?$allocator@U_Container_proxy@std@@@0@ABV?$allocator@U?$_List_node@UData@PairDump@str@@PAX@std@@@0@@Z 401864f0 f i PairDump.obj
 0002:00088550       ??$_Get_proxy_allocator@V?$allocator@U?$_List_node@USection@PairDump@str@@PAX@std@@@std@@@std@@YA?AV?$allocator@U_Container_proxy@std@@@0@ABV?$allocator@U?$_List_node@USection@PairDump@str@@PAX@std@@@0@@Z 40186550 f i PairDump.obj
 0002:000885b0       ??$_Get_proxy_allocator@V?$allocator@U?$_Tree_node@U?$pair@$$CBV?$basic_string@DU?$char_traits@D@std@@V?$allocator@D@2@@std@@PBUData@PairDump@str@@@std@@PAX@std@@@std@@@std@@YA?AV?$allocator@U_Container_proxy@std@@@0@ABV?$allocator@U?$_Tree_node@U?$pair@$$CBV?$basic_string@DU?$char_traits@D@std@@V?$allocator@D@2@@std@@PBUData@PairDump@str@@@std@@PAX@std@@@0@@Z 401865b0 f i PairDump.obj
 0002:00088610       ??$_Get_size_of_n@$0DA@@std@@YAII@Z 40186610 f i PairDump.obj
 0002:00088680       ??$_Get_size_of_n@$0EA@@std@@YAII@Z 40186680 f i PairDump.obj
 0002:000886f0       ??$_Insert_string@DU?$char_traits@D@std@@I@std@@YAAAV?$basic_ostream@DU?$char_traits@D@std@@@0@AAV10@QBDI@Z 401866f0 f i PairDump.obj
 0002:00088ad0       ??$_Kfn@$$CBV?$basic_string@DU?$char_traits@D@std@@V?$allocator@D@2@@std@@PBUData@PairDump@str@@@?$_Tmap_traits@V?$basic_string@DU?$char_traits@D@std@@V?$allocator@D@2@@std@@PBUData@PairDump@str@@U?$less@V?$basic_string@DU?$char_traits@D@std@@V?$allocator@D@2@@std@@@2@V?$allocator@U?$pair@$$CBV?$basic_string@DU?$char_traits@D@std@@V?$allocator@D@2@@std@@PBUData@PairDump@str@@@std@@@2@$0A@@std@@SAABV?$basic_string@DU?$char_traits@D@std@@V?$allocator@D@2@@1@ABU?$pair@$$CBV?$basic_string@DU?$char_traits@D@std@@V?$allocator@D@2@@std@@PBUData@PairDump@str@@@1@@Z 40186ad0 f i PairDump.obj
 0002:00088b20       ??$_Lower_bound_duplicate@V?$basic_string@DU?$char_traits@D@std@@V?$allocator@D@2@@std@@@?$_Tree@V?$_Tmap_traits@V?$basic_string@DU?$char_traits@D@std@@V?$allocator@D@2@@std@@PBUData@PairDump@str@@U?$less@V?$basic_string@DU?$char_traits@D@std@@V?$allocator@D@2@@std@@@2@V?$allocator@U?$pair@$$CBV?$basic_string@DU?$char_traits@D@std@@V?$allocator@D@2@@std@@PBUData@PairDump@str@@@std@@@2@$0A@@std@@@std@@IBE_NQAU?$_Tree_node@U?$pair@$$CBV?$basic_string@DU?$char_traits@D@std@@V?$allocator@D@2@@std@@PBUData@PairDump@str@@@std@@PAX@1@ABV?$basic_string@DU?$char_traits@D@std@@V?$allocator@D@2@@1@@Z 40186b20 f i PairDump.obj
 0002:00088be0       ??$_Traits_equal@U?$char_traits@D@std@@@std@@YA_NQBDI0I@Z 40186be0 f i PairDump.obj
 0002:00088c90       ??$_Try_emplace@V?$basic_string@DU?$char_traits@D@std@@V?$allocator@D@2@@std@@$$V@?$map@V?$basic_string@DU?$char_traits@D@std@@V?$allocator@D@2@@std@@PBUData@PairDump@str@@U?$less@V?$basic_string@DU?$char_traits@D@std@@V?$allocator@D@2@@std@@@2@V?$allocator@U?$pair@$$CBV?$basic_string@DU?$char_traits@D@std@@V?$allocator@D@2@@std@@PBUData@PairDump@str@@@std@@@2@@std@@AAE?AU?$pair@PAU?$_Tree_node@U?$pair@$$CBV?$basic_string@DU?$char_traits@D@std@@V?$allocator@D@2@@std@@PBUData@PairDump@str@@@std@@PAX@std@@_N@1@$$QAV?$basic_string@DU?$char_traits@D@std@@V?$allocator@D@2@@1@@Z 40186c90 f i PairDump.obj
 0002:00088e70       ??$_Tuple_get@$0A@$$QAV?$basic_string@DU?$char_traits@D@std@@V?$allocator@D@2@@std@@@std@@YA$$QA_P$$QAV?$tuple@$$QAV?$basic_string@DU?$char_traits@D@std@@V?$allocator@D@2@@std@@@0@@Z 40186e70 f i PairDump.obj
 0002:00088ec0       ??$addressof@$$CBV?$_List_val@U?$_List_simple_types@UData@PairDump@str@@@std@@@std@@@std@@YAPBV?$_List_val@U?$_List_simple_types@UData@PairDump@str@@@std@@@0@ABV10@@Z 40186ec0 f i PairDump.obj
 0002:00088f10       ??$addressof@$$CBV?$_List_val@U?$_List_simple_types@USection@PairDump@str@@@std@@@std@@@std@@YAPBV?$_List_val@U?$_List_simple_types@USection@PairDump@str@@@std@@@0@ABV10@@Z 40186f10 f i PairDump.obj
 0002:00088f60       ??$addressof@$$CBV?$_Tree_val@U?$_Tree_simple_types@U?$pair@$$CBV?$basic_string@DU?$char_traits@D@std@@V?$allocator@D@2@@std@@PBUData@PairDump@str@@@std@@@std@@@std@@@std@@YAPBV?$_Tree_val@U?$_Tree_simple_types@U?$pair@$$CBV?$basic_string@DU?$char_traits@D@std@@V?$allocator@D@2@@std@@PBUData@PairDump@str@@@std@@@std@@@0@ABV10@@Z 40186f60 f i PairDump.obj
 0002:00088fb0       ??$addressof@PAU?$_List_node@UData@PairDump@str@@PAX@std@@@std@@YAPAPAU?$_List_node@UData@PairDump@str@@PAX@0@AAPAU10@@Z 40186fb0 f i PairDump.obj
 0002:00089000       ??$addressof@PAU?$_List_node@USection@PairDump@str@@PAX@std@@@std@@YAPAPAU?$_List_node@USection@PairDump@str@@PAX@0@AAPAU10@@Z 40187000 f i PairDump.obj
 0002:00089050       ??$addressof@PAU?$_Tree_node@U?$pair@$$CBV?$basic_string@DU?$char_traits@D@std@@V?$allocator@D@2@@std@@PBUData@PairDump@str@@@std@@PAX@std@@@std@@YAPAPAU?$_Tree_node@U?$pair@$$CBV?$basic_string@DU?$char_traits@D@std@@V?$allocator@D@2@@std@@PBUData@PairDump@str@@@std@@PAX@0@AAPAU10@@Z 40187050 f i PairDump.obj
 0002:000890a0       ??$addressof@U?$pair@$$CBV?$basic_string@DU?$char_traits@D@std@@V?$allocator@D@2@@std@@PBUData@PairDump@str@@@std@@@std@@YAPAU?$pair@$$CBV?$basic_string@DU?$char_traits@D@std@@V?$allocator@D@2@@std@@PBUData@PairDump@str@@@0@AAU10@@Z 401870a0 f i PairDump.obj
 0002:000890f0       ??$addressof@UData@PairDump@str@@@std@@YAPAUData@PairDump@str@@AAU123@@Z 401870f0 f i PairDump.obj
 0002:00089140       ??$addressof@USection@PairDump@str@@@std@@YAPAUSection@PairDump@str@@AAU123@@Z 40187140 f i PairDump.obj
 0002:00089190       ??$addressof@V?$_List_val@U?$_List_simple_types@UData@PairDump@str@@@std@@@std@@@std@@YAPAV?$_List_val@U?$_List_simple_types@UData@PairDump@str@@@std@@@0@AAV10@@Z 40187190 f i PairDump.obj
 0002:000891e0       ??$addressof@V?$_List_val@U?$_List_simple_types@USection@PairDump@str@@@std@@@std@@@std@@YAPAV?$_List_val@U?$_List_simple_types@USection@PairDump@str@@@std@@@0@AAV10@@Z 401871e0 f i PairDump.obj
 0002:00089230       ??$addressof@V?$_Tree_val@U?$_Tree_simple_types@U?$pair@$$CBV?$basic_string@DU?$char_traits@D@std@@V?$allocator@D@2@@std@@PBUData@PairDump@str@@@std@@@std@@@std@@@std@@YAPAV?$_Tree_val@U?$_Tree_simple_types@U?$pair@$$CBV?$basic_string@DU?$char_traits@D@std@@V?$allocator@D@2@@std@@PBUData@PairDump@str@@@std@@@std@@@0@AAV10@@Z 40187230 f i PairDump.obj
 0002:00089280       ??$construct@U?$pair@$$CBV?$basic_string@DU?$char_traits@D@std@@V?$allocator@D@2@@std@@PBUData@PairDump@str@@@std@@ABUpiecewise_construct_t@2@V?$tuple@$$QAV?$basic_string@DU?$char_traits@D@std@@V?$allocator@D@2@@std@@@2@V?$tuple@$$V@2@@?$_Default_allocator_traits@V?$allocator@U?$_Tree_node@U?$pair@$$CBV?$basic_string@DU?$char_traits@D@std@@V?$allocator@D@2@@std@@PBUData@PairDump@str@@@std@@PAX@std@@@std@@@std@@SAXAAV?$allocator@U?$_Tree_node@U?$pair@$$CBV?$basic_string@DU?$char_traits@D@std@@V?$allocator@D@2@@std@@PBUData@PairDump@str@@@std@@PAX@std@@@1@QAU?$pair@$$CBV?$basic_string@DU?$char_traits@D@std@@V?$allocator@D@2@@std@@PBUData@PairDump@str@@@1@ABUpiecewise_construct_t@1@$$QAV?$tuple@$$QAV?$basic_string@DU?$char_traits@D@std@@V?$allocator@D@2@@std@@@1@$$QAV?$tuple@$$V@1@@Z 40187280 f i PairDump.obj
 0002:00089340       ??$construct@UData@PairDump@str@@ABU123@@?$_Default_allocator_traits@V?$allocator@U?$_List_node@UData@PairDump@str@@PAX@std@@@std@@@std@@SAXAAV?$allocator@U?$_List_node@UData@PairDump@str@@PAX@std@@@1@QAUData@PairDump@str@@ABU345@@Z 40187340 f i PairDump.obj
 0002:000893c0       ??$construct@USection@PairDump@str@@ABU123@@?$_Default_allocator_traits@V?$allocator@U?$_List_node@USection@PairDump@str@@PAX@std@@@std@@@std@@SAXAAV?$allocator@U?$_List_node@USection@PairDump@str@@PAX@std@@@1@QAUSection@PairDump@str@@ABU345@@Z 401873c0 f i PairDump.obj
 0002:00089440       ??$construct@USection@PairDump@str@@U123@@?$_Default_allocator_traits@V?$allocator@U?$_List_node@USection@PairDump@str@@PAX@std@@@std@@@std@@SAXAAV?$allocator@U?$_List_node@USection@PairDump@str@@PAX@std@@@1@QAUSection@PairDump@str@@$$QAU345@@Z 40187440 f i PairDump.obj
 0002:000894c0       ??$destroy@U?$pair@$$CBV?$basic_string@DU?$char_traits@D@std@@V?$allocator@D@2@@std@@PBUData@PairDump@str@@@std@@@?$_Default_allocator_traits@V?$allocator@U?$_Tree_node@U?$pair@$$CBV?$basic_string@DU?$char_traits@D@std@@V?$allocator@D@2@@std@@PBUData@PairDump@str@@@std@@PAX@std@@@std@@@std@@SAXAAV?$allocator@U?$_Tree_node@U?$pair@$$CBV?$basic_string@DU?$char_traits@D@std@@V?$allocator@D@2@@std@@PBUData@PairDump@str@@@std@@PAX@std@@@1@QAU?$pair@$$CBV?$basic_string@DU?$char_traits@D@std@@V?$allocator@D@2@@std@@PBUData@PairDump@str@@@1@@Z 401874c0 f i PairDump.obj
 0002:00089520       ??$destroy@UData@PairDump@str@@@?$_Default_allocator_traits@V?$allocator@U?$_List_node@UData@PairDump@str@@PAX@std@@@std@@@std@@SAXAAV?$allocator@U?$_List_node@UData@PairDump@str@@PAX@std@@@1@QAUData@PairDump@str@@@Z 40187520 f i PairDump.obj
 0002:00089580       ??$destroy@USection@PairDump@str@@@?$_Default_allocator_traits@V?$allocator@U?$_List_node@USection@PairDump@str@@PAX@std@@@std@@@std@@SAXAAV?$allocator@U?$_List_node@USection@PairDump@str@@PAX@std@@@1@QAUSection@PairDump@str@@@Z 40187580 f i PairDump.obj
 0002:000895e0       ??$endl@DU?$char_traits@D@std@@@std@@YAAAV?$basic_ostream@DU?$char_traits@D@std@@@0@AAV10@@Z 401875e0 f i PairDump.obj
 0002:00089660       ??$exchange@II@std@@YAIAAI$$QAI@Z 40187660 f i PairDump.obj
 0002:000896d0       ??$exchange@PAU?$_List_node@UData@PairDump@str@@PAX@std@@$$T@std@@YAPAU?$_List_node@UData@PairDump@str@@PAX@0@AAPAU10@$$QA$$T@Z 401876d0 f i PairDump.obj
 0002:00089740       ??$exchange@PAU?$_List_node@UData@PairDump@str@@PAX@std@@AAPAU12@@std@@YAPAU?$_List_node@UData@PairDump@str@@PAX@0@AAPAU10@0@Z 40187740 f i PairDump.obj
 0002:000897b0       ??$exchange@PAU?$_List_node@UData@PairDump@str@@PAX@std@@PAU12@@std@@YAPAU?$_List_node@UData@PairDump@str@@PAX@0@AAPAU10@$$QAPAU10@@Z 401877b0 f i PairDump.obj
 0002:00089820       ??$exchange@PAU?$_Tree_node@U?$pair@$$CBV?$basic_string@DU?$char_traits@D@std@@V?$allocator@D@2@@std@@PBUData@PairDump@str@@@std@@PAX@std@@$$T@std@@YAPAU?$_Tree_node@U?$pair@$$CBV?$basic_string@DU?$char_traits@D@std@@V?$allocator@D@2@@std@@PBUData@PairDump@str@@@std@@PAX@0@AAPAU10@$$QA$$T@Z 40187820 f i PairDump.obj
 0002:00089890       ??$exchange@PAU?$_Tree_node@U?$pair@$$CBV?$basic_string@DU?$char_traits@D@std@@V?$allocator@D@2@@std@@PBUData@PairDump@str@@@std@@PAX@std@@AAPAU12@@std@@YAPAU?$_Tree_node@U?$pair@$$CBV?$basic_string@DU?$char_traits@D@std@@V?$allocator@D@2@@std@@PBUData@PairDump@str@@@std@@PAX@0@AAPAU10@0@Z 40187890 f i PairDump.obj
 0002:00089900       ??$forward@AAPAU?$_List_node@UData@PairDump@str@@PAX@std@@@std@@YAAAPAU?$_List_node@UData@PairDump@str@@PAX@0@AAPAU10@@Z 40187900 f i PairDump.obj
 0002:00089950       ??$forward@AAPAU?$_List_node@USection@PairDump@str@@PAX@std@@@std@@YAAAPAU?$_List_node@USection@PairDump@str@@PAX@0@AAPAU10@@Z 40187950 f i PairDump.obj
 0002:000899a0       ??$forward@AAPAU?$_Tree_node@U?$pair@$$CBV?$basic_string@DU?$char_traits@D@std@@V?$allocator@D@2@@std@@PBUData@PairDump@str@@@std@@PAX@std@@@std@@YAAAPAU?$_Tree_node@U?$pair@$$CBV?$basic_string@DU?$char_traits@D@std@@V?$allocator@D@2@@std@@PBUData@PairDump@str@@@std@@PAX@0@AAPAU10@@Z 401879a0 f i PairDump.obj
 0002:000899f0       ??$forward@ABQAU?$_List_node@UData@PairDump@str@@PAX@std@@@std@@YAABQAU?$_List_node@UData@PairDump@str@@PAX@0@ABQAU10@@Z 401879f0 f i PairDump.obj
 0002:00089a40       ??$forward@ABQAU?$_List_node@USection@PairDump@str@@PAX@std@@@std@@YAABQAU?$_List_node@USection@PairDump@str@@PAX@0@ABQAU10@@Z 40187a40 f i PairDump.obj
 0002:00089a90       ??$forward@ABQAU?$_Tree_node@U?$pair@$$CBV?$basic_string@DU?$char_traits@D@std@@V?$allocator@D@2@@std@@PBUData@PairDump@str@@@std@@PAX@std@@@std@@YAABQAU?$_Tree_node@U?$pair@$$CBV?$basic_string@DU?$char_traits@D@std@@V?$allocator@D@2@@std@@PBUData@PairDump@str@@@std@@PAX@0@ABQAU10@@Z 40187a90 f i PairDump.obj
 0002:00089ae0       ??$forward@ABUData@PairDump@str@@@std@@YAABUData@PairDump@str@@ABU123@@Z 40187ae0 f i PairDump.obj
 0002:00089b30       ??$forward@ABUSection@PairDump@str@@@std@@YAABUSection@PairDump@str@@ABU123@@Z 40187b30 f i PairDump.obj
 0002:00089b80       ??$forward@PAU?$_List_node@UData@PairDump@str@@PAX@std@@@std@@YA$$QAPAU?$_List_node@UData@PairDump@str@@PAX@0@AAPAU10@@Z 40187b80 f i PairDump.obj
 0002:00089bd0       ??$forward@PAU?$_Tree_node@U?$pair@$$CBV?$basic_string@DU?$char_traits@D@std@@V?$allocator@D@2@@std@@PBUData@PairDump@str@@@std@@PAX@std@@@std@@YA$$QAPAU?$_Tree_node@U?$pair@$$CBV?$basic_string@DU?$char_traits@D@std@@V?$allocator@D@2@@std@@PBUData@PairDump@str@@@std@@PAX@0@AAPAU10@@Z 40187bd0 f i PairDump.obj
 0002:00089c20       ??$forward@USection@PairDump@str@@@std@@YA$$QAUSection@PairDump@str@@AAU123@@Z 40187c20 f i PairDump.obj
 0002:00089c70       ??$forward@V?$allocator@U?$_List_node@UData@PairDump@str@@PAX@std@@@std@@@std@@YA$$QAV?$allocator@U?$_List_node@UData@PairDump@str@@PAX@std@@@0@AAV10@@Z 40187c70 f i PairDump.obj
 0002:00089cc0       ??$forward@V?$basic_string@DU?$char_traits@D@std@@V?$allocator@D@2@@std@@@std@@YA$$QAV?$basic_string@DU?$char_traits@D@std@@V?$allocator@D@2@@0@AAV10@@Z 40187cc0 f i PairDump.obj
 0002:00089d10       ??$forward@V?$tuple@$$QAV?$basic_string@DU?$char_traits@D@std@@V?$allocator@D@2@@std@@@std@@@std@@YA$$QAV?$tuple@$$QAV?$basic_string@DU?$char_traits@D@std@@V?$allocator@D@2@@std@@@0@AAV10@@Z 40187d10 f i PairDump.obj
 0002:00089d60       ??$forward_as_tuple@V?$basic_string@DU?$char_traits@D@std@@V?$allocator@D@2@@std@@@std@@YA?AV?$tuple@$$QAV?$basic_string@DU?$char_traits@D@std@@V?$allocator@D@2@@std@@@0@$$QAV?$basic_string@DU?$char_traits@D@std@@V?$allocator@D@2@@0@@Z 40187d60 f i PairDump.obj
 0002:00089dd0       ??$move@AAI@std@@YA$$QAIAAI@Z 40187dd0 f i PairDump.obj
 0002:00089e20       ??$move@AAPAU?$_List_node@UData@PairDump@str@@PAX@std@@@std@@YA$$QAPAU?$_List_node@UData@PairDump@str@@PAX@0@AAPAU10@@Z 40187e20 f i PairDump.obj
 0002:00089e70       ??$move@AAUSection@PairDump@str@@@std@@YA$$QAUSection@PairDump@str@@AAU123@@Z 40187e70 f i PairDump.obj
 0002:00089ec0       ??$move@AAV?$_List_unchecked_const_iterator@V?$_List_val@U?$_List_simple_types@UData@PairDump@str@@@std@@@std@@U_Iterator_base0@2@@std@@@std@@YA$$QAV?$_List_unchecked_const_iterator@V?$_List_val@U?$_List_simple_types@UData@PairDump@str@@@std@@@std@@U_Iterator_base0@2@@0@AAV10@@Z 40187ec0 f i PairDump.obj
 0002:00089f10       ??$move@AAV?$allocator@U?$_List_node@UData@PairDump@str@@PAX@std@@@std@@@std@@YA$$QAV?$allocator@U?$_List_node@UData@PairDump@str@@PAX@std@@@0@AAV10@@Z 40187f10 f i PairDump.obj
 0002:00089f60       ??$move@AAV?$tuple@$$QAV?$basic_string@DU?$char_traits@D@std@@V?$allocator@D@2@@std@@@std@@@std@@YA$$QAV?$tuple@$$QAV?$basic_string@DU?$char_traits@D@std@@V?$allocator@D@2@@std@@@0@AAV10@@Z 40187f60 f i PairDump.obj
 0002:00089fb0       ??$swap@I$0A@@std@@YAXAAI0@Z 40187fb0 f i PairDump.obj
 0002:0008a080       ??$swap@PAU?$_List_node@UData@PairDump@str@@PAX@std@@$0A@@std@@YAXAAPAU?$_List_node@UData@PairDump@str@@PAX@0@0@Z 40188080 f i PairDump.obj
 0002:0008a150       ??0?$_Alloc_construct_ptr@V?$allocator@U?$_List_node@UData@PairDump@str@@PAX@std@@@std@@@std@@QAE@AAV?$allocator@U?$_List_node@UData@PairDump@str@@PAX@std@@@1@@Z 40188150 f i PairDump.obj
 0002:0008a1c0       ??0?$_Alloc_construct_ptr@V?$allocator@U?$_List_node@USection@PairDump@str@@PAX@std@@@std@@@std@@QAE@AAV?$allocator@U?$_List_node@USection@PairDump@str@@PAX@std@@@1@@Z 401881c0 f i PairDump.obj
 0002:0008a230       ??0?$_Alloc_construct_ptr@V?$allocator@U?$_Tree_node@U?$pair@$$CBV?$basic_string@DU?$char_traits@D@std@@V?$allocator@D@2@@std@@PBUData@PairDump@str@@@std@@PAX@std@@@std@@@std@@QAE@AAV?$allocator@U?$_Tree_node@U?$pair@$$CBV?$basic_string@DU?$char_traits@D@std@@V?$allocator@D@2@@std@@PBUData@PairDump@str@@@std@@PAX@std@@@1@@Z 40188230 f i PairDump.obj
 0002:0008a2a0       ??0?$_List_const_iterator@V?$_List_val@U?$_List_simple_types@UData@PairDump@str@@@std@@@std@@@std@@QAE@$$QAV01@@Z 401882a0 f i PairDump.obj
 0002:0008a300       ??0?$_List_const_iterator@V?$_List_val@U?$_List_simple_types@UData@PairDump@str@@@std@@@std@@@std@@QAE@ABV01@@Z 40188300 f i PairDump.obj
 0002:0008a360       ??0?$_List_const_iterator@V?$_List_val@U?$_List_simple_types@UData@PairDump@str@@@std@@@std@@@std@@QAE@PAU?$_List_node@UData@PairDump@str@@PAX@1@PBV?$_List_val@U?$_List_simple_types@UData@PairDump@str@@@std@@@1@@Z 40188360 f i PairDump.obj
 0002:0008a3c0       ??0?$_List_const_iterator@V?$_List_val@U?$_List_simple_types@USection@PairDump@str@@@std@@@std@@@std@@QAE@$$QAV01@@Z 401883c0 f i PairDump.obj
 0002:0008a420       ??0?$_List_const_iterator@V?$_List_val@U?$_List_simple_types@USection@PairDump@str@@@std@@@std@@@std@@QAE@ABV01@@Z 40188420 f i PairDump.obj
 0002:0008a480       ??0?$_List_const_iterator@V?$_List_val@U?$_List_simple_types@USection@PairDump@str@@@std@@@std@@@std@@QAE@PAU?$_List_node@USection@PairDump@str@@PAX@1@PBV?$_List_val@U?$_List_simple_types@USection@PairDump@str@@@std@@@1@@Z 40188480 f i PairDump.obj
 0002:0008a4e0       ??0?$_List_iterator@V?$_List_val@U?$_List_simple_types@UData@PairDump@str@@@std@@@std@@@std@@QAE@$$QAV01@@Z 401884e0 f i PairDump.obj
 0002:0008a540       ??0?$_List_iterator@V?$_List_val@U?$_List_simple_types@UData@PairDump@str@@@std@@@std@@@std@@QAE@ABV01@@Z 40188540 f i PairDump.obj
 0002:0008a5a0       ??0?$_List_iterator@V?$_List_val@U?$_List_simple_types@UData@PairDump@str@@@std@@@std@@@std@@QAE@PAU?$_List_node@UData@PairDump@str@@PAX@1@PBV?$_List_val@U?$_List_simple_types@UData@PairDump@str@@@std@@@1@@Z 401885a0 f i PairDump.obj
 0002:0008a600       ??0?$_List_iterator@V?$_List_val@U?$_List_simple_types@USection@PairDump@str@@@std@@@std@@@std@@QAE@$$QAV01@@Z 40188600 f i PairDump.obj
 0002:0008a660       ??0?$_List_iterator@V?$_List_val@U?$_List_simple_types@USection@PairDump@str@@@std@@@std@@@std@@QAE@ABV01@@Z 40188660 f i PairDump.obj
 0002:0008a6c0       ??0?$_List_iterator@V?$_List_val@U?$_List_simple_types@USection@PairDump@str@@@std@@@std@@@std@@QAE@PAU?$_List_node@USection@PairDump@str@@PAX@1@PBV?$_List_val@U?$_List_simple_types@USection@PairDump@str@@@std@@@1@@Z 401886c0 f i PairDump.obj
 0002:0008a720       ??0?$_List_node_insert_op2@V?$allocator@U?$_List_node@UData@PairDump@str@@PAX@std@@@std@@@std@@QAE@AAV?$allocator@U?$_List_node@UData@PairDump@str@@PAX@std@@@1@@Z 40188720 f i PairDump.obj
 0002:0008a7b0       ??0?$_List_unchecked_const_iterator@V?$_List_val@U?$_List_simple_types@UData@PairDump@str@@@std@@@std@@U_Iterator_base0@2@@std@@QAE@PAU?$_List_node@UData@PairDump@str@@PAX@1@PBV?$_List_val@U?$_List_simple_types@UData@PairDump@str@@@std@@@1@@Z 401887b0 f i PairDump.obj
 0002:0008a820       ??0?$_List_unchecked_const_iterator@V?$_List_val@U?$_List_simple_types@UData@PairDump@str@@@std@@@std@@U_Iterator_base12@2@@std@@QAE@$$QAV01@@Z 40188820 f i PairDump.obj
 0002:0008a890       ??0?$_List_unchecked_const_iterator@V?$_List_val@U?$_List_simple_types@UData@PairDump@str@@@std@@@std@@U_Iterator_base12@2@@std@@QAE@ABV01@@Z 40188890 f i PairDump.obj
 0002:0008a900       ??0?$_List_unchecked_const_iterator@V?$_List_val@U?$_List_simple_types@UData@PairDump@str@@@std@@@std@@U_Iterator_base12@2@@std@@QAE@PAU?$_List_node@UData@PairDump@str@@PAX@1@PBV?$_List_val@U?$_List_simple_types@UData@PairDump@str@@@std@@@1@@Z 40188900 f i PairDump.obj
 0002:0008a980       ??0?$_List_unchecked_const_iterator@V?$_List_val@U?$_List_simple_types@USection@PairDump@str@@@std@@@std@@U_Iterator_base12@2@@std@@QAE@$$QAV01@@Z 40188980 f i PairDump.obj
 0002:0008a9f0       ??0?$_List_unchecked_const_iterator@V?$_List_val@U?$_List_simple_types@USection@PairDump@str@@@std@@@std@@U_Iterator_base12@2@@std@@QAE@ABV01@@Z 401889f0 f i PairDump.obj
 0002:0008aa60       ??0?$_List_unchecked_const_iterator@V?$_List_val@U?$_List_simple_types@USection@PairDump@str@@@std@@@std@@U_Iterator_base12@2@@std@@QAE@PAU?$_List_node@USection@PairDump@str@@PAX@1@PBV?$_List_val@U?$_List_simple_types@USection@PairDump@str@@@std@@@1@@Z 40188a60 f i PairDump.obj
 0002:0008aae0       ??0?$_List_val@U?$_List_simple_types@UData@PairDump@str@@@std@@@std@@QAE@XZ 40188ae0 f i PairDump.obj
 0002:0008ab60       ??0?$_List_val@U?$_List_simple_types@USection@PairDump@str@@@std@@@std@@QAE@XZ 40188b60 f i PairDump.obj
 0002:0008abe0       ??0?$_Tree@V?$_Tmap_traits@V?$basic_string@DU?$char_traits@D@std@@V?$allocator@D@2@@std@@PBUData@PairDump@str@@U?$less@V?$basic_string@DU?$char_traits@D@std@@V?$allocator@D@2@@std@@@2@V?$allocator@U?$pair@$$CBV?$basic_string@DU?$char_traits@D@std@@V?$allocator@D@2@@std@@PBUData@PairDump@str@@@std@@@2@$0A@@std@@@std@@QAE@ABU?$less@V?$basic_string@DU?$char_traits@D@std@@V?$allocator@D@2@@std@@@1@@Z 40188be0 f i PairDump.obj
 0002:0008ac70       ??0?$_Tree_const_iterator@V?$_Tree_val@U?$_Tree_simple_types@U?$pair@$$CBV?$basic_string@DU?$char_traits@D@std@@V?$allocator@D@2@@std@@PBUData@PairDump@str@@@std@@@std@@@std@@@std@@QAE@PAU?$_Tree_node@U?$pair@$$CBV?$basic_string@DU?$char_traits@D@std@@V?$allocator@D@2@@std@@PBUData@PairDump@str@@@std@@PAX@1@PBV?$_Tree_val@U?$_Tree_simple_types@U?$pair@$$CBV?$basic_string@DU?$char_traits@D@std@@V?$allocator@D@2@@std@@PBUData@PairDump@str@@@std@@@std@@@1@@Z 40188c70 f i PairDump.obj
 0002:0008acd0       ??0?$_Tree_iterator@V?$_Tree_val@U?$_Tree_simple_types@U?$pair@$$CBV?$basic_string@DU?$char_traits@D@std@@V?$allocator@D@2@@std@@PBUData@PairDump@str@@@std@@@std@@@std@@@std@@QAE@PAU?$_Tree_node@U?$pair@$$CBV?$basic_string@DU?$char_traits@D@std@@V?$allocator@D@2@@std@@PBUData@PairDump@str@@@std@@PAX@1@PBV?$_Tree_val@U?$_Tree_simple_types@U?$pair@$$CBV?$basic_string@DU?$char_traits@D@std@@V?$allocator@D@2@@std@@PBUData@PairDump@str@@@std@@@std@@@1@@Z 40188cd0 f i PairDump.obj
 0002:0008ad30       ??0?$_Tree_temp_node_alloc@V?$allocator@U?$_Tree_node@U?$pair@$$CBV?$basic_string@DU?$char_traits@D@std@@V?$allocator@D@2@@std@@PBUData@PairDump@str@@@std@@PAX@std@@@std@@@std@@QAE@AAV?$allocator@U?$_Tree_node@U?$pair@$$CBV?$basic_string@DU?$char_traits@D@std@@V?$allocator@D@2@@std@@PBUData@PairDump@str@@@std@@PAX@std@@@1@@Z 40188d30 f i PairDump.obj
 0002:0008adf0       ??0?$_Tree_unchecked_const_iterator@V?$_Tree_val@U?$_Tree_simple_types@U?$pair@$$CBV?$basic_string@DU?$char_traits@D@std@@V?$allocator@D@2@@std@@PBUData@PairDump@str@@@std@@@std@@@std@@U_Iterator_base12@2@@std@@QAE@PAU?$_Tree_node@U?$pair@$$CBV?$basic_string@DU?$char_traits@D@std@@V?$allocator@D@2@@std@@PBUData@PairDump@str@@@std@@PAX@1@PBV?$_Tree_val@U?$_Tree_simple_types@U?$pair@$$CBV?$basic_string@DU?$char_traits@D@std@@V?$allocator@D@2@@std@@PBUData@PairDump@str@@@std@@@std@@@1@@Z 40188df0 f i PairDump.obj
 0002:0008ae70       ??0?$_Tree_val@U?$_Tree_simple_types@U?$pair@$$CBV?$basic_string@DU?$char_traits@D@std@@V?$allocator@D@2@@std@@PBUData@PairDump@str@@@std@@@std@@@std@@QAE@XZ 40188e70 f i PairDump.obj
 0002:0008aef0       ??0?$allocator@U?$_List_node@UData@PairDump@str@@PAX@std@@@std@@QAE@XZ 40188ef0 f i PairDump.obj
 0002:0008af50       ??0?$allocator@U?$_List_node@USection@PairDump@str@@PAX@std@@@std@@QAE@XZ 40188f50 f i PairDump.obj
 0002:0008afb0       ??0?$allocator@U?$_Tree_node@U?$pair@$$CBV?$basic_string@DU?$char_traits@D@std@@V?$allocator@D@2@@std@@PBUData@PairDump@str@@@std@@PAX@std@@@std@@QAE@XZ 40188fb0 f i PairDump.obj
 0002:0008b010       ??0?$basic_string@DU?$char_traits@D@std@@V?$allocator@D@2@@std@@QAE@U_String_constructor_concat_tag@1@ABV01@QBDI2I@Z 40189010 f i PairDump.obj
 0002:0008b2d0       ??0?$list@UData@PairDump@str@@V?$allocator@UData@PairDump@str@@@std@@@std@@QAE@$$QAV01@@Z 401892d0 f i PairDump.obj
 0002:0008b370       ??0?$list@UData@PairDump@str@@V?$allocator@UData@PairDump@str@@@std@@@std@@QAE@ABV01@@Z 40189370 f i PairDump.obj
 0002:0008b440       ??0?$list@UData@PairDump@str@@V?$allocator@UData@PairDump@str@@@std@@@std@@QAE@XZ 40189440 f i PairDump.obj
 0002:0008b4c0       ??0?$list@USection@PairDump@str@@V?$allocator@USection@PairDump@str@@@std@@@std@@QAE@XZ 401894c0 f i PairDump.obj
 0002:0008b540       ??0?$map@V?$basic_string@DU?$char_traits@D@std@@V?$allocator@D@2@@std@@PBUData@PairDump@str@@U?$less@V?$basic_string@DU?$char_traits@D@std@@V?$allocator@D@2@@std@@@2@V?$allocator@U?$pair@$$CBV?$basic_string@DU?$char_traits@D@std@@V?$allocator@D@2@@std@@PBUData@PairDump@str@@@std@@@2@@std@@QAE@XZ 40189540 f i PairDump.obj
 0002:0008b5b0       ??0?$tuple@$$QAV?$basic_string@DU?$char_traits@D@std@@V?$allocator@D@2@@std@@@std@@QAE@$$QAV01@@Z 401895b0 f i PairDump.obj
 0002:0008b630       ??0Data@PairDump@str@@QAE@ABU012@@Z 40189630 f i PairDump.obj
 0002:0008b6f0       ??0PairDump@str@@QAE@V?$basic_string@DU?$char_traits@D@std@@V?$allocator@D@2@@std@@@Z 401896f0 f   PairDump.obj
 0002:0008b7d0       ??0Section@PairDump@str@@QAE@$$QAU012@@Z 401897d0 f i PairDump.obj
 0002:0008b890       ??0Section@PairDump@str@@QAE@ABU012@@Z 40189890 f i PairDump.obj
 0002:0008b950       ??0Section@PairDump@str@@QAE@XZ 40189950 f i PairDump.obj
 0002:0008ba00       ??1?$_Alloc_construct_ptr@V?$allocator@U?$_List_node@UData@PairDump@str@@PAX@std@@@std@@@std@@QAE@XZ 40189a00 f i PairDump.obj
 0002:0008ba80       ??1?$_Alloc_construct_ptr@V?$allocator@U?$_List_node@USection@PairDump@str@@PAX@std@@@std@@@std@@QAE@XZ 40189a80 f i PairDump.obj
 0002:0008bb00       ??1?$_Alloc_construct_ptr@V?$allocator@U?$_Tree_node@U?$pair@$$CBV?$basic_string@DU?$char_traits@D@std@@V?$allocator@D@2@@std@@PBUData@PairDump@str@@@std@@PAX@std@@@std@@@std@@QAE@XZ 40189b00 f i PairDump.obj
 0002:0008bb80       ??1?$_List_const_iterator@V?$_List_val@U?$_List_simple_types@UData@PairDump@str@@@std@@@std@@@std@@QAE@XZ 40189b80 f i PairDump.obj
 0002:0008bbd0       ??1?$_List_const_iterator@V?$_List_val@U?$_List_simple_types@USection@PairDump@str@@@std@@@std@@@std@@QAE@XZ 40189bd0 f i PairDump.obj
 0002:0008bc20       ??1?$_List_iterator@V?$_List_val@U?$_List_simple_types@UData@PairDump@str@@@std@@@std@@@std@@QAE@XZ 40189c20 f i PairDump.obj
 0002:0008bc70       ??1?$_List_iterator@V?$_List_val@U?$_List_simple_types@USection@PairDump@str@@@std@@@std@@@std@@QAE@XZ 40189c70 f i PairDump.obj
 0002:0008bcc0       ??1?$_List_node_emplace_op2@V?$allocator@U?$_List_node@UData@PairDump@str@@PAX@std@@@std@@@std@@QAE@XZ 40189cc0 f i PairDump.obj
 0002:0008bd90       ??1?$_List_node_emplace_op2@V?$allocator@U?$_List_node@USection@PairDump@str@@PAX@std@@@std@@@std@@QAE@XZ 40189d90 f i PairDump.obj
 0002:0008be60       ??1?$_List_node_insert_op2@V?$allocator@U?$_List_node@UData@PairDump@str@@PAX@std@@@std@@@std@@QAE@XZ 40189e60 f i PairDump.obj
 0002:0008bf90       ??1?$_List_unchecked_const_iterator@V?$_List_val@U?$_List_simple_types@UData@PairDump@str@@@std@@@std@@U_Iterator_base12@2@@std@@QAE@XZ 40189f90 f i PairDump.obj
 0002:0008bfe0       ??1?$_List_unchecked_const_iterator@V?$_List_val@U?$_List_simple_types@USection@PairDump@str@@@std@@@std@@U_Iterator_base12@2@@std@@QAE@XZ 40189fe0 f i PairDump.obj
 0002:0008c030       ??1?$_Tree@V?$_Tmap_traits@V?$basic_string@DU?$char_traits@D@std@@V?$allocator@D@2@@std@@PBUData@PairDump@str@@U?$less@V?$basic_string@DU?$char_traits@D@std@@V?$allocator@D@2@@std@@@2@V?$allocator@U?$pair@$$CBV?$basic_string@DU?$char_traits@D@std@@V?$allocator@D@2@@std@@PBUData@PairDump@str@@@std@@@2@$0A@@std@@@std@@QAE@XZ 4018a030 f i PairDump.obj
 0002:0008c110       ??1?$_Tree_const_iterator@V?$_Tree_val@U?$_Tree_simple_types@U?$pair@$$CBV?$basic_string@DU?$char_traits@D@std@@V?$allocator@D@2@@std@@PBUData@PairDump@str@@@std@@@std@@@std@@@std@@QAE@XZ 4018a110 f i PairDump.obj
 0002:0008c160       ??1?$_Tree_iterator@V?$_Tree_val@U?$_Tree_simple_types@U?$pair@$$CBV?$basic_string@DU?$char_traits@D@std@@V?$allocator@D@2@@std@@PBUData@PairDump@str@@@std@@@std@@@std@@@std@@QAE@XZ 4018a160 f i PairDump.obj
 0002:0008c1b0       ??1?$_Tree_temp_node@V?$allocator@U?$_Tree_node@U?$pair@$$CBV?$basic_string@DU?$char_traits@D@std@@V?$allocator@D@2@@std@@PBUData@PairDump@str@@@std@@PAX@std@@@std@@@std@@QAE@XZ 4018a1b0 f i PairDump.obj
 0002:0008c2c0       ??1?$_Tree_temp_node_alloc@V?$allocator@U?$_Tree_node@U?$pair@$$CBV?$basic_string@DU?$char_traits@D@std@@V?$allocator@D@2@@std@@PBUData@PairDump@str@@@std@@PAX@std@@@std@@@std@@QAE@XZ 4018a2c0 f i PairDump.obj
 0002:0008c310       ??1?$_Tree_unchecked_const_iterator@V?$_Tree_val@U?$_Tree_simple_types@U?$pair@$$CBV?$basic_string@DU?$char_traits@D@std@@V?$allocator@D@2@@std@@PBUData@PairDump@str@@@std@@@std@@@std@@U_Iterator_base12@2@@std@@QAE@XZ 4018a310 f i PairDump.obj
 0002:0008c360       ??1?$list@UData@PairDump@str@@V?$allocator@UData@PairDump@str@@@std@@@std@@QAE@XZ 4018a360 f i PairDump.obj
 0002:0008c430       ??1?$list@USection@PairDump@str@@V?$allocator@USection@PairDump@str@@@std@@@std@@QAE@XZ 4018a430 f i PairDump.obj
 0002:0008c500       ??1?$map@V?$basic_string@DU?$char_traits@D@std@@V?$allocator@D@2@@std@@PBUData@PairDump@str@@U?$less@V?$basic_string@DU?$char_traits@D@std@@V?$allocator@D@2@@std@@@2@V?$allocator@U?$pair@$$CBV?$basic_string@DU?$char_traits@D@std@@V?$allocator@D@2@@std@@PBUData@PairDump@str@@@std@@@2@@std@@QAE@XZ 4018a500 f i PairDump.obj
 0002:0008c550       ??1?$pair@$$CBV?$basic_string@DU?$char_traits@D@std@@V?$allocator@D@2@@std@@PBUData@PairDump@str@@@std@@QAE@XZ 4018a550 f i PairDump.obj
 0002:0008c5a0       ??1Data@PairDump@str@@QAE@XZ 4018a5a0 f i PairDump.obj
 0002:0008c600       ??1PairDump@str@@QAE@XZ    4018a600 f   PairDump.obj
 0002:0008c670       ??1Section@PairDump@str@@QAE@XZ 4018a670 f i PairDump.obj
 0002:0008c6d0       ??6?$basic_ostream@DU?$char_traits@D@std@@@std@@QAEAAV01@I@Z 4018a6d0 f i PairDump.obj
 0002:0008c950       ??6?$basic_ostream@DU?$char_traits@D@std@@@std@@QAEAAV01@N@Z 4018a950 f i PairDump.obj
 0002:0008cbe0       ??6?$basic_ostream@DU?$char_traits@D@std@@@std@@QAEAAV01@P6AAAV01@AAV01@@Z@Z 4018abe0 f i PairDump.obj
 0002:0008cc50       ??6?$basic_ostream@DU?$char_traits@D@std@@@std@@QAEAAV01@P6AAAVios_base@1@AAV21@@Z@Z 4018ac50 f i PairDump.obj
 0002:0008ccd0       ??8?$_List_const_iterator@V?$_List_val@U?$_List_simple_types@UData@PairDump@str@@@std@@@std@@@std@@QBE_NABV01@@Z 4018acd0 f i PairDump.obj
 0002:0008cdb0       ??8?$_List_const_iterator@V?$_List_val@U?$_List_simple_types@USection@PairDump@str@@@std@@@std@@@std@@QBE_NABV01@@Z 4018adb0 f i PairDump.obj
 0002:0008ce90       ??8?$_List_unchecked_const_iterator@V?$_List_val@U?$_List_simple_types@UData@PairDump@str@@@std@@@std@@U_Iterator_base0@2@@std@@QBE_NABV01@@Z 4018ae90 f i PairDump.obj
 0002:0008cf20       ??8?$_Tree_const_iterator@V?$_Tree_val@U?$_Tree_simple_types@U?$pair@$$CBV?$basic_string@DU?$char_traits@D@std@@V?$allocator@D@2@@std@@PBUData@PairDump@str@@@std@@@std@@@std@@@std@@QBE_NABV01@@Z 4018af20 f i PairDump.obj
 0002:0008d000       ??9?$_List_const_iterator@V?$_List_val@U?$_List_simple_types@UData@PairDump@str@@@std@@@std@@@std@@QBE_NABV01@@Z 4018b000 f i PairDump.obj
 0002:0008d090       ??9?$_List_const_iterator@V?$_List_val@U?$_List_simple_types@USection@PairDump@str@@@std@@@std@@@std@@QBE_NABV01@@Z 4018b090 f i PairDump.obj
 0002:0008d120       ??9?$_List_unchecked_const_iterator@V?$_List_val@U?$_List_simple_types@UData@PairDump@str@@@std@@@std@@U_Iterator_base0@2@@std@@QBE_NABV01@@Z 4018b120 f i PairDump.obj
 0002:0008d1b0       ??A?$map@V?$basic_string@DU?$char_traits@D@std@@V?$allocator@D@2@@std@@PBUData@PairDump@str@@U?$less@V?$basic_string@DU?$char_traits@D@std@@V?$allocator@D@2@@std@@@2@V?$allocator@U?$pair@$$CBV?$basic_string@DU?$char_traits@D@std@@V?$allocator@D@2@@std@@PBUData@PairDump@str@@@std@@@2@@std@@QAEAAPBUData@PairDump@str@@$$QAV?$basic_string@DU?$char_traits@D@std@@V?$allocator@D@2@@1@@Z 4018b1b0 f i PairDump.obj
 0002:0008d230       ??C?$_Tree_iterator@V?$_Tree_val@U?$_Tree_simple_types@U?$pair@$$CBV?$basic_string@DU?$char_traits@D@std@@V?$allocator@D@2@@std@@PBUData@PairDump@str@@@std@@@std@@@std@@@std@@QBEPAU?$pair@$$CBV?$basic_string@DU?$char_traits@D@std@@V?$allocator@D@2@@std@@PBUData@PairDump@str@@@1@XZ 4018b230 f i PairDump.obj
 0002:0008d2a0       ??D?$_List_const_iterator@V?$_List_val@U?$_List_simple_types@UData@PairDump@str@@@std@@@std@@@std@@QBEABUData@PairDump@str@@XZ 4018b2a0 f i PairDump.obj
 0002:0008d3a0       ??D?$_List_const_iterator@V?$_List_val@U?$_List_simple_types@USection@PairDump@str@@@std@@@std@@@std@@QBEABUSection@PairDump@str@@XZ 4018b3a0 f i PairDump.obj
 0002:0008d4a0       ??D?$_List_iterator@V?$_List_val@U?$_List_simple_types@UData@PairDump@str@@@std@@@std@@@std@@QBEAAUData@PairDump@str@@XZ 4018b4a0 f i PairDump.obj
 0002:0008d500       ??D?$_List_iterator@V?$_List_val@U?$_List_simple_types@USection@PairDump@str@@@std@@@std@@@std@@QBEAAUSection@PairDump@str@@XZ 4018b500 f i PairDump.obj
 0002:0008d560       ??D?$_List_unchecked_const_iterator@V?$_List_val@U?$_List_simple_types@UData@PairDump@str@@@std@@@std@@U_Iterator_base0@2@@std@@QBEABUData@PairDump@str@@XZ 4018b560 f i PairDump.obj
 0002:0008d5c0       ??D?$_Tree_const_iterator@V?$_Tree_val@U?$_Tree_simple_types@U?$pair@$$CBV?$basic_string@DU?$char_traits@D@std@@V?$allocator@D@2@@std@@PBUData@PairDump@str@@@std@@@std@@@std@@@std@@QBEABU?$pair@$$CBV?$basic_string@DU?$char_traits@D@std@@V?$allocator@D@2@@std@@PBUData@PairDump@str@@@1@XZ 4018b5c0 f i PairDump.obj
 0002:0008d6c0       ??D?$_Tree_iterator@V?$_Tree_val@U?$_Tree_simple_types@U?$pair@$$CBV?$basic_string@DU?$char_traits@D@std@@V?$allocator@D@2@@std@@PBUData@PairDump@str@@@std@@@std@@@std@@@std@@QBEAAU?$pair@$$CBV?$basic_string@DU?$char_traits@D@std@@V?$allocator@D@2@@std@@PBUData@PairDump@str@@@1@XZ 4018b6c0 f i PairDump.obj
 0002:0008d720       ??E?$_List_const_iterator@V?$_List_val@U?$_List_simple_types@UData@PairDump@str@@@std@@@std@@@std@@QAE?AV01@H@Z 4018b720 f i PairDump.obj
 0002:0008d7e0       ??E?$_List_const_iterator@V?$_List_val@U?$_List_simple_types@UData@PairDump@str@@@std@@@std@@@std@@QAEAAV01@XZ 4018b7e0 f i PairDump.obj
 0002:0008d8e0       ??E?$_List_const_iterator@V?$_List_val@U?$_List_simple_types@USection@PairDump@str@@@std@@@std@@@std@@QAE?AV01@H@Z 4018b8e0 f i PairDump.obj
 0002:0008d9a0       ??E?$_List_const_iterator@V?$_List_val@U?$_List_simple_types@USection@PairDump@str@@@std@@@std@@@std@@QAEAAV01@XZ 4018b9a0 f i PairDump.obj
 0002:0008daa0       ??E?$_List_iterator@V?$_List_val@U?$_List_simple_types@UData@PairDump@str@@@std@@@std@@@std@@QAE?AV01@H@Z 4018baa0 f i PairDump.obj
 0002:0008db60       ??E?$_List_iterator@V?$_List_val@U?$_List_simple_types@USection@PairDump@str@@@std@@@std@@@std@@QAE?AV01@H@Z 4018bb60 f i PairDump.obj
 0002:0008dc20       ??E?$_List_unchecked_const_iterator@V?$_List_val@U?$_List_simple_types@UData@PairDump@str@@@std@@@std@@U_Iterator_base0@2@@std@@QAEAAV01@XZ 4018bc20 f i PairDump.obj
 0002:0008dc90       ??_G?$pair@$$CBV?$basic_string@DU?$char_traits@D@std@@V?$allocator@D@2@@std@@PBUData@PairDump@str@@@std@@QAEPAXI@Z 4018bc90 f i PairDump.obj
 0002:0008dd00       ??_GData@PairDump@str@@QAEPAXI@Z 4018bd00 f i PairDump.obj
 0002:0008dd70       ??_GSection@PairDump@str@@QAEPAXI@Z 4018bd70 f i PairDump.obj
 0002:0008dde0       ?_Adopt@_Iterator_base0@std@@QAEXPBX@Z 4018bde0 f i PairDump.obj
 0002:0008de40       ?_Alloc_sentinel_and_proxy@?$_Tree@V?$_Tmap_traits@V?$basic_string@DU?$char_traits@D@std@@V?$allocator@D@2@@std@@PBUData@PairDump@str@@U?$less@V?$basic_string@DU?$char_traits@D@std@@V?$allocator@D@2@@std@@@2@V?$allocator@U?$pair@$$CBV?$basic_string@DU?$char_traits@D@std@@V?$allocator@D@2@@std@@PBUData@PairDump@str@@@std@@@2@$0A@@std@@@std@@IAEXXZ 4018be40 f i PairDump.obj
 0002:0008dfa0       ?_Alloc_sentinel_and_proxy@?$list@UData@PairDump@str@@V?$allocator@UData@PairDump@str@@@std@@@std@@AAEXXZ 4018bfa0 f i PairDump.obj
 0002:0008e140       ?_Alloc_sentinel_and_proxy@?$list@USection@PairDump@str@@V?$allocator@USection@PairDump@str@@@std@@@std@@AAEXXZ 4018c140 f i PairDump.obj
 0002:0008e2e0       ?_Allocate@?$_Alloc_construct_ptr@V?$allocator@U?$_List_node@UData@PairDump@str@@PAX@std@@@std@@@std@@QAEXXZ 4018c2e0 f i PairDump.obj
 0002:0008e360       ?_Allocate@?$_Alloc_construct_ptr@V?$allocator@U?$_List_node@USection@PairDump@str@@PAX@std@@@std@@@std@@QAEXXZ 4018c360 f i PairDump.obj
 0002:0008e3e0       ?_Allocate@?$_Alloc_construct_ptr@V?$allocator@U?$_Tree_node@U?$pair@$$CBV?$basic_string@DU?$char_traits@D@std@@V?$allocator@D@2@@std@@PBUData@PairDump@str@@@std@@PAX@std@@@std@@@std@@QAEXXZ 4018c3e0 f i PairDump.obj
 0002:0008e460       ?_Check_grow_by_1@?$_Tree@V?$_Tmap_traits@V?$basic_string@DU?$char_traits@D@std@@V?$allocator@D@2@@std@@PBUData@PairDump@str@@U?$less@V?$basic_string@DU?$char_traits@D@std@@V?$allocator@D@2@@std@@@2@V?$allocator@U?$pair@$$CBV?$basic_string@DU?$char_traits@D@std@@V?$allocator@D@2@@std@@PBUData@PairDump@str@@@std@@@2@$0A@@std@@@std@@IAEXXZ 4018c460 f i PairDump.obj
 0002:0008e4e0       ?_Equal@?$basic_string@DU?$char_traits@D@std@@V?$allocator@D@2@@std@@QBE_NABV12@@Z 4018c4e0 f i PairDump.obj
 0002:0008e570       ?_Get_first@?$_Compressed_pair@U?$less@V?$basic_string@DU?$char_traits@D@std@@V?$allocator@D@2@@std@@@std@@V?$_Compressed_pair@V?$allocator@U?$_Tree_node@U?$pair@$$CBV?$basic_string@DU?$char_traits@D@std@@V?$allocator@D@2@@std@@PBUData@PairDump@str@@@std@@PAX@std@@@std@@V?$_Tree_val@U?$_Tree_simple_types@U?$pair@$$CBV?$basic_string@DU?$char_traits@D@std@@V?$allocator@D@2@@std@@PBUData@PairDump@str@@@std@@@std@@@2@$00@2@$00@std@@QBEABU?$less@V?$basic_string@DU?$char_traits@D@std@@V?$allocator@D@2@@std@@@2@XZ 4018c570 f i PairDump.obj
 0002:0008e5d0       ?_Get_first@?$_Compressed_pair@V?$allocator@U?$_List_node@UData@PairDump@str@@PAX@std@@@std@@V?$_List_val@U?$_List_simple_types@UData@PairDump@str@@@std@@@2@$00@std@@QAEAAV?$allocator@U?$_List_node@UData@PairDump@str@@PAX@std@@@2@XZ 4018c5d0 f i PairDump.obj
 0002:0008e630       ?_Get_first@?$_Compressed_pair@V?$allocator@U?$_List_node@UData@PairDump@str@@PAX@std@@@std@@V?$_List_val@U?$_List_simple_types@UData@PairDump@str@@@std@@@2@$00@std@@QBEABV?$allocator@U?$_List_node@UData@PairDump@str@@PAX@std@@@2@XZ 4018c630 f i PairDump.obj
 0002:0008e690       ?_Get_first@?$_Compressed_pair@V?$allocator@U?$_List_node@USection@PairDump@str@@PAX@std@@@std@@V?$_List_val@U?$_List_simple_types@USection@PairDump@str@@@std@@@2@$00@std@@QAEAAV?$allocator@U?$_List_node@USection@PairDump@str@@PAX@std@@@2@XZ 4018c690 f i PairDump.obj
 0002:0008e6f0       ?_Get_first@?$_Compressed_pair@V?$allocator@U?$_List_node@USection@PairDump@str@@PAX@std@@@std@@V?$_List_val@U?$_List_simple_types@USection@PairDump@str@@@std@@@2@$00@std@@QBEABV?$allocator@U?$_List_node@USection@PairDump@str@@PAX@std@@@2@XZ 4018c6f0 f i PairDump.obj
 0002:0008e750       ?_Get_first@?$_Compressed_pair@V?$allocator@U?$_Tree_node@U?$pair@$$CBV?$basic_string@DU?$char_traits@D@std@@V?$allocator@D@2@@std@@PBUData@PairDump@str@@@std@@PAX@std@@@std@@V?$_Tree_val@U?$_Tree_simple_types@U?$pair@$$CBV?$basic_string@DU?$char_traits@D@std@@V?$allocator@D@2@@std@@PBUData@PairDump@str@@@std@@@std@@@2@$00@std@@QAEAAV?$allocator@U?$_Tree_node@U?$pair@$$CBV?$basic_string@DU?$char_traits@D@std@@V?$allocator@D@2@@std@@PBUData@PairDump@str@@@std@@PAX@std@@@2@XZ 4018c750 f i PairDump.obj
 0002:0008e7b0       ?_Get_first@?$_Compressed_pair@V?$allocator@U?$_Tree_node@U?$pair@$$CBV?$basic_string@DU?$char_traits@D@std@@V?$allocator@D@2@@std@@PBUData@PairDump@str@@@std@@PAX@std@@@std@@V?$_Tree_val@U?$_Tree_simple_types@U?$pair@$$CBV?$basic_string@DU?$char_traits@D@std@@V?$allocator@D@2@@std@@PBUData@PairDump@str@@@std@@@std@@@2@$00@std@@QBEABV?$allocator@U?$_Tree_node@U?$pair@$$CBV?$basic_string@DU?$char_traits@D@std@@V?$allocator@D@2@@std@@PBUData@PairDump@str@@@std@@PAX@std@@@2@XZ 4018c7b0 f i PairDump.obj
 0002:0008e810       ?_Get_scary@?$_Tree@V?$_Tmap_traits@V?$basic_string@DU?$char_traits@D@std@@V?$allocator@D@2@@std@@PBUData@PairDump@str@@U?$less@V?$basic_string@DU?$char_traits@D@std@@V?$allocator@D@2@@std@@@2@V?$allocator@U?$pair@$$CBV?$basic_string@DU?$char_traits@D@std@@V?$allocator@D@2@@std@@PBUData@PairDump@str@@@std@@@2@$0A@@std@@@std@@IAEPAV?$_Tree_val@U?$_Tree_simple_types@U?$pair@$$CBV?$basic_string@DU?$char_traits@D@std@@V?$allocator@D@2@@std@@PBUData@PairDump@str@@@std@@@std@@@2@XZ 4018c810 f i PairDump.obj
 0002:0008e870       ?_Get_scary@?$_Tree@V?$_Tmap_traits@V?$basic_string@DU?$char_traits@D@std@@V?$allocator@D@2@@std@@PBUData@PairDump@str@@U?$less@V?$basic_string@DU?$char_traits@D@std@@V?$allocator@D@2@@std@@@2@V?$allocator@U?$pair@$$CBV?$basic_string@DU?$char_traits@D@std@@V?$allocator@D@2@@std@@PBUData@PairDump@str@@@std@@@2@$0A@@std@@@std@@IBEPBV?$_Tree_val@U?$_Tree_simple_types@U?$pair@$$CBV?$basic_string@DU?$char_traits@D@std@@V?$allocator@D@2@@std@@PBUData@PairDump@str@@@std@@@std@@@2@XZ 4018c870 f i PairDump.obj
 0002:0008e8d0       ?_Getal@?$_Tree@V?$_Tmap_traits@V?$basic_string@DU?$char_traits@D@std@@V?$allocator@D@2@@std@@PBUData@PairDump@str@@U?$less@V?$basic_string@DU?$char_traits@D@std@@V?$allocator@D@2@@std@@@2@V?$allocator@U?$pair@$$CBV?$basic_string@DU?$char_traits@D@std@@V?$allocator@D@2@@std@@PBUData@PairDump@str@@@std@@@2@$0A@@std@@@std@@IAEAAV?$allocator@U?$_Tree_node@U?$pair@$$CBV?$basic_string@DU?$char_traits@D@std@@V?$allocator@D@2@@std@@PBUData@PairDump@str@@@std@@PAX@std@@@2@XZ 4018c8d0 f i PairDump.obj
 0002:0008e930       ?_Getal@?$_Tree@V?$_Tmap_traits@V?$basic_string@DU?$char_traits@D@std@@V?$allocator@D@2@@std@@PBUData@PairDump@str@@U?$less@V?$basic_string@DU?$char_traits@D@std@@V?$allocator@D@2@@std@@@2@V?$allocator@U?$pair@$$CBV?$basic_string@DU?$char_traits@D@std@@V?$allocator@D@2@@std@@PBUData@PairDump@str@@@std@@@2@$0A@@std@@@std@@IBEABV?$allocator@U?$_Tree_node@U?$pair@$$CBV?$basic_string@DU?$char_traits@D@std@@V?$allocator@D@2@@std@@PBUData@PairDump@str@@@std@@PAX@std@@@2@XZ 4018c930 f i PairDump.obj
 0002:0008e990       ?_Getal@?$list@UData@PairDump@str@@V?$allocator@UData@PairDump@str@@@std@@@std@@AAEAAV?$allocator@U?$_List_node@UData@PairDump@str@@PAX@std@@@2@XZ 4018c990 f i PairDump.obj
 0002:0008e9f0       ?_Getal@?$list@UData@PairDump@str@@V?$allocator@UData@PairDump@str@@@std@@@std@@ABEABV?$allocator@U?$_List_node@UData@PairDump@str@@PAX@std@@@2@XZ 4018c9f0 f i PairDump.obj
 0002:0008ea50       ?_Getal@?$list@USection@PairDump@str@@V?$allocator@USection@PairDump@str@@@std@@@std@@AAEAAV?$allocator@U?$_List_node@USection@PairDump@str@@PAX@std@@@2@XZ 4018ca50 f i PairDump.obj
 0002:0008eab0       ?_Getal@?$list@USection@PairDump@str@@V?$allocator@USection@PairDump@str@@@std@@@std@@ABEABV?$allocator@U?$_List_node@USection@PairDump@str@@PAX@std@@@2@XZ 4018cab0 f i PairDump.obj
 0002:0008eb10       ?_Getcomp@?$_Tree@V?$_Tmap_traits@V?$basic_string@DU?$char_traits@D@std@@V?$allocator@D@2@@std@@PBUData@PairDump@str@@U?$less@V?$basic_string@DU?$char_traits@D@std@@V?$allocator@D@2@@std@@@2@V?$allocator@U?$pair@$$CBV?$basic_string@DU?$char_traits@D@std@@V?$allocator@D@2@@std@@PBUData@PairDump@str@@@std@@@2@$0A@@std@@@std@@IBEABU?$less@V?$basic_string@DU?$char_traits@D@std@@V?$allocator@D@2@@std@@@2@XZ 4018cb10 f i PairDump.obj
 0002:0008eb70       ?_Insert_node@?$_Tree_val@U?$_Tree_simple_types@U?$pair@$$CBV?$basic_string@DU?$char_traits@D@std@@V?$allocator@D@2@@std@@PBUData@PairDump@str@@@std@@@std@@@std@@QAEPAU?$_Tree_node@U?$pair@$$CBV?$basic_string@DU?$char_traits@D@std@@V?$allocator@D@2@@std@@PBUData@PairDump@str@@@std@@PAX@2@U?$_Tree_id@PAU?$_Tree_node@U?$pair@$$CBV?$basic_string@DU?$char_traits@D@std@@V?$allocator@D@2@@std@@PBUData@PairDump@str@@@std@@PAX@std@@@2@QAU32@@Z 4018cb70 f i PairDump.obj
 0002:0008ee40       ?_Lrotate@?$_Tree_val@U?$_Tree_simple_types@U?$pair@$$CBV?$basic_string@DU?$char_traits@D@std@@V?$allocator@D@2@@std@@PBUData@PairDump@str@@@std@@@std@@@std@@QAEXPAU?$_Tree_node@U?$pair@$$CBV?$basic_string@DU?$char_traits@D@std@@V?$allocator@D@2@@std@@PBUData@PairDump@str@@@std@@PAX@2@@Z 4018ce40 f i PairDump.obj
 0002:0008ef40       ?_Orphan_non_end@?$_List_val@U?$_List_simple_types@USection@PairDump@str@@@std@@@std@@QAEXXZ 4018cf40 f i PairDump.obj
 0002:0008f050       ?_Release@?$_Alloc_construct_ptr@V?$allocator@U?$_List_node@UData@PairDump@str@@PAX@std@@@std@@@std@@QAEPAU?$_List_node@UData@PairDump@str@@PAX@2@XZ 4018d050 f i PairDump.obj
 0002:0008f0d0       ?_Release@?$_Alloc_construct_ptr@V?$allocator@U?$_Tree_node@U?$pair@$$CBV?$basic_string@DU?$char_traits@D@std@@V?$allocator@D@2@@std@@PBUData@PairDump@str@@@std@@PAX@std@@@std@@@std@@QAEPAU?$_Tree_node@U?$pair@$$CBV?$basic_string@DU?$char_traits@D@std@@V?$allocator@D@2@@std@@PBUData@PairDump@str@@@std@@PAX@2@XZ 4018d0d0 f i PairDump.obj
 0002:0008f150       ?_Rrotate@?$_Tree_val@U?$_Tree_simple_types@U?$pair@$$CBV?$basic_string@DU?$char_traits@D@std@@V?$allocator@D@2@@std@@PBUData@PairDump@str@@@std@@@std@@@std@@QAEXPAU?$_Tree_node@U?$pair@$$CBV?$basic_string@DU?$char_traits@D@std@@V?$allocator@D@2@@std@@PBUData@PairDump@str@@@std@@PAX@2@@Z 4018d150 f i PairDump.obj
 0002:0008f260       ?_Swap_val@?$list@UData@PairDump@str@@V?$allocator@UData@PairDump@str@@@std@@@std@@AAEXAAV12@@Z 4018d260 f i PairDump.obj
 0002:0008f310       ?_Tidy@?$list@UData@PairDump@str@@V?$allocator@UData@PairDump@str@@@std@@@std@@AAEXXZ 4018d310 f i PairDump.obj
 0002:0008f3b0       ?_Tidy@?$list@USection@PairDump@str@@V?$allocator@USection@PairDump@str@@@std@@@std@@AAEXXZ 4018d3b0 f i PairDump.obj
 0002:0008f450       ?_Transfer_before@?$_List_node_emplace_op2@V?$allocator@U?$_List_node@UData@PairDump@str@@PAX@std@@@std@@@std@@QAEPAU?$_List_node@UData@PairDump@str@@PAX@2@QAU32@@Z 4018d450 f i PairDump.obj
 0002:0008f560       ?_Transfer_before@?$_List_node_emplace_op2@V?$allocator@U?$_List_node@USection@PairDump@str@@PAX@std@@@std@@@std@@QAEPAU?$_List_node@USection@PairDump@str@@PAX@2@QAU32@@Z 4018d560 f i PairDump.obj
 0002:0008f670       ?_Unchecked_begin@?$list@UData@PairDump@str@@V?$allocator@UData@PairDump@str@@@std@@@std@@QBE?AV?$_List_unchecked_const_iterator@V?$_List_val@U?$_List_simple_types@UData@PairDump@str@@@std@@@std@@U_Iterator_base0@2@@2@XZ 4018d670 f i PairDump.obj
 0002:0008f6e0       ?_Unchecked_end@?$list@UData@PairDump@str@@V?$allocator@UData@PairDump@str@@@std@@@std@@QBE?AV?$_List_unchecked_const_iterator@V?$_List_val@U?$_List_simple_types@UData@PairDump@str@@@std@@@std@@U_Iterator_base0@2@@2@XZ 4018d6e0 f i PairDump.obj
 0002:0008f750       ?addEntry@PairDump@str@@QAEXV?$basic_string@DU?$char_traits@D@std@@V?$allocator@D@2@@std@@0@Z 4018d750 f   PairDump.obj
 0002:0008f8a0       ?addEntry@PairDump@str@@QAEXV?$basic_string@DU?$char_traits@D@std@@V?$allocator@D@2@@std@@AAY02$$CBM@Z 4018d8a0 f   PairDump.obj
 0002:0008f9e0       ?addEntry@PairDump@str@@QAEXV?$basic_string@DU?$char_traits@D@std@@V?$allocator@D@2@@std@@H@Z 4018d9e0 f   PairDump.obj
 0002:0008fb80       ?addEntry@PairDump@str@@QAEXV?$basic_string@DU?$char_traits@D@std@@V?$allocator@D@2@@std@@I@Z 4018db80 f   PairDump.obj
 0002:0008fd20       ?addEntry@PairDump@str@@QAEXV?$basic_string@DU?$char_traits@D@std@@V?$allocator@D@2@@std@@M@Z 4018dd20 f   PairDump.obj
 0002:0008fed0       ?addEntry@PairDump@str@@QAEXV?$basic_string@DU?$char_traits@D@std@@V?$allocator@D@2@@std@@N@Z 4018ded0 f   PairDump.obj
 0002:00090080       ?addEntry@PairDump@str@@QAEXV?$basic_string@DU?$char_traits@D@std@@V?$allocator@D@2@@std@@_N@Z 4018e080 f   PairDump.obj
 0002:000901e0       ?addSection@PairDump@str@@QAEXV?$basic_string@DU?$char_traits@D@std@@V?$allocator@D@2@@std@@@Z 4018e1e0 f   PairDump.obj
 0002:00090330       ?allocate@?$allocator@U?$_List_node@UData@PairDump@str@@PAX@std@@@std@@QAEPAU?$_List_node@UData@PairDump@str@@PAX@2@I@Z 4018e330 f i PairDump.obj
 0002:000903a0       ?allocate@?$allocator@U?$_List_node@USection@PairDump@str@@PAX@std@@@std@@QAEPAU?$_List_node@USection@PairDump@str@@PAX@2@I@Z 4018e3a0 f i PairDump.obj
 0002:00090410       ?allocate@?$allocator@U?$_Tree_node@U?$pair@$$CBV?$basic_string@DU?$char_traits@D@std@@V?$allocator@D@2@@std@@PBUData@PairDump@str@@@std@@PAX@std@@@std@@QAEPAU?$_Tree_node@U?$pair@$$CBV?$basic_string@DU?$char_traits@D@std@@V?$allocator@D@2@@std@@PBUData@PairDump@str@@@std@@PAX@2@I@Z 4018e410 f i PairDump.obj
 0002:00090480       ?back@?$list@USection@PairDump@str@@V?$allocator@USection@PairDump@str@@@std@@@std@@QAEAAUSection@PairDump@str@@XZ 4018e480 f i PairDump.obj
 0002:00090530       ?begin@?$list@UData@PairDump@str@@V?$allocator@UData@PairDump@str@@@std@@@std@@QAE?AV?$_List_iterator@V?$_List_val@U?$_List_simple_types@UData@PairDump@str@@@std@@@std@@@2@XZ 4018e530 f i PairDump.obj
 0002:000905b0       ?begin@?$list@UData@PairDump@str@@V?$allocator@UData@PairDump@str@@@std@@@std@@QBE?AV?$_List_const_iterator@V?$_List_val@U?$_List_simple_types@UData@PairDump@str@@@std@@@std@@@2@XZ 4018e5b0 f i PairDump.obj
 0002:00090630       ?begin@?$list@USection@PairDump@str@@V?$allocator@USection@PairDump@str@@@std@@@std@@QAE?AV?$_List_iterator@V?$_List_val@U?$_List_simple_types@USection@PairDump@str@@@std@@@std@@@2@XZ 4018e630 f i PairDump.obj
 0002:000906b0       ?begin@?$list@USection@PairDump@str@@V?$allocator@USection@PairDump@str@@@std@@@std@@QBE?AV?$_List_const_iterator@V?$_List_val@U?$_List_simple_types@USection@PairDump@str@@@std@@@std@@@2@XZ 4018e6b0 f i PairDump.obj
 0002:00090730       ?clear@?$list@USection@PairDump@str@@V?$allocator@USection@PairDump@str@@@std@@@std@@QAEXXZ 4018e730 f i PairDump.obj
 0002:000907e0       ?clear@PairDump@str@@QAEXXZ 4018e7e0 f   PairDump.obj
 0002:00090940       ?data@?$basic_string@DU?$char_traits@D@std@@V?$allocator@D@2@@std@@QBEPBDXZ 4018e940 f i PairDump.obj
 0002:000909a0       ?deallocate@?$_Default_allocator_traits@V?$allocator@U?$_List_node@UData@PairDump@str@@PAX@std@@@std@@@std@@SAXAAV?$allocator@U?$_List_node@UData@PairDump@str@@PAX@std@@@2@QAU?$_List_node@UData@PairDump@str@@PAX@2@I@Z 4018e9a0 f i PairDump.obj
 0002:00090a00       ?deallocate@?$_Default_allocator_traits@V?$allocator@U?$_List_node@USection@PairDump@str@@PAX@std@@@std@@@std@@SAXAAV?$allocator@U?$_List_node@USection@PairDump@str@@PAX@std@@@2@QAU?$_List_node@USection@PairDump@str@@PAX@2@I@Z 4018ea00 f i PairDump.obj
 0002:00090a60       ?deallocate@?$_Default_allocator_traits@V?$allocator@U?$_Tree_node@U?$pair@$$CBV?$basic_string@DU?$char_traits@D@std@@V?$allocator@D@2@@std@@PBUData@PairDump@str@@@std@@PAX@std@@@std@@@std@@SAXAAV?$allocator@U?$_Tree_node@U?$pair@$$CBV?$basic_string@DU?$char_traits@D@std@@V?$allocator@D@2@@std@@PBUData@PairDump@str@@@std@@PAX@std@@@2@QAU?$_Tree_node@U?$pair@$$CBV?$basic_string@DU?$char_traits@D@std@@V?$allocator@D@2@@std@@PBUData@PairDump@str@@@std@@PAX@2@I@Z 4018ea60 f i PairDump.obj
 0002:00090ac0       ?deallocate@?$allocator@U?$_List_node@UData@PairDump@str@@PAX@std@@@std@@QAEXQAU?$_List_node@UData@PairDump@str@@PAX@2@I@Z 4018eac0 f i PairDump.obj
 0002:00090b70       ?deallocate@?$allocator@U?$_List_node@USection@PairDump@str@@PAX@std@@@std@@QAEXQAU?$_List_node@USection@PairDump@str@@PAX@2@I@Z 4018eb70 f i PairDump.obj
 0002:00090c20       ?deallocate@?$allocator@U?$_Tree_node@U?$pair@$$CBV?$basic_string@DU?$char_traits@D@std@@V?$allocator@D@2@@std@@PBUData@PairDump@str@@@std@@PAX@std@@@std@@QAEXQAU?$_Tree_node@U?$pair@$$CBV?$basic_string@DU?$char_traits@D@std@@V?$allocator@D@2@@std@@PBUData@PairDump@str@@@std@@PAX@2@I@Z 4018ec20 f i PairDump.obj
 0002:00090cd0       ?dump@PairDump@str@@QAEXAAV?$basic_ostream@DU?$char_traits@D@std@@@std@@@Z 4018ecd0 f   PairDump.obj
 0002:000911d0       ?dump@PairDump@str@@QAEXABV12@AAV?$basic_ostream@DU?$char_traits@D@std@@@std@@@Z 4018f1d0 f   PairDump.obj
 0002:00091bc0       ?end@?$_Tree@V?$_Tmap_traits@V?$basic_string@DU?$char_traits@D@std@@V?$allocator@D@2@@std@@PBUData@PairDump@str@@U?$less@V?$basic_string@DU?$char_traits@D@std@@V?$allocator@D@2@@std@@@2@V?$allocator@U?$pair@$$CBV?$basic_string@DU?$char_traits@D@std@@V?$allocator@D@2@@std@@PBUData@PairDump@str@@@std@@@2@$0A@@std@@@std@@QAE?AV?$_Tree_iterator@V?$_Tree_val@U?$_Tree_simple_types@U?$pair@$$CBV?$basic_string@DU?$char_traits@D@std@@V?$allocator@D@2@@std@@PBUData@PairDump@str@@@std@@@std@@@std@@@2@XZ 4018fbc0 f i PairDump.obj
 0002:00091c40       ?end@?$list@UData@PairDump@str@@V?$allocator@UData@PairDump@str@@@std@@@std@@QAE?AV?$_List_iterator@V?$_List_val@U?$_List_simple_types@UData@PairDump@str@@@std@@@std@@@2@XZ 4018fc40 f i PairDump.obj
 0002:00091cc0       ?end@?$list@UData@PairDump@str@@V?$allocator@UData@PairDump@str@@@std@@@std@@QBE?AV?$_List_const_iterator@V?$_List_val@U?$_List_simple_types@UData@PairDump@str@@@std@@@std@@@2@XZ 4018fcc0 f i PairDump.obj
 0002:00091d40       ?end@?$list@USection@PairDump@str@@V?$allocator@USection@PairDump@str@@@std@@@std@@QAE?AV?$_List_iterator@V?$_List_val@U?$_List_simple_types@USection@PairDump@str@@@std@@@std@@@2@XZ 4018fd40 f i PairDump.obj
 0002:00091dc0       ?end@?$list@USection@PairDump@str@@V?$allocator@USection@PairDump@str@@@std@@@std@@QBE?AV?$_List_const_iterator@V?$_List_val@U?$_List_simple_types@USection@PairDump@str@@@std@@@std@@@2@XZ 4018fdc0 f i PairDump.obj
 0002:00091e40       ?find@?$_Tree@V?$_Tmap_traits@V?$basic_string@DU?$char_traits@D@std@@V?$allocator@D@2@@std@@PBUData@PairDump@str@@U?$less@V?$basic_string@DU?$char_traits@D@std@@V?$allocator@D@2@@std@@@2@V?$allocator@U?$pair@$$CBV?$basic_string@DU?$char_traits@D@std@@V?$allocator@D@2@@std@@PBUData@PairDump@str@@@std@@@2@$0A@@std@@@std@@QAE?AV?$_Tree_iterator@V?$_Tree_val@U?$_Tree_simple_types@U?$pair@$$CBV?$basic_string@DU?$char_traits@D@std@@V?$allocator@D@2@@std@@PBUData@PairDump@str@@@std@@@std@@@std@@@2@ABV?$basic_string@DU?$char_traits@D@std@@V?$allocator@D@2@@2@@Z 4018fe40 f i PairDump.obj
 0002:00091ee0       ?flags@ios_base@std@@QAEHH@Z 4018fee0 f i PairDump.obj
 0002:00091f60       ?left@std@@YAAAVios_base@1@AAV21@@Z 4018ff60 f i PairDump.obj
 0002:00091fc0       ?length@?$basic_string@DU?$char_traits@D@std@@V?$allocator@D@2@@std@@QBEIXZ 4018ffc0 f i PairDump.obj
 0002:00092020       ?max_size@?$_Default_allocator_traits@V?$allocator@U?$_List_node@UData@PairDump@str@@PAX@std@@@std@@@std@@SAIABV?$allocator@U?$_List_node@UData@PairDump@str@@PAX@std@@@2@@Z 40190020 f i PairDump.obj
 0002:00092070       ?max_size@?$_Default_allocator_traits@V?$allocator@U?$_List_node@USection@PairDump@str@@PAX@std@@@std@@@std@@SAIABV?$allocator@U?$_List_node@USection@PairDump@str@@PAX@std@@@2@@Z 40190070 f i PairDump.obj
 0002:000920c0       ?max_size@?$_Default_allocator_traits@V?$allocator@U?$_Tree_node@U?$pair@$$CBV?$basic_string@DU?$char_traits@D@std@@V?$allocator@D@2@@std@@PBUData@PairDump@str@@@std@@PAX@std@@@std@@@std@@SAIABV?$allocator@U?$_Tree_node@U?$pair@$$CBV?$basic_string@DU?$char_traits@D@std@@V?$allocator@D@2@@std@@PBUData@PairDump@str@@@std@@PAX@std@@@2@@Z 401900c0 f i PairDump.obj
 0002:00092110       ?max_size@?$_Tree@V?$_Tmap_traits@V?$basic_string@DU?$char_traits@D@std@@V?$allocator@D@2@@std@@PBUData@PairDump@str@@U?$less@V?$basic_string@DU?$char_traits@D@std@@V?$allocator@D@2@@std@@@2@V?$allocator@U?$pair@$$CBV?$basic_string@DU?$char_traits@D@std@@V?$allocator@D@2@@std@@PBUData@PairDump@str@@@std@@@2@$0A@@std@@@std@@QBEIXZ 40190110 f i PairDump.obj
 0002:000921b0       ?max_size@?$list@UData@PairDump@str@@V?$allocator@UData@PairDump@str@@@std@@@std@@QBEIXZ 401901b0 f i PairDump.obj
 0002:00092250       ?max_size@?$list@USection@PairDump@str@@V?$allocator@USection@PairDump@str@@@std@@@std@@QBEIXZ 40190250 f i PairDump.obj
 0002:000922f0       ?pointer_to@?$pointer_traits@PAU?$pair@$$CBV?$basic_string@DU?$char_traits@D@std@@V?$allocator@D@2@@std@@PBUData@PairDump@str@@@std@@@std@@SAPAU?$pair@$$CBV?$basic_string@DU?$char_traits@D@std@@V?$allocator@D@2@@std@@PBUData@PairDump@str@@@2@AAU32@@Z 401902f0 f i PairDump.obj
 0002:00092350       ?precision@ios_base@std@@QAE_J_J@Z 40190350 f i PairDump.obj
 0002:000923d0       ?push_back@?$list@UData@PairDump@str@@V?$allocator@UData@PairDump@str@@@std@@@std@@QAEXABUData@PairDump@str@@@Z 401903d0 f i PairDump.obj
 0002:00092440       ?push_back@?$list@USection@PairDump@str@@V?$allocator@USection@PairDump@str@@@std@@@std@@QAEX$$QAUSection@PairDump@str@@@Z 40190440 f i PairDump.obj
 0002:000924c0       ?push_back@?$list@USection@PairDump@str@@V?$allocator@USection@PairDump@str@@@std@@@std@@QAEXABUSection@PairDump@str@@@Z 401904c0 f i PairDump.obj
 0002:00092530       ?put@?$basic_ostream@DU?$char_traits@D@std@@@std@@QAEAAV12@D@Z 40190530 f i PairDump.obj
 0002:00092710       ?put@?$num_put@DV?$ostreambuf_iterator@DU?$char_traits@D@std@@@std@@@std@@QBE?AV?$ostreambuf_iterator@DU?$char_traits@D@std@@@2@V32@AAVios_base@2@DK@Z 40190710 f i PairDump.obj
 0002:000927b0       ?select_on_container_copy_construction@?$_Default_allocator_traits@V?$allocator@U?$_List_node@UData@PairDump@str@@PAX@std@@@std@@@std@@SA?AV?$allocator@U?$_List_node@UData@PairDump@str@@PAX@std@@@2@ABV32@@Z 401907b0 f i PairDump.obj
 0002:00092800       ?setf@ios_base@std@@QAEHHH@Z 40190800 f i PairDump.obj
 0002:00092890       ?sputn@?$basic_streambuf@DU?$char_traits@D@std@@@std@@QAE_JPBD_J@Z 40190890 f i PairDump.obj
 0002:00092910       ??$?6DU?$char_traits@D@std@@@std@@YAAAV?$basic_ostream@DU?$char_traits@D@std@@@0@AAV10@ABU?$_Fillobj@D@0@@Z 40190910 f i util.obj
 0002:00092980       ??$?6U?$char_traits@D@std@@@std@@YAAAV?$basic_ostream@DU?$char_traits@D@std@@@0@AAV10@D@Z 40190980 f i util.obj
 0002:00092d70       ??$_Reallocate_grow_by@V<lambda_15711c68e099a15a58f4d77303cb286d>@@D@?$basic_string@DU?$char_traits@D@std@@V?$allocator@D@2@@std@@AAEAAV01@IV<lambda_15711c68e099a15a58f4d77303cb286d>@@D@Z 40190d70 f i util.obj
 0002:00092f80       ??$setfill@D@std@@YA?AU?$_Fillobj@D@0@D@Z 40190f80 f i util.obj
 0002:00092fe0       ??0?$_Fillobj@D@std@@QAE@D@Z 40190fe0 f i util.obj
 0002:00093040       ??4?$basic_string@DU?$char_traits@D@std@@V?$allocator@D@2@@std@@QAEAAV01@QBD@Z 40191040 f i util.obj
 0002:000930a0       ??R<lambda_15711c68e099a15a58f4d77303cb286d>@@SA@QADQBDID@Z 401910a0 f i util.obj
 0002:00093150       ??Y?$basic_string@DU?$char_traits@D@std@@V?$allocator@D@2@@std@@QAEAAV01@D@Z 40191150 f i util.obj
 0002:000931c0       ?assign@?$basic_string@DU?$char_traits@D@std@@V?$allocator@D@2@@std@@QAEAAV12@QBD@Z 401911c0 f i util.obj
 0002:00093240       ?clear@?$basic_string@DU?$char_traits@D@std@@V?$allocator@D@2@@std@@QAEXXZ 40191240 f i util.obj
 0002:000932a0       ?etAlignLeft@str@@YAAAV?$basic_string@DU?$char_traits@D@std@@V?$allocator@D@2@@std@@ABV23@IAAV23@@Z 401912a0 f   util.obj
 0002:00093350       ?etAlignRight@str@@YAAAV?$basic_string@DU?$char_traits@D@std@@V?$allocator@D@2@@std@@ABV23@IAAV23@@Z 40191350 f   util.obj
 0002:00093440       ?etDecolorize@str@@YAAAV?$basic_string@DU?$char_traits@D@std@@V?$allocator@D@2@@std@@AAV23@@Z 40191440 f   util.obj
 0002:000935f0       ?etLength@str@@YAIABV?$basic_string@DU?$char_traits@D@std@@V?$allocator@D@2@@std@@@Z 401915f0 f   util.obj
 0002:00093700       ?etTruncate@str@@YA?AV?$basic_string@DU?$char_traits@D@std@@V?$allocator@D@2@@std@@ABV23@I@Z 40191700 f   util.obj
 0002:00093840       ?etTruncate@str@@YAAAV?$basic_string@DU?$char_traits@D@std@@V?$allocator@D@2@@std@@AAV23@I@Z 40191840 f   util.obj
 0002:00093a30       ?fill@?$basic_ios@DU?$char_traits@D@std@@@std@@QAEDD@Z 40191a30 f i util.obj
 0002:00093aa0       ?hex@std@@YAAAVios_base@1@AAV21@@Z 40191aa0 f i util.obj
 0002:00093b00       ?push_back@?$basic_string@DU?$char_traits@D@std@@V?$allocator@D@2@@std@@QAEXD@Z 40191b00 f i util.obj
 0002:00093c00       ?toHexString@str@@YA?AV?$basic_string@DU?$char_traits@D@std@@V?$allocator@D@2@@std@@I@Z 40191c00 f   util.obj
 0002:00093d30       ?toHexString@str@@YAAAV?$basic_string@DU?$char_traits@D@std@@V?$allocator@D@2@@std@@IAAV23@@Z 40191d30 f   util.obj
 0002:00093f00       ?toSeconds@str@@YAHABV?$basic_string@DU?$char_traits@D@std@@V?$allocator@D@2@@std@@_N@Z 40191f00 f   util.obj
 0002:00094520       ?toString@str@@YA?AV?$basic_string@DU?$char_traits@D@std@@V?$allocator@D@2@@std@@AAY02$$CBM@Z 40192520 f   util.obj
 0002:00094650       ?toString@str@@YA?AV?$basic_string@DU?$char_traits@D@std@@V?$allocator@D@2@@std@@PBX@Z 40192650 f   util.obj
 0002:00094780       ?toString@str@@YA?AV?$basic_string@DU?$char_traits@D@std@@V?$allocator@D@2@@std@@W4entityType_t@@@Z 40192780 f   util.obj
 0002:000948b0       ?toString@str@@YA?AV?$basic_string@DU?$char_traits@D@std@@V?$allocator@D@2@@std@@W4gamestate_t@@@Z 401928b0 f   util.obj
 0002:000949e0       ?toString@str@@YA?AV?$basic_string@DU?$char_traits@D@std@@V?$allocator@D@2@@std@@W4gametype_t@@@Z 401929e0 f   util.obj
 0002:00094b10       ?toString@str@@YA?AV?$basic_string@DU?$char_traits@D@std@@V?$allocator@D@2@@std@@W4team_t@@@Z 40192b10 f   util.obj
 0002:00094c40       ?toString@str@@YA?AV?$basic_string@DU?$char_traits@D@std@@V?$allocator@D@2@@std@@W4trType_t@@@Z 40192c40 f   util.obj
 0002:00094d70       ?toString@str@@YA?AV?$basic_string@DU?$char_traits@D@std@@V?$allocator@D@2@@std@@W4weapon_t@@@Z 40192d70 f   util.obj
 0002:00094ea0       ?toString@str@@YAAAV?$basic_string@DU?$char_traits@D@std@@V?$allocator@D@2@@std@@AAY02$$CBMAAV23@@Z 40192ea0 f   util.obj
 0002:00095160       ?toString@str@@YAAAV?$basic_string@DU?$char_traits@D@std@@V?$allocator@D@2@@std@@PBXAAV23@@Z 40193160 f   util.obj
 0002:000951c0       ?toString@str@@YAAAV?$basic_string@DU?$char_traits@D@std@@V?$allocator@D@2@@std@@W4entityType_t@@AAV23@@Z 401931c0 f   util.obj
 0002:00095b90       ?toString@str@@YAAAV?$basic_string@DU?$char_traits@D@std@@V?$allocator@D@2@@std@@W4gamestate_t@@AAV23@@Z 40193b90 f   util.obj
 0002:00095e40       ?toString@str@@YAAAV?$basic_string@DU?$char_traits@D@std@@V?$allocator@D@2@@std@@W4gametype_t@@AAV23@@Z 40193e40 f   util.obj
 0002:00096080       ?toString@str@@YAAAV?$basic_string@DU?$char_traits@D@std@@V?$allocator@D@2@@std@@W4team_t@@AAV23@@Z 40194080 f   util.obj
 0002:000962b0       ?toString@str@@YAAAV?$basic_string@DU?$char_traits@D@std@@V?$allocator@D@2@@std@@W4trType_t@@AAV23@@Z 401942b0 f   util.obj
 0002:00096630       ?toString@str@@YAAAV?$basic_string@DU?$char_traits@D@std@@V?$allocator@D@2@@std@@W4weapon_t@@AAV23@@Z 40194630 f   util.obj
 0002:00096f00       ?toStringSecondsRemaining@str@@YA?AV?$basic_string@DU?$char_traits@D@std@@V?$allocator@D@2@@std@@H_N@Z 40194f00 f   util.obj
 0002:00097040       ?toStringSecondsRemaining@str@@YAAAV?$basic_string@DU?$char_traits@D@std@@V?$allocator@D@2@@std@@HAAV23@_N@Z 40195040 f   util.obj
 0002:00097420       _time                      40195420 f i util.obj
 0002:00097480       ?update@Cvar@cvar@@SAXXZ   40195480 f   Cvar1.obj
 0002:000975f0       ?BG_LoadCampaignSave@@YA?AW4qboolean@@PBDPAUcpsFile_t@@0@Z 401955f0 f   bg_campaign1.obj
 0002:000978b0       ?BG_StoreCampaignSave@@YA?AW4qboolean@@PBDPAUcpsFile_t@@0@Z 401958b0 f   bg_campaign1.obj
 0002:00097b10       ?BG_ClassHasWeapon@@YA?AW4qboolean@@PAUbg_playerclass_t@@W4weapon_t@@@Z 40195b10 f   bg_classes1.obj
 0002:00097bb0       ?BG_ClassLetterForNumber@@YAPBDH@Z 40195bb0 f   bg_classes1.obj
 0002:00097c70       ?BG_ClassSkillForClass@@YA?AW4skillType_t@@H@Z 40195c70 f   bg_classes1.obj
 0002:00097d60       ?BG_ClassTextToClass@@YAHPAD@Z 40195d60 f   bg_classes1.obj
 0002:00097e90       ?BG_ClassnameForNumber@@YAPBDH@Z 40195e90 f   bg_classes1.obj
 0002:00097f50       ?BG_GetPlayerClassInfo@@YAPAUbg_playerclass_t@@HH@Z 40195f50 f   bg_classes1.obj
 0002:00098000       ?BG_PlayerClassForPlayerState@@YAPAUbg_playerclass_t@@PAUplayerState_s@@@Z 40196000 f   bg_classes1.obj
 0002:00098080       ?BG_ShortClassnameForNumber@@YAPBDH@Z 40196080 f   bg_classes1.obj
 0002:00098140       ?BG_WeaponIsPrimaryForClassAndTeam@@YA?AW4qboolean@@HW4team_t@@W4weapon_t@@@Z 40196140 f   bg_classes1.obj
 0002:00098210       ?BG_IsPercent@@YA_NPBD@Z   40196210 f   bg_jaymod1.obj
 0002:000982b0       ?BG_AddMagicAmmo@@YA?AW4qboolean@@PAUplayerState_s@@PAHHH@Z 401962b0 f   bg_misc1.obj
 0002:000988d0       ?BG_AddPathCorner@@YAXPBDQAM@Z 401968d0 f   bg_misc1.obj
 0002:00098a00       ?BG_AddPredictableEventToPlayerstate@@YAXHHPAUplayerState_s@@@Z 40196a00 f   bg_misc1.obj
 0002:00098b70       ?BG_AddSplineControl@@YAXPAUsplinePath_s@@PBD@Z 40196b70 f   bg_misc1.obj
 0002:00098c20       ?BG_AddSplinePath@@YAPAUsplinePath_s@@PBD0QAM@Z 40196c20 f   bg_misc1.obj
 0002:00098db0       ?BG_AdjustAAGunMuzzleForBarrel@@YAXPAM000H@Z 40196db0 f   bg_misc1.obj
 0002:00099930       ?BG_AkimboFireSequence@@YA?AW4qboolean@@HHH@Z 40197930 f   bg_misc1.obj
 0002:000999d0       ?BG_AkimboSidearm@@YAHH@Z  401979d0 f   bg_misc1.obj
 0002:00099ac0       ?BG_BBoxCollision@@YA?AW4qboolean@@QAM000@Z 40197ac0 f   bg_misc1.obj
 0002:00099b80       ?BG_BuildSplinePaths@@YAXXZ 40197b80 f   bg_misc1.obj
 0002:00099e30       ?BG_CalculateSpline_r@@YAXPAUsplinePath_s@@QAM1M@Z 40197e30 f   bg_misc1.obj
 0002:0009a580       ?BG_CanItemBeGrabbed@@YA?AW4qboolean@@PBUentityState_s@@PBUplayerState_s@@PAHH@Z 40198580 f   bg_misc1.obj
 0002:0009a900       ?BG_CanUseWeapon@@YA?AW4qboolean@@HHW4weapon_t@@@Z 40198900 f   bg_misc1.obj
 0002:0009af10       ?BG_ComputeSegments@@YAXPAUsplinePath_s@@@Z 40198f10 f   bg_misc1.obj
 0002:0009b730       ?BG_CreateRotationMatrix@@YAXQBMQAY02M@Z 40199730 f   bg_misc1.obj
 0002:0009b7d0       ?BG_DuplicateWeapon@@YA?AW4weapon_t@@W41@@Z 401997d0 f   bg_misc1.obj
 0002:0009b8d0       ?BG_EvaluateTrajectory@@YAXPBUtrajectory_t@@HQAMW4qboolean@@H@Z 401998d0 f   bg_misc1.obj
 0002:0009ded0       ?BG_EvaluateTrajectoryDelta@@YAXPBUtrajectory_t@@HQAMW4qboolean@@H@Z 4019bed0 f   bg_misc1.obj
 0002:0009e7a0       ?BG_FindAmmoForWeapon@@YA?AW4weapon_t@@W41@@Z 4019c7a0 f   bg_misc1.obj
 0002:0009e840       ?BG_FindClipForWeapon@@YA?AW4weapon_t@@W41@@Z 4019c840 f   bg_misc1.obj
 0002:0009e8e0       ?BG_FindItem@@YAPAUgitem_s@@PBD@Z 4019c8e0 f   bg_misc1.obj
 0002:0009e980       ?BG_FindItemForAmmo@@YAPAUgitem_s@@H@Z 4019c980 f   bg_misc1.obj
 0002:0009ea40       ?BG_FindItemForClassName@@YAPAUgitem_s@@PBD@Z 4019ca40 f   bg_misc1.obj
 0002:0009ead0       ?BG_FindItemForWeapon@@YAPAUgitem_s@@W4weapon_t@@@Z 4019cad0 f   bg_misc1.obj
 0002:0009eb80       ?BG_Find_PathCorner@@YAPAUpathCorner_t@@PBD@Z 4019cb80 f   bg_misc1.obj
 0002:0009ec30       ?BG_Find_Spline@@YAPAUsplinePath_s@@PBD@Z 4019cc30 f   bg_misc1.obj
 0002:0009ece0       ?BG_FootstepForSurface@@YAHH@Z 4019cce0 f   bg_misc1.obj
 0002:0009edf0       ?BG_GetLocationString@@YAPADPAM@Z 4019cdf0 f   bg_misc1.obj
 0002:0009ef50       ?BG_GetMarkDir@@YAXQBM0QAM@Z 4019cf50 f   bg_misc1.obj
 0002:0009f440       ?BG_GetSplineData@@YAPAUsplinePath_s@@HPAW4qboolean@@@Z 4019d440 f   bg_misc1.obj
 0002:0009f4e0       ?BG_GrenadeTypeForTeam@@YA?AW4weapon_t@@W4team_t@@@Z 4019d4e0 f   bg_misc1.obj
 0002:0009f560       ?BG_GrenadesForClass@@YAHHPAH@Z 4019d560 f   bg_misc1.obj
 0002:0009f790       ?BG_InitLocations@@YAXQAM0@Z 4019d790 f   bg_misc1.obj
 0002:0009fab0       ?BG_IsAkimboSideArm@@YA?AW4qboolean@@HPAUplayerState_s@@@Z 4019dab0 f   bg_misc1.obj
 0002:0009fb70       ?BG_IsAkimboWeapon@@YA?AW4qboolean@@H@Z 4019db70 f   bg_misc1.obj
 0002:0009fbe0       ?BG_IsScopedWeapon@@YA?AW4qboolean@@H@Z 4019dbe0 f   bg_misc1.obj
 0002:0009fc70       ?BG_LinearPathOrigin2@@YAXMPAPAUsplinePath_s@@PAMQAMW4qboolean@@@Z 4019dc70 f   bg_misc1.obj
 0002:000a02c0       ?BG_MaxAmmoForWeapon@@YAHW4weapon_t@@PAH@Z 4019e2c0 f   bg_misc1.obj
 0002:000a0620       ?BG_PlayerStateToEntityState@@YAXPAUplayerState_s@@PAUentityState_s@@HW4qboolean@@@Z 4019e620 f   bg_misc1.obj
 0002:000a0eb0       ?BG_PlayerStateToEntityStateExtraPolate@@YAXPAUplayerState_s@@PAUentityState_s@@HW4qboolean@@@Z 4019eeb0 f   bg_misc1.obj
 0002:000a1780       ?BG_PlayerTouchesItem@@YA?AW4qboolean@@PAUplayerState_s@@PAUentityState_s@@H@Z 4019f780 f   bg_misc1.obj
 0002:000a1990       ?BG_RaySphereIntersection@@YA?AW4qboolean@@MQAMPAUsplineSegment_t@@PAM2@Z 4019f990 f   bg_misc1.obj
 0002:000a1ca0       ?BG_RotatePoint@@YAXQAMQAY02$$CBM@Z 4019fca0 f   bg_misc1.obj
 0002:000a1f90       ?BG_SplineLength@@YAMPAUsplinePath_s@@@Z 4019ff90 f   bg_misc1.obj
 0002:000a2490       ?BG_TransposeMatrix@@YAXQAY02$$CBMQAY02M@Z 401a0490 f   bg_misc1.obj
 0002:000a2540       ?BG_TraverseSpline@@YA?AW4qboolean@@PAMPAPAUsplinePath_s@@@Z 401a0540 f   bg_misc1.obj
 0002:000a2720       ?BG_ValidStatWeapon@@YAPAUgitem_s@@W4weapon_t@@@Z 401a0720 f   bg_misc1.obj
 0002:000a2840       ?BG_WeaponForMOD@@YA?AW4weapon_t@@H@Z 401a0840 f   bg_misc1.obj
 0002:000a28d0       ?BG_WeaponInWolfMP@@YA?AW4qboolean@@H@Z 401a08d0 f   bg_misc1.obj
 0002:000a2a80       ?BG_cleanName@@YAHPBDPADHW4qboolean@@@Z 401a0a80 f   bg_misc1.obj
 0002:000a2bd0       ?BG_colorstrncpyz@@YAHPAD0HH@Z 401a0bd0 f   bg_misc1.obj
 0002:000a2d50       ?BG_drawStrlen@@YAHPBD@Z   401a0d50 f   bg_misc1.obj
 0002:000a2e10       ?BG_isLightWeaponSupportingFastReload@@YA?AW4qboolean@@H@Z 401a0e10 f   bg_misc1.obj
 0002:000a2ea0       ?BG_setCrosshair@@YAXPADPAMM0@Z 401a0ea0 f   bg_misc1.obj
 0002:000a3720       ?BG_simpleHintsCollapse@@YAHHH@Z 401a1720 f   bg_misc1.obj
 0002:000a3850       ?BG_simpleHintsExpand@@YAHHH@Z 401a1850 f   bg_misc1.obj
 0002:000a3990       ?BG_simpleWeaponState@@YAHH@Z 401a1990 f   bg_misc1.obj
 0002:000a3a60       ?BG_strRelPos@@YAHPADH@Z   401a1a60 f   bg_misc1.obj
 0002:000a3b30       ?PC_Color_Parse@@YA?AW4qboolean@@HPAY03M@Z 401a1b30 f   bg_misc1.obj
 0002:000a3c10       ?PC_Float_Parse@@YA?AW4qboolean@@HPAM@Z 401a1c10 f   bg_misc1.obj
 0002:000a3da0       ?PC_Int_Parse@@YA?AW4qboolean@@HPAH@Z 401a1da0 f   bg_misc1.obj
 0002:000a3f20       ?PC_SourceError@@YAXHPADZZ 401a1f20 f   bg_misc1.obj
 0002:000a40a0       ?PC_SourceWarning@@YAXHPADZZ 401a20a0 f   bg_misc1.obj
 0002:000a4220       ?PC_String_Parse@@YA?AW4qboolean@@HPAPBD@Z 401a2220 f   bg_misc1.obj
 0002:000a4300       ?PC_String_ParseNoAlloc@@YA?AW4qboolean@@HPADI@Z 401a2300 f   bg_misc1.obj
 0002:000a43f0       ?PC_Vec_Parse@@YA?AW4qboolean@@HPAY02M@Z 401a23f0 f   bg_misc1.obj
 0002:000a44d0       ?Q_vsnprintf@@YAHPADHPBD0@Z 401a24d0 f   bg_misc1.obj
 0002:000a4570       ?floor@@YAMM@Z             401a2570 f i bg_misc1.obj
 0002:000a45e0       __vsnprintf                401a25e0 f i bg_misc1.obj
 0002:000a4650       ??0ColorManipulator@text@@QAE@E@Z 401a2650 f   base:Manipulator.obj
 0002:000a46d0       ??0Manipulator@text@@QAE@E@Z 401a26d0 f   base:Manipulator.obj
 0002:000a4740       ??1ColorManipulator@text@@UAE@XZ 401a2740 f   base:Manipulator.obj
 0002:000a47b0       ??1Manipulator@text@@UAE@XZ 401a27b0 f   base:Manipulator.obj
 0002:000a4810       ??4ColorManipulator@text@@QAEAAV01@ABV01@@Z 401a2810 f   base:Manipulator.obj
 0002:000a4880       ??_EColorManipulator@text@@UAEPAXI@Z 401a2880 f i base:Manipulator.obj
 0002:000a4880       ??_GColorManipulator@text@@UAEPAXI@Z 401a2880 f i base:Manipulator.obj
 0002:000a48f0       ??_EManipulator@text@@UAEPAXI@Z 401a28f0 f i base:Manipulator.obj
 0002:000a48f0       ??_GManipulator@text@@UAEPAXI@Z 401a28f0 f i base:Manipulator.obj
 0002:000a4960       ??$?6U?$char_traits@D@std@@@std@@YAAAV?$basic_ostream@DU?$char_traits@D@std@@@0@AAV10@E@Z 401a2960 f i base:InlineText.obj
 0002:000a49c0       ??0ColorManipulator@text@@QAE@ABV01@@Z 401a29c0 f i base:InlineText.obj
 0002:000a4a30       ??0InlineText@text@@QAE@ABV01@@Z 401a2a30 f   base:InlineText.obj
 0002:000a4bd0       ??0InlineText@text@@QAE@ABV?$basic_string@DU?$char_traits@D@std@@V?$allocator@D@2@@std@@@Z 401a2bd0 f   base:InlineText.obj
 0002:000a4d70       ??0InlineText@text@@QAE@ABVColorManipulator@1@@Z 401a2d70 f   base:InlineText.obj
 0002:000a4ea0       ??0InlineText@text@@QAE@D@Z 401a2ea0 f   base:InlineText.obj
 0002:000a5040       ??0InlineText@text@@QAE@E@Z 401a3040 f   base:InlineText.obj
 0002:000a51e0       ??0InlineText@text@@QAE@F@Z 401a31e0 f   base:InlineText.obj
 0002:000a5380       ??0InlineText@text@@QAE@G@Z 401a3380 f   base:InlineText.obj
 0002:000a5520       ??0InlineText@text@@QAE@H@Z 401a3520 f   base:InlineText.obj
 0002:000a56c0       ??0InlineText@text@@QAE@I@Z 401a36c0 f   base:InlineText.obj
 0002:000a5860       ??0InlineText@text@@QAE@M@Z 401a3860 f   base:InlineText.obj
 0002:000a5a10       ??0InlineText@text@@QAE@N@Z 401a3a10 f   base:InlineText.obj
 0002:000a5bc0       ??0InlineText@text@@QAE@PBD@Z 401a3bc0 f   base:InlineText.obj
 0002:000a5d60       ??0InlineText@text@@QAE@PBX@Z 401a3d60 f   base:InlineText.obj
 0002:000a5f00       ??0InlineText@text@@QAE@XZ 401a3f00 f   base:InlineText.obj
 0002:000a6030       ??0InlineText@text@@QAE@_J@Z 401a4030 f   base:InlineText.obj
 0002:000a61e0       ??0InlineText@text@@QAE@_K@Z 401a41e0 f   base:InlineText.obj
 0002:000a6390       ??0InlineText@text@@QAE@_N@Z 401a4390 f   base:InlineText.obj
 0002:000a6530       ??0InlineVec3@text@@QAE@ABV01@@Z 401a4530 f   base:InlineText.obj
 0002:000a65f0       ??0InlineVec3@text@@QAE@PBM@Z 401a45f0 f   base:InlineText.obj
 0002:000a6720       ??0InlineVec3@text@@QAE@XZ 401a4720 f   base:InlineText.obj
 0002:000a6830       ??0Manipulator@text@@QAE@ABV01@@Z 401a4830 f i base:InlineText.obj
 0002:000a6870       ??1InlineText@text@@QAE@XZ 401a4870 f   base:InlineText.obj
 0002:000a6940       ??1InlineVec3@text@@QAE@XZ 401a4940 f   base:InlineText.obj
 0002:000a69a0       ??4InlineText@text@@QAEAAV01@ABV01@@Z 401a49a0 f   base:InlineText.obj
 0002:000a6b10       ??4InlineVec3@text@@QAEAAV01@ABV01@@Z 401a4b10 f i base:InlineText.obj
 0002:000a6b70       ??6?$basic_ostream@DU?$char_traits@D@std@@@std@@QAEAAV01@F@Z 401a4b70 f i base:InlineText.obj
 0002:000a6e40       ??6?$basic_ostream@DU?$char_traits@D@std@@@std@@QAEAAV01@G@Z 401a4e40 f i base:InlineText.obj
 0002:000a70c0       ??6?$basic_ostream@DU?$char_traits@D@std@@@std@@QAEAAV01@PBX@Z 401a50c0 f i base:InlineText.obj
 0002:000a7340       ??6?$basic_ostream@DU?$char_traits@D@std@@@std@@QAEAAV01@_J@Z 401a5340 f i base:InlineText.obj
 0002:000a75c0       ??6?$basic_ostream@DU?$char_traits@D@std@@@std@@QAEAAV01@_K@Z 401a55c0 f i base:InlineText.obj
 0002:000a7840       ??6?$basic_ostream@DU?$char_traits@D@std@@@std@@QAEAAV01@_N@Z 401a5840 f i base:InlineText.obj
 0002:000a7ac0       ??RInlineText@text@@QAEAAV01@ABV?$basic_string@DU?$char_traits@D@std@@V?$allocator@D@2@@std@@@Z 401a5ac0 f   base:InlineText.obj
 0002:000a7b30       ??RInlineText@text@@QAEAAV01@D@Z 401a5b30 f   base:InlineText.obj
 0002:000a7cc0       ??RInlineText@text@@QAEAAV01@E@Z 401a5cc0 f   base:InlineText.obj
 0002:000a7e50       ??RInlineText@text@@QAEAAV01@F@Z 401a5e50 f   base:InlineText.obj
 0002:000a7fe0       ??RInlineText@text@@QAEAAV01@G@Z 401a5fe0 f   base:InlineText.obj
 0002:000a8170       ??RInlineText@text@@QAEAAV01@H@Z 401a6170 f   base:InlineText.obj
 0002:000a82f0       ??RInlineText@text@@QAEAAV01@I@Z 401a62f0 f   base:InlineText.obj
 0002:000a8470       ??RInlineText@text@@QAEAAV01@M@Z 401a6470 f   base:InlineText.obj
 0002:000a8650       ??RInlineText@text@@QAEAAV01@N@Z 401a6650 f   base:InlineText.obj
 0002:000a8830       ??RInlineText@text@@QAEAAV01@PBD@Z 401a6830 f   base:InlineText.obj
 0002:000a8930       ??RInlineText@text@@QAEAAV01@PBX@Z 401a6930 f   base:InlineText.obj
 0002:000a8ab0       ??RInlineText@text@@QAEAAV01@_J@Z 401a6ab0 f   base:InlineText.obj
 0002:000a8c40       ??RInlineText@text@@QAEAAV01@_K@Z 401a6c40 f   base:InlineText.obj
 0002:000a8dd0       ??RInlineText@text@@QAEAAV01@_N@Z 401a6dd0 f   base:InlineText.obj
 0002:000a8f60       ??RInlineVec3@text@@QAEAAV01@PBM@Z 401a6f60 f   base:InlineText.obj
 0002:000a9260       ?_Init@?$basic_stringbuf@DU?$char_traits@D@std@@V?$allocator@D@2@@std@@IAEXPBDIH@Z 401a7260 f i base:InlineText.obj
 0002:000a9450       ?compute@InlineText@text@@AAEXABV?$basic_string@DU?$char_traits@D@std@@V?$allocator@D@2@@std@@@Z 401a7450 f   base:InlineText.obj
 0002:000a96a0       ?put@?$num_put@DV?$ostreambuf_iterator@DU?$char_traits@D@std@@@std@@@std@@QBE?AV?$ostreambuf_iterator@DU?$char_traits@D@std@@@2@V32@AAVios_base@2@DPBX@Z 401a76a0 f i base:InlineText.obj
 0002:000a9740       ?put@?$num_put@DV?$ostreambuf_iterator@DU?$char_traits@D@std@@@std@@@std@@QBE?AV?$ostreambuf_iterator@DU?$char_traits@D@std@@@2@V32@AAVios_base@2@D_J@Z 401a7740 f i base:InlineText.obj
 0002:000a97e0       ?put@?$num_put@DV?$ostreambuf_iterator@DU?$char_traits@D@std@@@std@@@std@@QBE?AV?$ostreambuf_iterator@DU?$char_traits@D@std@@@2@V32@AAVios_base@2@D_K@Z 401a77e0 f i base:InlineText.obj
 0002:000a9880       ?put@?$num_put@DV?$ostreambuf_iterator@DU?$char_traits@D@std@@@std@@@std@@QBE?AV?$ostreambuf_iterator@DU?$char_traits@D@std@@@2@V32@AAVios_base@2@D_N@Z 401a7880 f i base:InlineText.obj
 0002:000a9920       ?str@?$basic_ostringstream@DU?$char_traits@D@std@@V?$allocator@D@2@@std@@QAEXABV?$basic_string@DU?$char_traits@D@std@@V?$allocator@D@2@@2@@Z 401a7920 f i base:InlineText.obj
 0002:000a9990       ?str@?$basic_stringbuf@DU?$char_traits@D@std@@V?$allocator@D@2@@std@@QAEXABV?$basic_string@DU?$char_traits@D@std@@V?$allocator@D@2@@2@@Z 401a7990 f i base:InlineText.obj
 0002:000a9a17       _GetSystemInfo@4           401a7a17 f   kernel32:KERNEL32.dll
 0002:000a9a20       ??0_Init_locks@std@@QAE@XZ 401a7a20 f   libcpmtd:xlock.obj
 0002:000a9aa0       ??0_Lockit@std@@QAE@H@Z    401a7aa0 f   libcpmtd:xlock.obj
 0002:000a9b00       ??0_Lockit@std@@QAE@XZ     401a7b00 f   libcpmtd:xlock.obj
 0002:000a9b50       ??1_Init_locks@std@@QAE@XZ 401a7b50 f   libcpmtd:xlock.obj
 0002:000a9bd0       ??1_Lockit@std@@QAE@XZ     401a7bd0 f   libcpmtd:xlock.obj
 0002:000a9c20       ?_Init_locks_ctor@_Init_locks@std@@CAXPAV12@@Z 401a7c20 f   libcpmtd:xlock.obj
 0002:000a9c90       ?_Init_locks_dtor@_Init_locks@std@@CAXPAV12@@Z 401a7c90 f   libcpmtd:xlock.obj
 0002:000a9d00       ?_Lockit_ctor@_Lockit@std@@CAXPAV12@@Z 401a7d00 f   libcpmtd:xlock.obj
 0002:000a9d30       ?_Lockit_ctor@_Lockit@std@@CAXPAV12@H@Z 401a7d30 f   libcpmtd:xlock.obj
 0002:000a9d70       ?_Lockit_ctor@_Lockit@std@@SAXH@Z 401a7d70 f   libcpmtd:xlock.obj
 0002:000a9db0       ?_Lockit_dtor@_Lockit@std@@CAXPAV12@@Z 401a7db0 f   libcpmtd:xlock.obj
 0002:000a9dd0       ?_Lockit_dtor@_Lockit@std@@SAXH@Z 401a7dd0 f   libcpmtd:xlock.obj
 0002:000a9e10       ??0bad_alloc@std@@QAE@XZ   401a7e10 f i libcpmtd:xthrow.obj
 0002:000a9e40       ??0bad_function_call@std@@QAE@ABV01@@Z 401a7e40 f i libcpmtd:xthrow.obj
 0002:000a9e70       ??0bad_function_call@std@@QAE@XZ 401a7e70 f i libcpmtd:xthrow.obj
 0002:000a9ea0       ??0exception@std@@QAE@XZ   401a7ea0 f i libcpmtd:xthrow.obj
 0002:000a9ed0       ??0invalid_argument@std@@QAE@ABV01@@Z 401a7ed0 f i libcpmtd:xthrow.obj
 0002:000a9f00       ??0invalid_argument@std@@QAE@PBD@Z 401a7f00 f i libcpmtd:xthrow.obj
 0002:000a9f30       ??0length_error@std@@QAE@ABV01@@Z 401a7f30 f i libcpmtd:xthrow.obj
 0002:000a9f60       ??0length_error@std@@QAE@PBD@Z 401a7f60 f i libcpmtd:xthrow.obj
 0002:000a9f90       ??0logic_error@std@@QAE@ABV01@@Z 401a7f90 f i libcpmtd:xthrow.obj
 0002:000a9fc0       ??0logic_error@std@@QAE@PBD@Z 401a7fc0 f i libcpmtd:xthrow.obj
 0002:000a9ff0       ??0out_of_range@std@@QAE@ABV01@@Z 401a7ff0 f i libcpmtd:xthrow.obj
 0002:000aa020       ??0out_of_range@std@@QAE@PBD@Z 401a8020 f i libcpmtd:xthrow.obj
 0002:000aa050       ??0overflow_error@std@@QAE@ABV01@@Z 401a8050 f i libcpmtd:xthrow.obj
 0002:000aa080       ??0overflow_error@std@@QAE@PBD@Z 401a8080 f i libcpmtd:xthrow.obj
 0002:000aa0b0       ??0regex_error@std@@QAE@ABV01@@Z 401a80b0 f i libcpmtd:xthrow.obj
 0002:000aa0f0       ??0regex_error@std@@QAE@W4error_type@regex_constants@1@@Z 401a80f0 f i libcpmtd:xthrow.obj
 0002:000aa140       ??0runtime_error@std@@QAE@PBD@Z 401a8140 f i libcpmtd:xthrow.obj
 0002:000aa170       ??1bad_function_call@std@@UAE@XZ 401a8170 f i libcpmtd:xthrow.obj
 0002:000aa190       ??1invalid_argument@std@@UAE@XZ 401a8190 f i libcpmtd:xthrow.obj
 0002:000aa1b0       ??1length_error@std@@UAE@XZ 401a81b0 f i libcpmtd:xthrow.obj
 0002:000aa1d0       ??1logic_error@std@@UAE@XZ 401a81d0 f i libcpmtd:xthrow.obj
 0002:000aa1f0       ??1out_of_range@std@@UAE@XZ 401a81f0 f i libcpmtd:xthrow.obj
 0002:000aa210       ??1overflow_error@std@@UAE@XZ 401a8210 f i libcpmtd:xthrow.obj
 0002:000aa230       ??1regex_error@std@@UAE@XZ 401a8230 f i libcpmtd:xthrow.obj
 0002:000aa250       ??_Ebad_function_call@std@@UAEPAXI@Z 401a8250 f i libcpmtd:xthrow.obj
 0002:000aa250       ??_Gbad_function_call@std@@UAEPAXI@Z 401a8250 f i libcpmtd:xthrow.obj
 0002:000aa290       ??_Einvalid_argument@std@@UAEPAXI@Z 401a8290 f i libcpmtd:xthrow.obj
 0002:000aa290       ??_Ginvalid_argument@std@@UAEPAXI@Z 401a8290 f i libcpmtd:xthrow.obj
 0002:000aa2d0       ??_Elength_error@std@@UAEPAXI@Z 401a82d0 f i libcpmtd:xthrow.obj
 0002:000aa2d0       ??_Glength_error@std@@UAEPAXI@Z 401a82d0 f i libcpmtd:xthrow.obj
 0002:000aa310       ??_Elogic_error@std@@UAEPAXI@Z 401a8310 f i libcpmtd:xthrow.obj
 0002:000aa310       ??_Glogic_error@std@@UAEPAXI@Z 401a8310 f i libcpmtd:xthrow.obj
 0002:000aa350       ??_Eout_of_range@std@@UAEPAXI@Z 401a8350 f i libcpmtd:xthrow.obj
 0002:000aa350       ??_Gout_of_range@std@@UAEPAXI@Z 401a8350 f i libcpmtd:xthrow.obj
 0002:000aa390       ??_Eoverflow_error@std@@UAEPAXI@Z 401a8390 f i libcpmtd:xthrow.obj
 0002:000aa390       ??_Goverflow_error@std@@UAEPAXI@Z 401a8390 f i libcpmtd:xthrow.obj
 0002:000aa3d0       ??_Eregex_error@std@@UAEPAXI@Z 401a83d0 f i libcpmtd:xthrow.obj
 0002:000aa3d0       ??_Gregex_error@std@@UAEPAXI@Z 401a83d0 f i libcpmtd:xthrow.obj
 0002:000aa410       ?_Stringify@regex_error@std@@CAPBDW4error_type@regex_constants@2@@Z 401a8410 f i libcpmtd:xthrow.obj
 0002:000aa510       ?_Xbad_alloc@std@@YAXXZ    401a8510 f   libcpmtd:xthrow.obj
 0002:000aa540       ?_Xbad_function_call@std@@YAXXZ 401a8540 f   libcpmtd:xthrow.obj
 0002:000aa570       ?_Xinvalid_argument@std@@YAXPBD@Z 401a8570 f   libcpmtd:xthrow.obj
 0002:000aa5a0       ?_Xlength_error@std@@YAXPBD@Z 401a85a0 f   libcpmtd:xthrow.obj
 0002:000aa5d0       ?_Xout_of_range@std@@YAXPBD@Z 401a85d0 f   libcpmtd:xthrow.obj
 0002:000aa600       ?_Xoverflow_error@std@@YAXPBD@Z 401a8600 f   libcpmtd:xthrow.obj
 0002:000aa630       ?_Xregex_error@std@@YAXW4error_type@regex_constants@1@@Z 401a8630 f   libcpmtd:xthrow.obj
 0002:000aa660       ?_Xruntime_error@std@@YAXPBD@Z 401a8660 f   libcpmtd:xthrow.obj
 0002:000aa690       ?__empty_global_delete@@YAXPAXIW4align_val_t@std@@@Z 401a8690 f i libcpmtd:xthrow.obj
 0002:000aa6a0       ?__empty_global_delete@@YAXPAXW4align_val_t@std@@@Z 401a86a0 f i libcpmtd:xthrow.obj
 0002:000aa6b0       ?what@bad_function_call@std@@UBEPBDXZ 401a86b0 f i libcpmtd:xthrow.obj
 0002:000aa6d0       ?uncaught_exception@std@@YA_NXZ 401a86d0 f   libcpmtd:uncaught_exception.obj
 0002:000aa6e0       ?_Syserror_map@std@@YAPBDH@Z 401a86e0 f   libcpmtd:syserror.obj
 0002:000aa750       ?_Winerror_map@std@@YAHH@Z 401a8750 f   libcpmtd:syserror.obj
 0002:000aa7c0       ?_Winerror_message@std@@YAKKPADK@Z 401a87c0 f   libcpmtd:syserror.obj
 0002:000aa810       ??0?$_Yarn@D@std@@QAE@PBD@Z 401a8810 f i libcpmtd:locale0.obj
 0002:000aa850       ??0_Fac_node@std@@QAE@PAU01@PAV_Facet_base@1@@Z 401a8850 f i libcpmtd:locale0.obj
 0002:000aa880       ??0_Locimp@locale@std@@AAE@ABV012@@Z 401a8880 f i libcpmtd:locale0.obj
 0002:000aa970       ??0_Locimp@locale@std@@AAE@_N@Z 401a8970 f i libcpmtd:locale0.obj
 0002:000aa9f0       ??0id@locale@std@@QAE@I@Z  401a89f0 f i libcpmtd:locale0.obj
 0002:000aaa10       ??0locale@std@@AAE@U_Secret_locale_construct_tag@01@PAV_Locimp@01@@Z 401a8a10 f i libcpmtd:locale0.obj
 0002:000aaa30       ??0locale@std@@QAE@W4_Uninitialized@1@@Z 401a8a30 f i libcpmtd:locale0.obj
 0002:000aaa50       ??1_Fac_node@std@@QAE@XZ   401a8a50 f i libcpmtd:locale0.obj
 0002:000aaad0       ??1_Fac_tidy_reg_t@std@@QAE@XZ 401a8ad0 f i libcpmtd:locale0.obj
 0002:000aab30       ??1_Locimp@locale@std@@MAE@XZ 401a8b30 f i libcpmtd:locale0.obj
 0002:000aabb0       ??2_Fac_node@std@@SAPAXI@Z 401a8bb0 f i libcpmtd:locale0.obj
 0002:000aac10       ??3_Fac_node@std@@SAXPAX@Z 401a8c10 f i libcpmtd:locale0.obj
 0002:000aac30       ??4?$_Yarn@D@std@@QAEAAV01@PBD@Z 401a8c30 f i libcpmtd:locale0.obj
 0002:000aacf0       ??_G_Fac_node@std@@QAEPAXI@Z 401a8cf0 f i libcpmtd:locale0.obj
 0002:000aad50       ??_E_Locimp@locale@std@@MAEPAXI@Z 401a8d50 f i libcpmtd:locale0.obj
 0002:000aad50       ??_G_Locimp@locale@std@@MAEPAXI@Z 401a8d50 f i libcpmtd:locale0.obj
 0002:000aadb0       ?_C_str@?$_Yarn@D@std@@QBEPBDXZ 401a8db0 f i libcpmtd:locale0.obj
 0002:000aadf0       ?_Empty@?$_Yarn@D@std@@QBE_NXZ 401a8df0 f i libcpmtd:locale0.obj
 0002:000aae30       ?_Facet_Register@std@@YAXPAV_Facet_base@1@@Z 401a8e30 f   libcpmtd:locale0.obj
 0002:000aaee0       ?_Getgloballocale@locale@std@@CAPAV_Locimp@12@XZ 401a8ee0 f   libcpmtd:locale0.obj
 0002:000aaef0       ?_Init@locale@std@@CAPAV_Locimp@12@_N@Z 401a8ef0 f   libcpmtd:locale0.obj
 0002:000ab060       ?_Locimp_dtor@_Locimp@locale@std@@CAXPAV123@@Z 401a9060 f   libcpmtd:locale0.obj
 0002:000ab160       ?_Locinfo_ctor@_Locinfo@std@@SAXPAV12@PBD@Z 401a9160 f   libcpmtd:locale0.obj
 0002:000ab200       ?_Locinfo_dtor@_Locinfo@std@@SAXPAV12@@Z 401a9200 f   libcpmtd:locale0.obj
 0002:000ab240       ?_New_Locimp@_Locimp@locale@std@@CAPAV123@ABV123@@Z 401a9240 f   libcpmtd:locale0.obj
 0002:000ab2e0       ?_New_Locimp@_Locimp@locale@std@@CAPAV123@_N@Z 401a92e0 f   libcpmtd:locale0.obj
 0002:000ab380       ?_Setgloballocale@locale@std@@CAXPAX@Z 401a9380 f   libcpmtd:locale0.obj
 0002:000ab3c0       ?classic@locale@std@@SAABV12@XZ 401a93c0 f   libcpmtd:locale0.obj
 0002:000ab410       ?empty@locale@std@@SA?AV12@XZ 401a9410 f   libcpmtd:locale0.obj
 0002:000ab470       __Deletegloballocale       401a9470 f   libcpmtd:locale0.obj
 0002:000ab540       __Getctype                 401a9540 f   libcpmtd:_tolower.obj
 0002:000ab620       __Tolower                  401a9620 f   libcpmtd:_tolower.obj
 0002:000ab890       __Getcvt                   401a9890 f   libcpmtd:xwctomb.obj
 0002:000ab990       __Wcrtomb                  401a9990 f   libcpmtd:xwctomb.obj
 0002:000abab0       ___Wcrtomb_lk              401a9ab0 f   libcpmtd:xwctomb.obj
 0002:000abae0       __Toupper                  401a9ae0 f   libcpmtd:_toupper.obj
 0002:000abd50       ?_Addstd@ios_base@std@@SAXPAV12@@Z 401a9d50 f   libcpmtd:ios.obj
 0002:000abe10       ?_Callfns@ios_base@std@@AAEXW4event@12@@Z 401a9e10 f i libcpmtd:ios.obj
 0002:000abe80       ?_Ios_base_dtor@ios_base@std@@CAXPAV12@@Z 401a9e80 f   libcpmtd:ios.obj
 0002:000abf10       ?_Tidy@ios_base@std@@AAEXXZ 401a9f10 f i libcpmtd:ios.obj
 0002:000ac010       ??0?$_Smanip@H@std@@QAE@P6AXAAVios_base@1@H@ZH@Z 401aa010 f i libcpmtd:iomanip.obj
 0002:000ac040       ??0?$_Smanip@_J@std@@QAE@P6AXAAVios_base@1@_J@Z1@Z 401aa040 f i libcpmtd:iomanip.obj
 0002:000ac070       ?resetiosflags@std@@YA?AU?$_Smanip@H@1@H@Z 401aa070 f   libcpmtd:iomanip.obj
 0002:000ac130       ?setbase@std@@YA?AU?$_Smanip@H@1@H@Z 401aa130 f   libcpmtd:iomanip.obj
 0002:000ac150       ?setiosflags@std@@YA?AU?$_Smanip@H@1@H@Z 401aa150 f   libcpmtd:iomanip.obj
 0002:000ac170       ?setprecision@std@@YA?AU?$_Smanip@_J@1@_J@Z 401aa170 f   libcpmtd:iomanip.obj
 0002:000ac1a0       ?setw@std@@YA?AU?$_Smanip@_J@1@_J@Z 401aa1a0 f   libcpmtd:iomanip.obj
 0002:000ac230       __Mtxdst                   401aa230 f   libcpmtd:xmtx.obj
 0002:000ac250       __Mtxinit                  401aa250 f   libcpmtd:xmtx.obj
 0002:000ac270       __Mtxlock                  401aa270 f   libcpmtd:xmtx.obj
 0002:000ac290       __Mtxunlock                401aa290 f   libcpmtd:xmtx.obj
 0002:000ac2d0       ___std_get_string_size_without_trailing_whitespace@8 401aa2d0 f   libcpmtd:syserror_import_lib.obj
 0002:000ac320       ___std_system_error_allocate_message@8 401aa320 f   libcpmtd:syserror_import_lib.obj
 0002:000ac400       ___std_system_error_deallocate_message@4 401aa400 f   libcpmtd:syserror_import_lib.obj
 0002:000ac420       ??$?8DU?$char_traits@D@std@@@std@@YA_NABV?$istreambuf_iterator@DU?$char_traits@D@std@@@0@0@Z 401aa420 f i libcpmtd:locale.obj
 0002:000ac440       ??$_Adl_verify_range@PADPAD@std@@YAXABQAD0@Z 401aa440 f i libcpmtd:locale.obj
 0002:000ac490       ??$_Adl_verify_range@V?$istreambuf_iterator@DU?$char_traits@D@std@@@std@@V12@@std@@YAXABV?$istreambuf_iterator@DU?$char_traits@D@std@@@0@0@Z 401aa490 f i libcpmtd:locale.obj
 0002:000ac4a0       ??$_Could_compare_equal_to_value_type@PBDD@std@@YA_NABD@Z 401aa4a0 f i libcpmtd:locale.obj
 0002:000ac4f0       ??$_Find_elem@D$0BL@@std@@YAIAAY0BL@$$CBDD@Z 401aa4f0 f i libcpmtd:locale.obj
 0002:000ac520       ??$_Find_elem@D$0BN@@std@@YAIAAY0BN@$$CBDD@Z 401aa520 f i libcpmtd:locale.obj
 0002:000ac550       ??$_Find_unchecked@PBDD@std@@YAPBDPBDQBDABD@Z 401aa550 f i libcpmtd:locale.obj
 0002:000ac620       ??$_Find_vectorized@$$CBDD@std@@YAPBDQBD0D@Z 401aa620 f i libcpmtd:locale.obj
 0002:000ac640       ??$_Get_unwrapped@ABQAD@std@@YA?A_TABQAD@Z 401aa640 f i libcpmtd:locale.obj
 0002:000ac650       ??$_Getloctxt@V?$istreambuf_iterator@DU?$char_traits@D@std@@@std@@D@std@@YAHAAV?$istreambuf_iterator@DU?$char_traits@D@std@@@0@0IPBDW4_Case_sensitive@0@@Z 401aa650 f i libcpmtd:locale.obj
 0002:000aca00       ??$_Parse_fp_with_locale@$0A@@?$num_get@DV?$istreambuf_iterator@DU?$char_traits@D@std@@@std@@@std@@CA?AU_Num_get_parse_result@1@QADHAAV?$istreambuf_iterator@DU?$char_traits@D@std@@@1@1ABVlocale@1@@Z 401aaa00 f i libcpmtd:locale.obj
 0002:000add50       ??$_Parse_int_with_locale@$0A@@?$num_get@DV?$istreambuf_iterator@DU?$char_traits@D@std@@@std@@@std@@CA?AU_Num_get_parse_result@1@QADAAV?$istreambuf_iterator@DU?$char_traits@D@std@@@1@1HABVlocale@1@@Z 401abd50 f i libcpmtd:locale.obj
 0002:000ae570       ??$_Reallocate_grow_by@V<lambda_1>@?1???$_Append@D@?$basic_string@DU?$char_traits@D@std@@V?$allocator@D@2@@std@@AAEAAV23@QBDI@Z@PBDI@?$basic_string@DU?$char_traits@D@std@@V?$allocator@D@2@@std@@AAEAAV01@IV<lambda_1>@?1???$_Append@D@01@AAEAAV01@QBDI@Z@PBDI@Z 401ac570 f i libcpmtd:locale.obj
 0002:000ae700       ??$_Reallocate_grow_by@V<lambda_1>@?1??append@?$basic_string@DU?$char_traits@D@std@@V?$allocator@D@2@@std@@QAEAAV34@ID@Z@ID@?$basic_string@DU?$char_traits@D@std@@V?$allocator@D@2@@std@@AAEAAV01@IV<lambda_1>@?1??append@01@QAEAAV01@ID@Z@ID@Z 401ac700 f i libcpmtd:locale.obj
 0002:000ae890       ??$_Reallocate_grow_by@V<lambda_1>@?1??insert@?$basic_string@DU?$char_traits@D@std@@V?$allocator@D@2@@std@@QAEAAV34@IID@Z@IID@?$basic_string@DU?$char_traits@D@std@@V?$allocator@D@2@@std@@AAEAAV01@IV<lambda_1>@?1??insert@01@QAEAAV01@IID@Z@IID@Z 401ac890 f i libcpmtd:locale.obj
 0002:000aea20       ??$_Reallocate_grow_by@V<lambda_1>@?1??push_back@?$basic_string@DU?$char_traits@D@std@@V?$allocator@D@2@@std@@QAEXD@Z@D@?$basic_string@DU?$char_traits@D@std@@V?$allocator@D@2@@std@@AAEAAV01@IV<lambda_1>@?1??push_back@01@QAEXD@Z@D@Z 401aca20 f i libcpmtd:locale.obj
 0002:000aeba0       ??$_Reverse_vectorized@$00@std@@YAXPAX0@Z 401acba0 f i libcpmtd:locale.obj
 0002:000aebc0       ??$_To_address@PAD@std@@YA?A_PABQAD@Z 401acbc0 f i libcpmtd:locale.obj
 0002:000aebe0       ??$_To_address@PBD@std@@YA?A_PABQBD@Z 401acbe0 f i libcpmtd:locale.obj
 0002:000aec00       ??$begin@$$CBD$0BL@@std@@YAPBDAAY0BL@$$CBD@Z 401acc00 f i libcpmtd:locale.obj
 0002:000aec10       ??$begin@$$CBD$0BN@@std@@YAPBDAAY0BN@$$CBD@Z 401acc10 f i libcpmtd:locale.obj
 0002:000aec20       ??$construct_at@D$$V@std@@YAPADQAD@Z 401acc20 f i libcpmtd:locale.obj
 0002:000aec70       ??$construct_at@PADAAPAD@std@@YAPAPADQAPADAAPAD@Z 401acc70 f i libcpmtd:locale.obj
 0002:000aeca0       ??$construct_at@PADABQAD@std@@YAPAPADQAPADABQAD@Z 401acca0 f i libcpmtd:locale.obj
 0002:000aecd0       ??$construct_at@U_Container_proxy@std@@PAU_Container_base12@2@@std@@YAPAU_Container_proxy@0@QAU10@$$QAPAU_Container_base12@0@@Z 401accd0 f i libcpmtd:locale.obj
 0002:000aed00       ??$end@$$CBD$0BL@@std@@YAPBDAAY0BL@$$CBD@Z 401acd00 f i libcpmtd:locale.obj
 0002:000aed10       ??$end@$$CBD$0BN@@std@@YAPBDAAY0BN@$$CBD@Z 401acd10 f i libcpmtd:locale.obj
 0002:000aed20       ??$min@H@std@@YAABHABH0@Z  401acd20 f i libcpmtd:locale.obj
 0002:000aed60       ??$reverse@PAD@std@@YAXQAD0@Z 401acd60 f i libcpmtd:locale.obj
 0002:000aee50       ??$swap@D$0A@@std@@YAXAAD0@Z 401ace50 f i libcpmtd:locale.obj
 0002:000aee80       ??$to_address@$$CBD@std@@YAPBDQBD@Z 401ace80 f i libcpmtd:locale.obj
 0002:000aee90       ??$to_address@D@std@@YAPADQAD@Z 401ace90 f i libcpmtd:locale.obj
 0002:000aeea0       ??$use_facet@V?$codecvt@DDU_Mbstatet@@@std@@@std@@YAABV?$codecvt@DDU_Mbstatet@@@0@ABVlocale@0@@Z 401acea0 f i libcpmtd:locale.obj
 0002:000af000       ??$use_facet@V?$num_get@DV?$istreambuf_iterator@DU?$char_traits@D@std@@@std@@@std@@@std@@YAABV?$num_get@DV?$istreambuf_iterator@DU?$char_traits@D@std@@@std@@@0@ABVlocale@0@@Z 401ad000 f i libcpmtd:locale.obj
 0002:000af160       ??0?$codecvt@DDU_Mbstatet@@@std@@QAE@ABV_Locinfo@1@I@Z 401ad160 f i libcpmtd:locale.obj
 0002:000af1f0       ??0?$num_get@DV?$istreambuf_iterator@DU?$char_traits@D@std@@@std@@@std@@QAE@ABV_Locinfo@1@I@Z 401ad1f0 f i libcpmtd:locale.obj
 0002:000af280       ??0codecvt_base@std@@QAE@I@Z 401ad280 f i libcpmtd:locale.obj
 0002:000af2b0       ??1?$codecvt@DDU_Mbstatet@@@std@@MAE@XZ 401ad2b0 f i libcpmtd:locale.obj
 0002:000af2e0       ??1?$num_get@DV?$istreambuf_iterator@DU?$char_traits@D@std@@@std@@@std@@MAE@XZ 401ad2e0 f i libcpmtd:locale.obj
 0002:000af310       ??1codecvt_base@std@@UAE@XZ 401ad310 f i libcpmtd:locale.obj
 0002:000af340       ??D?$istreambuf_iterator@DU?$char_traits@D@std@@@std@@QBEDXZ 401ad340 f i libcpmtd:locale.obj
 0002:000af3b0       ??E?$istreambuf_iterator@DU?$char_traits@D@std@@@std@@QAEAAV01@XZ 401ad3b0 f i libcpmtd:locale.obj
 0002:000af410       ??R<lambda_1>@?1???$_Append@D@?$basic_string@DU?$char_traits@D@std@@V?$allocator@D@2@@std@@AAEAAV12@QBDI@Z@SA@QAD0I0I@Z 401ad410 f i libcpmtd:locale.obj
 0002:000af470       ??R<lambda_1>@?1??append@?$basic_string@DU?$char_traits@D@std@@V?$allocator@D@2@@std@@QAEAAV23@ID@Z@SA@QADQBDIID@Z 401ad470 f i libcpmtd:locale.obj
 0002:000af4e0       ??R<lambda_1>@?1??insert@?$basic_string@DU?$char_traits@D@std@@V?$allocator@D@2@@std@@QAEAAV23@IID@Z@SA@QADQBDIIID@Z 401ad4e0 f i libcpmtd:locale.obj
 0002:000af550       ??R<lambda_1>@?1??push_back@?$basic_string@DU?$char_traits@D@std@@V?$allocator@D@2@@std@@QAEXD@Z@SA@QADQBDID@Z 401ad550 f i libcpmtd:locale.obj
 0002:000af5b0       ??Y?$basic_string@DU?$char_traits@D@std@@V?$allocator@D@2@@std@@QAEAAV01@ABV01@@Z 401ad5b0 f i libcpmtd:locale.obj
 0002:000af5d0       ??_E?$codecvt@DDU_Mbstatet@@@std@@MAEPAXI@Z 401ad5d0 f i libcpmtd:locale.obj
 0002:000af5d0       ??_G?$codecvt@DDU_Mbstatet@@@std@@MAEPAXI@Z 401ad5d0 f i libcpmtd:locale.obj
 0002:000af630       ??_E?$num_get@DV?$istreambuf_iterator@DU?$char_traits@D@std@@@std@@@std@@MAEPAXI@Z 401ad630 f i libcpmtd:locale.obj
 0002:000af630       ??_G?$num_get@DV?$istreambuf_iterator@DU?$char_traits@D@std@@@std@@@std@@MAEPAXI@Z 401ad630 f i libcpmtd:locale.obj
 0002:000af690       ??_Ecodecvt_base@std@@UAEPAXI@Z 401ad690 f i libcpmtd:locale.obj
 0002:000af690       ??_Gcodecvt_base@std@@UAEPAXI@Z 401ad690 f i libcpmtd:locale.obj
 0002:000af6f0       ?_Addfac@_Locimp@locale@std@@AAEXPAVfacet@23@I@Z 401ad6f0 f i libcpmtd:locale.obj
 0002:000af720       ?_Apply_annotation@?$basic_string@DU?$char_traits@D@std@@V?$allocator@D@2@@std@@CAXQBDIII@Z 401ad720 f i libcpmtd:locale.obj
 0002:000af800       ?_Clamp_to_end@_Asan_aligned_pointers@std@@QBEPBXPBX@Z 401ad800 f i libcpmtd:locale.obj
 0002:000af830       ?_Create_annotation@?$basic_string@DU?$char_traits@D@std@@V?$allocator@D@2@@std@@ABEXXZ 401ad830 f i libcpmtd:locale.obj
 0002:000af8a0       ?_Get_asan_aligned_after@std@@YAPBXQBX@Z 401ad8a0 f i libcpmtd:locale.obj
 0002:000af8c0       ?_Getcat@?$codecvt@DDU_Mbstatet@@@std@@SAIPAPBVfacet@locale@2@PBV42@@Z 401ad8c0 f i libcpmtd:locale.obj
 0002:000af9f0       ?_Getcat@?$num_get@DV?$istreambuf_iterator@DU?$char_traits@D@std@@@std@@@std@@SAIPAPBVfacet@locale@2@PBV42@@Z 401ad9f0 f i libcpmtd:locale.obj
 0002:000afb20       ?_Getname@_Locinfo@std@@QBEPBDXZ 401adb20 f i libcpmtd:locale.obj
 0002:000afb40       ?_Inc@?$istreambuf_iterator@DU?$char_traits@D@std@@@std@@AAEXXZ 401adb40 f i libcpmtd:locale.obj
 0002:000afbb0       ?_Init@?$codecvt@DDU_Mbstatet@@@std@@IAEXABV_Locinfo@2@@Z 401adbb0 f i libcpmtd:locale.obj
 0002:000afbc0       ?_Init@?$num_get@DV?$istreambuf_iterator@DU?$char_traits@D@std@@@std@@@std@@IAEXABV_Locinfo@2@@Z 401adbc0 f i libcpmtd:locale.obj
 0002:000afbd0       ?_Locimp_Addfac@_Locimp@locale@std@@CAXPAV123@PAVfacet@23@I@Z 401adbd0 f   libcpmtd:locale.obj
 0002:000afdc0       ?_Locimp_ctor@_Locimp@locale@std@@CAXPAV123@ABV123@@Z 401addc0 f   libcpmtd:locale.obj
 0002:000aff40       ?_Locinfo_Addcats@_Locinfo@std@@SAAAV12@PAV12@HPBD@Z 401adf40 f   libcpmtd:locale.obj
 0002:000b00a0       ?_Locinfo_ctor@_Locinfo@std@@SAXPAV12@HPBD@Z 401ae0a0 f   libcpmtd:locale.obj
 0002:000b0110       ?_Makeloc@_Locimp@locale@std@@CAPAV123@ABV_Locinfo@3@HPAV123@PBV23@@Z 401ae110 f   libcpmtd:locale.obj
 0002:000b06a0       ?_Modify_annotation@?$basic_string@DU?$char_traits@D@std@@V?$allocator@D@2@@std@@ABEXII@Z 401ae6a0 f i libcpmtd:locale.obj
 0002:000b0700       ?_Peek@?$istreambuf_iterator@DU?$char_traits@D@std@@@std@@ABEDXZ 401ae700 f i libcpmtd:locale.obj
 0002:000b0790       ?_Remove_annotation@?$basic_string@DU?$char_traits@D@std@@V?$allocator@D@2@@std@@ABEXXZ 401ae790 f i libcpmtd:locale.obj
 0002:000b0800       ?_Stodx_v3@std@@YANPBDPAPADPAH@Z 401ae800 f i libcpmtd:locale.obj
 0002:000b0860       ?_Stofx_v3@std@@YAMPBDPAPADPAH@Z 401ae860 f i libcpmtd:locale.obj
 0002:000b08c0       ?assign@?$_Char_traits@DH@std@@SAPADQADID@Z 401ae8c0 f i libcpmtd:locale.obj
 0002:000b0910       ?deallocate@?$allocator@U_Container_proxy@std@@@std@@QAEXQAU_Container_proxy@2@I@Z 401ae910 f i libcpmtd:locale.obj
 0002:000b0980       ?do_always_noconv@?$codecvt@DDU_Mbstatet@@@std@@MBE_NXZ 401ae980 f i libcpmtd:locale.obj
 0002:000b0990       ?do_always_noconv@codecvt_base@std@@MBE_NXZ 401ae990 f i libcpmtd:locale.obj
 0002:000b09a0       ?do_encoding@codecvt_base@std@@MBEHXZ 401ae9a0 f i libcpmtd:locale.obj
 0002:000b09c0       ?do_get@?$num_get@DV?$istreambuf_iterator@DU?$char_traits@D@std@@@std@@@std@@MBE?AV?$istreambuf_iterator@DU?$char_traits@D@std@@@2@V32@0AAVios_base@2@AAHAAG@Z 401ae9c0 f i libcpmtd:locale.obj
 0002:000b0bf0       ?do_get@?$num_get@DV?$istreambuf_iterator@DU?$char_traits@D@std@@@std@@@std@@MBE?AV?$istreambuf_iterator@DU?$char_traits@D@std@@@2@V32@0AAVios_base@2@AAHAAI@Z 401aebf0 f i libcpmtd:locale.obj
 0002:000b0c70       ?do_get@?$num_get@DV?$istreambuf_iterator@DU?$char_traits@D@std@@@std@@@std@@MBE?AV?$istreambuf_iterator@DU?$char_traits@D@std@@@2@V32@0AAVios_base@2@AAHAAJ@Z 401aec70 f i libcpmtd:locale.obj
 0002:000b0e10       ?do_get@?$num_get@DV?$istreambuf_iterator@DU?$char_traits@D@std@@@std@@@std@@MBE?AV?$istreambuf_iterator@DU?$char_traits@D@std@@@2@V32@0AAVios_base@2@AAHAAK@Z 401aee10 f i libcpmtd:locale.obj
 0002:000b0fb0       ?do_get@?$num_get@DV?$istreambuf_iterator@DU?$char_traits@D@std@@@std@@@std@@MBE?AV?$istreambuf_iterator@DU?$char_traits@D@std@@@2@V32@0AAVios_base@2@AAHAAM@Z 401aefb0 f i libcpmtd:locale.obj
 0002:000b1170       ?do_get@?$num_get@DV?$istreambuf_iterator@DU?$char_traits@D@std@@@std@@@std@@MBE?AV?$istreambuf_iterator@DU?$char_traits@D@std@@@2@V32@0AAVios_base@2@AAHAAN@Z 401af170 f i libcpmtd:locale.obj
 0002:000b1330       ?do_get@?$num_get@DV?$istreambuf_iterator@DU?$char_traits@D@std@@@std@@@std@@MBE?AV?$istreambuf_iterator@DU?$char_traits@D@std@@@2@V32@0AAVios_base@2@AAHAAO@Z 401af330 f i libcpmtd:locale.obj
 0002:000b13b0       ?do_get@?$num_get@DV?$istreambuf_iterator@DU?$char_traits@D@std@@@std@@@std@@MBE?AV?$istreambuf_iterator@DU?$char_traits@D@std@@@2@V32@0AAVios_base@2@AAHAAPAX@Z 401af3b0 f i libcpmtd:locale.obj
 0002:000b1550       ?do_get@?$num_get@DV?$istreambuf_iterator@DU?$char_traits@D@std@@@std@@@std@@MBE?AV?$istreambuf_iterator@DU?$char_traits@D@std@@@2@V32@0AAVios_base@2@AAHAA_J@Z 401af550 f i libcpmtd:locale.obj
 0002:000b16f0       ?do_get@?$num_get@DV?$istreambuf_iterator@DU?$char_traits@D@std@@@std@@@std@@MBE?AV?$istreambuf_iterator@DU?$char_traits@D@std@@@2@V32@0AAVios_base@2@AAHAA_K@Z 401af6f0 f i libcpmtd:locale.obj
 0002:000b1890       ?do_get@?$num_get@DV?$istreambuf_iterator@DU?$char_traits@D@std@@@std@@@std@@MBE?AV?$istreambuf_iterator@DU?$char_traits@D@std@@@2@V32@0AAVios_base@2@AAHAA_N@Z 401af890 f i libcpmtd:locale.obj
 0002:000b1c90       ?do_in@?$codecvt@DDU_Mbstatet@@@std@@MBEHAAU_Mbstatet@@PBD1AAPBDPAD3AAPAD@Z 401afc90 f i libcpmtd:locale.obj
 0002:000b1cc0       ?do_length@?$codecvt@DDU_Mbstatet@@@std@@MBEHAAU_Mbstatet@@PBD1I@Z 401afcc0 f i libcpmtd:locale.obj
 0002:000b1d20       ?do_max_length@codecvt_base@std@@MBEHXZ 401afd20 f i libcpmtd:locale.obj
 0002:000b1d40       ?do_out@?$codecvt@DDU_Mbstatet@@@std@@MBEHAAU_Mbstatet@@PBD1AAPBDPAD3AAPAD@Z 401afd40 f i libcpmtd:locale.obj
 0002:000b1d70       ?do_unshift@?$codecvt@DDU_Mbstatet@@@std@@MBEHAAU_Mbstatet@@PAD1AAPAD@Z 401afd70 f i libcpmtd:locale.obj
 0002:000b1d90       ?equal@?$istreambuf_iterator@DU?$char_traits@D@std@@@std@@QBE_NABV12@@Z 401afd90 f i libcpmtd:locale.obj
 0002:000b1e20       ?global@locale@std@@SA?AV12@ABV12@@Z 401afe20 f   libcpmtd:locale.obj
 0002:000b2010       ?is_constant_evaluated@std@@YA_NXZ 401b0010 f i libcpmtd:locale.obj
 0002:000b2020       ?sbumpc@?$basic_streambuf@DU?$char_traits@D@std@@@std@@QAEHXZ 401b0020 f i libcpmtd:locale.obj
 0002:000b20a0       ?sgetc@?$basic_streambuf@DU?$char_traits@D@std@@@std@@QAEHXZ 401b00a0 f i libcpmtd:locale.obj
 0002:000b2120       ?tolower@?$ctype@D@std@@QBEDD@Z 401b0120 f i libcpmtd:locale.obj
 0002:000b2170       ??1_Init_atexit@@QAE@XZ    401b0170 f i libcpmtd:iosptrs.obj
 0002:000b2220       ?_Atexit@@YAXP6AXXZ@Z      401b0220 f   libcpmtd:iosptrs.obj
 0002:000b2280       ??0?$__crt_scoped_stack_ptr@_W@@QAE@U?$__crt_scoped_stack_ptr_tag@_W@@@Z 401b0280 f i libcpmtd:StlLCMapStringA.obj
 0002:000b22a0       ??0?$__crt_scoped_stack_ptr_tag@_W@@QAE@QA_W@Z 401b02a0 f i libcpmtd:StlLCMapStringA.obj
 0002:000b22c0       ??1?$__crt_scoped_stack_ptr@_W@@QAE@XZ 401b02c0 f i libcpmtd:StlLCMapStringA.obj
 0002:000b22e0       ??B?$__crt_scoped_stack_ptr@_W@@QBE_NXZ 401b02e0 f i libcpmtd:StlLCMapStringA.obj
 0002:000b2320       ?get@?$__crt_scoped_stack_ptr@_W@@QBEPA_WXZ 401b0320 f i libcpmtd:StlLCMapStringA.obj
 0002:000b2340       __MallocaComputeSize       401b0340 f i libcpmtd:StlLCMapStringA.obj
 0002:000b2380       __MarkAllocaS              401b0380 f i libcpmtd:StlLCMapStringA.obj
 0002:000b23b0       ___crtLCMapStringA         401b03b0 f   libcpmtd:StlLCMapStringA.obj
 0002:000b2800       __freea_crt                401b0800 f i libcpmtd:StlLCMapStringA.obj
 0002:0010b460       ___std_adjacent_find_1@8   40209460 f   libcpmtd:vector_algorithms.obj
 0002:0010b480       ___std_adjacent_find_2@8   40209480 f   libcpmtd:vector_algorithms.obj
 0002:0010b4a0       ___std_adjacent_find_4@8   402094a0 f   libcpmtd:vector_algorithms.obj
 0002:0010b4c0       ___std_adjacent_find_8@8   402094c0 f   libcpmtd:vector_algorithms.obj
 0002:0010b4e0       ___std_bitset_from_string_1@28 402094e0 f   libcpmtd:vector_algorithms.obj
 0002:0010b520       ___std_bitset_from_string_2@28 40209520 f   libcpmtd:vector_algorithms.obj
 0002:0010b560       ___std_bitset_to_string_1@20 40209560 f   libcpmtd:vector_algorithms.obj
 0002:0010b590       ___std_bitset_to_string_2@20 40209590 f   libcpmtd:vector_algorithms.obj
 0002:0010b5c0       ___std_count_trivial_1@12  402095c0 f   libcpmtd:vector_algorithms.obj
 0002:0010b5e0       ___std_count_trivial_2@12  402095e0 f   libcpmtd:vector_algorithms.obj
 0002:0010b600       ___std_count_trivial_4@12  40209600 f   libcpmtd:vector_algorithms.obj
 0002:0010b620       ___std_count_trivial_8@16  40209620 f   libcpmtd:vector_algorithms.obj
 0002:0010b650       ___std_find_end_1@16       40209650 f   libcpmtd:vector_algorithms.obj
 0002:0010b680       ___std_find_end_2@16       40209680 f   libcpmtd:vector_algorithms.obj
 0002:0010b6b0       ___std_find_end_4@16       402096b0 f   libcpmtd:vector_algorithms.obj
 0002:0010b6e0       ___std_find_end_8@16       402096e0 f   libcpmtd:vector_algorithms.obj
 0002:0010b710       ___std_find_first_not_of_trivial_pos_1@16 40209710 f   libcpmtd:vector_algorithms.obj
 0002:0010b740       ___std_find_first_not_of_trivial_pos_2@16 40209740 f   libcpmtd:vector_algorithms.obj
 0002:0010b770       ___std_find_first_of_trivial_1@16 40209770 f   libcpmtd:vector_algorithms.obj
 0002:0010b7a0       ___std_find_first_of_trivial_2@16 402097a0 f   libcpmtd:vector_algorithms.obj
 0002:0010b7d0       ___std_find_first_of_trivial_4@16 402097d0 f   libcpmtd:vector_algorithms.obj
 0002:0010b800       ___std_find_first_of_trivial_8@16 40209800 f   libcpmtd:vector_algorithms.obj
 0002:0010b830       ___std_find_first_of_trivial_pos_1@16 40209830 f   libcpmtd:vector_algorithms.obj
 0002:0010b860       ___std_find_first_of_trivial_pos_2@16 40209860 f   libcpmtd:vector_algorithms.obj
 0002:0010b890       ___std_find_first_of_trivial_pos_4@16 40209890 f   libcpmtd:vector_algorithms.obj
 0002:0010b8c0       ___std_find_first_of_trivial_pos_8@16 402098c0 f   libcpmtd:vector_algorithms.obj
 0002:0010b8f0       ___std_find_last_not_ch_pos_1@12 402098f0 f   libcpmtd:vector_algorithms.obj
 0002:0010b910       ___std_find_last_not_ch_pos_2@12 40209910 f   libcpmtd:vector_algorithms.obj
 0002:0010b930       ___std_find_last_not_ch_pos_4@12 40209930 f   libcpmtd:vector_algorithms.obj
 0002:0010b950       ___std_find_last_not_ch_pos_8@16 40209950 f   libcpmtd:vector_algorithms.obj
 0002:0010b980       ___std_find_last_not_of_trivial_pos_1@16 40209980 f   libcpmtd:vector_algorithms.obj
 0002:0010b9b0       ___std_find_last_not_of_trivial_pos_2@16 402099b0 f   libcpmtd:vector_algorithms.obj
 0002:0010b9e0       ___std_find_last_of_trivial_pos_1@16 402099e0 f   libcpmtd:vector_algorithms.obj
 0002:0010ba10       ___std_find_last_of_trivial_pos_2@16 40209a10 f   libcpmtd:vector_algorithms.obj
 0002:0010ba40       ___std_find_last_trivial_1@12 40209a40 f   libcpmtd:vector_algorithms.obj
 0002:0010ba60       ___std_find_last_trivial_2@12 40209a60 f   libcpmtd:vector_algorithms.obj
 0002:0010ba80       ___std_find_last_trivial_4@12 40209a80 f   libcpmtd:vector_algorithms.obj
 0002:0010baa0       ___std_find_last_trivial_8@16 40209aa0 f   libcpmtd:vector_algorithms.obj
 0002:0010bad0       ___std_find_not_ch_1@12    40209ad0 f   libcpmtd:vector_algorithms.obj
 0002:0010baf0       ___std_find_not_ch_2@12    40209af0 f   libcpmtd:vector_algorithms.obj
 0002:0010bb10       ___std_find_not_ch_4@12    40209b10 f   libcpmtd:vector_algorithms.obj
 0002:0010bb30       ___std_find_not_ch_8@16    40209b30 f   libcpmtd:vector_algorithms.obj
 0002:0010bb60       ___std_find_trivial_1@12   40209b60 f   libcpmtd:vector_algorithms.obj
 0002:0010bb80       ___std_find_trivial_2@12   40209b80 f   libcpmtd:vector_algorithms.obj
 0002:0010bba0       ___std_find_trivial_4@12   40209ba0 f   libcpmtd:vector_algorithms.obj
 0002:0010bbc0       ___std_find_trivial_8@16   40209bc0 f   libcpmtd:vector_algorithms.obj
 0002:0010bbf0       ___std_find_trivial_unsized_1@8 40209bf0 f   libcpmtd:vector_algorithms.obj
 0002:0010bc10       ___std_find_trivial_unsized_2@8 40209c10 f   libcpmtd:vector_algorithms.obj
 0002:0010bc30       ___std_find_trivial_unsized_4@8 40209c30 f   libcpmtd:vector_algorithms.obj
 0002:0010bc50       ___std_find_trivial_unsized_8@12 40209c50 f   libcpmtd:vector_algorithms.obj
 0002:0010bc70       ___std_is_sorted_until_1i@12 40209c70 f   libcpmtd:vector_algorithms.obj
 0002:0010bc90       ___std_is_sorted_until_1u@12 40209c90 f   libcpmtd:vector_algorithms.obj
 0002:0010bcb0       ___std_is_sorted_until_2i@12 40209cb0 f   libcpmtd:vector_algorithms.obj
 0002:0010bcd0       ___std_is_sorted_until_2u@12 40209cd0 f   libcpmtd:vector_algorithms.obj
 0002:0010bcf0       ___std_is_sorted_until_4i@12 40209cf0 f   libcpmtd:vector_algorithms.obj
 0002:0010bd10       ___std_is_sorted_until_4u@12 40209d10 f   libcpmtd:vector_algorithms.obj
 0002:0010bd30       ___std_is_sorted_until_8i@12 40209d30 f   libcpmtd:vector_algorithms.obj
 0002:0010bd50       ___std_is_sorted_until_8u@12 40209d50 f   libcpmtd:vector_algorithms.obj
 0002:0010bd70       ___std_is_sorted_until_d@12 40209d70 f   libcpmtd:vector_algorithms.obj
 0002:0010bd90       ___std_is_sorted_until_f@12 40209d90 f   libcpmtd:vector_algorithms.obj
 0002:0010bdb0       ___std_max_1i@8            40209db0 f   libcpmtd:vector_algorithms.obj
 0002:0010bdd0       ___std_max_1u@8            40209dd0 f   libcpmtd:vector_algorithms.obj
 0002:0010bdf0       ___std_max_2i@8            40209df0 f   libcpmtd:vector_algorithms.obj
 0002:0010be10       ___std_max_2u@8            40209e10 f   libcpmtd:vector_algorithms.obj
 0002:0010be30       ___std_max_4i@8            40209e30 f   libcpmtd:vector_algorithms.obj
 0002:0010be50       ___std_max_4u@8            40209e50 f   libcpmtd:vector_algorithms.obj
 0002:0010be70       ___std_max_8i@8            40209e70 f   libcpmtd:vector_algorithms.obj
 0002:0010be90       ___std_max_8u@8            40209e90 f   libcpmtd:vector_algorithms.obj
 0002:0010beb0       ___std_max_d@8             40209eb0 f   libcpmtd:vector_algorithms.obj
 0002:0010bed0       ___std_max_element_1@12    40209ed0 f   libcpmtd:vector_algorithms.obj
 0002:0010bef0       ___std_max_element_2@12    40209ef0 f   libcpmtd:vector_algorithms.obj
 0002:0010bf10       ___std_max_element_4@12    40209f10 f   libcpmtd:vector_algorithms.obj
 0002:0010bf30       ___std_max_element_8@12    40209f30 f   libcpmtd:vector_algorithms.obj
 0002:0010bf50       ___std_max_element_d@12    40209f50 f   libcpmtd:vector_algorithms.obj
 0002:0010bf70       ___std_max_element_f@12    40209f70 f   libcpmtd:vector_algorithms.obj
 0002:0010bf90       ___std_max_f@8             40209f90 f   libcpmtd:vector_algorithms.obj
 0002:0010bfb0       ___std_min_1i@8            40209fb0 f   libcpmtd:vector_algorithms.obj
 0002:0010bfd0       ___std_min_1u@8            40209fd0 f   libcpmtd:vector_algorithms.obj
 0002:0010bff0       ___std_min_2i@8            40209ff0 f   libcpmtd:vector_algorithms.obj
 0002:0010c010       ___std_min_2u@8            4020a010 f   libcpmtd:vector_algorithms.obj
 0002:0010c030       ___std_min_4i@8            4020a030 f   libcpmtd:vector_algorithms.obj
 0002:0010c050       ___std_min_4u@8            4020a050 f   libcpmtd:vector_algorithms.obj
 0002:0010c070       ___std_min_8i@8            4020a070 f   libcpmtd:vector_algorithms.obj
 0002:0010c090       ___std_min_8u@8            4020a090 f   libcpmtd:vector_algorithms.obj
 0002:0010c0b0       ___std_min_d@8             4020a0b0 f   libcpmtd:vector_algorithms.obj
 0002:0010c0d0       ___std_min_element_1@12    4020a0d0 f   libcpmtd:vector_algorithms.obj
 0002:0010c0f0       ___std_min_element_2@12    4020a0f0 f   libcpmtd:vector_algorithms.obj
 0002:0010c110       ___std_min_element_4@12    4020a110 f   libcpmtd:vector_algorithms.obj
 0002:0010c130       ___std_min_element_8@12    4020a130 f   libcpmtd:vector_algorithms.obj
 0002:0010c150       ___std_min_element_d@12    4020a150 f   libcpmtd:vector_algorithms.obj
 0002:0010c170       ___std_min_element_f@12    4020a170 f   libcpmtd:vector_algorithms.obj
 0002:0010c190       ___std_min_f@8             4020a190 f   libcpmtd:vector_algorithms.obj
 0002:0010c1b0       ___std_minmax_1i@8         4020a1b0 f   libcpmtd:vector_algorithms.obj
 0002:0010c1e0       ___std_minmax_1u@8         4020a1e0 f   libcpmtd:vector_algorithms.obj
 0002:0010c210       ___std_minmax_2i@8         4020a210 f   libcpmtd:vector_algorithms.obj
 0002:0010c240       ___std_minmax_2u@8         4020a240 f   libcpmtd:vector_algorithms.obj
 0002:0010c270       ___std_minmax_4i@8         4020a270 f   libcpmtd:vector_algorithms.obj
 0002:0010c2a0       ___std_minmax_4u@8         4020a2a0 f   libcpmtd:vector_algorithms.obj
 0002:0010c2d0       ___std_minmax_8i@8         4020a2d0 f   libcpmtd:vector_algorithms.obj
 0002:0010c320       ___std_minmax_8u@8         4020a320 f   libcpmtd:vector_algorithms.obj
 0002:0010c370       ___std_minmax_d@8          4020a370 f   libcpmtd:vector_algorithms.obj
 0002:0010c3c0       ___std_minmax_element_1@12 4020a3c0 f   libcpmtd:vector_algorithms.obj
 0002:0010c400       ___std_minmax_element_2@12 4020a400 f   libcpmtd:vector_algorithms.obj
 0002:0010c440       ___std_minmax_element_4@12 4020a440 f   libcpmtd:vector_algorithms.obj
 0002:0010c480       ___std_minmax_element_8@12 4020a480 f   libcpmtd:vector_algorithms.obj
 0002:0010c4c0       ___std_minmax_element_d@12 4020a4c0 f   libcpmtd:vector_algorithms.obj
 0002:0010c4f0       ___std_minmax_element_f@12 4020a4f0 f   libcpmtd:vector_algorithms.obj
 0002:0010c520       ___std_minmax_f@8          4020a520 f   libcpmtd:vector_algorithms.obj
 0002:0010c550       ___std_mismatch_1@12       4020a550 f   libcpmtd:vector_algorithms.obj
 0002:0010c570       ___std_mismatch_2@12       4020a570 f   libcpmtd:vector_algorithms.obj
 0002:0010c590       ___std_mismatch_4@12       4020a590 f   libcpmtd:vector_algorithms.obj
 0002:0010c5b0       ___std_mismatch_8@12       4020a5b0 f   libcpmtd:vector_algorithms.obj
 0002:0010c5d0       ___std_remove_1@12         4020a5d0 f   libcpmtd:vector_algorithms.obj
 0002:0010c680       ___std_remove_2@12         4020a680 f   libcpmtd:vector_algorithms.obj
 0002:0010c730       ___std_remove_4@12         4020a730 f   libcpmtd:vector_algorithms.obj
 0002:0010c840       ___std_remove_8@16         4020a840 f   libcpmtd:vector_algorithms.obj
 0002:0010c960       ___std_remove_copy_1@16    4020a960 f   libcpmtd:vector_algorithms.obj
 0002:0010ca10       ___std_remove_copy_2@16    4020aa10 f   libcpmtd:vector_algorithms.obj
 0002:0010cac0       ___std_remove_copy_4@16    4020aac0 f   libcpmtd:vector_algorithms.obj
 0002:0010cbd0       ___std_remove_copy_8@20    4020abd0 f   libcpmtd:vector_algorithms.obj
 0002:0010ccf0       ___std_replace_4@16        4020acf0 f   libcpmtd:vector_algorithms.obj
 0002:0010cf60       ___std_replace_8@24        4020af60 f   libcpmtd:vector_algorithms.obj
 0002:0010d1f0       ___std_reverse_copy_trivially_copyable_1 4020b1f0 f   libcpmtd:vector_algorithms.obj
 0002:0010d210       ___std_reverse_copy_trivially_copyable_2 4020b210 f   libcpmtd:vector_algorithms.obj
 0002:0010d230       ___std_reverse_copy_trivially_copyable_4 4020b230 f   libcpmtd:vector_algorithms.obj
 0002:0010d250       ___std_reverse_copy_trivially_copyable_8 4020b250 f   libcpmtd:vector_algorithms.obj
 0002:0010d270       ___std_reverse_trivially_swappable_1 4020b270 f   libcpmtd:vector_algorithms.obj
 0002:0010d290       ___std_reverse_trivially_swappable_2 4020b290 f   libcpmtd:vector_algorithms.obj
 0002:0010d2b0       ___std_reverse_trivially_swappable_4 4020b2b0 f   libcpmtd:vector_algorithms.obj
 0002:0010d2d0       ___std_reverse_trivially_swappable_8 4020b2d0 f   libcpmtd:vector_algorithms.obj
 0002:0010d2f0       ___std_rotate@12           4020b2f0 f   libcpmtd:vector_algorithms.obj
 0002:0010d680       ___std_search_1@16         4020b680 f   libcpmtd:vector_algorithms.obj
 0002:0010d6b0       ___std_search_2@16         4020b6b0 f   libcpmtd:vector_algorithms.obj
 0002:0010d6e0       ___std_search_4@16         4020b6e0 f   libcpmtd:vector_algorithms.obj
 0002:0010d710       ___std_search_8@16         4020b710 f   libcpmtd:vector_algorithms.obj
 0002:0010d740       ___std_search_n_1@16       4020b740 f   libcpmtd:vector_algorithms.obj
 0002:0010d770       ___std_search_n_2@16       4020b770 f   libcpmtd:vector_algorithms.obj
 0002:0010d7a0       ___std_search_n_4@16       4020b7a0 f   libcpmtd:vector_algorithms.obj
 0002:0010d7d0       ___std_search_n_8@20       4020b7d0 f   libcpmtd:vector_algorithms.obj
 0002:0010d800       ___std_swap_ranges_trivially_swappable 4020b800 f   libcpmtd:vector_algorithms.obj
 0002:0010d830       ___std_swap_ranges_trivially_swappable_noalias 4020b830 f   libcpmtd:vector_algorithms.obj
 0002:0010db50       ___std_unique_1@8          4020bb50 f   libcpmtd:vector_algorithms.obj
 0002:0010dc30       ___std_unique_2@8          4020bc30 f   libcpmtd:vector_algorithms.obj
 0002:0010dd10       ___std_unique_4@8          4020bd10 f   libcpmtd:vector_algorithms.obj
 0002:0010de50       ___std_unique_8@8          4020be50 f   libcpmtd:vector_algorithms.obj
 0002:0010df90       ___std_unique_copy_1@12    4020bf90 f   libcpmtd:vector_algorithms.obj
 0002:0010e070       ___std_unique_copy_2@12    4020c070 f   libcpmtd:vector_algorithms.obj
 0002:0010e150       ___std_unique_copy_4@12    4020c150 f   libcpmtd:vector_algorithms.obj
 0002:0010e290       ___std_unique_copy_8@12    4020c290 f   libcpmtd:vector_algorithms.obj
 0002:0010e3d0       ??$?0$$V@?$_Compressed_pair@V?$allocator@G@std@@V?$_String_val@U?$_Simple_types@G@std@@@2@$00@std@@QAE@U_Zero_then_variadic_args_t@1@@Z 4020c3d0 f i libcpmtd:wlocale.obj
 0002:0010e400       ??$?0$$V@?$_Compressed_pair@V?$allocator@_W@std@@V?$_String_val@U?$_Simple_types@_W@std@@@2@$00@std@@QAE@U_Zero_then_variadic_args_t@1@@Z 4020c400 f i libcpmtd:wlocale.obj
 0002:0010e430       ??$?0G@?$allocator@U_Container_proxy@std@@@std@@QAE@ABV?$allocator@G@1@@Z 4020c430 f i libcpmtd:wlocale.obj
 0002:0010e450       ??$?0V?$allocator@G@std@@$$V@?$_Compressed_pair@V?$allocator@G@std@@V?$_String_val@U?$_Simple_types@G@std@@@2@$00@std@@QAE@U_One_then_variadic_args_t@1@$$QAV?$allocator@G@1@@Z 4020c450 f i libcpmtd:wlocale.obj
 0002:0010e470       ??$?0V?$allocator@_W@std@@$$V@?$_Compressed_pair@V?$allocator@_W@std@@V?$_String_val@U?$_Simple_types@_W@std@@@2@$00@std@@QAE@U_One_then_variadic_args_t@1@$$QAV?$allocator@_W@1@@Z 4020c470 f i libcpmtd:wlocale.obj
 0002:0010e490       ??$?0_W@?$allocator@U_Container_proxy@std@@@std@@QAE@ABV?$allocator@_W@1@@Z 4020c490 f i libcpmtd:wlocale.obj
 0002:0010e4b0       ??$?8GU?$char_traits@G@std@@@std@@YA_NABV?$istreambuf_iterator@GU?$char_traits@G@std@@@0@0@Z 4020c4b0 f i libcpmtd:wlocale.obj
 0002:0010e4d0       ??$?8_WU?$char_traits@_W@std@@@std@@YA_NABV?$istreambuf_iterator@_WU?$char_traits@_W@std@@@0@0@Z 4020c4d0 f i libcpmtd:wlocale.obj
 0002:0010e4f0       ??$_Adl_verify_range@PAGPAG@std@@YAXABQAG0@Z 4020c4f0 f i libcpmtd:wlocale.obj
 0002:0010e540       ??$_Adl_verify_range@PAGPBG@std@@YAXABQAGABQBG@Z 4020c540 f i libcpmtd:wlocale.obj
 0002:0010e590       ??$_Adl_verify_range@PA_WPA_W@std@@YAXABQA_W0@Z 4020c590 f i libcpmtd:wlocale.obj
 0002:0010e5e0       ??$_Adl_verify_range@PA_WPB_W@std@@YAXABQA_WABQB_W@Z 4020c5e0 f i libcpmtd:wlocale.obj
 0002:0010e630       ??$_Adl_verify_range@PBGPBG@std@@YAXABQBG0@Z 4020c630 f i libcpmtd:wlocale.obj
 0002:0010e680       ??$_Adl_verify_range@PB_WPB_W@std@@YAXABQB_W0@Z 4020c680 f i libcpmtd:wlocale.obj
 0002:0010e6d0       ??$_Adl_verify_range@V?$istreambuf_iterator@GU?$char_traits@G@std@@@std@@V12@@std@@YAXABV?$istreambuf_iterator@GU?$char_traits@G@std@@@0@0@Z 4020c6d0 f i libcpmtd:wlocale.obj
 0002:0010e6e0       ??$_Adl_verify_range@V?$istreambuf_iterator@_WU?$char_traits@_W@std@@@std@@V12@@std@@YAXABV?$istreambuf_iterator@_WU?$char_traits@_W@std@@@0@0@Z 4020c6e0 f i libcpmtd:wlocale.obj
 0002:0010e6f0       ??$_Allocate_at_least_helper@V?$allocator@G@std@@@std@@YAPAGAAV?$allocator@G@0@AAI@Z 4020c6f0 f i libcpmtd:wlocale.obj
 0002:0010e710       ??$_Allocate_at_least_helper@V?$allocator@_W@std@@@std@@YAPA_WAAV?$allocator@_W@0@AAI@Z 4020c710 f i libcpmtd:wlocale.obj
 0002:0010e730       ??$_Allocate_for_capacity@$0A@@?$basic_string@GU?$char_traits@G@std@@V?$allocator@G@2@@std@@CAPAGAAV?$allocator@G@1@AAI@Z 4020c730 f i libcpmtd:wlocale.obj
 0002:0010e7e0       ??$_Allocate_for_capacity@$0A@@?$basic_string@_WU?$char_traits@_W@std@@V?$allocator@_W@2@@std@@CAPA_WAAV?$allocator@_W@1@AAI@Z 4020c7e0 f i libcpmtd:wlocale.obj
 0002:0010e890       ??$_Append@G@?$basic_string@GU?$char_traits@G@std@@V?$allocator@G@2@@std@@AAEAAV01@QBGI@Z 4020c890 f i libcpmtd:wlocale.obj
 0002:0010e960       ??$_Append@_W@?$basic_string@_WU?$char_traits@_W@std@@V?$allocator@_W@2@@std@@AAEAAV01@QB_WI@Z 4020c960 f i libcpmtd:wlocale.obj
 0002:0010ea30       ??$_Construct@$00PBG@?$basic_string@GU?$char_traits@G@std@@V?$allocator@G@2@@std@@AAEXQBGI@Z 4020ca30 f i libcpmtd:wlocale.obj
 0002:0010ec40       ??$_Construct@$00PB_W@?$basic_string@_WU?$char_traits@_W@std@@V?$allocator@_W@2@@std@@AAEXQB_WI@Z 4020cc40 f i libcpmtd:wlocale.obj
 0002:0010ee50       ??$_Construct@$01PBG@?$basic_string@GU?$char_traits@G@std@@V?$allocator@G@2@@std@@AAEXQBGI@Z 4020ce50 f i libcpmtd:wlocale.obj
 0002:0010f010       ??$_Construct@$01PB_W@?$basic_string@_WU?$char_traits@_W@std@@V?$allocator@_W@2@@std@@AAEXQB_WI@Z 4020d010 f i libcpmtd:wlocale.obj
 0002:0010f1d0       ??$_Construct@$0A@G@?$basic_string@GU?$char_traits@G@std@@V?$allocator@G@2@@std@@AAEXGI@Z 4020d1d0 f i libcpmtd:wlocale.obj
 0002:0010f3e0       ??$_Construct@$0A@_W@?$basic_string@_WU?$char_traits@_W@std@@V?$allocator@_W@2@@std@@AAEX_WI@Z 4020d3e0 f i libcpmtd:wlocale.obj
 0002:0010f5f0       ??$_Construct_in_place@PAGAAPAG@std@@YAXAAPAG0@Z 4020d5f0 f i libcpmtd:wlocale.obj
 0002:0010f660       ??$_Construct_in_place@PAGABQAG@std@@YAXAAPAGABQAG@Z 4020d660 f i libcpmtd:wlocale.obj
 0002:0010f6d0       ??$_Construct_in_place@PA_WAAPA_W@std@@YAXAAPA_W0@Z 4020d6d0 f i libcpmtd:wlocale.obj
 0002:0010f740       ??$_Construct_in_place@PA_WABQA_W@std@@YAXAAPA_WABQA_W@Z 4020d740 f i libcpmtd:wlocale.obj
 0002:0010f7b0       ??$_Copy_unchecked@PA_WPA_WV?$ostreambuf_iterator@GU?$char_traits@G@std@@@std@@@std@@YA?AV?$ostreambuf_iterator@GU?$char_traits@G@std@@@0@PA_W0V10@@Z 4020d7b0 f i libcpmtd:wlocale.obj
 0002:0010f820       ??$_Copy_unchecked@PA_WPA_WV?$ostreambuf_iterator@_WU?$char_traits@_W@std@@@std@@@std@@YA?AV?$ostreambuf_iterator@_WU?$char_traits@_W@std@@@0@PA_W0V10@@Z 4020d820 f i libcpmtd:wlocale.obj
 0002:0010f890       ??$_Could_compare_equal_to_value_type@PBGG@std@@YA_NABG@Z 4020d890 f i libcpmtd:wlocale.obj
 0002:0010f8e0       ??$_Could_compare_equal_to_value_type@PB_W_W@std@@YA_NAB_W@Z 4020d8e0 f i libcpmtd:wlocale.obj
 0002:0010f930       ??$_Destroy_in_place@PAG@std@@YAXAAPAG@Z 4020d930 f i libcpmtd:wlocale.obj
 0002:0010f940       ??$_Destroy_in_place@PA_W@std@@YAXAAPA_W@Z 4020d940 f i libcpmtd:wlocale.obj
 0002:0010f950       ??$_Find_elem@G$0BL@@std@@YAIAAY0BL@$$CBGG@Z 4020d950 f i libcpmtd:wlocale.obj
 0002:0010f980       ??$_Find_elem@G$0BN@@std@@YAIAAY0BN@$$CBGG@Z 4020d980 f i libcpmtd:wlocale.obj
 0002:0010f9b0       ??$_Find_elem@G$0M@@std@@YAIAAY0M@$$CBGG@Z 4020d9b0 f i libcpmtd:wlocale.obj
 0002:0010f9e0       ??$_Find_elem@_W$0BL@@std@@YAIAAY0BL@$$CB_W_W@Z 4020d9e0 f i libcpmtd:wlocale.obj
 0002:0010fa10       ??$_Find_elem@_W$0BN@@std@@YAIAAY0BN@$$CB_W_W@Z 4020da10 f i libcpmtd:wlocale.obj
 0002:0010fa40       ??$_Find_elem@_W$0M@@std@@YAIAAY0M@$$CB_W_W@Z 4020da40 f i libcpmtd:wlocale.obj
 0002:0010fa70       ??$_Find_unchecked@PBGG@std@@YAPBGPBGQBGABG@Z 4020da70 f i libcpmtd:wlocale.obj
 0002:0010fb40       ??$_Find_unchecked@PB_W_W@std@@YAPB_WPB_WQB_WAB_W@Z 4020db40 f i libcpmtd:wlocale.obj
 0002:0010fc10       ??$_Find_vectorized@$$CBGG@std@@YAPBGQBG0G@Z 4020dc10 f i libcpmtd:wlocale.obj
 0002:0010fc30       ??$_Find_vectorized@$$CB_W_W@std@@YAPB_WQB_W0_W@Z 4020dc30 f i libcpmtd:wlocale.obj
 0002:0010fc50       ??$_Fput_v3@$0A@@?$num_put@GV?$ostreambuf_iterator@GU?$char_traits@G@std@@@std@@@std@@ABE?AV?$ostreambuf_iterator@GU?$char_traits@G@std@@@1@V21@AAVios_base@1@GPBDI_N@Z 4020dc50 f i libcpmtd:wlocale.obj
 0002:001102b0       ??$_Fput_v3@$0A@@?$num_put@_WV?$ostreambuf_iterator@_WU?$char_traits@_W@std@@@std@@@std@@ABE?AV?$ostreambuf_iterator@_WU?$char_traits@_W@std@@@1@V21@AAVios_base@1@_WPBDI_N@Z 4020e2b0 f i libcpmtd:wlocale.obj
 0002:00110910       ??$_Get_proxy_allocator@V?$allocator@G@std@@@std@@YA?AV?$allocator@U_Container_proxy@std@@@0@ABV?$allocator@G@0@@Z 4020e910 f i libcpmtd:wlocale.obj
 0002:00110930       ??$_Get_proxy_allocator@V?$allocator@_W@std@@@std@@YA?AV?$allocator@U_Container_proxy@std@@@0@ABV?$allocator@_W@0@@Z 4020e930 f i libcpmtd:wlocale.obj
 0002:00110950       ??$_Get_size_of_n@$01@std@@YAII@Z 4020e950 f i libcpmtd:wlocale.obj
 0002:00110990       ??$_Get_unwrapped@AAPA_W@std@@YA?A_TAAPA_W@Z 4020e990 f i libcpmtd:wlocale.obj
 0002:001109a0       ??$_Get_unwrapped_n@V?$ostreambuf_iterator@GU?$char_traits@G@std@@@std@@H@std@@YA?A_T$$QAV?$ostreambuf_iterator@GU?$char_traits@G@std@@@0@H@Z 4020e9a0 f i libcpmtd:wlocale.obj
 0002:001109b0       ??$_Get_unwrapped_n@V?$ostreambuf_iterator@_WU?$char_traits@_W@std@@@std@@H@std@@YA?A_T$$QAV?$ostreambuf_iterator@_WU?$char_traits@_W@std@@@0@H@Z 4020e9b0 f i libcpmtd:wlocale.obj
 0002:001109c0       ??$_Getint_v2@V?$istreambuf_iterator@GU?$char_traits@G@std@@@std@@G@std@@YAHAAV?$istreambuf_iterator@GU?$char_traits@G@std@@@0@0HHAAH1ABV?$ctype@G@0@@Z 4020e9c0 f i libcpmtd:wlocale.obj
 0002:00110d50       ??$_Getint_v2@V?$istreambuf_iterator@_WU?$char_traits@_W@std@@@std@@_W@std@@YAHAAV?$istreambuf_iterator@_WU?$char_traits@_W@std@@@0@0HHAAH1ABV?$ctype@_W@0@@Z 4020ed50 f i libcpmtd:wlocale.obj
 0002:001110e0       ??$_Getloctxt@V?$istreambuf_iterator@GU?$char_traits@G@std@@@std@@D@std@@YAHAAV?$istreambuf_iterator@GU?$char_traits@G@std@@@0@0IPBDW4_Case_sensitive@0@@Z 4020f0e0 f i libcpmtd:wlocale.obj
 0002:00111490       ??$_Getloctxt@V?$istreambuf_iterator@GU?$char_traits@G@std@@@std@@G@std@@YAHAAV?$istreambuf_iterator@GU?$char_traits@G@std@@@0@0IPBGW4_Case_sensitive@0@@Z 4020f490 f i libcpmtd:wlocale.obj
 0002:00111850       ??$_Getloctxt@V?$istreambuf_iterator@_WU?$char_traits@_W@std@@@std@@D@std@@YAHAAV?$istreambuf_iterator@_WU?$char_traits@_W@std@@@0@0IPBDW4_Case_sensitive@0@@Z 4020f850 f i libcpmtd:wlocale.obj
 0002:00111c00       ??$_Getloctxt@V?$istreambuf_iterator@_WU?$char_traits@_W@std@@@std@@_W@std@@YAHAAV?$istreambuf_iterator@_WU?$char_traits@_W@std@@@0@0IPB_WW4_Case_sensitive@0@@Z 4020fc00 f i libcpmtd:wlocale.obj
 0002:00111fc0       ??$_Getvals@G@?$time_get@GV?$istreambuf_iterator@GU?$char_traits@G@std@@@std@@@std@@IAEXGABV_Locinfo@1@@Z 4020ffc0 f i libcpmtd:wlocale.obj
 0002:00112090       ??$_Getvals@_W@?$time_get@_WV?$istreambuf_iterator@_WU?$char_traits@_W@std@@@std@@@std@@IAEX_WABV_Locinfo@1@@Z 40210090 f i libcpmtd:wlocale.obj
 0002:00112140       ??$_Hash_array_representation@G@std@@YAIQBGI@Z 40210140 f i libcpmtd:wlocale.obj
 0002:00112170       ??$_Hash_array_representation@_W@std@@YAIQB_WI@Z 40210170 f i libcpmtd:wlocale.obj
 0002:001121a0       ??$_Idl_distance@PA_WPA_W@std@@YA?A_PABQA_W0@Z 402101a0 f i libcpmtd:wlocale.obj
 0002:001121c0       ??$_LStrcoll@G@std@@YAHPBG000PBU_Collvec@@@Z 402101c0 f i libcpmtd:wlocale.obj
 0002:001121f0       ??$_LStrcoll@_W@std@@YAHPB_W000PBU_Collvec@@@Z 402101f0 f i libcpmtd:wlocale.obj
 0002:00112220       ??$_LStrxfrm@G@std@@YAIPAG0PBG1PBU_Collvec@@@Z 40210220 f i libcpmtd:wlocale.obj
 0002:00112250       ??$_LStrxfrm@_W@std@@YAIPA_W0PB_W1PBU_Collvec@@@Z 40210250 f i libcpmtd:wlocale.obj
 0002:00112280       ??$_Maklocchr@G@std@@YAGDPAGABU_Cvtvec@@@Z 40210280 f i libcpmtd:wlocale.obj
 0002:001122d0       ??$_Maklocchr@_W@std@@YA_WDPA_WABU_Cvtvec@@@Z 402102d0 f i libcpmtd:wlocale.obj
 0002:00112320       ??$_Maklocstr@G@std@@YAPAGPBDPAGABU_Cvtvec@@@Z 40210320 f i libcpmtd:wlocale.obj
 0002:00112490       ??$_Maklocstr@_W@std@@YAPA_WPBDPA_WABU_Cvtvec@@@Z 40210490 f i libcpmtd:wlocale.obj
 0002:00112600       ??$_Parse_fp_with_locale@$0A@@?$num_get@GV?$istreambuf_iterator@GU?$char_traits@G@std@@@std@@@std@@CA?AU_Num_get_parse_result@1@QADHAAV?$istreambuf_iterator@GU?$char_traits@G@std@@@1@1ABVlocale@1@@Z 40210600 f i libcpmtd:wlocale.obj
 0002:00113bb0       ??$_Parse_fp_with_locale@$0A@@?$num_get@_WV?$istreambuf_iterator@_WU?$char_traits@_W@std@@@std@@@std@@CA?AU_Num_get_parse_result@1@QADHAAV?$istreambuf_iterator@_WU?$char_traits@_W@std@@@1@1ABVlocale@1@@Z 40211bb0 f i libcpmtd:wlocale.obj
 0002:00115160       ??$_Parse_int_with_locale@$0A@@?$num_get@GV?$istreambuf_iterator@GU?$char_traits@G@std@@@std@@@std@@CA?AU_Num_get_parse_result@1@QADAAV?$istreambuf_iterator@GU?$char_traits@G@std@@@1@1HABVlocale@1@@Z 40213160 f i libcpmtd:wlocale.obj
 0002:00115ae0       ??$_Parse_int_with_locale@$0A@@?$num_get@_WV?$istreambuf_iterator@_WU?$char_traits@_W@std@@@std@@@std@@CA?AU_Num_get_parse_result@1@QADAAV?$istreambuf_iterator@_WU?$char_traits@_W@std@@@1@1HABVlocale@1@@Z 40213ae0 f i libcpmtd:wlocale.obj
 0002:00116460       ??$_Pocma@V?$allocator@G@std@@@std@@YAXAAV?$allocator@G@0@0@Z 40214460 f i libcpmtd:wlocale.obj
 0002:00116470       ??$_Pocma@V?$allocator@_W@std@@@std@@YAXAAV?$allocator@_W@0@0@Z 40214470 f i libcpmtd:wlocale.obj
 0002:00116480       ??$_Reallocate_grow_by@V<lambda_1>@?1???$_Append@G@?$basic_string@GU?$char_traits@G@std@@V?$allocator@G@2@@std@@AAEAAV23@QBGI@Z@PBGI@?$basic_string@GU?$char_traits@G@std@@V?$allocator@G@2@@std@@AAEAAV01@IV<lambda_1>@?1???$_Append@G@01@AAEAAV01@QBGI@Z@PBGI@Z 40214480 f i libcpmtd:wlocale.obj
 0002:00116610       ??$_Reallocate_grow_by@V<lambda_1>@?1???$_Append@_W@?$basic_string@_WU?$char_traits@_W@std@@V?$allocator@_W@2@@std@@AAEAAV23@QB_WI@Z@PB_WI@?$basic_string@_WU?$char_traits@_W@std@@V?$allocator@_W@2@@std@@AAEAAV01@IV<lambda_1>@?1???$_Append@_W@01@AAEAAV01@QB_WI@Z@PB_WI@Z 40214610 f i libcpmtd:wlocale.obj
 0002:001167a0       ??$_Reallocate_grow_by@V<lambda_1>@?1??append@?$basic_string@GU?$char_traits@G@std@@V?$allocator@G@2@@std@@QAEAAV34@IG@Z@IG@?$basic_string@GU?$char_traits@G@std@@V?$allocator@G@2@@std@@AAEAAV01@IV<lambda_1>@?1??append@01@QAEAAV01@IG@Z@IG@Z 402147a0 f i libcpmtd:wlocale.obj
 0002:00116930       ??$_Reallocate_grow_by@V<lambda_1>@?1??append@?$basic_string@_WU?$char_traits@_W@std@@V?$allocator@_W@2@@std@@QAEAAV34@I_W@Z@I_W@?$basic_string@_WU?$char_traits@_W@std@@V?$allocator@_W@2@@std@@AAEAAV01@IV<lambda_1>@?1??append@01@QAEAAV01@I_W@Z@I_W@Z 40214930 f i libcpmtd:wlocale.obj
 0002:00116ac0       ??$_Reallocate_grow_by@V<lambda_1>@?1??insert@?$basic_string@GU?$char_traits@G@std@@V?$allocator@G@2@@std@@QAEAAV34@IIG@Z@IIG@?$basic_string@GU?$char_traits@G@std@@V?$allocator@G@2@@std@@AAEAAV01@IV<lambda_1>@?1??insert@01@QAEAAV01@IIG@Z@IIG@Z 40214ac0 f i libcpmtd:wlocale.obj
 0002:00116c50       ??$_Reallocate_grow_by@V<lambda_1>@?1??insert@?$basic_string@_WU?$char_traits@_W@std@@V?$allocator@_W@2@@std@@QAEAAV34@II_W@Z@II_W@?$basic_string@_WU?$char_traits@_W@std@@V?$allocator@_W@2@@std@@AAEAAV01@IV<lambda_1>@?1??insert@01@QAEAAV01@II_W@Z@II_W@Z 40214c50 f i libcpmtd:wlocale.obj
 0002:00116de0       ??$_Reallocate_grow_by@V<lambda_1>@?1??push_back@?$basic_string@GU?$char_traits@G@std@@V?$allocator@G@2@@std@@QAEXG@Z@G@?$basic_string@GU?$char_traits@G@std@@V?$allocator@G@2@@std@@AAEAAV01@IV<lambda_1>@?1??push_back@01@QAEXG@Z@G@Z 40214de0 f i libcpmtd:wlocale.obj
 0002:00116f60       ??$_Reallocate_grow_by@V<lambda_1>@?1??push_back@?$basic_string@_WU?$char_traits@_W@std@@V?$allocator@_W@2@@std@@QAEX_W@Z@_W@?$basic_string@_WU?$char_traits@_W@std@@V?$allocator@_W@2@@std@@AAEAAV01@IV<lambda_1>@?1??push_back@01@QAEX_W@Z@_W@Z 40214f60 f i libcpmtd:wlocale.obj
 0002:001170e0       ??$_Refancy@PAG$0A@@std@@YAPAGPAG@Z 402150e0 f i libcpmtd:wlocale.obj
 0002:001170f0       ??$_Refancy@PA_W$0A@@std@@YAPA_WPA_W@Z 402150f0 f i libcpmtd:wlocale.obj
 0002:00117100       ??$_Seek_wrapped@V?$ostreambuf_iterator@GU?$char_traits@G@std@@@std@@V12@@std@@YAXAAV?$ostreambuf_iterator@GU?$char_traits@G@std@@@0@$$QAV10@@Z 40215100 f i libcpmtd:wlocale.obj
 0002:00117120       ??$_Seek_wrapped@V?$ostreambuf_iterator@_WU?$char_traits@_W@std@@@std@@V12@@std@@YAXAAV?$ostreambuf_iterator@_WU?$char_traits@_W@std@@@0@$$QAV10@@Z 40215120 f i libcpmtd:wlocale.obj
 0002:00117140       ??$_To_address@PBG@std@@YA?A_PABQBG@Z 40215140 f i libcpmtd:wlocale.obj
 0002:00117160       ??$_To_address@PB_W@std@@YA?A_PABQB_W@Z 40215160 f i libcpmtd:wlocale.obj
 0002:00117180       ??$_Traits_copy_batch@U?$char_traits@G@std@@G@std@@YAXQAGQBGI@Z 40215180 f i libcpmtd:wlocale.obj
 0002:001171a0       ??$_Traits_copy_batch@U?$char_traits@_W@std@@_W@std@@YAXQA_WQB_WI@Z 402151a0 f i libcpmtd:wlocale.obj
 0002:001171c0       ??$_Traits_move_batch@U?$char_traits@G@std@@G@std@@YAXQAGQBGI@Z 402151c0 f i libcpmtd:wlocale.obj
 0002:001171e0       ??$_Traits_move_batch@U?$char_traits@_W@std@@_W@std@@YAXQA_WQB_WI@Z 402151e0 f i libcpmtd:wlocale.obj
 0002:00117200       ??$_Unfancy@$$CBG@std@@YAPBGPBG@Z 40215200 f i libcpmtd:wlocale.obj
 0002:00117210       ??$_Unfancy@$$CB_W@std@@YAPB_WPB_W@Z 40215210 f i libcpmtd:wlocale.obj
 0002:00117220       ??$_Unfancy@G@std@@YAPAGPAG@Z 40215220 f i libcpmtd:wlocale.obj
 0002:00117230       ??$_Unfancy@_W@std@@YAPA_WPA_W@Z 40215230 f i libcpmtd:wlocale.obj
 0002:00117240       ??$addressof@$$CBV?$moneypunct@G$00@std@@@std@@YAPBV?$moneypunct@G$00@0@ABV10@@Z 40215240 f i libcpmtd:wlocale.obj
 0002:00117250       ??$addressof@$$CBV?$moneypunct@G$0A@@std@@@std@@YAPBV?$moneypunct@G$0A@@0@ABV10@@Z 40215250 f i libcpmtd:wlocale.obj
 0002:00117260       ??$addressof@$$CBV?$moneypunct@_W$00@std@@@std@@YAPBV?$moneypunct@_W$00@0@ABV10@@Z 40215260 f i libcpmtd:wlocale.obj
 0002:00117270       ??$addressof@$$CBV?$moneypunct@_W$0A@@std@@@std@@YAPBV?$moneypunct@_W$0A@@0@ABV10@@Z 40215270 f i libcpmtd:wlocale.obj
 0002:00117280       ??$addressof@PAG@std@@YAPAPAGAAPAG@Z 40215280 f i libcpmtd:wlocale.obj
 0002:00117290       ??$addressof@PA_W@std@@YAPAPA_WAAPA_W@Z 40215290 f i libcpmtd:wlocale.obj
 0002:001172a0       ??$addressof@V?$_String_val@U?$_Simple_types@G@std@@@std@@@std@@YAPAV?$_String_val@U?$_Simple_types@G@std@@@0@AAV10@@Z 402152a0 f i libcpmtd:wlocale.obj
 0002:001172b0       ??$addressof@V?$_String_val@U?$_Simple_types@_W@std@@@std@@@std@@YAPAV?$_String_val@U?$_Simple_types@_W@std@@@0@AAV10@@Z 402152b0 f i libcpmtd:wlocale.obj
 0002:001172c0       ??$addressof@V?$basic_string@GU?$char_traits@G@std@@V?$allocator@G@2@@std@@@std@@YAPAV?$basic_string@GU?$char_traits@G@std@@V?$allocator@G@2@@0@AAV10@@Z 402152c0 f i libcpmtd:wlocale.obj
 0002:001172d0       ??$addressof@V?$basic_string@_WU?$char_traits@_W@std@@V?$allocator@_W@2@@std@@@std@@YAPAV?$basic_string@_WU?$char_traits@_W@std@@V?$allocator@_W@2@@0@AAV10@@Z 402152d0 f i libcpmtd:wlocale.obj
 0002:001172e0       ??$begin@$$CBD$0M@@std@@YAPBDAAY0M@$$CBD@Z 402152e0 f i libcpmtd:wlocale.obj
 0002:001172f0       ??$construct_at@G$$V@std@@YAPAGQAG@Z 402152f0 f i libcpmtd:wlocale.obj
 0002:00117340       ??$construct_at@PAGAAPAG@std@@YAPAPAGQAPAGAAPAG@Z 40215340 f i libcpmtd:wlocale.obj
 0002:00117370       ??$construct_at@PAGABQAG@std@@YAPAPAGQAPAGABQAG@Z 40215370 f i libcpmtd:wlocale.obj
 0002:001173a0       ??$construct_at@PA_WAAPA_W@std@@YAPAPA_WQAPA_WAAPA_W@Z 402153a0 f i libcpmtd:wlocale.obj
 0002:001173d0       ??$construct_at@PA_WABQA_W@std@@YAPAPA_WQAPA_WABQA_W@Z 402153d0 f i libcpmtd:wlocale.obj
 0002:00117400       ??$construct_at@_W$$V@std@@YAPA_WQA_W@Z 40215400 f i libcpmtd:wlocale.obj
 0002:00117450       ??$copy@PA_WV?$ostreambuf_iterator@GU?$char_traits@G@std@@@std@@@std@@YA?AV?$ostreambuf_iterator@GU?$char_traits@G@std@@@0@PA_W0V10@@Z 40215450 f i libcpmtd:wlocale.obj
 0002:00117510       ??$copy@PA_WV?$ostreambuf_iterator@_WU?$char_traits@_W@std@@@std@@@std@@YA?AV?$ostreambuf_iterator@_WU?$char_traits@_W@std@@@0@PA_W0V10@@Z 40215510 f i libcpmtd:wlocale.obj
 0002:001175d0       ??$end@$$CBD$0M@@std@@YAPBDAAY0M@$$CBD@Z 402155d0 f i libcpmtd:wlocale.obj
 0002:001175e0       ??$to_address@$$CBG@std@@YAPBGQBG@Z 402155e0 f i libcpmtd:wlocale.obj
 0002:001175f0       ??$to_address@$$CB_W@std@@YAPB_WQB_W@Z 402155f0 f i libcpmtd:wlocale.obj
 0002:00117600       ??$use_facet@V?$codecvt@GDU_Mbstatet@@@std@@@std@@YAABV?$codecvt@GDU_Mbstatet@@@0@ABVlocale@0@@Z 40215600 f i libcpmtd:wlocale.obj
 0002:00117760       ??$use_facet@V?$codecvt@_WDU_Mbstatet@@@std@@@std@@YAABV?$codecvt@_WDU_Mbstatet@@@0@ABVlocale@0@@Z 40215760 f i libcpmtd:wlocale.obj
 0002:001178c0       ??$use_facet@V?$collate@G@std@@@std@@YAABV?$collate@G@0@ABVlocale@0@@Z 402158c0 f i libcpmtd:wlocale.obj
 0002:00117a20       ??$use_facet@V?$collate@_W@std@@@std@@YAABV?$collate@_W@0@ABVlocale@0@@Z 40215a20 f i libcpmtd:wlocale.obj
 0002:00117b80       ??$use_facet@V?$ctype@G@std@@@std@@YAABV?$ctype@G@0@ABVlocale@0@@Z 40215b80 f i libcpmtd:wlocale.obj
 0002:00117ce0       ??$use_facet@V?$ctype@_W@std@@@std@@YAABV?$ctype@_W@0@ABVlocale@0@@Z 40215ce0 f i libcpmtd:wlocale.obj
 0002:00117e40       ??$use_facet@V?$messages@G@std@@@std@@YAABV?$messages@G@0@ABVlocale@0@@Z 40215e40 f i libcpmtd:wlocale.obj
 0002:00117fa0       ??$use_facet@V?$messages@_W@std@@@std@@YAABV?$messages@_W@0@ABVlocale@0@@Z 40215fa0 f i libcpmtd:wlocale.obj
 0002:00118100       ??$use_facet@V?$money_get@GV?$istreambuf_iterator@GU?$char_traits@G@std@@@std@@@std@@@std@@YAABV?$money_get@GV?$istreambuf_iterator@GU?$char_traits@G@std@@@std@@@0@ABVlocale@0@@Z 40216100 f i libcpmtd:wlocale.obj
 0002:00118260       ??$use_facet@V?$money_get@_WV?$istreambuf_iterator@_WU?$char_traits@_W@std@@@std@@@std@@@std@@YAABV?$money_get@_WV?$istreambuf_iterator@_WU?$char_traits@_W@std@@@std@@@0@ABVlocale@0@@Z 40216260 f i libcpmtd:wlocale.obj
 0002:001183c0       ??$use_facet@V?$money_put@GV?$ostreambuf_iterator@GU?$char_traits@G@std@@@std@@@std@@@std@@YAABV?$money_put@GV?$ostreambuf_iterator@GU?$char_traits@G@std@@@std@@@0@ABVlocale@0@@Z 402163c0 f i libcpmtd:wlocale.obj
 0002:00118520       ??$use_facet@V?$money_put@_WV?$ostreambuf_iterator@_WU?$char_traits@_W@std@@@std@@@std@@@std@@YAABV?$money_put@_WV?$ostreambuf_iterator@_WU?$char_traits@_W@std@@@std@@@0@ABVlocale@0@@Z 40216520 f i libcpmtd:wlocale.obj
 0002:00118680       ??$use_facet@V?$moneypunct@G$00@std@@@std@@YAABV?$moneypunct@G$00@0@ABVlocale@0@@Z 40216680 f i libcpmtd:wlocale.obj
 0002:001187e0       ??$use_facet@V?$moneypunct@G$0A@@std@@@std@@YAABV?$moneypunct@G$0A@@0@ABVlocale@0@@Z 402167e0 f i libcpmtd:wlocale.obj
 0002:00118940       ??$use_facet@V?$moneypunct@_W$00@std@@@std@@YAABV?$moneypunct@_W$00@0@ABVlocale@0@@Z 40216940 f i libcpmtd:wlocale.obj
 0002:00118aa0       ??$use_facet@V?$moneypunct@_W$0A@@std@@@std@@YAABV?$moneypunct@_W$0A@@0@ABVlocale@0@@Z 40216aa0 f i libcpmtd:wlocale.obj
 0002:00118c00       ??$use_facet@V?$num_get@GV?$istreambuf_iterator@GU?$char_traits@G@std@@@std@@@std@@@std@@YAABV?$num_get@GV?$istreambuf_iterator@GU?$char_traits@G@std@@@std@@@0@ABVlocale@0@@Z 40216c00 f i libcpmtd:wlocale.obj
 0002:00118d60       ??$use_facet@V?$num_get@_WV?$istreambuf_iterator@_WU?$char_traits@_W@std@@@std@@@std@@@std@@YAABV?$num_get@_WV?$istreambuf_iterator@_WU?$char_traits@_W@std@@@std@@@0@ABVlocale@0@@Z 40216d60 f i libcpmtd:wlocale.obj
 0002:00118ec0       ??$use_facet@V?$num_put@GV?$ostreambuf_iterator@GU?$char_traits@G@std@@@std@@@std@@@std@@YAABV?$num_put@GV?$ostreambuf_iterator@GU?$char_traits@G@std@@@std@@@0@ABVlocale@0@@Z 40216ec0 f i libcpmtd:wlocale.obj
 0002:00119020       ??$use_facet@V?$num_put@_WV?$ostreambuf_iterator@_WU?$char_traits@_W@std@@@std@@@std@@@std@@YAABV?$num_put@_WV?$ostreambuf_iterator@_WU?$char_traits@_W@std@@@std@@@0@ABVlocale@0@@Z 40217020 f i libcpmtd:wlocale.obj
 0002:00119180       ??$use_facet@V?$numpunct@G@std@@@std@@YAABV?$numpunct@G@0@ABVlocale@0@@Z 40217180 f i libcpmtd:wlocale.obj
 0002:001192e0       ??$use_facet@V?$numpunct@_W@std@@@std@@YAABV?$numpunct@_W@0@ABVlocale@0@@Z 402172e0 f i libcpmtd:wlocale.obj
 0002:00119440       ??$use_facet@V?$time_get@GV?$istreambuf_iterator@GU?$char_traits@G@std@@@std@@@std@@@std@@YAABV?$time_get@GV?$istreambuf_iterator@GU?$char_traits@G@std@@@std@@@0@ABVlocale@0@@Z 40217440 f i libcpmtd:wlocale.obj
 0002:001195a0       ??$use_facet@V?$time_get@_WV?$istreambuf_iterator@_WU?$char_traits@_W@std@@@std@@@std@@@std@@YAABV?$time_get@_WV?$istreambuf_iterator@_WU?$char_traits@_W@std@@@std@@@0@ABVlocale@0@@Z 402175a0 f i libcpmtd:wlocale.obj
 0002:00119700       ??$use_facet@V?$time_put@GV?$ostreambuf_iterator@GU?$char_traits@G@std@@@std@@@std@@@std@@YAABV?$time_put@GV?$ostreambuf_iterator@GU?$char_traits@G@std@@@std@@@0@ABVlocale@0@@Z 40217700 f i libcpmtd:wlocale.obj
 0002:00119860       ??$use_facet@V?$time_put@_WV?$ostreambuf_iterator@_WU?$char_traits@_W@std@@@std@@@std@@@std@@YAABV?$time_put@_WV?$ostreambuf_iterator@_WU?$char_traits@_W@std@@@std@@@0@ABVlocale@0@@Z 40217860 f i libcpmtd:wlocale.obj
 0002:001199c0       ??0?$_Mpunct@G@std@@QAE@ABV_Locinfo@1@I_N1@Z 402179c0 f i libcpmtd:wlocale.obj
 0002:00119a60       ??0?$_Mpunct@_W@std@@QAE@ABV_Locinfo@1@I_N1@Z 40217a60 f i libcpmtd:wlocale.obj
 0002:00119b00       ??0?$_String_const_iterator@V?$_String_val@U?$_Simple_types@G@std@@@std@@@std@@QAE@$$QAV01@@Z 40217b00 f i libcpmtd:wlocale.obj
 0002:00119b40       ??0?$_String_const_iterator@V?$_String_val@U?$_Simple_types@G@std@@@std@@@std@@QAE@ABV01@@Z 40217b40 f i libcpmtd:wlocale.obj
 0002:00119b80       ??0?$_String_const_iterator@V?$_String_val@U?$_Simple_types@G@std@@@std@@@std@@QAE@PBGPBU_Container_base12@1@@Z 40217b80 f i libcpmtd:wlocale.obj
 0002:00119bc0       ??0?$_String_const_iterator@V?$_String_val@U?$_Simple_types@G@std@@@std@@@std@@QAE@XZ 40217bc0 f i libcpmtd:wlocale.obj
 0002:00119bf0       ??0?$_String_const_iterator@V?$_String_val@U?$_Simple_types@_W@std@@@std@@@std@@QAE@$$QAV01@@Z 40217bf0 f i libcpmtd:wlocale.obj
 0002:00119c30       ??0?$_String_const_iterator@V?$_String_val@U?$_Simple_types@_W@std@@@std@@@std@@QAE@ABV01@@Z 40217c30 f i libcpmtd:wlocale.obj
 0002:00119c70       ??0?$_String_const_iterator@V?$_String_val@U?$_Simple_types@_W@std@@@std@@@std@@QAE@PB_WPBU_Container_base12@1@@Z 40217c70 f i libcpmtd:wlocale.obj
 0002:00119cb0       ??0?$_String_const_iterator@V?$_String_val@U?$_Simple_types@_W@std@@@std@@@std@@QAE@XZ 40217cb0 f i libcpmtd:wlocale.obj
 0002:00119ce0       ??0?$_String_iterator@V?$_String_val@U?$_Simple_types@G@std@@@std@@@std@@QAE@ABV01@@Z 40217ce0 f i libcpmtd:wlocale.obj
 0002:00119d10       ??0?$_String_iterator@V?$_String_val@U?$_Simple_types@G@std@@@std@@@std@@QAE@PBGPBU_Container_base12@1@@Z 40217d10 f i libcpmtd:wlocale.obj
 0002:00119d40       ??0?$_String_iterator@V?$_String_val@U?$_Simple_types@_W@std@@@std@@@std@@QAE@ABV01@@Z 40217d40 f i libcpmtd:wlocale.obj
 0002:00119d70       ??0?$_String_iterator@V?$_String_val@U?$_Simple_types@_W@std@@@std@@@std@@QAE@PB_WPBU_Container_base12@1@@Z 40217d70 f i libcpmtd:wlocale.obj
 0002:00119da0       ??0?$_String_val@U?$_Simple_types@G@std@@@std@@QAE@XZ 40217da0 f i libcpmtd:wlocale.obj
 0002:00119df0       ??0?$_String_val@U?$_Simple_types@_W@std@@@std@@QAE@XZ 40217df0 f i libcpmtd:wlocale.obj
 0002:00119e40       ??0?$allocator@G@std@@QAE@XZ 40217e40 f i libcpmtd:wlocale.obj
 0002:00119e60       ??0?$allocator@_W@std@@QAE@XZ 40217e60 f i libcpmtd:wlocale.obj
 0002:00119e80       ??0?$basic_string@GU?$char_traits@G@std@@V?$allocator@G@2@@std@@QAE@ABV01@@Z 40217e80 f i libcpmtd:wlocale.obj
 0002:00119f50       ??0?$basic_string@GU?$char_traits@G@std@@V?$allocator@G@2@@std@@QAE@IG@Z 40217f50 f i libcpmtd:wlocale.obj
 0002:00119fe0       ??0?$basic_string@GU?$char_traits@G@std@@V?$allocator@G@2@@std@@QAE@QBG@Z 40217fe0 f i libcpmtd:wlocale.obj
 0002:0011a080       ??0?$basic_string@GU?$char_traits@G@std@@V?$allocator@G@2@@std@@QAE@QBGI@Z 40218080 f i libcpmtd:wlocale.obj
 0002:0011a110       ??0?$basic_string@GU?$char_traits@G@std@@V?$allocator@G@2@@std@@QAE@XZ 40218110 f i libcpmtd:wlocale.obj
 0002:0011a190       ??0?$basic_string@_WU?$char_traits@_W@std@@V?$allocator@_W@2@@std@@QAE@ABV01@@Z 40218190 f i libcpmtd:wlocale.obj
 0002:0011a260       ??0?$basic_string@_WU?$char_traits@_W@std@@V?$allocator@_W@2@@std@@QAE@I_W@Z 40218260 f i libcpmtd:wlocale.obj
 0002:0011a2f0       ??0?$basic_string@_WU?$char_traits@_W@std@@V?$allocator@_W@2@@std@@QAE@QB_W@Z 402182f0 f i libcpmtd:wlocale.obj
 0002:0011a390       ??0?$basic_string@_WU?$char_traits@_W@std@@V?$allocator@_W@2@@std@@QAE@QB_WI@Z 40218390 f i libcpmtd:wlocale.obj
 0002:0011a420       ??0?$basic_string@_WU?$char_traits@_W@std@@V?$allocator@_W@2@@std@@QAE@XZ 40218420 f i libcpmtd:wlocale.obj
 0002:0011a4a0       ??0?$codecvt@GDU_Mbstatet@@@std@@QAE@ABV_Locinfo@1@I@Z 402184a0 f i libcpmtd:wlocale.obj
 0002:0011a530       ??0?$codecvt@_WDU_Mbstatet@@@std@@QAE@ABV_Locinfo@1@I@Z 40218530 f i libcpmtd:wlocale.obj
 0002:0011a5c0       ??0?$collate@G@std@@QAE@ABV_Locinfo@1@I@Z 402185c0 f i libcpmtd:wlocale.obj
 0002:0011a650       ??0?$collate@_W@std@@QAE@ABV_Locinfo@1@I@Z 40218650 f i libcpmtd:wlocale.obj
 0002:0011a6e0       ??0?$ctype@G@std@@QAE@ABV_Locinfo@1@I@Z 402186e0 f i libcpmtd:wlocale.obj
 0002:0011a770       ??0?$ctype@_W@std@@QAE@ABV_Locinfo@1@I@Z 40218770 f i libcpmtd:wlocale.obj
 0002:0011a800       ??0?$messages@G@std@@QAE@ABV_Locinfo@1@I@Z 40218800 f i libcpmtd:wlocale.obj
 0002:0011a890       ??0?$messages@_W@std@@QAE@ABV_Locinfo@1@I@Z 40218890 f i libcpmtd:wlocale.obj
 0002:0011a920       ??0?$money_get@GV?$istreambuf_iterator@GU?$char_traits@G@std@@@std@@@std@@QAE@ABV_Locinfo@1@I@Z 40218920 f i libcpmtd:wlocale.obj
 0002:0011a9b0       ??0?$money_get@_WV?$istreambuf_iterator@_WU?$char_traits@_W@std@@@std@@@std@@QAE@ABV_Locinfo@1@I@Z 402189b0 f i libcpmtd:wlocale.obj
 0002:0011aa40       ??0?$money_put@GV?$ostreambuf_iterator@GU?$char_traits@G@std@@@std@@@std@@QAE@ABV_Locinfo@1@I@Z 40218a40 f i libcpmtd:wlocale.obj
 0002:0011aad0       ??0?$money_put@_WV?$ostreambuf_iterator@_WU?$char_traits@_W@std@@@std@@@std@@QAE@ABV_Locinfo@1@I@Z 40218ad0 f i libcpmtd:wlocale.obj
 0002:0011ab60       ??0?$moneypunct@G$00@std@@QAE@ABV_Locinfo@1@I_N@Z 40218b60 f i libcpmtd:wlocale.obj
 0002:0011aba0       ??0?$moneypunct@G$0A@@std@@QAE@ABV_Locinfo@1@I_N@Z 40218ba0 f i libcpmtd:wlocale.obj
 0002:0011abe0       ??0?$moneypunct@_W$00@std@@QAE@ABV_Locinfo@1@I_N@Z 40218be0 f i libcpmtd:wlocale.obj
 0002:0011ac20       ??0?$moneypunct@_W$0A@@std@@QAE@ABV_Locinfo@1@I_N@Z 40218c20 f i libcpmtd:wlocale.obj
 0002:0011ac60       ??0?$num_get@GV?$istreambuf_iterator@GU?$char_traits@G@std@@@std@@@std@@QAE@ABV_Locinfo@1@I@Z 40218c60 f i libcpmtd:wlocale.obj
 0002:0011acf0       ??0?$num_get@_WV?$istreambuf_iterator@_WU?$char_traits@_W@std@@@std@@@std@@QAE@ABV_Locinfo@1@I@Z 40218cf0 f i libcpmtd:wlocale.obj
 0002:0011ad80       ??0?$num_put@GV?$ostreambuf_iterator@GU?$char_traits@G@std@@@std@@@std@@QAE@ABV_Locinfo@1@I@Z 40218d80 f i libcpmtd:wlocale.obj
 0002:0011ae10       ??0?$num_put@_WV?$ostreambuf_iterator@_WU?$char_traits@_W@std@@@std@@@std@@QAE@ABV_Locinfo@1@I@Z 40218e10 f i libcpmtd:wlocale.obj
 0002:0011aea0       ??0?$numpunct@G@std@@QAE@ABV_Locinfo@1@I_N@Z 40218ea0 f i libcpmtd:wlocale.obj
 0002:0011af30       ??0?$numpunct@_W@std@@QAE@ABV_Locinfo@1@I_N@Z 40218f30 f i libcpmtd:wlocale.obj
 0002:0011afc0       ??0?$time_get@GV?$istreambuf_iterator@GU?$char_traits@G@std@@@std@@@std@@QAE@ABV_Locinfo@1@I@Z 40218fc0 f i libcpmtd:wlocale.obj
 0002:0011b050       ??0?$time_get@_WV?$istreambuf_iterator@_WU?$char_traits@_W@std@@@std@@@std@@QAE@ABV_Locinfo@1@I@Z 40219050 f i libcpmtd:wlocale.obj
 0002:0011b0e0       ??0?$time_put@GV?$ostreambuf_iterator@GU?$char_traits@G@std@@@std@@@std@@QAE@ABV_Locinfo@1@I@Z 402190e0 f i libcpmtd:wlocale.obj
 0002:0011b190       ??0?$time_put@_WV?$ostreambuf_iterator@_WU?$char_traits@_W@std@@@std@@@std@@QAE@ABV_Locinfo@1@I@Z 40219190 f i libcpmtd:wlocale.obj
 0002:0011b240       ??0_Bxty@?$_String_val@U?$_Simple_types@G@std@@@std@@QAE@XZ 40219240 f i libcpmtd:wlocale.obj
 0002:0011b270       ??0_Bxty@?$_String_val@U?$_Simple_types@_W@std@@@std@@QAE@XZ 40219270 f i libcpmtd:wlocale.obj
 0002:0011b2a0       ??0_Timevec@std@@QAE@PAX@Z 402192a0 f i libcpmtd:wlocale.obj
 0002:0011b2c0       ??0messages_base@std@@QAE@I@Z 402192c0 f i libcpmtd:wlocale.obj
 0002:0011b2f0       ??0money_base@std@@QAE@I@Z 402192f0 f i libcpmtd:wlocale.obj
 0002:0011b320       ??0time_base@std@@QAE@I@Z  40219320 f i libcpmtd:wlocale.obj
 0002:0011b350       ??1?$_Compressed_pair@V?$allocator@G@std@@V?$_String_val@U?$_Simple_types@G@std@@@2@$00@std@@QAE@XZ 40219350 f i libcpmtd:wlocale.obj
 0002:0011b370       ??1?$_Compressed_pair@V?$allocator@_W@std@@V?$_String_val@U?$_Simple_types@_W@std@@@2@$00@std@@QAE@XZ 40219370 f i libcpmtd:wlocale.obj
 0002:0011b390       ??1?$_Mpunct@G@std@@MAE@XZ 40219390 f i libcpmtd:wlocale.obj
 0002:0011b3c0       ??1?$_Mpunct@_W@std@@MAE@XZ 402193c0 f i libcpmtd:wlocale.obj
 0002:0011b3f0       ??1?$_String_const_iterator@V?$_String_val@U?$_Simple_types@G@std@@@std@@@std@@QAE@XZ 402193f0 f i libcpmtd:wlocale.obj
 0002:0011b410       ??1?$_String_const_iterator@V?$_String_val@U?$_Simple_types@_W@std@@@std@@@std@@QAE@XZ 40219410 f i libcpmtd:wlocale.obj
 0002:0011b430       ??1?$_String_iterator@V?$_String_val@U?$_Simple_types@G@std@@@std@@@std@@QAE@XZ 40219430 f i libcpmtd:wlocale.obj
 0002:0011b450       ??1?$_String_iterator@V?$_String_val@U?$_Simple_types@_W@std@@@std@@@std@@QAE@XZ 40219450 f i libcpmtd:wlocale.obj
 0002:0011b470       ??1?$_String_val@U?$_Simple_types@G@std@@@std@@QAE@XZ 40219470 f i libcpmtd:wlocale.obj
 0002:0011b490       ??1?$_String_val@U?$_Simple_types@_W@std@@@std@@QAE@XZ 40219490 f i libcpmtd:wlocale.obj
 0002:0011b4b0       ??1?$_Tidy_guard@V?$_Mpunct@G@std@@@std@@QAE@XZ 402194b0 f i libcpmtd:wlocale.obj
 0002:0011b4e0       ??1?$_Tidy_guard@V?$_Mpunct@_W@std@@@std@@QAE@XZ 402194e0 f i libcpmtd:wlocale.obj
 0002:0011b510       ??1?$_Tidy_guard@V?$numpunct@G@std@@@std@@QAE@XZ 40219510 f i libcpmtd:wlocale.obj
 0002:0011b540       ??1?$_Tidy_guard@V?$numpunct@_W@std@@@std@@QAE@XZ 40219540 f i libcpmtd:wlocale.obj
 0002:0011b570       ??1?$_Tidy_guard@V?$time_get@GV?$istreambuf_iterator@GU?$char_traits@G@std@@@std@@@std@@@std@@QAE@XZ 40219570 f i libcpmtd:wlocale.obj
 0002:0011b5a0       ??1?$_Tidy_guard@V?$time_get@_WV?$istreambuf_iterator@_WU?$char_traits@_W@std@@@std@@@std@@@std@@QAE@XZ 402195a0 f i libcpmtd:wlocale.obj
 0002:0011b5d0       ??1?$basic_string@GU?$char_traits@G@std@@V?$allocator@G@2@@std@@QAE@XZ 402195d0 f i libcpmtd:wlocale.obj
 0002:0011b640       ??1?$basic_string@_WU?$char_traits@_W@std@@V?$allocator@_W@2@@std@@QAE@XZ 40219640 f i libcpmtd:wlocale.obj
 0002:0011b6b0       ??1?$codecvt@GDU_Mbstatet@@@std@@MAE@XZ 402196b0 f i libcpmtd:wlocale.obj
 0002:0011b6e0       ??1?$codecvt@_WDU_Mbstatet@@@std@@MAE@XZ 402196e0 f i libcpmtd:wlocale.obj
 0002:0011b710       ??1?$collate@G@std@@MAE@XZ 40219710 f i libcpmtd:wlocale.obj
 0002:0011b750       ??1?$collate@_W@std@@MAE@XZ 40219750 f i libcpmtd:wlocale.obj
 0002:0011b790       ??1?$ctype@G@std@@MAE@XZ   40219790 f i libcpmtd:wlocale.obj
 0002:0011b7f0       ??1?$ctype@_W@std@@MAE@XZ  402197f0 f i libcpmtd:wlocale.obj
 0002:0011b850       ??1?$messages@G@std@@MAE@XZ 40219850 f i libcpmtd:wlocale.obj
 0002:0011b880       ??1?$messages@_W@std@@MAE@XZ 40219880 f i libcpmtd:wlocale.obj
 0002:0011b8b0       ??1?$money_get@GV?$istreambuf_iterator@GU?$char_traits@G@std@@@std@@@std@@MAE@XZ 402198b0 f i libcpmtd:wlocale.obj
 0002:0011b8e0       ??1?$money_get@_WV?$istreambuf_iterator@_WU?$char_traits@_W@std@@@std@@@std@@MAE@XZ 402198e0 f i libcpmtd:wlocale.obj
 0002:0011b910       ??1?$money_put@GV?$ostreambuf_iterator@GU?$char_traits@G@std@@@std@@@std@@MAE@XZ 40219910 f i libcpmtd:wlocale.obj
 0002:0011b940       ??1?$money_put@_WV?$ostreambuf_iterator@_WU?$char_traits@_W@std@@@std@@@std@@MAE@XZ 40219940 f i libcpmtd:wlocale.obj
 0002:0011b970       ??1?$moneypunct@G$00@std@@MAE@XZ 40219970 f i libcpmtd:wlocale.obj
 0002:0011b9a0       ??1?$moneypunct@G$0A@@std@@MAE@XZ 402199a0 f i libcpmtd:wlocale.obj
 0002:0011b9d0       ??1?$moneypunct@_W$00@std@@MAE@XZ 402199d0 f i libcpmtd:wlocale.obj
 0002:0011ba00       ??1?$moneypunct@_W$0A@@std@@MAE@XZ 40219a00 f i libcpmtd:wlocale.obj
 0002:0011ba30       ??1?$num_get@GV?$istreambuf_iterator@GU?$char_traits@G@std@@@std@@@std@@MAE@XZ 40219a30 f i libcpmtd:wlocale.obj
 0002:0011ba60       ??1?$num_get@_WV?$istreambuf_iterator@_WU?$char_traits@_W@std@@@std@@@std@@MAE@XZ 40219a60 f i libcpmtd:wlocale.obj
 0002:0011ba90       ??1?$num_put@GV?$ostreambuf_iterator@GU?$char_traits@G@std@@@std@@@std@@MAE@XZ 40219a90 f i libcpmtd:wlocale.obj
 0002:0011bac0       ??1?$num_put@_WV?$ostreambuf_iterator@_WU?$char_traits@_W@std@@@std@@@std@@MAE@XZ 40219ac0 f i libcpmtd:wlocale.obj
 0002:0011baf0       ??1?$numpunct@G@std@@MAE@XZ 40219af0 f i libcpmtd:wlocale.obj
 0002:0011bb20       ??1?$numpunct@_W@std@@MAE@XZ 40219b20 f i libcpmtd:wlocale.obj
 0002:0011bb50       ??1?$time_get@GV?$istreambuf_iterator@GU?$char_traits@G@std@@@std@@@std@@MAE@XZ 40219b50 f i libcpmtd:wlocale.obj
 0002:0011bb80       ??1?$time_get@_WV?$istreambuf_iterator@_WU?$char_traits@_W@std@@@std@@@std@@MAE@XZ 40219b80 f i libcpmtd:wlocale.obj
 0002:0011bbb0       ??1?$time_put@GV?$ostreambuf_iterator@GU?$char_traits@G@std@@@std@@@std@@MAE@XZ 40219bb0 f i libcpmtd:wlocale.obj
 0002:0011bbf0       ??1?$time_put@_WV?$ostreambuf_iterator@_WU?$char_traits@_W@std@@@std@@@std@@MAE@XZ 40219bf0 f i libcpmtd:wlocale.obj
 0002:0011bc30       ??1_Bxty@?$_String_val@U?$_Simple_types@G@std@@@std@@QAE@XZ 40219c30 f i libcpmtd:wlocale.obj
 0002:0011bc40       ??1_Bxty@?$_String_val@U?$_Simple_types@_W@std@@@std@@QAE@XZ 40219c40 f i libcpmtd:wlocale.obj
 0002:0011bc50       ??1_Timevec@std@@QAE@XZ    40219c50 f i libcpmtd:wlocale.obj
 0002:0011bc70       ??1messages_base@std@@UAE@XZ 40219c70 f i libcpmtd:wlocale.obj
 0002:0011bc90       ??1money_base@std@@UAE@XZ  40219c90 f i libcpmtd:wlocale.obj
 0002:0011bcb0       ??1time_base@std@@UAE@XZ   40219cb0 f i libcpmtd:wlocale.obj
 0002:0011bce0       ??4?$_String_const_iterator@V?$_String_val@U?$_Simple_types@G@std@@@std@@@std@@QAEAAV01@$$QAV01@@Z 40219ce0 f i libcpmtd:wlocale.obj
 0002:0011bd20       ??4?$_String_const_iterator@V?$_String_val@U?$_Simple_types@_W@std@@@std@@@std@@QAEAAV01@$$QAV01@@Z 40219d20 f i libcpmtd:wlocale.obj
 0002:0011bd60       ??4?$_Yarn@_W@std@@QAEAAV01@PB_W@Z 40219d60 f i libcpmtd:wlocale.obj
 0002:0011be20       ??4?$basic_string@GU?$char_traits@G@std@@V?$allocator@G@2@@std@@QAEAAV01@$$QAV01@@Z 40219e20 f i libcpmtd:wlocale.obj
 0002:0011beb0       ??4?$basic_string@_WU?$char_traits@_W@std@@V?$allocator@_W@2@@std@@QAEAAV01@$$QAV01@@Z 40219eb0 f i libcpmtd:wlocale.obj
 0002:0011bf40       ??4?$ostreambuf_iterator@GU?$char_traits@G@std@@@std@@QAEAAV01@G@Z 40219f40 f i libcpmtd:wlocale.obj
 0002:0011bfc0       ??4?$ostreambuf_iterator@_WU?$char_traits@_W@std@@@std@@QAEAAV01@_W@Z 40219fc0 f i libcpmtd:wlocale.obj
 0002:0011c040       ??4_Timevec@std@@QAEAAV01@ABV01@@Z 4021a040 f i libcpmtd:wlocale.obj
 0002:0011c090       ??8?$_String_const_iterator@V?$_String_val@U?$_Simple_types@G@std@@@std@@@std@@QBE_NABV01@@Z 4021a090 f i libcpmtd:wlocale.obj
 0002:0011c0e0       ??8?$_String_const_iterator@V?$_String_val@U?$_Simple_types@_W@std@@@std@@@std@@QBE_NABV01@@Z 4021a0e0 f i libcpmtd:wlocale.obj
 0002:0011c130       ??A?$basic_string@GU?$char_traits@G@std@@V?$allocator@G@2@@std@@QAEAAGI@Z 4021a130 f i libcpmtd:wlocale.obj
 0002:0011c1a0       ??A?$basic_string@GU?$char_traits@G@std@@V?$allocator@G@2@@std@@QBEABGI@Z 4021a1a0 f i libcpmtd:wlocale.obj
 0002:0011c210       ??A?$basic_string@_WU?$char_traits@_W@std@@V?$allocator@_W@2@@std@@QAEAA_WI@Z 4021a210 f i libcpmtd:wlocale.obj
 0002:0011c280       ??A?$basic_string@_WU?$char_traits@_W@std@@V?$allocator@_W@2@@std@@QBEAB_WI@Z 4021a280 f i libcpmtd:wlocale.obj
 0002:0011c2f0       ??D?$_String_const_iterator@V?$_String_val@U?$_Simple_types@G@std@@@std@@@std@@QBEABGXZ 4021a2f0 f i libcpmtd:wlocale.obj
 0002:0011c410       ??D?$_String_const_iterator@V?$_String_val@U?$_Simple_types@_W@std@@@std@@@std@@QBEAB_WXZ 4021a410 f i libcpmtd:wlocale.obj
 0002:0011c530       ??D?$_String_iterator@V?$_String_val@U?$_Simple_types@G@std@@@std@@@std@@QBEAAGXZ 4021a530 f i libcpmtd:wlocale.obj
 0002:0011c550       ??D?$_String_iterator@V?$_String_val@U?$_Simple_types@_W@std@@@std@@@std@@QBEAA_WXZ 4021a550 f i libcpmtd:wlocale.obj
 0002:0011c570       ??D?$istreambuf_iterator@GU?$char_traits@G@std@@@std@@QBEGXZ 4021a570 f i libcpmtd:wlocale.obj
 0002:0011c5f0       ??D?$istreambuf_iterator@_WU?$char_traits@_W@std@@@std@@QBE_WXZ 4021a5f0 f i libcpmtd:wlocale.obj
 0002:0011c670       ??D?$ostreambuf_iterator@GU?$char_traits@G@std@@@std@@QAEAAV01@XZ 4021a670 f i libcpmtd:wlocale.obj
 0002:0011c690       ??D?$ostreambuf_iterator@_WU?$char_traits@_W@std@@@std@@QAEAAV01@XZ 4021a690 f i libcpmtd:wlocale.obj
 0002:0011c6b0       ??E?$_String_const_iterator@V?$_String_val@U?$_Simple_types@G@std@@@std@@@std@@QAEAAV01@XZ 4021a6b0 f i libcpmtd:wlocale.obj
 0002:0011c7d0       ??E?$_String_const_iterator@V?$_String_val@U?$_Simple_types@_W@std@@@std@@@std@@QAEAAV01@XZ 4021a7d0 f i libcpmtd:wlocale.obj
 0002:0011c8f0       ??E?$_String_iterator@V?$_String_val@U?$_Simple_types@G@std@@@std@@@std@@QAEAAV01@XZ 4021a8f0 f i libcpmtd:wlocale.obj
 0002:0011c910       ??E?$_String_iterator@V?$_String_val@U?$_Simple_types@_W@std@@@std@@@std@@QAEAAV01@XZ 4021a910 f i libcpmtd:wlocale.obj
 0002:0011c930       ??E?$istreambuf_iterator@GU?$char_traits@G@std@@@std@@QAEAAV01@XZ 4021a930 f i libcpmtd:wlocale.obj
 0002:0011c990       ??E?$istreambuf_iterator@_WU?$char_traits@_W@std@@@std@@QAEAAV01@XZ 4021a990 f i libcpmtd:wlocale.obj
 0002:0011c9f0       ??E?$ostreambuf_iterator@GU?$char_traits@G@std@@@std@@QAEAAV01@H@Z 4021a9f0 f i libcpmtd:wlocale.obj
 0002:0011ca10       ??E?$ostreambuf_iterator@GU?$char_traits@G@std@@@std@@QAEAAV01@XZ 4021aa10 f i libcpmtd:wlocale.obj
 0002:0011ca30       ??E?$ostreambuf_iterator@_WU?$char_traits@_W@std@@@std@@QAEAAV01@H@Z 4021aa30 f i libcpmtd:wlocale.obj
 0002:0011ca50       ??E?$ostreambuf_iterator@_WU?$char_traits@_W@std@@@std@@QAEAAV01@XZ 4021aa50 f i libcpmtd:wlocale.obj
 0002:0011ca70       ??G?$_String_iterator@V?$_String_val@U?$_Simple_types@G@std@@@std@@@std@@QBE?AV01@H@Z 4021aa70 f i libcpmtd:wlocale.obj
 0002:0011cab0       ??G?$_String_iterator@V?$_String_val@U?$_Simple_types@_W@std@@@std@@@std@@QBE?AV01@H@Z 4021aab0 f i libcpmtd:wlocale.obj
 0002:0011caf0       ??H?$_String_iterator@V?$_String_val@U?$_Simple_types@G@std@@@std@@@std@@QBE?AV01@H@Z 4021aaf0 f i libcpmtd:wlocale.obj
 0002:0011cb30       ??H?$_String_iterator@V?$_String_val@U?$_Simple_types@_W@std@@@std@@@std@@QBE?AV01@H@Z 4021ab30 f i libcpmtd:wlocale.obj
 0002:0011cb70       ??R<lambda_1>@?1???$_Append@G@?$basic_string@GU?$char_traits@G@std@@V?$allocator@G@2@@std@@AAEAAV12@QBGI@Z@SA@QAG0I0I@Z 4021ab70 f i libcpmtd:wlocale.obj
 0002:0011cbe0       ??R<lambda_1>@?1???$_Append@_W@?$basic_string@_WU?$char_traits@_W@std@@V?$allocator@_W@2@@std@@AAEAAV12@QB_WI@Z@SA@QA_W0I0I@Z 4021abe0 f i libcpmtd:wlocale.obj
 0002:0011cc50       ??R<lambda_1>@?1??append@?$basic_string@GU?$char_traits@G@std@@V?$allocator@G@2@@std@@QAEAAV23@IG@Z@SA@QAGQBGIIG@Z 4021ac50 f i libcpmtd:wlocale.obj
 0002:0011ccc0       ??R<lambda_1>@?1??append@?$basic_string@_WU?$char_traits@_W@std@@V?$allocator@_W@2@@std@@QAEAAV23@I_W@Z@SA@QA_WQB_WII0@Z 4021acc0 f i libcpmtd:wlocale.obj
 0002:0011cd30       ??R<lambda_1>@?1??insert@?$basic_string@GU?$char_traits@G@std@@V?$allocator@G@2@@std@@QAEAAV23@IIG@Z@SA@QAGQBGIIIG@Z 4021ad30 f i libcpmtd:wlocale.obj
 0002:0011cdb0       ??R<lambda_1>@?1??insert@?$basic_string@_WU?$char_traits@_W@std@@V?$allocator@_W@2@@std@@QAEAAV23@II_W@Z@SA@QA_WQB_WIII0@Z 4021adb0 f i libcpmtd:wlocale.obj
 0002:0011ce30       ??R<lambda_1>@?1??push_back@?$basic_string@GU?$char_traits@G@std@@V?$allocator@G@2@@std@@QAEXG@Z@SA@QAGQBGIG@Z 4021ae30 f i libcpmtd:wlocale.obj
 0002:0011cea0       ??R<lambda_1>@?1??push_back@?$basic_string@_WU?$char_traits@_W@std@@V?$allocator@_W@2@@std@@QAEX_W@Z@SA@QA_WQB_WI0@Z 4021aea0 f i libcpmtd:wlocale.obj
 0002:0011cf10       ??Y?$_String_const_iterator@V?$_String_val@U?$_Simple_types@G@std@@@std@@@std@@QAEAAV01@H@Z 4021af10 f i libcpmtd:wlocale.obj
 0002:0011cf50       ??Y?$_String_const_iterator@V?$_String_val@U?$_Simple_types@_W@std@@@std@@@std@@QAEAAV01@H@Z 4021af50 f i libcpmtd:wlocale.obj
 0002:0011cf90       ??Y?$_String_iterator@V?$_String_val@U?$_Simple_types@G@std@@@std@@@std@@QAEAAV01@H@Z 4021af90 f i libcpmtd:wlocale.obj
 0002:0011cfc0       ??Y?$_String_iterator@V?$_String_val@U?$_Simple_types@_W@std@@@std@@@std@@QAEAAV01@H@Z 4021afc0 f i libcpmtd:wlocale.obj
 0002:0011cff0       ??Y?$basic_string@GU?$char_traits@G@std@@V?$allocator@G@2@@std@@QAEAAV01@ABV01@@Z 4021aff0 f i libcpmtd:wlocale.obj
 0002:0011d010       ??Y?$basic_string@_WU?$char_traits@_W@std@@V?$allocator@_W@2@@std@@QAEAAV01@ABV01@@Z 4021b010 f i libcpmtd:wlocale.obj
 0002:0011d030       ??Z?$_String_const_iterator@V?$_String_val@U?$_Simple_types@G@std@@@std@@@std@@QAEAAV01@H@Z 4021b030 f i libcpmtd:wlocale.obj
 0002:0011d060       ??Z?$_String_const_iterator@V?$_String_val@U?$_Simple_types@_W@std@@@std@@@std@@QAEAAV01@H@Z 4021b060 f i libcpmtd:wlocale.obj
 0002:0011d090       ??Z?$_String_iterator@V?$_String_val@U?$_Simple_types@G@std@@@std@@@std@@QAEAAV01@H@Z 4021b090 f i libcpmtd:wlocale.obj
 0002:0011d0c0       ??Z?$_String_iterator@V?$_String_val@U?$_Simple_types@_W@std@@@std@@@std@@QAEAAV01@H@Z 4021b0c0 f i libcpmtd:wlocale.obj
 0002:0011d0f0       ??_E?$_Mpunct@G@std@@MAEPAXI@Z 4021b0f0 f i libcpmtd:wlocale.obj
 0002:0011d0f0       ??_G?$_Mpunct@G@std@@MAEPAXI@Z 4021b0f0 f i libcpmtd:wlocale.obj
 0002:0011d150       ??_E?$_Mpunct@_W@std@@MAEPAXI@Z 4021b150 f i libcpmtd:wlocale.obj
 0002:0011d150       ??_G?$_Mpunct@_W@std@@MAEPAXI@Z 4021b150 f i libcpmtd:wlocale.obj
 0002:0011d1b0       ??_E?$codecvt@GDU_Mbstatet@@@std@@MAEPAXI@Z 4021b1b0 f i libcpmtd:wlocale.obj
 0002:0011d1b0       ??_G?$codecvt@GDU_Mbstatet@@@std@@MAEPAXI@Z 4021b1b0 f i libcpmtd:wlocale.obj
 0002:0011d210       ??_E?$codecvt@_WDU_Mbstatet@@@std@@MAEPAXI@Z 4021b210 f i libcpmtd:wlocale.obj
 0002:0011d210       ??_G?$codecvt@_WDU_Mbstatet@@@std@@MAEPAXI@Z 4021b210 f i libcpmtd:wlocale.obj
 0002:0011d270       ??_E?$collate@G@std@@MAEPAXI@Z 4021b270 f i libcpmtd:wlocale.obj
 0002:0011d270       ??_G?$collate@G@std@@MAEPAXI@Z 4021b270 f i libcpmtd:wlocale.obj
 0002:0011d2d0       ??_E?$collate@_W@std@@MAEPAXI@Z 4021b2d0 f i libcpmtd:wlocale.obj
 0002:0011d2d0       ??_G?$collate@_W@std@@MAEPAXI@Z 4021b2d0 f i libcpmtd:wlocale.obj
 0002:0011d330       ??_E?$ctype@G@std@@MAEPAXI@Z 4021b330 f i libcpmtd:wlocale.obj
 0002:0011d330       ??_G?$ctype@G@std@@MAEPAXI@Z 4021b330 f i libcpmtd:wlocale.obj
 0002:0011d390       ??_E?$ctype@_W@std@@MAEPAXI@Z 4021b390 f i libcpmtd:wlocale.obj
 0002:0011d390       ??_G?$ctype@_W@std@@MAEPAXI@Z 4021b390 f i libcpmtd:wlocale.obj
 0002:0011d3f0       ??_E?$messages@G@std@@MAEPAXI@Z 4021b3f0 f i libcpmtd:wlocale.obj
 0002:0011d3f0       ??_G?$messages@G@std@@MAEPAXI@Z 4021b3f0 f i libcpmtd:wlocale.obj
 0002:0011d450       ??_E?$messages@_W@std@@MAEPAXI@Z 4021b450 f i libcpmtd:wlocale.obj
 0002:0011d450       ??_G?$messages@_W@std@@MAEPAXI@Z 4021b450 f i libcpmtd:wlocale.obj
 0002:0011d4b0       ??_E?$money_get@GV?$istreambuf_iterator@GU?$char_traits@G@std@@@std@@@std@@MAEPAXI@Z 4021b4b0 f i libcpmtd:wlocale.obj
 0002:0011d4b0       ??_G?$money_get@GV?$istreambuf_iterator@GU?$char_traits@G@std@@@std@@@std@@MAEPAXI@Z 4021b4b0 f i libcpmtd:wlocale.obj
 0002:0011d510       ??_E?$money_get@_WV?$istreambuf_iterator@_WU?$char_traits@_W@std@@@std@@@std@@MAEPAXI@Z 4021b510 f i libcpmtd:wlocale.obj
 0002:0011d510       ??_G?$money_get@_WV?$istreambuf_iterator@_WU?$char_traits@_W@std@@@std@@@std@@MAEPAXI@Z 4021b510 f i libcpmtd:wlocale.obj
 0002:0011d570       ??_E?$money_put@GV?$ostreambuf_iterator@GU?$char_traits@G@std@@@std@@@std@@MAEPAXI@Z 4021b570 f i libcpmtd:wlocale.obj
 0002:0011d570       ??_G?$money_put@GV?$ostreambuf_iterator@GU?$char_traits@G@std@@@std@@@std@@MAEPAXI@Z 4021b570 f i libcpmtd:wlocale.obj
 0002:0011d5d0       ??_E?$money_put@_WV?$ostreambuf_iterator@_WU?$char_traits@_W@std@@@std@@@std@@MAEPAXI@Z 4021b5d0 f i libcpmtd:wlocale.obj
 0002:0011d5d0       ??_G?$money_put@_WV?$ostreambuf_iterator@_WU?$char_traits@_W@std@@@std@@@std@@MAEPAXI@Z 4021b5d0 f i libcpmtd:wlocale.obj
 0002:0011d630       ??_E?$moneypunct@G$00@std@@MAEPAXI@Z 4021b630 f i libcpmtd:wlocale.obj
 0002:0011d630       ??_G?$moneypunct@G$00@std@@MAEPAXI@Z 4021b630 f i libcpmtd:wlocale.obj
 0002:0011d690       ??_E?$moneypunct@G$0A@@std@@MAEPAXI@Z 4021b690 f i libcpmtd:wlocale.obj
 0002:0011d690       ??_G?$moneypunct@G$0A@@std@@MAEPAXI@Z 4021b690 f i libcpmtd:wlocale.obj
 0002:0011d6f0       ??_E?$moneypunct@_W$00@std@@MAEPAXI@Z 4021b6f0 f i libcpmtd:wlocale.obj
 0002:0011d6f0       ??_G?$moneypunct@_W$00@std@@MAEPAXI@Z 4021b6f0 f i libcpmtd:wlocale.obj
 0002:0011d750       ??_E?$moneypunct@_W$0A@@std@@MAEPAXI@Z 4021b750 f i libcpmtd:wlocale.obj
 0002:0011d750       ??_G?$moneypunct@_W$0A@@std@@MAEPAXI@Z 4021b750 f i libcpmtd:wlocale.obj
 0002:0011d7b0       ??_E?$num_get@GV?$istreambuf_iterator@GU?$char_traits@G@std@@@std@@@std@@MAEPAXI@Z 4021b7b0 f i libcpmtd:wlocale.obj
 0002:0011d7b0       ??_G?$num_get@GV?$istreambuf_iterator@GU?$char_traits@G@std@@@std@@@std@@MAEPAXI@Z 4021b7b0 f i libcpmtd:wlocale.obj
 0002:0011d810       ??_E?$num_get@_WV?$istreambuf_iterator@_WU?$char_traits@_W@std@@@std@@@std@@MAEPAXI@Z 4021b810 f i libcpmtd:wlocale.obj
 0002:0011d810       ??_G?$num_get@_WV?$istreambuf_iterator@_WU?$char_traits@_W@std@@@std@@@std@@MAEPAXI@Z 4021b810 f i libcpmtd:wlocale.obj
 0002:0011d870       ??_E?$num_put@GV?$ostreambuf_iterator@GU?$char_traits@G@std@@@std@@@std@@MAEPAXI@Z 4021b870 f i libcpmtd:wlocale.obj
 0002:0011d870       ??_G?$num_put@GV?$ostreambuf_iterator@GU?$char_traits@G@std@@@std@@@std@@MAEPAXI@Z 4021b870 f i libcpmtd:wlocale.obj
 0002:0011d8d0       ??_E?$num_put@_WV?$ostreambuf_iterator@_WU?$char_traits@_W@std@@@std@@@std@@MAEPAXI@Z 4021b8d0 f i libcpmtd:wlocale.obj
 0002:0011d8d0       ??_G?$num_put@_WV?$ostreambuf_iterator@_WU?$char_traits@_W@std@@@std@@@std@@MAEPAXI@Z 4021b8d0 f i libcpmtd:wlocale.obj
 0002:0011d930       ??_E?$numpunct@G@std@@MAEPAXI@Z 4021b930 f i libcpmtd:wlocale.obj
 0002:0011d930       ??_G?$numpunct@G@std@@MAEPAXI@Z 4021b930 f i libcpmtd:wlocale.obj
 0002:0011d990       ??_E?$numpunct@_W@std@@MAEPAXI@Z 4021b990 f i libcpmtd:wlocale.obj
 0002:0011d990       ??_G?$numpunct@_W@std@@MAEPAXI@Z 4021b990 f i libcpmtd:wlocale.obj
 0002:0011d9f0       ??_E?$time_get@GV?$istreambuf_iterator@GU?$char_traits@G@std@@@std@@@std@@MAEPAXI@Z 4021b9f0 f i libcpmtd:wlocale.obj
 0002:0011d9f0       ??_G?$time_get@GV?$istreambuf_iterator@GU?$char_traits@G@std@@@std@@@std@@MAEPAXI@Z 4021b9f0 f i libcpmtd:wlocale.obj
 0002:0011da50       ??_E?$time_get@_WV?$istreambuf_iterator@_WU?$char_traits@_W@std@@@std@@@std@@MAEPAXI@Z 4021ba50 f i libcpmtd:wlocale.obj
 0002:0011da50       ??_G?$time_get@_WV?$istreambuf_iterator@_WU?$char_traits@_W@std@@@std@@@std@@MAEPAXI@Z 4021ba50 f i libcpmtd:wlocale.obj
 0002:0011dab0       ??_E?$time_put@GV?$ostreambuf_iterator@GU?$char_traits@G@std@@@std@@@std@@MAEPAXI@Z 4021bab0 f i libcpmtd:wlocale.obj
 0002:0011dab0       ??_G?$time_put@GV?$ostreambuf_iterator@GU?$char_traits@G@std@@@std@@@std@@MAEPAXI@Z 4021bab0 f i libcpmtd:wlocale.obj
 0002:0011db10       ??_E?$time_put@_WV?$ostreambuf_iterator@_WU?$char_traits@_W@std@@@std@@@std@@MAEPAXI@Z 4021bb10 f i libcpmtd:wlocale.obj
 0002:0011db10       ??_G?$time_put@_WV?$ostreambuf_iterator@_WU?$char_traits@_W@std@@@std@@@std@@MAEPAXI@Z 4021bb10 f i libcpmtd:wlocale.obj
 0002:0011db70       ??_Emessages_base@std@@UAEPAXI@Z 4021bb70 f i libcpmtd:wlocale.obj
 0002:0011db70       ??_Gmessages_base@std@@UAEPAXI@Z 4021bb70 f i libcpmtd:wlocale.obj
 0002:0011dbd0       ??_Emoney_base@std@@UAEPAXI@Z 4021bbd0 f i libcpmtd:wlocale.obj
 0002:0011dbd0       ??_Gmoney_base@std@@UAEPAXI@Z 4021bbd0 f i libcpmtd:wlocale.obj
 0002:0011dc30       ??_Etime_base@std@@UAEPAXI@Z 4021bc30 f i libcpmtd:wlocale.obj
 0002:0011dc30       ??_Gtime_base@std@@UAEPAXI@Z 4021bc30 f i libcpmtd:wlocale.obj
 0002:0011dc90       ?_Activate_SSO_buffer@?$_String_val@U?$_Simple_types@G@std@@@std@@QAEXXZ 4021bc90 f i libcpmtd:wlocale.obj
 0002:0011dce0       ?_Activate_SSO_buffer@?$_String_val@U?$_Simple_types@_W@std@@@std@@QAEXXZ 4021bce0 f i libcpmtd:wlocale.obj
 0002:0011dd30       ?_Apply_annotation@?$basic_string@GU?$char_traits@G@std@@V?$allocator@G@2@@std@@CAXQBGIII@Z 4021bd30 f i libcpmtd:wlocale.obj
 0002:0011de10       ?_Apply_annotation@?$basic_string@_WU?$char_traits@_W@std@@V?$allocator@_W@2@@std@@CAXQB_WIII@Z 4021be10 f i libcpmtd:wlocale.obj
 0002:0011def0       ?_C_str@?$_Yarn@_W@std@@QBEPB_WXZ 4021bef0 f i libcpmtd:wlocale.obj
 0002:0011df30       ?_Calculate_growth@?$basic_string@GU?$char_traits@G@std@@V?$allocator@G@2@@std@@ABEII@Z 4021bf30 f i libcpmtd:wlocale.obj
 0002:0011df80       ?_Calculate_growth@?$basic_string@GU?$char_traits@G@std@@V?$allocator@G@2@@std@@CAIIII@Z 4021bf80 f i libcpmtd:wlocale.obj
 0002:0011dff0       ?_Calculate_growth@?$basic_string@_WU?$char_traits@_W@std@@V?$allocator@_W@2@@std@@ABEII@Z 4021bff0 f i libcpmtd:wlocale.obj
 0002:0011e040       ?_Calculate_growth@?$basic_string@_WU?$char_traits@_W@std@@V?$allocator@_W@2@@std@@CAIIII@Z 4021c040 f i libcpmtd:wlocale.obj
 0002:0011e0b0       ?_Check_offset@?$_String_val@U?$_Simple_types@G@std@@@std@@QBEXI@Z 4021c0b0 f i libcpmtd:wlocale.obj
 0002:0011e0e0       ?_Check_offset@?$_String_val@U?$_Simple_types@_W@std@@@std@@QBEXI@Z 4021c0e0 f i libcpmtd:wlocale.obj
 0002:0011e110       ?_Compat@?$_String_const_iterator@V?$_String_val@U?$_Simple_types@G@std@@@std@@@std@@QBEXABV12@@Z 4021c110 f i libcpmtd:wlocale.obj
 0002:0011e180       ?_Compat@?$_String_const_iterator@V?$_String_val@U?$_Simple_types@_W@std@@@std@@@std@@QBEXABV12@@Z 4021c180 f i libcpmtd:wlocale.obj
 0002:0011e1f0       ?_Construct_empty@?$basic_string@GU?$char_traits@G@std@@V?$allocator@G@2@@std@@AAEXXZ 4021c1f0 f i libcpmtd:wlocale.obj
 0002:0011e280       ?_Construct_empty@?$basic_string@_WU?$char_traits@_W@std@@V?$allocator@_W@2@@std@@AAEXXZ 4021c280 f i libcpmtd:wlocale.obj
 0002:0011e310       ?_Create_annotation@?$basic_string@GU?$char_traits@G@std@@V?$allocator@G@2@@std@@ABEXXZ 4021c310 f i libcpmtd:wlocale.obj
 0002:0011e380       ?_Create_annotation@?$basic_string@_WU?$char_traits@_W@std@@V?$allocator@_W@2@@std@@ABEXXZ 4021c380 f i libcpmtd:wlocale.obj
 0002:0011e3f0       ?_Deallocate_for_capacity@?$basic_string@GU?$char_traits@G@std@@V?$allocator@G@2@@std@@CAXAAV?$allocator@G@2@QAGI@Z 4021c3f0 f i libcpmtd:wlocale.obj
 0002:0011e410       ?_Deallocate_for_capacity@?$basic_string@_WU?$char_traits@_W@std@@V?$allocator@_W@2@@std@@CAXAAV?$allocator@_W@2@QA_WI@Z 4021c410 f i libcpmtd:wlocale.obj
 0002:0011e430       ?_Donarrow@?$ctype@G@std@@IBEDGD@Z 4021c430 f i libcpmtd:wlocale.obj
 0002:0011e4b0       ?_Donarrow@?$ctype@_W@std@@IBED_WD@Z 4021c4b0 f i libcpmtd:wlocale.obj
 0002:0011e530       ?_Dowiden@?$ctype@G@std@@IBEGD@Z 4021c530 f i libcpmtd:wlocale.obj
 0002:0011e590       ?_Dowiden@?$ctype@_W@std@@IBE_WD@Z 4021c590 f i libcpmtd:wlocale.obj
 0002:0011e600       ?_Empty@?$_Yarn@_W@std@@QBE_NXZ 4021c600 f i libcpmtd:wlocale.obj
 0002:0011e640       ?_Eos@?$basic_string@GU?$char_traits@G@std@@V?$allocator@G@2@@std@@AAEXI@Z 4021c640 f i libcpmtd:wlocale.obj
 0002:0011e6a0       ?_Eos@?$basic_string@_WU?$char_traits@_W@std@@V?$allocator@_W@2@@std@@AAEXI@Z 4021c6a0 f i libcpmtd:wlocale.obj
 0002:0011e700       ?_Ffmt@?$num_put@GV?$ostreambuf_iterator@GU?$char_traits@G@std@@@std@@@std@@ABAPADPADDH@Z 4021c700 f i libcpmtd:wlocale.obj
 0002:0011e860       ?_Ffmt@?$num_put@_WV?$ostreambuf_iterator@_WU?$char_traits@_W@std@@@std@@@std@@ABAPADPADDH@Z 4021c860 f i libcpmtd:wlocale.obj
 0002:0011e9c0       ?_Fnv1a_append_bytes@std@@YAIIQBEI@Z 4021c9c0 f i libcpmtd:wlocale.obj
 0002:0011ea10       ?_Get_first@?$_Compressed_pair@V?$allocator@G@std@@V?$_String_val@U?$_Simple_types@G@std@@@2@$00@std@@QAEAAV?$allocator@G@2@XZ 4021ca10 f i libcpmtd:wlocale.obj
 0002:0011ea30       ?_Get_first@?$_Compressed_pair@V?$allocator@G@std@@V?$_String_val@U?$_Simple_types@G@std@@@2@$00@std@@QBEABV?$allocator@G@2@XZ 4021ca30 f i libcpmtd:wlocale.obj
 0002:0011ea50       ?_Get_first@?$_Compressed_pair@V?$allocator@_W@std@@V?$_String_val@U?$_Simple_types@_W@std@@@2@$00@std@@QAEAAV?$allocator@_W@2@XZ 4021ca50 f i libcpmtd:wlocale.obj
 0002:0011ea70       ?_Get_first@?$_Compressed_pair@V?$allocator@_W@std@@V?$_String_val@U?$_Simple_types@_W@std@@@2@$00@std@@QBEABV?$allocator@_W@2@XZ 4021ca70 f i libcpmtd:wlocale.obj
 0002:0011ea90       ?_Getal@?$basic_string@GU?$char_traits@G@std@@V?$allocator@G@2@@std@@AAEAAV?$allocator@G@2@XZ 4021ca90 f i libcpmtd:wlocale.obj
 0002:0011eab0       ?_Getal@?$basic_string@GU?$char_traits@G@std@@V?$allocator@G@2@@std@@ABEABV?$allocator@G@2@XZ 4021cab0 f i libcpmtd:wlocale.obj
 0002:0011ead0       ?_Getal@?$basic_string@_WU?$char_traits@_W@std@@V?$allocator@_W@2@@std@@AAEAAV?$allocator@_W@2@XZ 4021cad0 f i libcpmtd:wlocale.obj
 0002:0011eaf0       ?_Getal@?$basic_string@_WU?$char_traits@_W@std@@V?$allocator@_W@2@@std@@ABEABV?$allocator@_W@2@XZ 4021caf0 f i libcpmtd:wlocale.obj
 0002:0011eb10       ?_Getcat@?$codecvt@GDU_Mbstatet@@@std@@SAIPAPBVfacet@locale@2@PBV42@@Z 4021cb10 f i libcpmtd:wlocale.obj
 0002:0011ec40       ?_Getcat@?$codecvt@_WDU_Mbstatet@@@std@@SAIPAPBVfacet@locale@2@PBV42@@Z 4021cc40 f i libcpmtd:wlocale.obj
 0002:0011ed70       ?_Getcat@?$collate@G@std@@SAIPAPBVfacet@locale@2@PBV42@@Z 4021cd70 f i libcpmtd:wlocale.obj
 0002:0011ef00       ?_Getcat@?$collate@_W@std@@SAIPAPBVfacet@locale@2@PBV42@@Z 4021cf00 f i libcpmtd:wlocale.obj
 0002:0011f090       ?_Getcat@?$ctype@G@std@@SAIPAPBVfacet@locale@2@PBV42@@Z 4021d090 f i libcpmtd:wlocale.obj
 0002:0011f1c0       ?_Getcat@?$ctype@_W@std@@SAIPAPBVfacet@locale@2@PBV42@@Z 4021d1c0 f i libcpmtd:wlocale.obj
 0002:0011f2f0       ?_Getcat@?$messages@G@std@@SAIPAPBVfacet@locale@2@PBV42@@Z 4021d2f0 f i libcpmtd:wlocale.obj
 0002:0011f420       ?_Getcat@?$messages@_W@std@@SAIPAPBVfacet@locale@2@PBV42@@Z 4021d420 f i libcpmtd:wlocale.obj
 0002:0011f550       ?_Getcat@?$money_get@GV?$istreambuf_iterator@GU?$char_traits@G@std@@@std@@@std@@SAIPAPBVfacet@locale@2@PBV42@@Z 4021d550 f i libcpmtd:wlocale.obj
 0002:0011f680       ?_Getcat@?$money_get@_WV?$istreambuf_iterator@_WU?$char_traits@_W@std@@@std@@@std@@SAIPAPBVfacet@locale@2@PBV42@@Z 4021d680 f i libcpmtd:wlocale.obj
 0002:0011f7b0       ?_Getcat@?$money_put@GV?$ostreambuf_iterator@GU?$char_traits@G@std@@@std@@@std@@SAIPAPBVfacet@locale@2@PBV42@@Z 4021d7b0 f i libcpmtd:wlocale.obj
 0002:0011f8e0       ?_Getcat@?$money_put@_WV?$ostreambuf_iterator@_WU?$char_traits@_W@std@@@std@@@std@@SAIPAPBVfacet@locale@2@PBV42@@Z 4021d8e0 f i libcpmtd:wlocale.obj
 0002:0011fa10       ?_Getcat@?$moneypunct@G$00@std@@SAIPAPBVfacet@locale@2@PBV42@@Z 4021da10 f i libcpmtd:wlocale.obj
 0002:0011fb40       ?_Getcat@?$moneypunct@G$0A@@std@@SAIPAPBVfacet@locale@2@PBV42@@Z 4021db40 f i libcpmtd:wlocale.obj
 0002:0011fc70       ?_Getcat@?$moneypunct@_W$00@std@@SAIPAPBVfacet@locale@2@PBV42@@Z 4021dc70 f i libcpmtd:wlocale.obj
 0002:0011fda0       ?_Getcat@?$moneypunct@_W$0A@@std@@SAIPAPBVfacet@locale@2@PBV42@@Z 4021dda0 f i libcpmtd:wlocale.obj
 0002:0011fed0       ?_Getcat@?$num_get@GV?$istreambuf_iterator@GU?$char_traits@G@std@@@std@@@std@@SAIPAPBVfacet@locale@2@PBV42@@Z 4021ded0 f i libcpmtd:wlocale.obj
 0002:00120000       ?_Getcat@?$num_get@_WV?$istreambuf_iterator@_WU?$char_traits@_W@std@@@std@@@std@@SAIPAPBVfacet@locale@2@PBV42@@Z 4021e000 f i libcpmtd:wlocale.obj
 0002:00120130       ?_Getcat@?$num_put@GV?$ostreambuf_iterator@GU?$char_traits@G@std@@@std@@@std@@SAIPAPBVfacet@locale@2@PBV42@@Z 4021e130 f i libcpmtd:wlocale.obj
 0002:00120260       ?_Getcat@?$num_put@_WV?$ostreambuf_iterator@_WU?$char_traits@_W@std@@@std@@@std@@SAIPAPBVfacet@locale@2@PBV42@@Z 4021e260 f i libcpmtd:wlocale.obj
 0002:00120390       ?_Getcat@?$numpunct@G@std@@SAIPAPBVfacet@locale@2@PBV42@@Z 4021e390 f i libcpmtd:wlocale.obj
 0002:001204c0       ?_Getcat@?$numpunct@_W@std@@SAIPAPBVfacet@locale@2@PBV42@@Z 4021e4c0 f i libcpmtd:wlocale.obj
 0002:001205f0       ?_Getcat@?$time_get@GV?$istreambuf_iterator@GU?$char_traits@G@std@@@std@@@std@@SAIPAPBVfacet@locale@2@PBV42@@Z 4021e5f0 f i libcpmtd:wlocale.obj
 0002:00120720       ?_Getcat@?$time_get@_WV?$istreambuf_iterator@_WU?$char_traits@_W@std@@@std@@@std@@SAIPAPBVfacet@locale@2@PBV42@@Z 4021e720 f i libcpmtd:wlocale.obj
 0002:00120850       ?_Getcat@?$time_put@GV?$ostreambuf_iterator@GU?$char_traits@G@std@@@std@@@std@@SAIPAPBVfacet@locale@2@PBV42@@Z 4021e850 f i libcpmtd:wlocale.obj
 0002:00120980       ?_Getcat@?$time_put@_WV?$ostreambuf_iterator@_WU?$char_traits@_W@std@@@std@@@std@@SAIPAPBVfacet@locale@2@PBV42@@Z 4021e980 f i libcpmtd:wlocale.obj
 0002:00120ab0       ?_Getcoll@_Locinfo@std@@QBE?AU_Collvec@@XZ 4021eab0 f i libcpmtd:wlocale.obj
 0002:00120ae0       ?_Getdateorder@_Locinfo@std@@QBEHXZ 4021eae0 f i libcpmtd:wlocale.obj
 0002:00120b00       ?_Getdays@_Locinfo@std@@QBEPBDXZ 4021eb00 f i libcpmtd:wlocale.obj
 0002:00120b80       ?_Getfmt@?$time_get@GV?$istreambuf_iterator@GU?$char_traits@G@std@@@std@@@std@@IBE?AV?$istreambuf_iterator@GU?$char_traits@G@std@@@2@V32@0AAVios_base@2@AAHPAUtm@@PBD@Z 4021eb80 f i libcpmtd:wlocale.obj
 0002:00120df0       ?_Getfmt@?$time_get@_WV?$istreambuf_iterator@_WU?$char_traits@_W@std@@@std@@@std@@IBE?AV?$istreambuf_iterator@_WU?$char_traits@_W@std@@@2@V32@0AAVios_base@2@AAHPAUtm@@PBD@Z 4021edf0 f i libcpmtd:wlocale.obj
 0002:00121060       ?_Getint@?$time_get@GV?$istreambuf_iterator@GU?$char_traits@G@std@@@std@@@std@@ABAHAAV?$istreambuf_iterator@GU?$char_traits@G@std@@@2@0HHAAHABV?$ctype@G@2@@Z 4021f060 f i libcpmtd:wlocale.obj
 0002:001210a0       ?_Getint@?$time_get@_WV?$istreambuf_iterator@_WU?$char_traits@_W@std@@@std@@@std@@ABAHAAV?$istreambuf_iterator@_WU?$char_traits@_W@std@@@2@0HHAAHABV?$ctype@_W@2@@Z 4021f0a0 f i libcpmtd:wlocale.obj
 0002:001210e0       ?_Getmfld@?$money_get@GV?$istreambuf_iterator@GU?$char_traits@G@std@@@std@@@std@@ABE?AV?$basic_string@DU?$char_traits@D@std@@V?$allocator@D@2@@2@AAV?$istreambuf_iterator@GU?$char_traits@G@std@@@2@0_NAAVios_base@2@AAY0M@G@Z 4021f0e0 f i libcpmtd:wlocale.obj
 0002:00122580       ?_Getmfld@?$money_get@_WV?$istreambuf_iterator@_WU?$char_traits@_W@std@@@std@@@std@@ABE?AV?$basic_string@DU?$char_traits@D@std@@V?$allocator@D@2@@2@AAV?$istreambuf_iterator@_WU?$char_traits@_W@std@@@2@0_NAAVios_base@2@AAY0M@_W@Z 40220580 f i libcpmtd:wlocale.obj
 0002:00123a20       ?_Getmonths@_Locinfo@std@@QBEPBDXZ 40221a20 f i libcpmtd:wlocale.obj
 0002:00123aa0       ?_Getptr@_Timevec@std@@QBEPAXXZ 40221aa0 f i libcpmtd:wlocale.obj
 0002:00123ac0       ?_Gnavail@?$basic_streambuf@GU?$char_traits@G@std@@@std@@IBE_JXZ 40221ac0 f i libcpmtd:wlocale.obj
 0002:00123b00       ?_Gnavail@?$basic_streambuf@_WU?$char_traits@_W@std@@@std@@IBE_JXZ 40221b00 f i libcpmtd:wlocale.obj
 0002:00123b40       ?_Gninc@?$basic_streambuf@GU?$char_traits@G@std@@@std@@IAEPAGXZ 40221b40 f i libcpmtd:wlocale.obj
 0002:00123ba0       ?_Gninc@?$basic_streambuf@_WU?$char_traits@_W@std@@@std@@IAEPA_WXZ 40221ba0 f i libcpmtd:wlocale.obj
 0002:00123c00       ?_Ifmt@?$num_put@GV?$ostreambuf_iterator@GU?$char_traits@G@std@@@std@@@std@@ABAPADPADPBDH@Z 40221c00 f i libcpmtd:wlocale.obj
 0002:00123d70       ?_Ifmt@?$num_put@_WV?$ostreambuf_iterator@_WU?$char_traits@_W@std@@@std@@@std@@ABAPADPADPBDH@Z 40221d70 f i libcpmtd:wlocale.obj
 0002:00123ee0       ?_Inc@?$istreambuf_iterator@GU?$char_traits@G@std@@@std@@AAEXXZ 40221ee0 f i libcpmtd:wlocale.obj
 0002:00123f60       ?_Inc@?$istreambuf_iterator@_WU?$char_traits@_W@std@@@std@@AAEXXZ 40221f60 f i libcpmtd:wlocale.obj
 0002:00123fe0       ?_Init@?$_Mpunct@G@std@@IAEXABV_Locinfo@2@_N@Z 40221fe0 f i libcpmtd:wlocale.obj
 0002:00124350       ?_Init@?$_Mpunct@_W@std@@IAEXABV_Locinfo@2@_N@Z 40222350 f i libcpmtd:wlocale.obj
 0002:00124650       ?_Init@?$codecvt@GDU_Mbstatet@@@std@@IAEXABV_Locinfo@2@@Z 40222650 f i libcpmtd:wlocale.obj
 0002:001246b0       ?_Init@?$codecvt@_WDU_Mbstatet@@@std@@IAEXABV_Locinfo@2@@Z 402226b0 f i libcpmtd:wlocale.obj
 0002:00124710       ?_Init@?$collate@G@std@@IAEXABV_Locinfo@2@@Z 40222710 f i libcpmtd:wlocale.obj
 0002:00124750       ?_Init@?$collate@_W@std@@IAEXABV_Locinfo@2@@Z 40222750 f i libcpmtd:wlocale.obj
 0002:00124790       ?_Init@?$ctype@G@std@@IAEXABV_Locinfo@2@@Z 40222790 f i libcpmtd:wlocale.obj
 0002:00124820       ?_Init@?$ctype@_W@std@@IAEXABV_Locinfo@2@@Z 40222820 f i libcpmtd:wlocale.obj
 0002:001248b0       ?_Init@?$messages@G@std@@IAEXABV_Locinfo@2@@Z 402228b0 f i libcpmtd:wlocale.obj
 0002:001248c0       ?_Init@?$messages@_W@std@@IAEXABV_Locinfo@2@@Z 402228c0 f i libcpmtd:wlocale.obj
 0002:001248d0       ?_Init@?$money_get@GV?$istreambuf_iterator@GU?$char_traits@G@std@@@std@@@std@@IAEXABV_Locinfo@2@@Z 402228d0 f i libcpmtd:wlocale.obj
 0002:001248e0       ?_Init@?$money_get@_WV?$istreambuf_iterator@_WU?$char_traits@_W@std@@@std@@@std@@IAEXABV_Locinfo@2@@Z 402228e0 f i libcpmtd:wlocale.obj
 0002:001248f0       ?_Init@?$money_put@GV?$ostreambuf_iterator@GU?$char_traits@G@std@@@std@@@std@@IAEXABV_Locinfo@2@@Z 402228f0 f i libcpmtd:wlocale.obj
 0002:00124900       ?_Init@?$money_put@_WV?$ostreambuf_iterator@_WU?$char_traits@_W@std@@@std@@@std@@IAEXABV_Locinfo@2@@Z 40222900 f i libcpmtd:wlocale.obj
 0002:00124910       ?_Init@?$num_get@GV?$istreambuf_iterator@GU?$char_traits@G@std@@@std@@@std@@IAEXABV_Locinfo@2@@Z 40222910 f i libcpmtd:wlocale.obj
 0002:00124920       ?_Init@?$num_get@_WV?$istreambuf_iterator@_WU?$char_traits@_W@std@@@std@@@std@@IAEXABV_Locinfo@2@@Z 40222920 f i libcpmtd:wlocale.obj
 0002:00124930       ?_Init@?$num_put@GV?$ostreambuf_iterator@GU?$char_traits@G@std@@@std@@@std@@IAEXABV_Locinfo@2@@Z 40222930 f i libcpmtd:wlocale.obj
 0002:00124940       ?_Init@?$num_put@_WV?$ostreambuf_iterator@_WU?$char_traits@_W@std@@@std@@@std@@IAEXABV_Locinfo@2@@Z 40222940 f i libcpmtd:wlocale.obj
 0002:00124950       ?_Init@?$numpunct@G@std@@IAEXABV_Locinfo@2@_N@Z 40222950 f i libcpmtd:wlocale.obj
 0002:00124b50       ?_Init@?$numpunct@_W@std@@IAEXABV_Locinfo@2@_N@Z 40222b50 f i libcpmtd:wlocale.obj
 0002:00124d30       ?_Init@?$time_get@GV?$istreambuf_iterator@GU?$char_traits@G@std@@@std@@@std@@IAEXABV_Locinfo@2@@Z 40222d30 f i libcpmtd:wlocale.obj
 0002:00124df0       ?_Init@?$time_get@_WV?$istreambuf_iterator@_WU?$char_traits@_W@std@@@std@@@std@@IAEXABV_Locinfo@2@@Z 40222df0 f i libcpmtd:wlocale.obj
 0002:00124eb0       ?_Init@?$time_put@GV?$ostreambuf_iterator@GU?$char_traits@G@std@@@std@@@std@@IAEXABV_Locinfo@2@@Z 40222eb0 f i libcpmtd:wlocale.obj
 0002:00124f50       ?_Init@?$time_put@_WV?$ostreambuf_iterator@_WU?$char_traits@_W@std@@@std@@@std@@IAEXABV_Locinfo@2@@Z 40222f50 f i libcpmtd:wlocale.obj
 0002:00124ff0       ?_Iput@?$num_put@GV?$ostreambuf_iterator@GU?$char_traits@G@std@@@std@@@std@@ABA?AV?$ostreambuf_iterator@GU?$char_traits@G@std@@@2@V32@AAVios_base@2@GPADI@Z 40222ff0 f i libcpmtd:wlocale.obj
 0002:00125520       ?_Iput@?$num_put@_WV?$ostreambuf_iterator@_WU?$char_traits@_W@std@@@std@@@std@@ABA?AV?$ostreambuf_iterator@_WU?$char_traits@_W@std@@@2@V32@AAVios_base@2@_WPADI@Z 40223520 f i libcpmtd:wlocale.obj
 0002:00125a50       ?_Is_constant_evaluated@std@@YA_NXZ 40223a50 f i libcpmtd:wlocale.obj
 0002:00125a60       ?_Large_mode_engaged@?$_String_val@U?$_Simple_types@G@std@@@std@@QBE_NXZ 40223a60 f i libcpmtd:wlocale.obj
 0002:00125aa0       ?_Large_mode_engaged@?$_String_val@U?$_Simple_types@_W@std@@@std@@QBE_NXZ 40223aa0 f i libcpmtd:wlocale.obj
 0002:00125ae0       ?_Makeushloc@_Locimp@locale@std@@CAXABV_Locinfo@3@HPAV123@PBV23@@Z 40223ae0 f   libcpmtd:wlocale.obj
 0002:001268e0       ?_Makewloc@_Locimp@locale@std@@CAXABV_Locinfo@3@HPAV123@PBV23@@Z 402248e0 f   libcpmtd:wlocale.obj
 0002:001276e0       ?_Maklocwcs@std@@YAPA_WPB_W@Z 402256e0 f i libcpmtd:wlocale.obj
 0002:00127750       ?_Makpat@?$_Mpunct@G@std@@AAEXAAUpattern@money_base@2@III@Z 40225750 f i libcpmtd:wlocale.obj
 0002:001277d0       ?_Makpat@?$_Mpunct@_W@std@@AAEXAAUpattern@money_base@2@III@Z 402257d0 f i libcpmtd:wlocale.obj
 0002:00127850       ?_Modify_annotation@?$basic_string@GU?$char_traits@G@std@@V?$allocator@G@2@@std@@ABEXII@Z 40225850 f i libcpmtd:wlocale.obj
 0002:001278b0       ?_Modify_annotation@?$basic_string@_WU?$char_traits@_W@std@@V?$allocator@_W@2@@std@@ABEXII@Z 402258b0 f i libcpmtd:wlocale.obj
 0002:00127910       ?_Myptr@?$_String_val@U?$_Simple_types@G@std@@@std@@QAEPAGXZ 40225910 f i libcpmtd:wlocale.obj
 0002:00127960       ?_Myptr@?$_String_val@U?$_Simple_types@G@std@@@std@@QBEPBGXZ 40225960 f i libcpmtd:wlocale.obj
 0002:001279b0       ?_Myptr@?$_String_val@U?$_Simple_types@_W@std@@@std@@QAEPA_WXZ 402259b0 f i libcpmtd:wlocale.obj
 0002:00127a00       ?_Myptr@?$_String_val@U?$_Simple_types@_W@std@@@std@@QBEPB_WXZ 40225a00 f i libcpmtd:wlocale.obj
 0002:00127a50       ?_Peek@?$istreambuf_iterator@GU?$char_traits@G@std@@@std@@ABEGXZ 40225a50 f i libcpmtd:wlocale.obj
 0002:00127af0       ?_Peek@?$istreambuf_iterator@_WU?$char_traits@_W@std@@@std@@ABE_WXZ 40225af0 f i libcpmtd:wlocale.obj
 0002:00127b90       ?_Pnavail@?$basic_streambuf@GU?$char_traits@G@std@@@std@@IBE_JXZ 40225b90 f i libcpmtd:wlocale.obj
 0002:00127bd0       ?_Pnavail@?$basic_streambuf@_WU?$char_traits@_W@std@@@std@@IBE_JXZ 40225bd0 f i libcpmtd:wlocale.obj
 0002:00127c10       ?_Pninc@?$basic_streambuf@GU?$char_traits@G@std@@@std@@IAEPAGXZ 40225c10 f i libcpmtd:wlocale.obj
 0002:00127c70       ?_Pninc@?$basic_streambuf@_WU?$char_traits@_W@std@@@std@@IAEPA_WXZ 40225c70 f i libcpmtd:wlocale.obj
 0002:00127cd0       ?_Put@?$money_put@GV?$ostreambuf_iterator@GU?$char_traits@G@std@@@std@@@std@@CA?AV?$ostreambuf_iterator@GU?$char_traits@G@std@@@2@V32@V?$_String_const_iterator@V?$_String_val@U?$_Simple_types@G@std@@@std@@@2@I@Z 40225cd0 f i libcpmtd:wlocale.obj
 0002:00127da0       ?_Put@?$money_put@_WV?$ostreambuf_iterator@_WU?$char_traits@_W@std@@@std@@@std@@CA?AV?$ostreambuf_iterator@_WU?$char_traits@_W@std@@@2@V32@V?$_String_const_iterator@V?$_String_val@U?$_Simple_types@_W@std@@@std@@@2@I@Z 40225da0 f i libcpmtd:wlocale.obj
 0002:00127e70       ?_Put@?$num_put@GV?$ostreambuf_iterator@GU?$char_traits@G@std@@@std@@@std@@ABA?AV?$ostreambuf_iterator@GU?$char_traits@G@std@@@2@V32@PBGI@Z 40225e70 f i libcpmtd:wlocale.obj
 0002:00127ef0       ?_Put@?$num_put@_WV?$ostreambuf_iterator@_WU?$char_traits@_W@std@@@std@@@std@@ABA?AV?$ostreambuf_iterator@_WU?$char_traits@_W@std@@@2@V32@PB_WI@Z 40225ef0 f i libcpmtd:wlocale.obj
 0002:00127f70       ?_Putmfld@?$money_put@GV?$ostreambuf_iterator@GU?$char_traits@G@std@@@std@@@std@@ABE?AV?$ostreambuf_iterator@GU?$char_traits@G@std@@@2@V32@_NAAVios_base@2@G1V?$basic_string@GU?$char_traits@G@std@@V?$allocator@G@2@@2@G@Z 40225f70 f i libcpmtd:wlocale.obj
 0002:00129220       ?_Putmfld@?$money_put@_WV?$ostreambuf_iterator@_WU?$char_traits@_W@std@@@std@@@std@@ABE?AV?$ostreambuf_iterator@_WU?$char_traits@_W@std@@@2@V32@_NAAVios_base@2@_W1V?$basic_string@_WU?$char_traits@_W@std@@V?$allocator@_W@2@@2@3@Z 40227220 f i libcpmtd:wlocale.obj
 0002:0012a4d0       ?_Remove_annotation@?$basic_string@GU?$char_traits@G@std@@V?$allocator@G@2@@std@@ABEXXZ 402284d0 f i libcpmtd:wlocale.obj
 0002:0012a540       ?_Remove_annotation@?$basic_string@_WU?$char_traits@_W@std@@V?$allocator@_W@2@@std@@ABEXXZ 40228540 f i libcpmtd:wlocale.obj
 0002:0012a5b0       ?_Rep@?$money_put@GV?$ostreambuf_iterator@GU?$char_traits@G@std@@@std@@@std@@CA?AV?$ostreambuf_iterator@GU?$char_traits@G@std@@@2@V32@GI@Z 402285b0 f i libcpmtd:wlocale.obj
 0002:0012a610       ?_Rep@?$money_put@_WV?$ostreambuf_iterator@_WU?$char_traits@_W@std@@@std@@@std@@CA?AV?$ostreambuf_iterator@_WU?$char_traits@_W@std@@@2@V32@_WI@Z 40228610 f i libcpmtd:wlocale.obj
 0002:0012a670       ?_Rep@?$num_put@GV?$ostreambuf_iterator@GU?$char_traits@G@std@@@std@@@std@@ABA?AV?$ostreambuf_iterator@GU?$char_traits@G@std@@@2@V32@GI@Z 40228670 f i libcpmtd:wlocale.obj
 0002:0012a6d0       ?_Rep@?$num_put@_WV?$ostreambuf_iterator@_WU?$char_traits@_W@std@@@std@@@std@@ABA?AV?$ostreambuf_iterator@_WU?$char_traits@_W@std@@@2@V32@_WI@Z 402286d0 f i libcpmtd:wlocale.obj
 0002:0012a730       ?_Swap_proxy_and_iterators@?$basic_string@GU?$char_traits@G@std@@V?$allocator@G@2@@std@@AAEXAAV12@@Z 40228730 f i libcpmtd:wlocale.obj
 0002:0012a760       ?_Swap_proxy_and_iterators@?$basic_string@_WU?$char_traits@_W@std@@V?$allocator@_W@2@@std@@AAEXAAV12@@Z 40228760 f i libcpmtd:wlocale.obj
 0002:0012a790       ?_Switch_to_buf@_Bxty@?$_String_val@U?$_Simple_types@G@std@@@std@@QAEXXZ 40228790 f i libcpmtd:wlocale.obj
 0002:0012a7f0       ?_Switch_to_buf@_Bxty@?$_String_val@U?$_Simple_types@_W@std@@@std@@QAEXXZ 402287f0 f i libcpmtd:wlocale.obj
 0002:0012a850       ?_Take_contents@?$basic_string@GU?$char_traits@G@std@@V?$allocator@G@2@@std@@AAEXAAV12@@Z 40228850 f i libcpmtd:wlocale.obj
 0002:0012a960       ?_Take_contents@?$basic_string@_WU?$char_traits@_W@std@@V?$allocator@_W@2@@std@@AAEXAAV12@@Z 40228960 f i libcpmtd:wlocale.obj
 0002:0012aa70       ?_Tidy@?$_Mpunct@G@std@@AAEXXZ 40228a70 f i libcpmtd:wlocale.obj
 0002:0012aad0       ?_Tidy@?$_Mpunct@_W@std@@AAEXXZ 40228ad0 f i libcpmtd:wlocale.obj
 0002:0012ab30       ?_Tidy@?$numpunct@G@std@@AAEXXZ 40228b30 f i libcpmtd:wlocale.obj
 0002:0012ab80       ?_Tidy@?$numpunct@_W@std@@AAEXXZ 40228b80 f i libcpmtd:wlocale.obj
 0002:0012abd0       ?_Tidy@?$time_get@GV?$istreambuf_iterator@GU?$char_traits@G@std@@@std@@@std@@AAEXXZ 40228bd0 f i libcpmtd:wlocale.obj
 0002:0012ac20       ?_Tidy@?$time_get@_WV?$istreambuf_iterator@_WU?$char_traits@_W@std@@@std@@@std@@AAEXXZ 40228c20 f i libcpmtd:wlocale.obj
 0002:0012ac70       ?_Tidy_deallocate@?$basic_string@GU?$char_traits@G@std@@V?$allocator@G@2@@std@@AAEXXZ 40228c70 f i libcpmtd:wlocale.obj
 0002:0012ad30       ?_Tidy_deallocate@?$basic_string@_WU?$char_traits@_W@std@@V?$allocator@_W@2@@std@@AAEXXZ 40228d30 f i libcpmtd:wlocale.obj
 0002:0012adf0       ?_Verify_offset@?$_String_const_iterator@V?$_String_val@U?$_Simple_types@G@std@@@std@@@std@@QBEXH@Z 40228df0 f i libcpmtd:wlocale.obj
 0002:0012af70       ?_Verify_offset@?$_String_const_iterator@V?$_String_val@U?$_Simple_types@_W@std@@@std@@@std@@QBEXH@Z 40228f70 f i libcpmtd:wlocale.obj
 0002:0012b0f0       ?_W_Getdays@_Locinfo@std@@QBEPBGXZ 402290f0 f i libcpmtd:wlocale.obj
 0002:0012b170       ?_W_Getmonths@_Locinfo@std@@QBEPBGXZ 40229170 f i libcpmtd:wlocale.obj
 0002:0012b1f0       ?_W_Gettnames@_Locinfo@std@@QBE?AV_Timevec@2@XZ 402291f0 f i libcpmtd:wlocale.obj
 0002:0012b230       ?_Xran@?$_String_val@U?$_Simple_types@G@std@@@std@@SAXXZ 40229230 f i libcpmtd:wlocale.obj
 0002:0012b250       ?_Xran@?$_String_val@U?$_Simple_types@_W@std@@@std@@SAXXZ 40229250 f i libcpmtd:wlocale.obj
 0002:0012b270       ?allocate@?$allocator@G@std@@QAEPAGI@Z 40229270 f i libcpmtd:wlocale.obj
 0002:0012b2a0       ?allocate@?$allocator@_W@std@@QAEPA_WI@Z 402292a0 f i libcpmtd:wlocale.obj
 0002:0012b2d0       ?append@?$basic_string@GU?$char_traits@G@std@@V?$allocator@G@2@@std@@QAEAAV12@ABV12@@Z 402292d0 f i libcpmtd:wlocale.obj
 0002:0012b310       ?append@?$basic_string@GU?$char_traits@G@std@@V?$allocator@G@2@@std@@QAEAAV12@IG@Z 40229310 f i libcpmtd:wlocale.obj
 0002:0012b3f0       ?append@?$basic_string@_WU?$char_traits@_W@std@@V?$allocator@_W@2@@std@@QAEAAV12@ABV12@@Z 402293f0 f i libcpmtd:wlocale.obj
 0002:0012b430       ?append@?$basic_string@_WU?$char_traits@_W@std@@V?$allocator@_W@2@@std@@QAEAAV12@I_W@Z 40229430 f i libcpmtd:wlocale.obj
 0002:0012b510       ?assign@?$_Char_traits@GG@std@@SAPAGQAGIG@Z 40229510 f i libcpmtd:wlocale.obj
 0002:0012b560       ?assign@?$_Char_traits@_WG@std@@SAPA_WQA_WI_W@Z 40229560 f i libcpmtd:wlocale.obj
 0002:0012b5b0       ?assign@?$_WChar_traits@G@std@@SAPAGQAGIG@Z 402295b0 f i libcpmtd:wlocale.obj
 0002:0012b600       ?assign@?$_WChar_traits@G@std@@SAXAAGABG@Z 40229600 f i libcpmtd:wlocale.obj
 0002:0012b620       ?assign@?$_WChar_traits@_W@std@@SAPA_WQA_WI_W@Z 40229620 f i libcpmtd:wlocale.obj
 0002:0012b670       ?assign@?$_WChar_traits@_W@std@@SAXAA_WAB_W@Z 40229670 f i libcpmtd:wlocale.obj
 0002:0012b690       ?assign@?$basic_string@GU?$char_traits@G@std@@V?$allocator@G@2@@std@@QAEAAV12@$$QAV12@@Z 40229690 f i libcpmtd:wlocale.obj
 0002:0012b6c0       ?assign@?$basic_string@_WU?$char_traits@_W@std@@V?$allocator@_W@2@@std@@QAEAAV12@$$QAV12@@Z 402296c0 f i libcpmtd:wlocale.obj
 0002:0012b6f0       ?begin@?$basic_string@GU?$char_traits@G@std@@V?$allocator@G@2@@std@@QAE?AV?$_String_iterator@V?$_String_val@U?$_Simple_types@G@std@@@std@@@2@XZ 402296f0 f i libcpmtd:wlocale.obj
 0002:0012b750       ?begin@?$basic_string@_WU?$char_traits@_W@std@@V?$allocator@_W@2@@std@@QAE?AV?$_String_iterator@V?$_String_val@U?$_Simple_types@_W@std@@@std@@@2@XZ 40229750 f i libcpmtd:wlocale.obj
 0002:0012b7b0       ?c_str@?$basic_string@GU?$char_traits@G@std@@V?$allocator@G@2@@std@@QBEPBGXZ 402297b0 f i libcpmtd:wlocale.obj
 0002:0012b7d0       ?c_str@?$basic_string@_WU?$char_traits@_W@std@@V?$allocator@_W@2@@std@@QBEPB_WXZ 402297d0 f i libcpmtd:wlocale.obj
 0002:0012b7f0       ?copy@?$_Char_traits@GG@std@@SAPAGQAGQBGI@Z 402297f0 f i libcpmtd:wlocale.obj
 0002:0012b870       ?copy@?$_Char_traits@_WG@std@@SAPA_WQA_WQB_WI@Z 40229870 f i libcpmtd:wlocale.obj
 0002:0012b8f0       ?curr_symbol@?$_Mpunct@G@std@@QBE?AV?$basic_string@GU?$char_traits@G@std@@V?$allocator@G@2@@2@XZ 402298f0 f i libcpmtd:wlocale.obj
 0002:0012b950       ?curr_symbol@?$_Mpunct@_W@std@@QBE?AV?$basic_string@_WU?$char_traits@_W@std@@V?$allocator@_W@2@@2@XZ 40229950 f i libcpmtd:wlocale.obj
 0002:0012b9b0       ?data@?$basic_string@GU?$char_traits@G@std@@V?$allocator@G@2@@std@@QBEPBGXZ 402299b0 f i libcpmtd:wlocale.obj
 0002:0012b9d0       ?data@?$basic_string@_WU?$char_traits@_W@std@@V?$allocator@_W@2@@std@@QBEPB_WXZ 402299d0 f i libcpmtd:wlocale.obj
 0002:0012b9f0       ?date_order@?$time_get@GV?$istreambuf_iterator@GU?$char_traits@G@std@@@std@@@std@@QBE?AW4dateorder@time_base@2@XZ 402299f0 f i libcpmtd:wlocale.obj
 0002:0012ba20       ?date_order@?$time_get@_WV?$istreambuf_iterator@_WU?$char_traits@_W@std@@@std@@@std@@QBE?AW4dateorder@time_base@2@XZ 40229a20 f i libcpmtd:wlocale.obj
 0002:0012ba50       ?deallocate@?$allocator@G@std@@QAEXQAGI@Z 40229a50 f i libcpmtd:wlocale.obj
 0002:0012bac0       ?deallocate@?$allocator@_W@std@@QAEXQA_WI@Z 40229ac0 f i libcpmtd:wlocale.obj
 0002:0012bb30       ?decimal_point@?$_Mpunct@G@std@@QBEGXZ 40229b30 f i libcpmtd:wlocale.obj
 0002:0012bb60       ?decimal_point@?$_Mpunct@_W@std@@QBE_WXZ 40229b60 f i libcpmtd:wlocale.obj
 0002:0012bb90       ?decimal_point@?$numpunct@G@std@@QBEGXZ 40229b90 f i libcpmtd:wlocale.obj
 0002:0012bbc0       ?decimal_point@?$numpunct@_W@std@@QBE_WXZ 40229bc0 f i libcpmtd:wlocale.obj
 0002:0012bbf0       ?do_always_noconv@?$codecvt@GDU_Mbstatet@@@std@@MBE_NXZ 40229bf0 f i libcpmtd:wlocale.obj
 0002:0012bc00       ?do_always_noconv@?$codecvt@_WDU_Mbstatet@@@std@@MBE_NXZ 40229c00 f i libcpmtd:wlocale.obj
 0002:0012bc10       ?do_close@?$messages@G@std@@MBEXH@Z 40229c10 f i libcpmtd:wlocale.obj
 0002:0012bc20       ?do_close@?$messages@_W@std@@MBEXH@Z 40229c20 f i libcpmtd:wlocale.obj
 0002:0012bc30       ?do_compare@?$collate@G@std@@MBEHPBG000@Z 40229c30 f i libcpmtd:wlocale.obj
 0002:0012bcd0       ?do_compare@?$collate@_W@std@@MBEHPB_W000@Z 40229cd0 f i libcpmtd:wlocale.obj
 0002:0012bd70       ?do_curr_symbol@?$_Mpunct@G@std@@MBE?AV?$basic_string@GU?$char_traits@G@std@@V?$allocator@G@2@@2@XZ 40229d70 f i libcpmtd:wlocale.obj
 0002:0012bdb0       ?do_curr_symbol@?$_Mpunct@_W@std@@MBE?AV?$basic_string@_WU?$char_traits@_W@std@@V?$allocator@_W@2@@2@XZ 40229db0 f i libcpmtd:wlocale.obj
 0002:0012bdf0       ?do_date_order@?$time_get@GV?$istreambuf_iterator@GU?$char_traits@G@std@@@std@@@std@@MBE?AW4dateorder@time_base@2@XZ 40229df0 f i libcpmtd:wlocale.obj
 0002:0012be10       ?do_date_order@?$time_get@_WV?$istreambuf_iterator@_WU?$char_traits@_W@std@@@std@@@std@@MBE?AW4dateorder@time_base@2@XZ 40229e10 f i libcpmtd:wlocale.obj
 0002:0012be30       ?do_decimal_point@?$_Mpunct@G@std@@MBEGXZ 40229e30 f i libcpmtd:wlocale.obj
 0002:0012be50       ?do_decimal_point@?$_Mpunct@_W@std@@MBE_WXZ 40229e50 f i libcpmtd:wlocale.obj
 0002:0012be70       ?do_decimal_point@?$numpunct@G@std@@MBEGXZ 40229e70 f i libcpmtd:wlocale.obj
 0002:0012be90       ?do_decimal_point@?$numpunct@_W@std@@MBE_WXZ 40229e90 f i libcpmtd:wlocale.obj
 0002:0012beb0       ?do_encoding@?$codecvt@GDU_Mbstatet@@@std@@MBEHXZ 40229eb0 f i libcpmtd:wlocale.obj
 0002:0012bef0       ?do_encoding@?$codecvt@_WDU_Mbstatet@@@std@@MBEHXZ 40229ef0 f i libcpmtd:wlocale.obj
 0002:0012bf30       ?do_falsename@?$numpunct@G@std@@MBE?AV?$basic_string@GU?$char_traits@G@std@@V?$allocator@G@2@@2@XZ 40229f30 f i libcpmtd:wlocale.obj
 0002:0012bf70       ?do_falsename@?$numpunct@_W@std@@MBE?AV?$basic_string@_WU?$char_traits@_W@std@@V?$allocator@_W@2@@2@XZ 40229f70 f i libcpmtd:wlocale.obj
 0002:0012bfb0       ?do_frac_digits@?$_Mpunct@G@std@@MBEHXZ 40229fb0 f i libcpmtd:wlocale.obj
 0002:0012bfd0       ?do_frac_digits@?$_Mpunct@_W@std@@MBEHXZ 40229fd0 f i libcpmtd:wlocale.obj
 0002:0012bff0       ?do_get@?$messages@G@std@@MBE?AV?$basic_string@GU?$char_traits@G@std@@V?$allocator@G@2@@2@HHHABV32@@Z 40229ff0 f i libcpmtd:wlocale.obj
 0002:0012c030       ?do_get@?$messages@_W@std@@MBE?AV?$basic_string@_WU?$char_traits@_W@std@@V?$allocator@_W@2@@2@HHHABV32@@Z 4022a030 f i libcpmtd:wlocale.obj
 0002:0012c070       ?do_get@?$money_get@GV?$istreambuf_iterator@GU?$char_traits@G@std@@@std@@@std@@MBE?AV?$istreambuf_iterator@GU?$char_traits@G@std@@@2@V32@0_NAAVios_base@2@AAHAAO@Z 4022a070 f i libcpmtd:wlocale.obj
 0002:0012c1e0       ?do_get@?$money_get@GV?$istreambuf_iterator@GU?$char_traits@G@std@@@std@@@std@@MBE?AV?$istreambuf_iterator@GU?$char_traits@G@std@@@2@V32@0_NAAVios_base@2@AAHAAV?$basic_string@GU?$char_traits@G@std@@V?$allocator@G@2@@2@@Z 4022a1e0 f i libcpmtd:wlocale.obj
 0002:0012c3b0       ?do_get@?$money_get@_WV?$istreambuf_iterator@_WU?$char_traits@_W@std@@@std@@@std@@MBE?AV?$istreambuf_iterator@_WU?$char_traits@_W@std@@@2@V32@0_NAAVios_base@2@AAHAAO@Z 4022a3b0 f i libcpmtd:wlocale.obj
 0002:0012c520       ?do_get@?$money_get@_WV?$istreambuf_iterator@_WU?$char_traits@_W@std@@@std@@@std@@MBE?AV?$istreambuf_iterator@_WU?$char_traits@_W@std@@@2@V32@0_NAAVios_base@2@AAHAAV?$basic_string@_WU?$char_traits@_W@std@@V?$allocator@_W@2@@2@@Z 4022a520 f i libcpmtd:wlocale.obj
 0002:0012c6f0       ?do_get@?$num_get@GV?$istreambuf_iterator@GU?$char_traits@G@std@@@std@@@std@@MBE?AV?$istreambuf_iterator@GU?$char_traits@G@std@@@2@V32@0AAVios_base@2@AAHAAG@Z 4022a6f0 f i libcpmtd:wlocale.obj
 0002:0012c920       ?do_get@?$num_get@GV?$istreambuf_iterator@GU?$char_traits@G@std@@@std@@@std@@MBE?AV?$istreambuf_iterator@GU?$char_traits@G@std@@@2@V32@0AAVios_base@2@AAHAAI@Z 4022a920 f i libcpmtd:wlocale.obj
 0002:0012c9a0       ?do_get@?$num_get@GV?$istreambuf_iterator@GU?$char_traits@G@std@@@std@@@std@@MBE?AV?$istreambuf_iterator@GU?$char_traits@G@std@@@2@V32@0AAVios_base@2@AAHAAJ@Z 4022a9a0 f i libcpmtd:wlocale.obj
 0002:0012cb40       ?do_get@?$num_get@GV?$istreambuf_iterator@GU?$char_traits@G@std@@@std@@@std@@MBE?AV?$istreambuf_iterator@GU?$char_traits@G@std@@@2@V32@0AAVios_base@2@AAHAAK@Z 4022ab40 f i libcpmtd:wlocale.obj
 0002:0012cce0       ?do_get@?$num_get@GV?$istreambuf_iterator@GU?$char_traits@G@std@@@std@@@std@@MBE?AV?$istreambuf_iterator@GU?$char_traits@G@std@@@2@V32@0AAVios_base@2@AAHAAM@Z 4022ace0 f i libcpmtd:wlocale.obj
 0002:0012cea0       ?do_get@?$num_get@GV?$istreambuf_iterator@GU?$char_traits@G@std@@@std@@@std@@MBE?AV?$istreambuf_iterator@GU?$char_traits@G@std@@@2@V32@0AAVios_base@2@AAHAAN@Z 4022aea0 f i libcpmtd:wlocale.obj
 0002:0012d060       ?do_get@?$num_get@GV?$istreambuf_iterator@GU?$char_traits@G@std@@@std@@@std@@MBE?AV?$istreambuf_iterator@GU?$char_traits@G@std@@@2@V32@0AAVios_base@2@AAHAAO@Z 4022b060 f i libcpmtd:wlocale.obj
 0002:0012d0e0       ?do_get@?$num_get@GV?$istreambuf_iterator@GU?$char_traits@G@std@@@std@@@std@@MBE?AV?$istreambuf_iterator@GU?$char_traits@G@std@@@2@V32@0AAVios_base@2@AAHAAPAX@Z 4022b0e0 f i libcpmtd:wlocale.obj
 0002:0012d280       ?do_get@?$num_get@GV?$istreambuf_iterator@GU?$char_traits@G@std@@@std@@@std@@MBE?AV?$istreambuf_iterator@GU?$char_traits@G@std@@@2@V32@0AAVios_base@2@AAHAA_J@Z 4022b280 f i libcpmtd:wlocale.obj
 0002:0012d420       ?do_get@?$num_get@GV?$istreambuf_iterator@GU?$char_traits@G@std@@@std@@@std@@MBE?AV?$istreambuf_iterator@GU?$char_traits@G@std@@@2@V32@0AAVios_base@2@AAHAA_K@Z 4022b420 f i libcpmtd:wlocale.obj
 0002:0012d5c0       ?do_get@?$num_get@GV?$istreambuf_iterator@GU?$char_traits@G@std@@@std@@@std@@MBE?AV?$istreambuf_iterator@GU?$char_traits@G@std@@@2@V32@0AAVios_base@2@AAHAA_N@Z 4022b5c0 f i libcpmtd:wlocale.obj
 0002:0012d9c0       ?do_get@?$num_get@_WV?$istreambuf_iterator@_WU?$char_traits@_W@std@@@std@@@std@@MBE?AV?$istreambuf_iterator@_WU?$char_traits@_W@std@@@2@V32@0AAVios_base@2@AAHAAG@Z 4022b9c0 f i libcpmtd:wlocale.obj
 0002:0012dbf0       ?do_get@?$num_get@_WV?$istreambuf_iterator@_WU?$char_traits@_W@std@@@std@@@std@@MBE?AV?$istreambuf_iterator@_WU?$char_traits@_W@std@@@2@V32@0AAVios_base@2@AAHAAI@Z 4022bbf0 f i libcpmtd:wlocale.obj
 0002:0012dc70       ?do_get@?$num_get@_WV?$istreambuf_iterator@_WU?$char_traits@_W@std@@@std@@@std@@MBE?AV?$istreambuf_iterator@_WU?$char_traits@_W@std@@@2@V32@0AAVios_base@2@AAHAAJ@Z 4022bc70 f i libcpmtd:wlocale.obj
 0002:0012de10       ?do_get@?$num_get@_WV?$istreambuf_iterator@_WU?$char_traits@_W@std@@@std@@@std@@MBE?AV?$istreambuf_iterator@_WU?$char_traits@_W@std@@@2@V32@0AAVios_base@2@AAHAAK@Z 4022be10 f i libcpmtd:wlocale.obj
 0002:0012dfb0       ?do_get@?$num_get@_WV?$istreambuf_iterator@_WU?$char_traits@_W@std@@@std@@@std@@MBE?AV?$istreambuf_iterator@_WU?$char_traits@_W@std@@@2@V32@0AAVios_base@2@AAHAAM@Z 4022bfb0 f i libcpmtd:wlocale.obj
 0002:0012e170       ?do_get@?$num_get@_WV?$istreambuf_iterator@_WU?$char_traits@_W@std@@@std@@@std@@MBE?AV?$istreambuf_iterator@_WU?$char_traits@_W@std@@@2@V32@0AAVios_base@2@AAHAAN@Z 4022c170 f i libcpmtd:wlocale.obj
 0002:0012e330       ?do_get@?$num_get@_WV?$istreambuf_iterator@_WU?$char_traits@_W@std@@@std@@@std@@MBE?AV?$istreambuf_iterator@_WU?$char_traits@_W@std@@@2@V32@0AAVios_base@2@AAHAAO@Z 4022c330 f i libcpmtd:wlocale.obj
 0002:0012e3b0       ?do_get@?$num_get@_WV?$istreambuf_iterator@_WU?$char_traits@_W@std@@@std@@@std@@MBE?AV?$istreambuf_iterator@_WU?$char_traits@_W@std@@@2@V32@0AAVios_base@2@AAHAAPAX@Z 4022c3b0 f i libcpmtd:wlocale.obj
 0002:0012e550       ?do_get@?$num_get@_WV?$istreambuf_iterator@_WU?$char_traits@_W@std@@@std@@@std@@MBE?AV?$istreambuf_iterator@_WU?$char_traits@_W@std@@@2@V32@0AAVios_base@2@AAHAA_J@Z 4022c550 f i libcpmtd:wlocale.obj
 0002:0012e6f0       ?do_get@?$num_get@_WV?$istreambuf_iterator@_WU?$char_traits@_W@std@@@std@@@std@@MBE?AV?$istreambuf_iterator@_WU?$char_traits@_W@std@@@2@V32@0AAVios_base@2@AAHAA_K@Z 4022c6f0 f i libcpmtd:wlocale.obj
 0002:0012e890       ?do_get@?$num_get@_WV?$istreambuf_iterator@_WU?$char_traits@_W@std@@@std@@@std@@MBE?AV?$istreambuf_iterator@_WU?$char_traits@_W@std@@@2@V32@0AAVios_base@2@AAHAA_N@Z 4022c890 f i libcpmtd:wlocale.obj
 0002:0012ec90       ?do_get@?$time_get@GV?$istreambuf_iterator@GU?$char_traits@G@std@@@std@@@std@@MBE?AV?$istreambuf_iterator@GU?$char_traits@G@std@@@2@V32@0AAVios_base@2@AAHPAUtm@@DD@Z 4022cc90 f i libcpmtd:wlocale.obj
 0002:0012f660       ?do_get@?$time_get@_WV?$istreambuf_iterator@_WU?$char_traits@_W@std@@@std@@@std@@MBE?AV?$istreambuf_iterator@_WU?$char_traits@_W@std@@@2@V32@0AAVios_base@2@AAHPAUtm@@DD@Z 4022d660 f i libcpmtd:wlocale.obj
 0002:00130030       ?do_get_date@?$time_get@GV?$istreambuf_iterator@GU?$char_traits@G@std@@@std@@@std@@MBE?AV?$istreambuf_iterator@GU?$char_traits@G@std@@@2@V32@0AAVios_base@2@AAHPAUtm@@@Z 4022e030 f i libcpmtd:wlocale.obj
 0002:001307e0       ?do_get_date@?$time_get@_WV?$istreambuf_iterator@_WU?$char_traits@_W@std@@@std@@@std@@MBE?AV?$istreambuf_iterator@_WU?$char_traits@_W@std@@@2@V32@0AAVios_base@2@AAHPAUtm@@@Z 4022e7e0 f i libcpmtd:wlocale.obj
 0002:00130f90       ?do_get_monthname@?$time_get@GV?$istreambuf_iterator@GU?$char_traits@G@std@@@std@@@std@@MBE?AV?$istreambuf_iterator@GU?$char_traits@G@std@@@2@V32@0AAVios_base@2@AAHPAUtm@@@Z 4022ef90 f i libcpmtd:wlocale.obj
 0002:00131010       ?do_get_monthname@?$time_get@_WV?$istreambuf_iterator@_WU?$char_traits@_W@std@@@std@@@std@@MBE?AV?$istreambuf_iterator@_WU?$char_traits@_W@std@@@2@V32@0AAVios_base@2@AAHPAUtm@@@Z 4022f010 f i libcpmtd:wlocale.obj
 0002:00131090       ?do_get_time@?$time_get@GV?$istreambuf_iterator@GU?$char_traits@G@std@@@std@@@std@@MBE?AV?$istreambuf_iterator@GU?$char_traits@G@std@@@2@V32@0AAVios_base@2@AAHPAUtm@@@Z 4022f090 f i libcpmtd:wlocale.obj
 0002:001312a0       ?do_get_time@?$time_get@_WV?$istreambuf_iterator@_WU?$char_traits@_W@std@@@std@@@std@@MBE?AV?$istreambuf_iterator@_WU?$char_traits@_W@std@@@2@V32@0AAVios_base@2@AAHPAUtm@@@Z 4022f2a0 f i libcpmtd:wlocale.obj
 0002:001314b0       ?do_get_weekday@?$time_get@GV?$istreambuf_iterator@GU?$char_traits@G@std@@@std@@@std@@MBE?AV?$istreambuf_iterator@GU?$char_traits@G@std@@@2@V32@0AAVios_base@2@AAHPAUtm@@@Z 4022f4b0 f i libcpmtd:wlocale.obj
 0002:00131530       ?do_get_weekday@?$time_get@_WV?$istreambuf_iterator@_WU?$char_traits@_W@std@@@std@@@std@@MBE?AV?$istreambuf_iterator@_WU?$char_traits@_W@std@@@2@V32@0AAVios_base@2@AAHPAUtm@@@Z 4022f530 f i libcpmtd:wlocale.obj
 0002:001315b0       ?do_get_year@?$time_get@GV?$istreambuf_iterator@GU?$char_traits@G@std@@@std@@@std@@MBE?AV?$istreambuf_iterator@GU?$char_traits@G@std@@@2@V32@0AAVios_base@2@AAHPAUtm@@@Z 4022f5b0 f i libcpmtd:wlocale.obj
 0002:00131700       ?do_get_year@?$time_get@_WV?$istreambuf_iterator@_WU?$char_traits@_W@std@@@std@@@std@@MBE?AV?$istreambuf_iterator@_WU?$char_traits@_W@std@@@2@V32@0AAVios_base@2@AAHPAUtm@@@Z 4022f700 f i libcpmtd:wlocale.obj
 0002:00131850       ?do_grouping@?$_Mpunct@G@std@@MBE?AV?$basic_string@DU?$char_traits@D@std@@V?$allocator@D@2@@2@XZ 4022f850 f i libcpmtd:wlocale.obj
 0002:00131890       ?do_grouping@?$_Mpunct@_W@std@@MBE?AV?$basic_string@DU?$char_traits@D@std@@V?$allocator@D@2@@2@XZ 4022f890 f i libcpmtd:wlocale.obj
 0002:001318d0       ?do_grouping@?$numpunct@G@std@@MBE?AV?$basic_string@DU?$char_traits@D@std@@V?$allocator@D@2@@2@XZ 4022f8d0 f i libcpmtd:wlocale.obj
 0002:00131910       ?do_grouping@?$numpunct@_W@std@@MBE?AV?$basic_string@DU?$char_traits@D@std@@V?$allocator@D@2@@2@XZ 4022f910 f i libcpmtd:wlocale.obj
 0002:00131950       ?do_hash@?$collate@G@std@@MBEJPBG0@Z 4022f950 f i libcpmtd:wlocale.obj
 0002:001319e0       ?do_hash@?$collate@_W@std@@MBEJPB_W0@Z 4022f9e0 f i libcpmtd:wlocale.obj
 0002:00131a70       ?do_in@?$codecvt@GDU_Mbstatet@@@std@@MBEHAAU_Mbstatet@@PBD1AAPBDPAG3AAPAG@Z 4022fa70 f i libcpmtd:wlocale.obj
 0002:00131b90       ?do_in@?$codecvt@_WDU_Mbstatet@@@std@@MBEHAAU_Mbstatet@@PBD1AAPBDPA_W3AAPA_W@Z 4022fb90 f i libcpmtd:wlocale.obj
 0002:00131cb0       ?do_is@?$ctype@G@std@@MBEPBGPBG0PAF@Z 4022fcb0 f i libcpmtd:wlocale.obj
 0002:00131d00       ?do_is@?$ctype@G@std@@MBE_NFG@Z 4022fd00 f i libcpmtd:wlocale.obj
 0002:00131d60       ?do_is@?$ctype@_W@std@@MBEPB_WPB_W0PAF@Z 4022fd60 f i libcpmtd:wlocale.obj
 0002:00131db0       ?do_is@?$ctype@_W@std@@MBE_NF_W@Z 4022fdb0 f i libcpmtd:wlocale.obj
 0002:00131e10       ?do_length@?$codecvt@GDU_Mbstatet@@@std@@MBEHAAU_Mbstatet@@PBD1I@Z 4022fe10 f i libcpmtd:wlocale.obj
 0002:00131ee0       ?do_length@?$codecvt@_WDU_Mbstatet@@@std@@MBEHAAU_Mbstatet@@PBD1I@Z 4022fee0 f i libcpmtd:wlocale.obj
 0002:00131fb0       ?do_max_length@?$codecvt@GDU_Mbstatet@@@std@@MBEHXZ 4022ffb0 f i libcpmtd:wlocale.obj
 0002:00131fd0       ?do_max_length@?$codecvt@_WDU_Mbstatet@@@std@@MBEHXZ 4022ffd0 f i libcpmtd:wlocale.obj
 0002:00131ff0       ?do_narrow@?$ctype@G@std@@MBEDGD@Z 4022fff0 f i libcpmtd:wlocale.obj
 0002:00132020       ?do_narrow@?$ctype@G@std@@MBEPBGPBG0DPAD@Z 40230020 f i libcpmtd:wlocale.obj
 0002:00132090       ?do_narrow@?$ctype@_W@std@@MBED_WD@Z 40230090 f i libcpmtd:wlocale.obj
 0002:001320c0       ?do_narrow@?$ctype@_W@std@@MBEPB_WPB_W0DPAD@Z 402300c0 f i libcpmtd:wlocale.obj
 0002:00132130       ?do_neg_format@?$_Mpunct@G@std@@MBE?AUpattern@money_base@2@XZ 40230130 f i libcpmtd:wlocale.obj
 0002:00132160       ?do_neg_format@?$_Mpunct@_W@std@@MBE?AUpattern@money_base@2@XZ 40230160 f i libcpmtd:wlocale.obj
 0002:00132190       ?do_negative_sign@?$_Mpunct@G@std@@MBE?AV?$basic_string@GU?$char_traits@G@std@@V?$allocator@G@2@@2@XZ 40230190 f i libcpmtd:wlocale.obj
 0002:001321d0       ?do_negative_sign@?$_Mpunct@_W@std@@MBE?AV?$basic_string@_WU?$char_traits@_W@std@@V?$allocator@_W@2@@2@XZ 402301d0 f i libcpmtd:wlocale.obj
 0002:00132210       ?do_open@?$messages@G@std@@MBEHABV?$basic_string@DU?$char_traits@D@std@@V?$allocator@D@2@@2@ABVlocale@2@@Z 40230210 f i libcpmtd:wlocale.obj
 0002:00132230       ?do_open@?$messages@_W@std@@MBEHABV?$basic_string@DU?$char_traits@D@std@@V?$allocator@D@2@@2@ABVlocale@2@@Z 40230230 f i libcpmtd:wlocale.obj
 0002:00132250       ?do_out@?$codecvt@GDU_Mbstatet@@@std@@MBEHAAU_Mbstatet@@PBG1AAPBGPAD3AAPAD@Z 40230250 f i libcpmtd:wlocale.obj
 0002:00132440       ?do_out@?$codecvt@_WDU_Mbstatet@@@std@@MBEHAAU_Mbstatet@@PB_W1AAPB_WPAD3AAPAD@Z 40230440 f i libcpmtd:wlocale.obj
 0002:00132630       ?do_pos_format@?$_Mpunct@G@std@@MBE?AUpattern@money_base@2@XZ 40230630 f i libcpmtd:wlocale.obj
 0002:00132660       ?do_pos_format@?$_Mpunct@_W@std@@MBE?AUpattern@money_base@2@XZ 40230660 f i libcpmtd:wlocale.obj
 0002:00132690       ?do_positive_sign@?$_Mpunct@G@std@@MBE?AV?$basic_string@GU?$char_traits@G@std@@V?$allocator@G@2@@2@XZ 40230690 f i libcpmtd:wlocale.obj
 0002:001326d0       ?do_positive_sign@?$_Mpunct@_W@std@@MBE?AV?$basic_string@_WU?$char_traits@_W@std@@V?$allocator@_W@2@@2@XZ 402306d0 f i libcpmtd:wlocale.obj
 0002:00132710       ?do_put@?$money_put@GV?$ostreambuf_iterator@GU?$char_traits@G@std@@@std@@@std@@MBE?AV?$ostreambuf_iterator@GU?$char_traits@G@std@@@2@V32@_NAAVios_base@2@GABV?$basic_string@GU?$char_traits@G@std@@V?$allocator@G@2@@2@@Z 40230710 f i libcpmtd:wlocale.obj
 0002:00132980       ?do_put@?$money_put@GV?$ostreambuf_iterator@GU?$char_traits@G@std@@@std@@@std@@MBE?AV?$ostreambuf_iterator@GU?$char_traits@G@std@@@2@V32@_NAAVios_base@2@GO@Z 40230980 f i libcpmtd:wlocale.obj
 0002:00132bc0       ?do_put@?$money_put@_WV?$ostreambuf_iterator@_WU?$char_traits@_W@std@@@std@@@std@@MBE?AV?$ostreambuf_iterator@_WU?$char_traits@_W@std@@@2@V32@_NAAVios_base@2@_WABV?$basic_string@_WU?$char_traits@_W@std@@V?$allocator@_W@2@@2@@Z 40230bc0 f i libcpmtd:wlocale.obj
 0002:00132e30       ?do_put@?$money_put@_WV?$ostreambuf_iterator@_WU?$char_traits@_W@std@@@std@@@std@@MBE?AV?$ostreambuf_iterator@_WU?$char_traits@_W@std@@@2@V32@_NAAVios_base@2@_WO@Z 40230e30 f i libcpmtd:wlocale.obj
 0002:00133070       ?do_put@?$num_put@GV?$ostreambuf_iterator@GU?$char_traits@G@std@@@std@@@std@@MBE?AV?$ostreambuf_iterator@GU?$char_traits@G@std@@@2@V32@AAVios_base@2@GJ@Z 40231070 f i libcpmtd:wlocale.obj
 0002:00133110       ?do_put@?$num_put@GV?$ostreambuf_iterator@GU?$char_traits@G@std@@@std@@@std@@MBE?AV?$ostreambuf_iterator@GU?$char_traits@G@std@@@2@V32@AAVios_base@2@GK@Z 40231110 f i libcpmtd:wlocale.obj
 0002:001331b0       ?do_put@?$num_put@GV?$ostreambuf_iterator@GU?$char_traits@G@std@@@std@@@std@@MBE?AV?$ostreambuf_iterator@GU?$char_traits@G@std@@@2@V32@AAVios_base@2@GN@Z 402311b0 f i libcpmtd:wlocale.obj
 0002:00133480       ?do_put@?$num_put@GV?$ostreambuf_iterator@GU?$char_traits@G@std@@@std@@@std@@MBE?AV?$ostreambuf_iterator@GU?$char_traits@G@std@@@2@V32@AAVios_base@2@GO@Z 40231480 f i libcpmtd:wlocale.obj
 0002:00133750       ?do_put@?$num_put@GV?$ostreambuf_iterator@GU?$char_traits@G@std@@@std@@@std@@MBE?AV?$ostreambuf_iterator@GU?$char_traits@G@std@@@2@V32@AAVios_base@2@GPBX@Z 40231750 f i libcpmtd:wlocale.obj
 0002:001337d0       ?do_put@?$num_put@GV?$ostreambuf_iterator@GU?$char_traits@G@std@@@std@@@std@@MBE?AV?$ostreambuf_iterator@GU?$char_traits@G@std@@@2@V32@AAVios_base@2@G_J@Z 402317d0 f i libcpmtd:wlocale.obj
 0002:00133880       ?do_put@?$num_put@GV?$ostreambuf_iterator@GU?$char_traits@G@std@@@std@@@std@@MBE?AV?$ostreambuf_iterator@GU?$char_traits@G@std@@@2@V32@AAVios_base@2@G_K@Z 40231880 f i libcpmtd:wlocale.obj
 0002:00133930       ?do_put@?$num_put@GV?$ostreambuf_iterator@GU?$char_traits@G@std@@@std@@@std@@MBE?AV?$ostreambuf_iterator@GU?$char_traits@G@std@@@2@V32@AAVios_base@2@G_N@Z 40231930 f i libcpmtd:wlocale.obj
 0002:00133c60       ?do_put@?$num_put@_WV?$ostreambuf_iterator@_WU?$char_traits@_W@std@@@std@@@std@@MBE?AV?$ostreambuf_iterator@_WU?$char_traits@_W@std@@@2@V32@AAVios_base@2@_WJ@Z 40231c60 f i libcpmtd:wlocale.obj
 0002:00133d00       ?do_put@?$num_put@_WV?$ostreambuf_iterator@_WU?$char_traits@_W@std@@@std@@@std@@MBE?AV?$ostreambuf_iterator@_WU?$char_traits@_W@std@@@2@V32@AAVios_base@2@_WK@Z 40231d00 f i libcpmtd:wlocale.obj
 0002:00133da0       ?do_put@?$num_put@_WV?$ostreambuf_iterator@_WU?$char_traits@_W@std@@@std@@@std@@MBE?AV?$ostreambuf_iterator@_WU?$char_traits@_W@std@@@2@V32@AAVios_base@2@_WN@Z 40231da0 f i libcpmtd:wlocale.obj
 0002:00134070       ?do_put@?$num_put@_WV?$ostreambuf_iterator@_WU?$char_traits@_W@std@@@std@@@std@@MBE?AV?$ostreambuf_iterator@_WU?$char_traits@_W@std@@@2@V32@AAVios_base@2@_WO@Z 40232070 f i libcpmtd:wlocale.obj
 0002:00134340       ?do_put@?$num_put@_WV?$ostreambuf_iterator@_WU?$char_traits@_W@std@@@std@@@std@@MBE?AV?$ostreambuf_iterator@_WU?$char_traits@_W@std@@@2@V32@AAVios_base@2@_WPBX@Z 40232340 f i libcpmtd:wlocale.obj
 0002:001343c0       ?do_put@?$num_put@_WV?$ostreambuf_iterator@_WU?$char_traits@_W@std@@@std@@@std@@MBE?AV?$ostreambuf_iterator@_WU?$char_traits@_W@std@@@2@V32@AAVios_base@2@_W_J@Z 402323c0 f i libcpmtd:wlocale.obj
 0002:00134470       ?do_put@?$num_put@_WV?$ostreambuf_iterator@_WU?$char_traits@_W@std@@@std@@@std@@MBE?AV?$ostreambuf_iterator@_WU?$char_traits@_W@std@@@2@V32@AAVios_base@2@_W_K@Z 40232470 f i libcpmtd:wlocale.obj
 0002:00134520       ?do_put@?$num_put@_WV?$ostreambuf_iterator@_WU?$char_traits@_W@std@@@std@@@std@@MBE?AV?$ostreambuf_iterator@_WU?$char_traits@_W@std@@@2@V32@AAVios_base@2@_W_N@Z 40232520 f i libcpmtd:wlocale.obj
 0002:00134850       ?do_put@?$time_put@GV?$ostreambuf_iterator@GU?$char_traits@G@std@@@std@@@std@@MBE?AV?$ostreambuf_iterator@GU?$char_traits@G@std@@@2@V32@AAVios_base@2@GPBUtm@@DD@Z 40232850 f i libcpmtd:wlocale.obj
 0002:00134a80       ?do_put@?$time_put@_WV?$ostreambuf_iterator@_WU?$char_traits@_W@std@@@std@@@std@@MBE?AV?$ostreambuf_iterator@_WU?$char_traits@_W@std@@@2@V32@AAVios_base@2@_WPBUtm@@DD@Z 40232a80 f i libcpmtd:wlocale.obj
 0002:00134cb0       ?do_scan_is@?$ctype@G@std@@MBEPBGFPBG0@Z 40232cb0 f i libcpmtd:wlocale.obj
 0002:00134d20       ?do_scan_is@?$ctype@_W@std@@MBEPB_WFPB_W0@Z 40232d20 f i libcpmtd:wlocale.obj
 0002:00134d90       ?do_scan_not@?$ctype@G@std@@MBEPBGFPBG0@Z 40232d90 f i libcpmtd:wlocale.obj
 0002:00134e00       ?do_scan_not@?$ctype@_W@std@@MBEPB_WFPB_W0@Z 40232e00 f i libcpmtd:wlocale.obj
 0002:00134e70       ?do_thousands_sep@?$_Mpunct@G@std@@MBEGXZ 40232e70 f i libcpmtd:wlocale.obj
 0002:00134e90       ?do_thousands_sep@?$_Mpunct@_W@std@@MBE_WXZ 40232e90 f i libcpmtd:wlocale.obj
 0002:00134eb0       ?do_thousands_sep@?$numpunct@G@std@@MBEGXZ 40232eb0 f i libcpmtd:wlocale.obj
 0002:00134ed0       ?do_thousands_sep@?$numpunct@_W@std@@MBE_WXZ 40232ed0 f i libcpmtd:wlocale.obj
 0002:00134ef0       ?do_tolower@?$ctype@G@std@@MBEGG@Z 40232ef0 f i libcpmtd:wlocale.obj
 0002:00134f20       ?do_tolower@?$ctype@G@std@@MBEPBGPAGPBG@Z 40232f20 f i libcpmtd:wlocale.obj
 0002:00134f90       ?do_tolower@?$ctype@_W@std@@MBEPB_WPA_WPB_W@Z 40232f90 f i libcpmtd:wlocale.obj
 0002:00135000       ?do_tolower@?$ctype@_W@std@@MBE_W_W@Z 40233000 f i libcpmtd:wlocale.obj
 0002:00135030       ?do_toupper@?$ctype@G@std@@MBEGG@Z 40233030 f i libcpmtd:wlocale.obj
 0002:00135060       ?do_toupper@?$ctype@G@std@@MBEPBGPAGPBG@Z 40233060 f i libcpmtd:wlocale.obj
 0002:001350d0       ?do_toupper@?$ctype@_W@std@@MBEPB_WPA_WPB_W@Z 402330d0 f i libcpmtd:wlocale.obj
 0002:00135140       ?do_toupper@?$ctype@_W@std@@MBE_W_W@Z 40233140 f i libcpmtd:wlocale.obj
 0002:00135170       ?do_transform@?$collate@G@std@@MBE?AV?$basic_string@GU?$char_traits@G@std@@V?$allocator@G@2@@2@PBG0@Z 40233170 f i libcpmtd:wlocale.obj
 0002:001352d0       ?do_transform@?$collate@_W@std@@MBE?AV?$basic_string@_WU?$char_traits@_W@std@@V?$allocator@_W@2@@2@PB_W0@Z 402332d0 f i libcpmtd:wlocale.obj
 0002:00135430       ?do_truename@?$numpunct@G@std@@MBE?AV?$basic_string@GU?$char_traits@G@std@@V?$allocator@G@2@@2@XZ 40233430 f i libcpmtd:wlocale.obj
 0002:00135470       ?do_truename@?$numpunct@_W@std@@MBE?AV?$basic_string@_WU?$char_traits@_W@std@@V?$allocator@_W@2@@2@XZ 40233470 f i libcpmtd:wlocale.obj
 0002:001354b0       ?do_unshift@?$codecvt@GDU_Mbstatet@@@std@@MBEHAAU_Mbstatet@@PAD1AAPAD@Z 402334b0 f i libcpmtd:wlocale.obj
 0002:001355c0       ?do_unshift@?$codecvt@_WDU_Mbstatet@@@std@@MBEHAAU_Mbstatet@@PAD1AAPAD@Z 402335c0 f i libcpmtd:wlocale.obj
 0002:001356d0       ?do_widen@?$ctype@G@std@@MBEGD@Z 402336d0 f i libcpmtd:wlocale.obj
 0002:001356f0       ?do_widen@?$ctype@G@std@@MBEPBDPBD0PAG@Z 402336f0 f i libcpmtd:wlocale.obj
 0002:00135760       ?do_widen@?$ctype@_W@std@@MBEPBDPBD0PA_W@Z 40233760 f i libcpmtd:wlocale.obj
 0002:001357d0       ?do_widen@?$ctype@_W@std@@MBE_WD@Z 402337d0 f i libcpmtd:wlocale.obj
 0002:001357f0       ?empty@?$basic_string@GU?$char_traits@G@std@@V?$allocator@G@2@@std@@QBE_NXZ 402337f0 f i libcpmtd:wlocale.obj
 0002:00135830       ?empty@?$basic_string@_WU?$char_traits@_W@std@@V?$allocator@_W@2@@std@@QBE_NXZ 40233830 f i libcpmtd:wlocale.obj
 0002:00135870       ?end@?$basic_string@GU?$char_traits@G@std@@V?$allocator@G@2@@std@@QAE?AV?$_String_iterator@V?$_String_val@U?$_Simple_types@G@std@@@std@@@2@XZ 40233870 f i libcpmtd:wlocale.obj
 0002:001358e0       ?end@?$basic_string@_WU?$char_traits@_W@std@@V?$allocator@_W@2@@std@@QAE?AV?$_String_iterator@V?$_String_val@U?$_Simple_types@_W@std@@@std@@@2@XZ 402338e0 f i libcpmtd:wlocale.obj
 0002:00135950       ?eof@?$_WChar_traits@G@std@@SAGXZ 40233950 f i libcpmtd:wlocale.obj
 0002:00135960       ?eof@?$_WChar_traits@_W@std@@SAGXZ 40233960 f i libcpmtd:wlocale.obj
 0002:00135970       ?eq_int_type@?$_WChar_traits@G@std@@SA_NGG@Z 40233970 f i libcpmtd:wlocale.obj
 0002:001359b0       ?eq_int_type@?$_WChar_traits@_W@std@@SA_NGG@Z 402339b0 f i libcpmtd:wlocale.obj
 0002:001359f0       ?equal@?$istreambuf_iterator@GU?$char_traits@G@std@@@std@@QBE_NABV12@@Z 402339f0 f i libcpmtd:wlocale.obj
 0002:00135a80       ?equal@?$istreambuf_iterator@_WU?$char_traits@_W@std@@@std@@QBE_NABV12@@Z 40233a80 f i libcpmtd:wlocale.obj
 0002:00135b10       ?erase@?$basic_string@DU?$char_traits@D@std@@V?$allocator@D@2@@std@@QAEAAV12@I@Z 40233b10 f i libcpmtd:wlocale.obj
 0002:00135b50       ?erase@?$basic_string@GU?$char_traits@G@std@@V?$allocator@G@2@@std@@QAEAAV12@I@Z 40233b50 f i libcpmtd:wlocale.obj
 0002:00135b90       ?erase@?$basic_string@_WU?$char_traits@_W@std@@V?$allocator@_W@2@@std@@QAEAAV12@I@Z 40233b90 f i libcpmtd:wlocale.obj
 0002:00135bd0       ?falsename@?$numpunct@G@std@@QBE?AV?$basic_string@GU?$char_traits@G@std@@V?$allocator@G@2@@2@XZ 40233bd0 f i libcpmtd:wlocale.obj
 0002:00135c30       ?falsename@?$numpunct@_W@std@@QBE?AV?$basic_string@_WU?$char_traits@_W@std@@V?$allocator@_W@2@@2@XZ 40233c30 f i libcpmtd:wlocale.obj
 0002:00135c90       ?frac_digits@?$_Mpunct@G@std@@QBEHXZ 40233c90 f i libcpmtd:wlocale.obj
 0002:00135cc0       ?frac_digits@?$_Mpunct@_W@std@@QBEHXZ 40233cc0 f i libcpmtd:wlocale.obj
 0002:00135cf0       ?get_monthname@?$time_get@GV?$istreambuf_iterator@GU?$char_traits@G@std@@@std@@@std@@QBE?AV?$istreambuf_iterator@GU?$char_traits@G@std@@@2@V32@0AAVios_base@2@AAHPAUtm@@@Z 40233cf0 f i libcpmtd:wlocale.obj
 0002:00135d60       ?get_monthname@?$time_get@_WV?$istreambuf_iterator@_WU?$char_traits@_W@std@@@std@@@std@@QBE?AV?$istreambuf_iterator@_WU?$char_traits@_W@std@@@2@V32@0AAVios_base@2@AAHPAUtm@@@Z 40233d60 f i libcpmtd:wlocale.obj
 0002:00135dd0       ?get_weekday@?$time_get@GV?$istreambuf_iterator@GU?$char_traits@G@std@@@std@@@std@@QBE?AV?$istreambuf_iterator@GU?$char_traits@G@std@@@2@V32@0AAVios_base@2@AAHPAUtm@@@Z 40233dd0 f i libcpmtd:wlocale.obj
 0002:00135e40       ?get_weekday@?$time_get@_WV?$istreambuf_iterator@_WU?$char_traits@_W@std@@@std@@@std@@QBE?AV?$istreambuf_iterator@_WU?$char_traits@_W@std@@@2@V32@0AAVios_base@2@AAHPAUtm@@@Z 40233e40 f i libcpmtd:wlocale.obj
 0002:00135eb0       ?get_year@?$time_get@GV?$istreambuf_iterator@GU?$char_traits@G@std@@@std@@@std@@QBE?AV?$istreambuf_iterator@GU?$char_traits@G@std@@@2@V32@0AAVios_base@2@AAHPAUtm@@@Z 40233eb0 f i libcpmtd:wlocale.obj
 0002:00135f20       ?get_year@?$time_get@_WV?$istreambuf_iterator@_WU?$char_traits@_W@std@@@std@@@std@@QBE?AV?$istreambuf_iterator@_WU?$char_traits@_W@std@@@2@V32@0AAVios_base@2@AAHPAUtm@@@Z 40233f20 f i libcpmtd:wlocale.obj
 0002:00135f90       ?gptr@?$basic_streambuf@GU?$char_traits@G@std@@@std@@IBEPAGXZ 40233f90 f i libcpmtd:wlocale.obj
 0002:00135fb0       ?gptr@?$basic_streambuf@_WU?$char_traits@_W@std@@@std@@IBEPA_WXZ 40233fb0 f i libcpmtd:wlocale.obj
 0002:00135fd0       ?grouping@?$_Mpunct@G@std@@QBE?AV?$basic_string@DU?$char_traits@D@std@@V?$allocator@D@2@@2@XZ 40233fd0 f i libcpmtd:wlocale.obj
 0002:00136030       ?grouping@?$_Mpunct@_W@std@@QBE?AV?$basic_string@DU?$char_traits@D@std@@V?$allocator@D@2@@2@XZ 40234030 f i libcpmtd:wlocale.obj
 0002:00136090       ?grouping@?$numpunct@G@std@@QBE?AV?$basic_string@DU?$char_traits@D@std@@V?$allocator@D@2@@2@XZ 40234090 f i libcpmtd:wlocale.obj
 0002:001360f0       ?grouping@?$numpunct@_W@std@@QBE?AV?$basic_string@DU?$char_traits@D@std@@V?$allocator@D@2@@2@XZ 402340f0 f i libcpmtd:wlocale.obj
 0002:00136150       ?insert@?$basic_string@GU?$char_traits@G@std@@V?$allocator@G@2@@std@@QAEAAV12@IIG@Z 40234150 f i libcpmtd:wlocale.obj
 0002:00136250       ?insert@?$basic_string@_WU?$char_traits@_W@std@@V?$allocator@_W@2@@std@@QAEAAV12@II_W@Z 40234250 f i libcpmtd:wlocale.obj
 0002:00136350       ?is@?$ctype@G@std@@QBE_NFG@Z 40234350 f i libcpmtd:wlocale.obj
 0002:001363a0       ?is@?$ctype@_W@std@@QBE_NF_W@Z 402343a0 f i libcpmtd:wlocale.obj
 0002:001363f0       ?length@?$_Char_traits@GG@std@@SAIPBG@Z 402343f0 f i libcpmtd:wlocale.obj
 0002:00136430       ?length@?$_WChar_traits@G@std@@SAIPBG@Z 40234430 f i libcpmtd:wlocale.obj
 0002:00136470       ?length@?$_WChar_traits@_W@std@@SAIPB_W@Z 40234470 f i libcpmtd:wlocale.obj
 0002:001364e0       ?max_size@?$_Default_allocator_traits@V?$allocator@G@std@@@std@@SAIABV?$allocator@G@2@@Z 402344e0 f i libcpmtd:wlocale.obj
 0002:001364f0       ?max_size@?$_Default_allocator_traits@V?$allocator@_W@std@@@std@@SAIABV?$allocator@_W@2@@Z 402344f0 f i libcpmtd:wlocale.obj
 0002:00136500       ?max_size@?$basic_string@GU?$char_traits@G@std@@V?$allocator@G@2@@std@@QBEIXZ 40234500 f i libcpmtd:wlocale.obj
 0002:00136580       ?max_size@?$basic_string@_WU?$char_traits@_W@std@@V?$allocator@_W@2@@std@@QBEIXZ 40234580 f i libcpmtd:wlocale.obj
 0002:00136600       ?move@?$_Char_traits@GG@std@@SAPAGQAGQBGI@Z 40234600 f i libcpmtd:wlocale.obj
 0002:00136710       ?move@?$_Char_traits@_WG@std@@SAPA_WQA_WQB_WI@Z 40234710 f i libcpmtd:wlocale.obj
 0002:00136820       ?name@locale@std@@QBE?AV?$basic_string@DU?$char_traits@D@std@@V?$allocator@D@2@@2@XZ 40234820 f i libcpmtd:wlocale.obj
 0002:00136910       ?narrow@?$ctype@G@std@@QBEDGD@Z 40234910 f i libcpmtd:wlocale.obj
 0002:00136960       ?narrow@?$ctype@_W@std@@QBED_WD@Z 40234960 f i libcpmtd:wlocale.obj
 0002:001369b0       ?neg_format@?$_Mpunct@G@std@@QBE?AUpattern@money_base@2@XZ 402349b0 f i libcpmtd:wlocale.obj
 0002:00136a00       ?neg_format@?$_Mpunct@_W@std@@QBE?AUpattern@money_base@2@XZ 40234a00 f i libcpmtd:wlocale.obj
 0002:00136a50       ?negative_sign@?$_Mpunct@G@std@@QBE?AV?$basic_string@GU?$char_traits@G@std@@V?$allocator@G@2@@2@XZ 40234a50 f i libcpmtd:wlocale.obj
 0002:00136ab0       ?negative_sign@?$_Mpunct@_W@std@@QBE?AV?$basic_string@_WU?$char_traits@_W@std@@V?$allocator@_W@2@@2@XZ 40234ab0 f i libcpmtd:wlocale.obj
 0002:00136b10       ?pos_format@?$_Mpunct@G@std@@QBE?AUpattern@money_base@2@XZ 40234b10 f i libcpmtd:wlocale.obj
 0002:00136b60       ?pos_format@?$_Mpunct@_W@std@@QBE?AUpattern@money_base@2@XZ 40234b60 f i libcpmtd:wlocale.obj
 0002:00136bb0       ?positive_sign@?$_Mpunct@G@std@@QBE?AV?$basic_string@GU?$char_traits@G@std@@V?$allocator@G@2@@2@XZ 40234bb0 f i libcpmtd:wlocale.obj
 0002:00136c10       ?positive_sign@?$_Mpunct@_W@std@@QBE?AV?$basic_string@_WU?$char_traits@_W@std@@V?$allocator@_W@2@@2@XZ 40234c10 f i libcpmtd:wlocale.obj
 0002:00136c70       ?push_back@?$basic_string@GU?$char_traits@G@std@@V?$allocator@G@2@@std@@QAEXG@Z 40234c70 f i libcpmtd:wlocale.obj
 0002:00136d30       ?push_back@?$basic_string@_WU?$char_traits@_W@std@@V?$allocator@_W@2@@std@@QAEX_W@Z 40234d30 f i libcpmtd:wlocale.obj
 0002:00136df0       ?resize@?$basic_string@GU?$char_traits@G@std@@V?$allocator@G@2@@std@@QAEXIG@Z 40234df0 f i libcpmtd:wlocale.obj
 0002:00136e50       ?resize@?$basic_string@_WU?$char_traits@_W@std@@V?$allocator@_W@2@@std@@QAEXI_W@Z 40234e50 f i libcpmtd:wlocale.obj
 0002:00136eb0       ?sbumpc@?$basic_streambuf@GU?$char_traits@G@std@@@std@@QAEGXZ 40234eb0 f i libcpmtd:wlocale.obj
 0002:00136f40       ?sbumpc@?$basic_streambuf@_WU?$char_traits@_W@std@@@std@@QAEGXZ 40234f40 f i libcpmtd:wlocale.obj
 0002:00136fd0       ?select_on_container_copy_construction@?$_Default_allocator_traits@V?$allocator@G@std@@@std@@SA?AV?$allocator@G@2@ABV32@@Z 40234fd0 f i libcpmtd:wlocale.obj
 0002:00136fe0       ?select_on_container_copy_construction@?$_Default_allocator_traits@V?$allocator@_W@std@@@std@@SA?AV?$allocator@_W@2@ABV32@@Z 40234fe0 f i libcpmtd:wlocale.obj
 0002:00136ff0       ?setstate@ios_base@std@@QAEXH@Z 40234ff0 f i libcpmtd:wlocale.obj
 0002:00137020       ?sgetc@?$basic_streambuf@GU?$char_traits@G@std@@@std@@QAEGXZ 40235020 f i libcpmtd:wlocale.obj
 0002:001370b0       ?sgetc@?$basic_streambuf@_WU?$char_traits@_W@std@@@std@@QAEGXZ 402350b0 f i libcpmtd:wlocale.obj
 0002:00137140       ?size@?$basic_string@GU?$char_traits@G@std@@V?$allocator@G@2@@std@@QBEIXZ 40235140 f i libcpmtd:wlocale.obj
 0002:00137160       ?size@?$basic_string@_WU?$char_traits@_W@std@@V?$allocator@_W@2@@std@@QBEIXZ 40235160 f i libcpmtd:wlocale.obj
 0002:00137180       ?sputc@?$basic_streambuf@GU?$char_traits@G@std@@@std@@QAEGG@Z 40235180 f i libcpmtd:wlocale.obj
 0002:00137230       ?sputc@?$basic_streambuf@_WU?$char_traits@_W@std@@@std@@QAEG_W@Z 40235230 f i libcpmtd:wlocale.obj
 0002:001372e0       ?thousands_sep@?$_Mpunct@G@std@@QBEGXZ 402352e0 f i libcpmtd:wlocale.obj
 0002:00137310       ?thousands_sep@?$_Mpunct@_W@std@@QBE_WXZ 40235310 f i libcpmtd:wlocale.obj
 0002:00137340       ?thousands_sep@?$numpunct@G@std@@QBEGXZ 40235340 f i libcpmtd:wlocale.obj
 0002:00137370       ?thousands_sep@?$numpunct@_W@std@@QBE_WXZ 40235370 f i libcpmtd:wlocale.obj
 0002:001373a0       ?to_char_type@?$_WChar_traits@G@std@@SAGG@Z 402353a0 f i libcpmtd:wlocale.obj
 0002:001373b0       ?to_char_type@?$_WChar_traits@_W@std@@SA_WG@Z 402353b0 f i libcpmtd:wlocale.obj
 0002:001373c0       ?to_int_type@?$_WChar_traits@G@std@@SAGG@Z 402353c0 f i libcpmtd:wlocale.obj
 0002:001373d0       ?to_int_type@?$_WChar_traits@_W@std@@SAG_W@Z 402353d0 f i libcpmtd:wlocale.obj
 0002:001373e0       ?tolower@?$ctype@G@std@@QBEGG@Z 402353e0 f i libcpmtd:wlocale.obj
 0002:00137430       ?tolower@?$ctype@_W@std@@QBE_W_W@Z 40235430 f i libcpmtd:wlocale.obj
 0002:00137480       ?truename@?$numpunct@G@std@@QBE?AV?$basic_string@GU?$char_traits@G@std@@V?$allocator@G@2@@2@XZ 40235480 f i libcpmtd:wlocale.obj
 0002:001374e0       ?truename@?$numpunct@_W@std@@QBE?AV?$basic_string@_WU?$char_traits@_W@std@@V?$allocator@_W@2@@2@XZ 402354e0 f i libcpmtd:wlocale.obj
 0002:00137540       ?widen@?$ctype@G@std@@QBEGD@Z 40235540 f i libcpmtd:wlocale.obj
 0002:00137590       ?widen@?$ctype@G@std@@QBEPBDPBD0PAG@Z 40235590 f i libcpmtd:wlocale.obj
 0002:001375e0       ?widen@?$ctype@_W@std@@QBEPBDPBD0PA_W@Z 402355e0 f i libcpmtd:wlocale.obj
 0002:00137630       ?widen@?$ctype@_W@std@@QBE_WD@Z 40235630 f i libcpmtd:wlocale.obj
 0002:00137680       _wmemcpy                   40235680 f i libcpmtd:wlocale.obj
 0002:001376b0       _wmemset                   402356b0 f i libcpmtd:wlocale.obj
 0002:00137700       ??$_Copy_unchecked@PADPADV?$ostreambuf_iterator@DU?$char_traits@D@std@@@std@@@std@@YA?AV?$ostreambuf_iterator@DU?$char_traits@D@std@@@0@PAD0V10@@Z 40235700 f i libcpmtd:xlocale.obj
 0002:00137770       ??$_Find_elem@D$0M@@std@@YAIAAY0M@$$CBDD@Z 40235770 f i libcpmtd:xlocale.obj
 0002:001377a0       ??$_Get_unwrapped@AAPAD@std@@YA?A_TAAPAD@Z 402357a0 f i libcpmtd:xlocale.obj
 0002:001377b0       ??$_Get_unwrapped_n@V?$ostreambuf_iterator@DU?$char_traits@D@std@@@std@@H@std@@YA?A_T$$QAV?$ostreambuf_iterator@DU?$char_traits@D@std@@@0@H@Z 402357b0 f i libcpmtd:xlocale.obj
 0002:001377c0       ??$_Getint_v2@V?$istreambuf_iterator@DU?$char_traits@D@std@@@std@@D@std@@YAHAAV?$istreambuf_iterator@DU?$char_traits@D@std@@@0@0HHAAH1ABV?$ctype@D@0@@Z 402357c0 f i libcpmtd:xlocale.obj
 0002:00137b50       ??$_Getvals@D@?$time_get@DV?$istreambuf_iterator@DU?$char_traits@D@std@@@std@@@std@@IAEXDABV_Locinfo@1@@Z 40235b50 f i libcpmtd:xlocale.obj
 0002:00137c20       ??$_Hash_array_representation@D@std@@YAIQBDI@Z 40235c20 f i libcpmtd:xlocale.obj
 0002:00137c40       ??$_Idl_distance@PADPAD@std@@YA?A_PABQAD0@Z 40235c40 f i libcpmtd:xlocale.obj
 0002:00137c60       ??$_LStrcoll@D@std@@YAHPBD000PBU_Collvec@@@Z 40235c60 f i libcpmtd:xlocale.obj
 0002:00137c90       ??$_LStrxfrm@D@std@@YAIPAD0PBD1PBU_Collvec@@@Z 40235c90 f i libcpmtd:xlocale.obj
 0002:00137cc0       ??$_Refancy@PAD$0A@@std@@YAPADPAD@Z 40235cc0 f i libcpmtd:xlocale.obj
 0002:00137cd0       ??$_Seek_wrapped@V?$ostreambuf_iterator@DU?$char_traits@D@std@@@std@@V12@@std@@YAXAAV?$ostreambuf_iterator@DU?$char_traits@D@std@@@0@$$QAV10@@Z 40235cd0 f i libcpmtd:xlocale.obj
 0002:00137cf0       ??$_Unfancy@$$CBD@std@@YAPBDPBD@Z 40235cf0 f i libcpmtd:xlocale.obj
 0002:00137d00       ??$addressof@$$CBV?$moneypunct@D$00@std@@@std@@YAPBV?$moneypunct@D$00@0@ABV10@@Z 40235d00 f i libcpmtd:xlocale.obj
 0002:00137d10       ??$addressof@$$CBV?$moneypunct@D$0A@@std@@@std@@YAPBV?$moneypunct@D$0A@@0@ABV10@@Z 40235d10 f i libcpmtd:xlocale.obj
 0002:00137d20       ??$copy@PADV?$ostreambuf_iterator@DU?$char_traits@D@std@@@std@@@std@@YA?AV?$ostreambuf_iterator@DU?$char_traits@D@std@@@0@PAD0V10@@Z 40235d20 f i libcpmtd:xlocale.obj
 0002:00137de0       ??$use_facet@V?$collate@D@std@@@std@@YAABV?$collate@D@0@ABVlocale@0@@Z 40235de0 f i libcpmtd:xlocale.obj
 0002:00137f40       ??$use_facet@V?$messages@D@std@@@std@@YAABV?$messages@D@0@ABVlocale@0@@Z 40235f40 f i libcpmtd:xlocale.obj
 0002:001380a0       ??$use_facet@V?$money_get@DV?$istreambuf_iterator@DU?$char_traits@D@std@@@std@@@std@@@std@@YAABV?$money_get@DV?$istreambuf_iterator@DU?$char_traits@D@std@@@std@@@0@ABVlocale@0@@Z 402360a0 f i libcpmtd:xlocale.obj
 0002:00138200       ??$use_facet@V?$money_put@DV?$ostreambuf_iterator@DU?$char_traits@D@std@@@std@@@std@@@std@@YAABV?$money_put@DV?$ostreambuf_iterator@DU?$char_traits@D@std@@@std@@@0@ABVlocale@0@@Z 40236200 f i libcpmtd:xlocale.obj
 0002:00138360       ??$use_facet@V?$moneypunct@D$00@std@@@std@@YAABV?$moneypunct@D$00@0@ABVlocale@0@@Z 40236360 f i libcpmtd:xlocale.obj
 0002:001384c0       ??$use_facet@V?$moneypunct@D$0A@@std@@@std@@YAABV?$moneypunct@D$0A@@0@ABVlocale@0@@Z 402364c0 f i libcpmtd:xlocale.obj
 0002:00138620       ??$use_facet@V?$time_get@DV?$istreambuf_iterator@DU?$char_traits@D@std@@@std@@@std@@@std@@YAABV?$time_get@DV?$istreambuf_iterator@DU?$char_traits@D@std@@@std@@@0@ABVlocale@0@@Z 40236620 f i libcpmtd:xlocale.obj
 0002:00138780       ??$use_facet@V?$time_put@DV?$ostreambuf_iterator@DU?$char_traits@D@std@@@std@@@std@@@std@@YAABV?$time_put@DV?$ostreambuf_iterator@DU?$char_traits@D@std@@@std@@@0@ABVlocale@0@@Z 40236780 f i libcpmtd:xlocale.obj
 0002:001388e0       ??0?$_Mpunct@D@std@@QAE@ABV_Locinfo@1@I_N1@Z 402368e0 f i libcpmtd:xlocale.obj
 0002:00138980       ??0?$_String_const_iterator@V?$_String_val@U?$_Simple_types@D@std@@@std@@@std@@QAE@$$QAV01@@Z 40236980 f i libcpmtd:xlocale.obj
 0002:001389c0       ??0?$_String_const_iterator@V?$_String_val@U?$_Simple_types@D@std@@@std@@@std@@QAE@ABV01@@Z 402369c0 f i libcpmtd:xlocale.obj
 0002:00138a00       ??0?$_String_const_iterator@V?$_String_val@U?$_Simple_types@D@std@@@std@@@std@@QAE@PBDPBU_Container_base12@1@@Z 40236a00 f i libcpmtd:xlocale.obj
 0002:00138a40       ??0?$_String_const_iterator@V?$_String_val@U?$_Simple_types@D@std@@@std@@@std@@QAE@XZ 40236a40 f i libcpmtd:xlocale.obj
 0002:00138a70       ??0?$_String_iterator@V?$_String_val@U?$_Simple_types@D@std@@@std@@@std@@QAE@ABV01@@Z 40236a70 f i libcpmtd:xlocale.obj
 0002:00138aa0       ??0?$_String_iterator@V?$_String_val@U?$_Simple_types@D@std@@@std@@@std@@QAE@PBDPBU_Container_base12@1@@Z 40236aa0 f i libcpmtd:xlocale.obj
 0002:00138ad0       ??0?$collate@D@std@@QAE@ABV_Locinfo@1@I@Z 40236ad0 f i libcpmtd:xlocale.obj
 0002:00138b60       ??0?$messages@D@std@@QAE@ABV_Locinfo@1@I@Z 40236b60 f i libcpmtd:xlocale.obj
 0002:00138bf0       ??0?$money_get@DV?$istreambuf_iterator@DU?$char_traits@D@std@@@std@@@std@@QAE@ABV_Locinfo@1@I@Z 40236bf0 f i libcpmtd:xlocale.obj
 0002:00138c80       ??0?$money_put@DV?$ostreambuf_iterator@DU?$char_traits@D@std@@@std@@@std@@QAE@ABV_Locinfo@1@I@Z 40236c80 f i libcpmtd:xlocale.obj
 0002:00138d10       ??0?$moneypunct@D$00@std@@QAE@ABV_Locinfo@1@I_N@Z 40236d10 f i libcpmtd:xlocale.obj
 0002:00138d50       ??0?$moneypunct@D$0A@@std@@QAE@ABV_Locinfo@1@I_N@Z 40236d50 f i libcpmtd:xlocale.obj
 0002:00138d90       ??0?$time_get@DV?$istreambuf_iterator@DU?$char_traits@D@std@@@std@@@std@@QAE@ABV_Locinfo@1@I@Z 40236d90 f i libcpmtd:xlocale.obj
 0002:00138e20       ??0?$time_put@DV?$ostreambuf_iterator@DU?$char_traits@D@std@@@std@@@std@@QAE@ABV_Locinfo@1@I@Z 40236e20 f i libcpmtd:xlocale.obj
 0002:00138ed0       ??1?$_Mpunct@D@std@@MAE@XZ 40236ed0 f i libcpmtd:xlocale.obj
 0002:00138f00       ??1?$_String_const_iterator@V?$_String_val@U?$_Simple_types@D@std@@@std@@@std@@QAE@XZ 40236f00 f i libcpmtd:xlocale.obj
 0002:00138f20       ??1?$_String_iterator@V?$_String_val@U?$_Simple_types@D@std@@@std@@@std@@QAE@XZ 40236f20 f i libcpmtd:xlocale.obj
 0002:00138f40       ??1?$_Tidy_guard@V?$_Mpunct@D@std@@@std@@QAE@XZ 40236f40 f i libcpmtd:xlocale.obj
 0002:00138f70       ??1?$_Tidy_guard@V?$time_get@DV?$istreambuf_iterator@DU?$char_traits@D@std@@@std@@@std@@@std@@QAE@XZ 40236f70 f i libcpmtd:xlocale.obj
 0002:00138fa0       ??1?$collate@D@std@@MAE@XZ 40236fa0 f i libcpmtd:xlocale.obj
 0002:00138fe0       ??1?$messages@D@std@@MAE@XZ 40236fe0 f i libcpmtd:xlocale.obj
 0002:00139010       ??1?$money_get@DV?$istreambuf_iterator@DU?$char_traits@D@std@@@std@@@std@@MAE@XZ 40237010 f i libcpmtd:xlocale.obj
 0002:00139040       ??1?$money_put@DV?$ostreambuf_iterator@DU?$char_traits@D@std@@@std@@@std@@MAE@XZ 40237040 f i libcpmtd:xlocale.obj
 0002:00139070       ??1?$moneypunct@D$00@std@@MAE@XZ 40237070 f i libcpmtd:xlocale.obj
 0002:001390a0       ??1?$moneypunct@D$0A@@std@@MAE@XZ 402370a0 f i libcpmtd:xlocale.obj
 0002:001390d0       ??1?$time_get@DV?$istreambuf_iterator@DU?$char_traits@D@std@@@std@@@std@@MAE@XZ 402370d0 f i libcpmtd:xlocale.obj
 0002:00139100       ??1?$time_put@DV?$ostreambuf_iterator@DU?$char_traits@D@std@@@std@@@std@@MAE@XZ 40237100 f i libcpmtd:xlocale.obj
 0002:00139140       ??4?$_String_const_iterator@V?$_String_val@U?$_Simple_types@D@std@@@std@@@std@@QAEAAV01@$$QAV01@@Z 40237140 f i libcpmtd:xlocale.obj
 0002:00139180       ??8?$_String_const_iterator@V?$_String_val@U?$_Simple_types@D@std@@@std@@@std@@QBE_NABV01@@Z 40237180 f i libcpmtd:xlocale.obj
 0002:001391d0       ??D?$_String_const_iterator@V?$_String_val@U?$_Simple_types@D@std@@@std@@@std@@QBEABDXZ 402371d0 f i libcpmtd:xlocale.obj
 0002:001392f0       ??D?$_String_iterator@V?$_String_val@U?$_Simple_types@D@std@@@std@@@std@@QBEAADXZ 402372f0 f i libcpmtd:xlocale.obj
 0002:00139310       ??E?$_String_const_iterator@V?$_String_val@U?$_Simple_types@D@std@@@std@@@std@@QAEAAV01@XZ 40237310 f i libcpmtd:xlocale.obj
 0002:00139430       ??E?$_String_iterator@V?$_String_val@U?$_Simple_types@D@std@@@std@@@std@@QAEAAV01@XZ 40237430 f i libcpmtd:xlocale.obj
 0002:00139450       ??E?$ostreambuf_iterator@DU?$char_traits@D@std@@@std@@QAEAAV01@H@Z 40237450 f i libcpmtd:xlocale.obj
 0002:00139470       ??G?$_String_iterator@V?$_String_val@U?$_Simple_types@D@std@@@std@@@std@@QBE?AV01@H@Z 40237470 f i libcpmtd:xlocale.obj
 0002:001394b0       ??H?$_String_iterator@V?$_String_val@U?$_Simple_types@D@std@@@std@@@std@@QBE?AV01@H@Z 402374b0 f i libcpmtd:xlocale.obj
 0002:001394f0       ??Y?$_String_const_iterator@V?$_String_val@U?$_Simple_types@D@std@@@std@@@std@@QAEAAV01@H@Z 402374f0 f i libcpmtd:xlocale.obj
 0002:00139530       ??Y?$_String_iterator@V?$_String_val@U?$_Simple_types@D@std@@@std@@@std@@QAEAAV01@H@Z 40237530 f i libcpmtd:xlocale.obj
 0002:00139560       ??Z?$_String_const_iterator@V?$_String_val@U?$_Simple_types@D@std@@@std@@@std@@QAEAAV01@H@Z 40237560 f i libcpmtd:xlocale.obj
 0002:00139590       ??Z?$_String_iterator@V?$_String_val@U?$_Simple_types@D@std@@@std@@@std@@QAEAAV01@H@Z 40237590 f i libcpmtd:xlocale.obj
 0002:001395c0       ??_E?$_Mpunct@D@std@@MAEPAXI@Z 402375c0 f i libcpmtd:xlocale.obj
 0002:001395c0       ??_G?$_Mpunct@D@std@@MAEPAXI@Z 402375c0 f i libcpmtd:xlocale.obj
 0002:00139620       ??_E?$collate@D@std@@MAEPAXI@Z 40237620 f i libcpmtd:xlocale.obj
 0002:00139620       ??_G?$collate@D@std@@MAEPAXI@Z 40237620 f i libcpmtd:xlocale.obj
 0002:00139680       ??_E?$messages@D@std@@MAEPAXI@Z 40237680 f i libcpmtd:xlocale.obj
 0002:00139680       ??_G?$messages@D@std@@MAEPAXI@Z 40237680 f i libcpmtd:xlocale.obj
 0002:001396e0       ??_E?$money_get@DV?$istreambuf_iterator@DU?$char_traits@D@std@@@std@@@std@@MAEPAXI@Z 402376e0 f i libcpmtd:xlocale.obj
 0002:001396e0       ??_G?$money_get@DV?$istreambuf_iterator@DU?$char_traits@D@std@@@std@@@std@@MAEPAXI@Z 402376e0 f i libcpmtd:xlocale.obj
 0002:00139740       ??_E?$money_put@DV?$ostreambuf_iterator@DU?$char_traits@D@std@@@std@@@std@@MAEPAXI@Z 40237740 f i libcpmtd:xlocale.obj
 0002:00139740       ??_G?$money_put@DV?$ostreambuf_iterator@DU?$char_traits@D@std@@@std@@@std@@MAEPAXI@Z 40237740 f i libcpmtd:xlocale.obj
 0002:001397a0       ??_E?$moneypunct@D$00@std@@MAEPAXI@Z 402377a0 f i libcpmtd:xlocale.obj
 0002:001397a0       ??_G?$moneypunct@D$00@std@@MAEPAXI@Z 402377a0 f i libcpmtd:xlocale.obj
 0002:00139800       ??_E?$moneypunct@D$0A@@std@@MAEPAXI@Z 40237800 f i libcpmtd:xlocale.obj
 0002:00139800       ??_G?$moneypunct@D$0A@@std@@MAEPAXI@Z 40237800 f i libcpmtd:xlocale.obj
 0002:00139860       ??_E?$time_get@DV?$istreambuf_iterator@DU?$char_traits@D@std@@@std@@@std@@MAEPAXI@Z 40237860 f i libcpmtd:xlocale.obj
 0002:00139860       ??_G?$time_get@DV?$istreambuf_iterator@DU?$char_traits@D@std@@@std@@@std@@MAEPAXI@Z 40237860 f i libcpmtd:xlocale.obj
 0002:001398c0       ??_E?$time_put@DV?$ostreambuf_iterator@DU?$char_traits@D@std@@@std@@@std@@MAEPAXI@Z 402378c0 f i libcpmtd:xlocale.obj
 0002:001398c0       ??_G?$time_put@DV?$ostreambuf_iterator@DU?$char_traits@D@std@@@std@@@std@@MAEPAXI@Z 402378c0 f i libcpmtd:xlocale.obj
 0002:00139920       ?_Compat@?$_String_const_iterator@V?$_String_val@U?$_Simple_types@D@std@@@std@@@std@@QBEXABV12@@Z 40237920 f i libcpmtd:xlocale.obj
 0002:00139990       ?_Getcat@?$collate@D@std@@SAIPAPBVfacet@locale@2@PBV42@@Z 40237990 f i libcpmtd:xlocale.obj
 0002:00139b20       ?_Getcat@?$messages@D@std@@SAIPAPBVfacet@locale@2@PBV42@@Z 40237b20 f i libcpmtd:xlocale.obj
 0002:00139c50       ?_Getcat@?$money_get@DV?$istreambuf_iterator@DU?$char_traits@D@std@@@std@@@std@@SAIPAPBVfacet@locale@2@PBV42@@Z 40237c50 f i libcpmtd:xlocale.obj
 0002:00139d80       ?_Getcat@?$money_put@DV?$ostreambuf_iterator@DU?$char_traits@D@std@@@std@@@std@@SAIPAPBVfacet@locale@2@PBV42@@Z 40237d80 f i libcpmtd:xlocale.obj
 0002:00139eb0       ?_Getcat@?$moneypunct@D$00@std@@SAIPAPBVfacet@locale@2@PBV42@@Z 40237eb0 f i libcpmtd:xlocale.obj
 0002:00139fe0       ?_Getcat@?$moneypunct@D$0A@@std@@SAIPAPBVfacet@locale@2@PBV42@@Z 40237fe0 f i libcpmtd:xlocale.obj
 0002:0013a110       ?_Getcat@?$time_get@DV?$istreambuf_iterator@DU?$char_traits@D@std@@@std@@@std@@SAIPAPBVfacet@locale@2@PBV42@@Z 40238110 f i libcpmtd:xlocale.obj
 0002:0013a240       ?_Getcat@?$time_put@DV?$ostreambuf_iterator@DU?$char_traits@D@std@@@std@@@std@@SAIPAPBVfacet@locale@2@PBV42@@Z 40238240 f i libcpmtd:xlocale.obj
 0002:0013a370       ?_Getfmt@?$time_get@DV?$istreambuf_iterator@DU?$char_traits@D@std@@@std@@@std@@IBE?AV?$istreambuf_iterator@DU?$char_traits@D@std@@@2@V32@0AAVios_base@2@AAHPAUtm@@PBD@Z 40238370 f i libcpmtd:xlocale.obj
 0002:0013a5e0       ?_Getint@?$time_get@DV?$istreambuf_iterator@DU?$char_traits@D@std@@@std@@@std@@ABAHAAV?$istreambuf_iterator@DU?$char_traits@D@std@@@2@0HHAAHABV?$ctype@D@2@@Z 402385e0 f i libcpmtd:xlocale.obj
 0002:0013a620       ?_Getmfld@?$money_get@DV?$istreambuf_iterator@DU?$char_traits@D@std@@@std@@@std@@ABE?AV?$basic_string@DU?$char_traits@D@std@@V?$allocator@D@2@@2@AAV?$istreambuf_iterator@DU?$char_traits@D@std@@@2@0_NAAVios_base@2@AAY0M@D@Z 40238620 f i libcpmtd:xlocale.obj
 0002:0013bac0       ?_Gettnames@_Locinfo@std@@QBE?AV_Timevec@2@XZ 40239ac0 f i libcpmtd:xlocale.obj
 0002:0013bb00       ?_Init@?$_Mpunct@D@std@@IAEXABV_Locinfo@2@_N@Z 40239b00 f i libcpmtd:xlocale.obj
 0002:0013be70       ?_Init@?$collate@D@std@@IAEXABV_Locinfo@2@@Z 40239e70 f i libcpmtd:xlocale.obj
 0002:0013beb0       ?_Init@?$messages@D@std@@IAEXABV_Locinfo@2@@Z 40239eb0 f i libcpmtd:xlocale.obj
 0002:0013bec0       ?_Init@?$money_get@DV?$istreambuf_iterator@DU?$char_traits@D@std@@@std@@@std@@IAEXABV_Locinfo@2@@Z 40239ec0 f i libcpmtd:xlocale.obj
 0002:0013bed0       ?_Init@?$money_put@DV?$ostreambuf_iterator@DU?$char_traits@D@std@@@std@@@std@@IAEXABV_Locinfo@2@@Z 40239ed0 f i libcpmtd:xlocale.obj
 0002:0013bee0       ?_Init@?$time_get@DV?$istreambuf_iterator@DU?$char_traits@D@std@@@std@@@std@@IAEXABV_Locinfo@2@@Z 40239ee0 f i libcpmtd:xlocale.obj
 0002:0013bfa0       ?_Init@?$time_put@DV?$ostreambuf_iterator@DU?$char_traits@D@std@@@std@@@std@@IAEXABV_Locinfo@2@@Z 40239fa0 f i libcpmtd:xlocale.obj
 0002:0013c040       ?_Makexloc@_Locimp@locale@std@@CAXABV_Locinfo@3@HPAV123@PBV23@@Z 4023a040 f   libcpmtd:xlocale.obj
 0002:0013c8b0       ?_Makpat@?$_Mpunct@D@std@@AAEXAAUpattern@money_base@2@III@Z 4023a8b0 f i libcpmtd:xlocale.obj
 0002:0013c930       ?_Put@?$money_put@DV?$ostreambuf_iterator@DU?$char_traits@D@std@@@std@@@std@@CA?AV?$ostreambuf_iterator@DU?$char_traits@D@std@@@2@V32@V?$_String_const_iterator@V?$_String_val@U?$_Simple_types@D@std@@@std@@@2@I@Z 4023a930 f i libcpmtd:xlocale.obj
 0002:0013ca00       ?_Putmfld@?$money_put@DV?$ostreambuf_iterator@DU?$char_traits@D@std@@@std@@@std@@ABE?AV?$ostreambuf_iterator@DU?$char_traits@D@std@@@2@V32@_NAAVios_base@2@D1V?$basic_string@DU?$char_traits@D@std@@V?$allocator@D@2@@2@D@Z 4023aa00 f i libcpmtd:xlocale.obj
 0002:0013dcb0       ?_Rep@?$money_put@DV?$ostreambuf_iterator@DU?$char_traits@D@std@@@std@@@std@@CA?AV?$ostreambuf_iterator@DU?$char_traits@D@std@@@2@V32@DI@Z 4023bcb0 f i libcpmtd:xlocale.obj
 0002:0013dd10       ?_Tidy@?$_Mpunct@D@std@@AAEXXZ 4023bd10 f i libcpmtd:xlocale.obj
 0002:0013dd70       ?_Tidy@?$time_get@DV?$istreambuf_iterator@DU?$char_traits@D@std@@@std@@@std@@AAEXXZ 4023bd70 f i libcpmtd:xlocale.obj
 0002:0013ddc0       ?_Verify_offset@?$_String_const_iterator@V?$_String_val@U?$_Simple_types@D@std@@@std@@@std@@QBEXH@Z 4023bdc0 f i libcpmtd:xlocale.obj
 0002:0013df40       ?begin@?$basic_string@DU?$char_traits@D@std@@V?$allocator@D@2@@std@@QAE?AV?$_String_iterator@V?$_String_val@U?$_Simple_types@D@std@@@std@@@2@XZ 4023bf40 f i libcpmtd:xlocale.obj
 0002:0013dfa0       ?curr_symbol@?$_Mpunct@D@std@@QBE?AV?$basic_string@DU?$char_traits@D@std@@V?$allocator@D@2@@2@XZ 4023bfa0 f i libcpmtd:xlocale.obj
 0002:0013e000       ?date_order@?$time_get@DV?$istreambuf_iterator@DU?$char_traits@D@std@@@std@@@std@@QBE?AW4dateorder@time_base@2@XZ 4023c000 f i libcpmtd:xlocale.obj
 0002:0013e030       ?decimal_point@?$_Mpunct@D@std@@QBEDXZ 4023c030 f i libcpmtd:xlocale.obj
 0002:0013e060       ?do_close@?$messages@D@std@@MBEXH@Z 4023c060 f i libcpmtd:xlocale.obj
 0002:0013e070       ?do_compare@?$collate@D@std@@MBEHPBD000@Z 4023c070 f i libcpmtd:xlocale.obj
 0002:0013e110       ?do_curr_symbol@?$_Mpunct@D@std@@MBE?AV?$basic_string@DU?$char_traits@D@std@@V?$allocator@D@2@@2@XZ 4023c110 f i libcpmtd:xlocale.obj
 0002:0013e150       ?do_date_order@?$time_get@DV?$istreambuf_iterator@DU?$char_traits@D@std@@@std@@@std@@MBE?AW4dateorder@time_base@2@XZ 4023c150 f i libcpmtd:xlocale.obj
 0002:0013e170       ?do_decimal_point@?$_Mpunct@D@std@@MBEDXZ 4023c170 f i libcpmtd:xlocale.obj
 0002:0013e190       ?do_frac_digits@?$_Mpunct@D@std@@MBEHXZ 4023c190 f i libcpmtd:xlocale.obj
 0002:0013e1b0       ?do_get@?$messages@D@std@@MBE?AV?$basic_string@DU?$char_traits@D@std@@V?$allocator@D@2@@2@HHHABV32@@Z 4023c1b0 f i libcpmtd:xlocale.obj
 0002:0013e1f0       ?do_get@?$money_get@DV?$istreambuf_iterator@DU?$char_traits@D@std@@@std@@@std@@MBE?AV?$istreambuf_iterator@DU?$char_traits@D@std@@@2@V32@0_NAAVios_base@2@AAHAAO@Z 4023c1f0 f i libcpmtd:xlocale.obj
 0002:0013e360       ?do_get@?$money_get@DV?$istreambuf_iterator@DU?$char_traits@D@std@@@std@@@std@@MBE?AV?$istreambuf_iterator@DU?$char_traits@D@std@@@2@V32@0_NAAVios_base@2@AAHAAV?$basic_string@DU?$char_traits@D@std@@V?$allocator@D@2@@2@@Z 4023c360 f i libcpmtd:xlocale.obj
 0002:0013e530       ?do_get@?$time_get@DV?$istreambuf_iterator@DU?$char_traits@D@std@@@std@@@std@@MBE?AV?$istreambuf_iterator@DU?$char_traits@D@std@@@2@V32@0AAVios_base@2@AAHPAUtm@@DD@Z 4023c530 f i libcpmtd:xlocale.obj
 0002:0013ef00       ?do_get_date@?$time_get@DV?$istreambuf_iterator@DU?$char_traits@D@std@@@std@@@std@@MBE?AV?$istreambuf_iterator@DU?$char_traits@D@std@@@2@V32@0AAVios_base@2@AAHPAUtm@@@Z 4023cf00 f i libcpmtd:xlocale.obj
 0002:0013f6b0       ?do_get_monthname@?$time_get@DV?$istreambuf_iterator@DU?$char_traits@D@std@@@std@@@std@@MBE?AV?$istreambuf_iterator@DU?$char_traits@D@std@@@2@V32@0AAVios_base@2@AAHPAUtm@@@Z 4023d6b0 f i libcpmtd:xlocale.obj
 0002:0013f730       ?do_get_time@?$time_get@DV?$istreambuf_iterator@DU?$char_traits@D@std@@@std@@@std@@MBE?AV?$istreambuf_iterator@DU?$char_traits@D@std@@@2@V32@0AAVios_base@2@AAHPAUtm@@@Z 4023d730 f i libcpmtd:xlocale.obj
 0002:0013f940       ?do_get_weekday@?$time_get@DV?$istreambuf_iterator@DU?$char_traits@D@std@@@std@@@std@@MBE?AV?$istreambuf_iterator@DU?$char_traits@D@std@@@2@V32@0AAVios_base@2@AAHPAUtm@@@Z 4023d940 f i libcpmtd:xlocale.obj
 0002:0013f9c0       ?do_get_year@?$time_get@DV?$istreambuf_iterator@DU?$char_traits@D@std@@@std@@@std@@MBE?AV?$istreambuf_iterator@DU?$char_traits@D@std@@@2@V32@0AAVios_base@2@AAHPAUtm@@@Z 4023d9c0 f i libcpmtd:xlocale.obj
 0002:0013fb10       ?do_grouping@?$_Mpunct@D@std@@MBE?AV?$basic_string@DU?$char_traits@D@std@@V?$allocator@D@2@@2@XZ 4023db10 f i libcpmtd:xlocale.obj
 0002:0013fb50       ?do_hash@?$collate@D@std@@MBEJPBD0@Z 4023db50 f i libcpmtd:xlocale.obj
 0002:0013fbe0       ?do_neg_format@?$_Mpunct@D@std@@MBE?AUpattern@money_base@2@XZ 4023dbe0 f i libcpmtd:xlocale.obj
 0002:0013fc10       ?do_negative_sign@?$_Mpunct@D@std@@MBE?AV?$basic_string@DU?$char_traits@D@std@@V?$allocator@D@2@@2@XZ 4023dc10 f i libcpmtd:xlocale.obj
 0002:0013fc50       ?do_open@?$messages@D@std@@MBEHABV?$basic_string@DU?$char_traits@D@std@@V?$allocator@D@2@@2@ABVlocale@2@@Z 4023dc50 f i libcpmtd:xlocale.obj
 0002:0013fc70       ?do_pos_format@?$_Mpunct@D@std@@MBE?AUpattern@money_base@2@XZ 4023dc70 f i libcpmtd:xlocale.obj
 0002:0013fca0       ?do_positive_sign@?$_Mpunct@D@std@@MBE?AV?$basic_string@DU?$char_traits@D@std@@V?$allocator@D@2@@2@XZ 4023dca0 f i libcpmtd:xlocale.obj
 0002:0013fce0       ?do_put@?$money_put@DV?$ostreambuf_iterator@DU?$char_traits@D@std@@@std@@@std@@MBE?AV?$ostreambuf_iterator@DU?$char_traits@D@std@@@2@V32@_NAAVios_base@2@DABV?$basic_string@DU?$char_traits@D@std@@V?$allocator@D@2@@2@@Z 4023dce0 f i libcpmtd:xlocale.obj
 0002:0013ff50       ?do_put@?$money_put@DV?$ostreambuf_iterator@DU?$char_traits@D@std@@@std@@@std@@MBE?AV?$ostreambuf_iterator@DU?$char_traits@D@std@@@2@V32@_NAAVios_base@2@DO@Z 4023df50 f i libcpmtd:xlocale.obj
 0002:00140190       ?do_put@?$time_put@DV?$ostreambuf_iterator@DU?$char_traits@D@std@@@std@@@std@@MBE?AV?$ostreambuf_iterator@DU?$char_traits@D@std@@@2@V32@AAVios_base@2@DPBUtm@@DD@Z 4023e190 f i libcpmtd:xlocale.obj
 0002:001403a0       ?do_thousands_sep@?$_Mpunct@D@std@@MBEDXZ 4023e3a0 f i libcpmtd:xlocale.obj
 0002:001403c0       ?do_transform@?$collate@D@std@@MBE?AV?$basic_string@DU?$char_traits@D@std@@V?$allocator@D@2@@2@PBD0@Z 4023e3c0 f i libcpmtd:xlocale.obj
 0002:00140520       ?end@?$basic_string@DU?$char_traits@D@std@@V?$allocator@D@2@@std@@QAE?AV?$_String_iterator@V?$_String_val@U?$_Simple_types@D@std@@@std@@@2@XZ 4023e520 f i libcpmtd:xlocale.obj
 0002:00140580       ?frac_digits@?$_Mpunct@D@std@@QBEHXZ 4023e580 f i libcpmtd:xlocale.obj
 0002:001405b0       ?get_monthname@?$time_get@DV?$istreambuf_iterator@DU?$char_traits@D@std@@@std@@@std@@QBE?AV?$istreambuf_iterator@DU?$char_traits@D@std@@@2@V32@0AAVios_base@2@AAHPAUtm@@@Z 4023e5b0 f i libcpmtd:xlocale.obj
 0002:00140620       ?get_weekday@?$time_get@DV?$istreambuf_iterator@DU?$char_traits@D@std@@@std@@@std@@QBE?AV?$istreambuf_iterator@DU?$char_traits@D@std@@@2@V32@0AAVios_base@2@AAHPAUtm@@@Z 4023e620 f i libcpmtd:xlocale.obj
 0002:00140690       ?get_year@?$time_get@DV?$istreambuf_iterator@DU?$char_traits@D@std@@@std@@@std@@QBE?AV?$istreambuf_iterator@DU?$char_traits@D@std@@@2@V32@0AAVios_base@2@AAHPAUtm@@@Z 4023e690 f i libcpmtd:xlocale.obj
 0002:00140700       ?grouping@?$_Mpunct@D@std@@QBE?AV?$basic_string@DU?$char_traits@D@std@@V?$allocator@D@2@@2@XZ 4023e700 f i libcpmtd:xlocale.obj
 0002:00140760       ?is@?$ctype@D@std@@QBE_NFD@Z 4023e760 f i libcpmtd:xlocale.obj
 0002:001407b0       ?narrow@?$ctype@D@std@@QBEDDD@Z 4023e7b0 f i libcpmtd:xlocale.obj
 0002:00140800       ?neg_format@?$_Mpunct@D@std@@QBE?AUpattern@money_base@2@XZ 4023e800 f i libcpmtd:xlocale.obj
 0002:00140850       ?negative_sign@?$_Mpunct@D@std@@QBE?AV?$basic_string@DU?$char_traits@D@std@@V?$allocator@D@2@@2@XZ 4023e850 f i libcpmtd:xlocale.obj
 0002:001408b0       ?pos_format@?$_Mpunct@D@std@@QBE?AUpattern@money_base@2@XZ 4023e8b0 f i libcpmtd:xlocale.obj
 0002:00140900       ?positive_sign@?$_Mpunct@D@std@@QBE?AV?$basic_string@DU?$char_traits@D@std@@V?$allocator@D@2@@2@XZ 4023e900 f i libcpmtd:xlocale.obj
 0002:00140960       ?thousands_sep@?$_Mpunct@D@std@@QBEDXZ 4023e960 f i libcpmtd:xlocale.obj
 0002:00140990       __Stolx                    4023e990 f   libcpmtd:xstol.obj
 0002:00140b00       __Stoul                    4023eb00 f   libcpmtd:xstoul.obj
 0002:00140b30       __Stoulx                   4023eb30 f   libcpmtd:xstoul.obj
 0002:00140e40       __Stoll                    4023ee40 f   libcpmtd:xstoll.obj
 0002:00140e70       __Stollx                   4023ee70 f   libcpmtd:xstoll.obj
 0002:00141030       __Stoull                   4023f030 f   libcpmtd:xstoull.obj
 0002:00141060       __Stoullx                  4023f060 f   libcpmtd:xstoull.obj
 0002:00141400       __Getcoll                  4023f400 f   libcpmtd:xstrcoll.obj
 0002:00141460       __Strcoll                  4023f460 f   libcpmtd:xstrcoll.obj
 0002:001415c0       __Getdateorder             4023f5c0 f   libcpmtd:xdateord.obj
 0002:001416b0       __Mbrtowc                  4023f6b0 f   libcpmtd:xmbtowc.obj
 0002:00141a50       __Wcscoll                  4023fa50 f   libcpmtd:xwcscoll.obj
 0002:00141ba0       _wmemcmp                   4023fba0 f i libcpmtd:xwcscoll.obj
 0002:00141fa0       ??$?RE@__crt_internal_free_policy@@QBEXQBE@Z 4023ffa0 f i libcpmtd:xwcsxfrm.obj
 0002:00141fd0       ??0?$__crt_unique_heap_ptr@EU__crt_internal_free_policy@@@@QAE@QAE@Z 4023ffd0 f i libcpmtd:xwcsxfrm.obj
 0002:00141ff0       ??1?$__crt_unique_heap_ptr@EU__crt_internal_free_policy@@@@QAE@XZ 4023fff0 f i libcpmtd:xwcsxfrm.obj
 0002:00142010       ??B?$__crt_unique_heap_ptr@EU__crt_internal_free_policy@@@@QBE_NXZ 40240010 f i libcpmtd:xwcsxfrm.obj
 0002:00142030       ?get@?$__crt_unique_heap_ptr@EU__crt_internal_free_policy@@@@QBEPAEXZ 40240030 f i libcpmtd:xwcsxfrm.obj
 0002:00142050       ?is_valid@?$__crt_unique_heap_ptr@EU__crt_internal_free_policy@@@@QBE_NXZ 40240050 f i libcpmtd:xwcsxfrm.obj
 0002:00142090       ?release@?$__crt_unique_heap_ptr@EU__crt_internal_free_policy@@@@QAEXXZ 40240090 f i libcpmtd:xwcsxfrm.obj
 0002:001420c0       __Wcsxfrm                  402400c0 f   libcpmtd:xwcsxfrm.obj
 0002:00142260       __Getwctype                40240260 f   libcpmtd:xgetwctype.obj
 0002:001422b0       __Getwctypes               402402b0 f   libcpmtd:xgetwctype.obj
 0002:001422e0       __Towlower                 402402e0 f   libcpmtd:xtowlower.obj
 0002:00142380       __Towupper                 40240380 f   libcpmtd:xtowupper.obj
 0002:00142420       __Strxfrm                  40240420 f   libcpmtd:xstrxfrm.obj
 0002:00142550       ___crtCompareStringA       40240550 f   libcpmtd:StlCompareStringA.obj
 0002:00142b20       ___crtCompareStringW       40240b20 f   libcpmtd:StlCompareStringW.obj
 0002:00142bf0       ___crtLCMapStringW         40240bf0 f   libcpmtd:StlLCMapStringW.obj
 0002:00142c70       ___report_gsfailure        40240c70 f   LIBCMTD:gs_report.obj
 0002:00142c80       ___report_rangecheckfailure 40240c80 f   LIBCMTD:gs_report.obj
 0002:00142c90       ___report_securityfailure  40240c90 f   LIBCMTD:gs_report.obj
 0002:00142ca0       ___report_securityfailureEx 40240ca0 f   LIBCMTD:gs_report.obj
 0002:00142cb0       @_RTC_AllocaHelper@12      40240cb0 f   LIBCMTD:stack.obj
 0002:00142cf0       @_RTC_CheckStackVars2@12   40240cf0 f   LIBCMTD:stack.obj
 0002:00142df0       @_RTC_CheckStackVars@8     40240df0 f   LIBCMTD:stack.obj
 0002:00142e50       __RTC_CheckEsp             40240e50 f   LIBCMTD:stack.obj
 0002:00142e80       @__CheckForDebuggerJustMyCode@4 40240e80 f   LIBCMTD:debugger_jmc.obj
 0002:00142ed0       @__security_check_cookie@4 40240ed0 f   LIBCMTD:secchk.obj
 0002:00142ef0       __CRT_RTC_INIT             40240ef0 f   LIBCMTD:init.obj
 0002:00142f00       __CRT_RTC_INITW            40240f00 f   LIBCMTD:init.obj
 0002:00142f10       __RTC_InitBase             40240f10 f   LIBCMTD:init.obj
 0002:00142f50       __RTC_Shutdown             40240f50 f   LIBCMTD:init.obj
 0002:00142f70       __alloca_probe             40240f70 f   LIBCMTD:chkstk.obj
 0002:00142f70       __chkstk                   40240f70 f   LIBCMTD:chkstk.obj
 0002:00142fb0       __ftol2_sse_excpt          40240fb0 f   LIBCMTD:ftol2.obj
 0002:00142fc0       __ftol2_sse                40240fc0 f   LIBCMTD:ftol2.obj
 0002:00142fd0       __ftoi2                    40240fd0 f   LIBCMTD:ftol2.obj
 0002:00143070       __ftoui2                   40241070 f   LIBCMTD:ftol2.obj
 0002:00143140       __ftol2                    40241140 f   LIBCMTD:ftol2.obj
 0002:00143220       __ftoul2                   40241220 f   LIBCMTD:ftol2.obj
 0002:00143310       __ftoul2_legacy            40241310 f   LIBCMTD:ftol2.obj
 0002:00143330       ??2@YAPAXI@Z               40241330 f   LIBCMTD:new_scalar.obj
 0002:00143390       ??3@YAXPAXI@Z              40241390 f   LIBCMTD:delete_scalar_size.obj
 0002:001433b0       ?configure_argv@__scrt_narrow_argv_policy@@SAHXZ 402413b0 f i LIBCMTD:utility.obj
 0002:00143480       ?initialize_environment@__scrt_narrow_environment_policy@@SAHXZ 40241480 f i LIBCMTD:utility.obj
 0002:00143520       _NtCurrentTeb              40241520 f i LIBCMTD:utility.obj
 0002:00143530       ___scrt_acquire_startup_lock 40241530 f   LIBCMTD:utility.obj
 0002:00143590       ___scrt_dllmain_after_initialize_c 40241590 f   LIBCMTD:utility.obj
 0002:001435d0       ___scrt_dllmain_before_initialize_c 402415d0 f   LIBCMTD:utility.obj
 0002:00143600       ___scrt_dllmain_crt_thread_attach 40241600 f   LIBCMTD:utility.obj
 0002:00143640       ___scrt_dllmain_crt_thread_detach 40241640 f   LIBCMTD:utility.obj
 0002:00143660       ___scrt_dllmain_exception_filter 40241660 f   LIBCMTD:utility.obj
 0002:001436c0       ___scrt_dllmain_uninitialize_c 402416c0 f   LIBCMTD:utility.obj
 0002:00143700       ___scrt_dllmain_uninitialize_critical 40241700 f   LIBCMTD:utility.obj
 0002:00143720       ___scrt_initialize_crt     40241720 f   LIBCMTD:utility.obj
 0002:00143780       ___scrt_initialize_onexit_tables 40241780 f   LIBCMTD:utility.obj
 0002:00143890       ___scrt_is_nonwritable_in_current_image 40241890 f   LIBCMTD:utility.obj
 0002:00143a10       ___scrt_release_startup_lock 40241a10 f   LIBCMTD:utility.obj
 0002:00143a40       ___scrt_uninitialize_crt   40241a40 f   LIBCMTD:utility.obj
 0002:00143a90       __onexit                   40241a90 f   LIBCMTD:utility.obj
 0002:00143b10       _at_quick_exit             40241b10 f   LIBCMTD:utility.obj
 0002:00143b60       _atexit                    40241b60 f   LIBCMTD:utility.obj
 0002:00143ba0       ??1type_info@@UAE@XZ       40241ba0 f   LIBCMTD:std_type_info_static.obj
 0002:00143bc0       ??_Etype_info@@UAEPAXI@Z   40241bc0 f i LIBCMTD:std_type_info_static.obj
 0002:00143bc0       ??_Gtype_info@@UAEPAXI@Z   40241bc0 f i LIBCMTD:std_type_info_static.obj
 0002:00143c00       ??_V@YAXPAX@Z              40241c00 f   LIBCMTD:delete_array.obj
 0002:00144220       __CRT_INIT@12              40242220 f   LIBCMTD:dll_dllmain.obj
 0002:00144240       __DllMainCRTStartup@12     40242240 f   LIBCMTD:dll_dllmain.obj
 0002:00144270       @_guard_check_icall_nop@4  40242270 f i LIBCMTD:guard_support.obj
 0002:00144280       _ReadNoFence               40242280 f i LIBCMTD:guard_support.obj
 0002:001442a0       _ReadPointerNoFence        402422a0 f i LIBCMTD:guard_support.obj
 0002:001442c0       __InlineInterlockedExchangePointer 402422c0 f i LIBCMTD:guard_support.obj
 0002:001442d0       ___castguard_check_failure_debugbreak 402422d0 f i LIBCMTD:guard_support.obj
 0002:001442f0       ___castguard_check_failure_fastfail 402422f0 f i LIBCMTD:guard_support.obj
 0002:00144320       ___castguard_check_failure_nop 40242320 f i LIBCMTD:guard_support.obj
 0002:00144330       ___castguard_check_failure_os_handled 40242330 f i LIBCMTD:guard_support.obj
 0002:001443a0       ___castguard_check_failure_user_handled 402423a0 f i LIBCMTD:guard_support.obj
 0002:00144470       ___castguard_set_user_handler 40242470 f i LIBCMTD:guard_support.obj
 0002:001444a0       ___castguard_slow_path_check_debugbreak 402424a0 f i LIBCMTD:guard_support.obj
 0002:001444e0       ___castguard_slow_path_check_fastfail 402424e0 f i LIBCMTD:guard_support.obj
 0002:00144530       ___castguard_slow_path_check_nop 40242530 f i LIBCMTD:guard_support.obj
 0002:00144540       ___castguard_slow_path_check_os_handled 40242540 f i LIBCMTD:guard_support.obj
 0002:00144590       ___castguard_slow_path_check_user_handled 40242590 f i LIBCMTD:guard_support.obj
 0002:00144630       __guard_icall_checks_enforced 40242630 f i LIBCMTD:guard_support.obj
 0002:00144670       ??3@YAXPAX@Z               40242670 f   LIBCMTD:delete_scalar.obj
 0002:00144690       __allmul                   40242690 f   LIBCMTD:llmul.obj
 0002:001446e0       __allshl                   402426e0 f   LIBCMTD:llshl.obj
 0002:00144710       __aullshr                  40242710 f   LIBCMTD:ullshr.obj
 0002:00144740       ___isa_available_init      40242740 f   LIBCMTD:cpu_disp.obj
 0002:00144d00       __aulldiv                  40242d00 f   LIBCMTD:ulldiv.obj
 0002:00144e40       ?_RTC_AllocaFailure@@YAXPAXPAU_RTC_ALLOCA_NODE@@H@Z 40242e40 f   LIBCMTD:error.obj
 0002:00144f60       ?_RTC_Failure@@YAXPAXH@Z   40242f60 f   LIBCMTD:error.obj
 0002:00144fd0       ?_RTC_StackFailure@@YAXPAXPBD@Z 40242fd0 f   LIBCMTD:error.obj
 0002:001454c0       __RTC_UninitUse            402434c0 f   LIBCMTD:error.obj
 0002:001455a0       ?_RTC_GetErrorFunc@@YAP6AHHPBDH00ZZPBX@Z 402435a0 f   LIBCMTD:userapi.obj
 0002:001455b0       ?_RTC_GetErrorFuncW@@YAP6AHHPB_WH00ZZPBX@Z 402435b0 f   LIBCMTD:userapi.obj
 0002:001455c0       __RTC_GetErrDesc           402435c0 f   LIBCMTD:userapi.obj
 0002:001455e0       __RTC_NumErrors            402435e0 f   LIBCMTD:userapi.obj
 0002:001455f0       __RTC_SetErrorFunc         402435f0 f   LIBCMTD:userapi.obj
 0002:00145620       __RTC_SetErrorFuncW        40243620 f   LIBCMTD:userapi.obj
 0002:00145650       __RTC_SetErrorType         40243650 f   LIBCMTD:userapi.obj
 0002:00145680       ?__scrt_throw_std_bad_alloc@@YAXXZ 40243680 f   LIBCMTD:throw_bad_alloc.obj
 0002:001456b0       ?__scrt_throw_std_bad_array_new_length@@YAXXZ 402436b0 f   LIBCMTD:throw_bad_alloc.obj
 0002:001456e0       __get_startup_argv_mode    402436e0 f   LIBCMTD:argv_mode.obj
 0002:001456f0       ___scrt_is_ucrt_dll_in_use 402436f0 f   LIBCMTD:ucrt_detection.obj
 0002:00145720       ___scrt_fastfail           40243720 f   LIBCMTD:utility_desktop.obj
 0002:00145730       ___scrt_get_show_window_mode 40243730 f   LIBCMTD:utility_desktop.obj
 0002:00145780       ___scrt_initialize_mta     40243780 f   LIBCMTD:utility_desktop.obj
 0002:00145790       ___scrt_initialize_winrt   40243790 f   LIBCMTD:utility_desktop.obj
 0002:001457a0       ___scrt_is_managed_app     402437a0 f   LIBCMTD:utility_desktop.obj
 0002:00145850       ___scrt_set_unhandled_exception_filter 40243850 f   LIBCMTD:utility_desktop.obj
 0002:00145870       ___scrt_exe_initialize_mta 40243870 f   LIBCMTD:utility_desktop.obj
 0002:00145870       ___scrt_stub_for_initialize_mta 40243870 f   LIBCMTD:utility_desktop.obj
 0002:00145880       ___scrt_unhandled_exception_filter@4 40243880 f   LIBCMTD:utility_desktop.obj
 0002:00145920       __crt_debugger_hook        40243920 f   LIBCMTD:utility_desktop.obj
 0002:001459d0       ___security_init_cookie    402439d0 f   LIBCMTD:gs_support.obj
 0002:00145a70       _DllMain@12                40243a70 f   LIBCMTD:dll_dllmain_stub.obj
 0002:00145a80       ?__scrt_initialize_type_info@@YAXXZ 40243a80 f   LIBCMTD:tncleanup.obj
 0002:00145aa0       ?__scrt_uninitialize_type_info@@YAXXZ 40243aa0 f   LIBCMTD:tncleanup.obj
 0002:00145ac0       ___local_stdio_scanf_options 40243ac0 f i LIBCMTD:default_local_stdio_options.obj
 0002:00145ad0       ___scrt_initialize_default_local_stdio_options 40243ad0 f   LIBCMTD:default_local_stdio_options.obj
 0002:00145b20       ___scrt_get_dyn_tls_init_callback 40243b20 f   LIBCMTD:dyn_tls_init.obj
 0002:00145b30       __RTC_Initialize           40243b30 f   LIBCMTD:initsect.obj
 0002:00145b70       __RTC_Terminate            40243b70 f   LIBCMTD:initsect.obj
 0002:00146100       ?_RTC_GetSrcLine@@YAHPAEPA_WKPAH1K@Z 40244100 f   LIBCMTD:pdblkup.obj
 0002:00146570       __except_handler4_noexcept 40244570 f   LIBCMTD:chandler4_noexcept.obj
 0002:001465f0       _memcpy                    402445f0 f   libvcruntimed:memcpy.obj
 0002:00146cd0       _memset                    40244cd0 f   libvcruntimed:memset.obj
 0002:00146e80       _strchr                    40244e80 f   libvcruntimed:strchr.obj
 0002:00146eee       ___from_strstr_to_strchr   40244eee     libvcruntimed:strchr.obj
 0002:00147000       _strstr                    40245000 f   libvcruntimed:strstr.obj
 0002:00147310       ??$?RD@__crt_public_free_policy@@QBEXQBD@Z 40245310 f i libvcruntimed:std_exception.obj
 0002:00147330       ??0?$__crt_unique_heap_ptr@DU__crt_public_free_policy@@@@QAE@QAD@Z 40245330 f i libvcruntimed:std_exception.obj
 0002:00147350       ??1?$__crt_unique_heap_ptr@DU__crt_public_free_policy@@@@QAE@XZ 40245350 f i libvcruntimed:std_exception.obj
 0002:00147370       ??B?$__crt_unique_heap_ptr@DU__crt_public_free_policy@@@@QBE_NXZ 40245370 f i libvcruntimed:std_exception.obj
 0002:00147390       ?detach@?$__crt_unique_heap_ptr@DU__crt_public_free_policy@@@@QAEPADXZ 40245390 f i libvcruntimed:std_exception.obj
 0002:001473c0       ?get@?$__crt_unique_heap_ptr@DU__crt_public_free_policy@@@@QBEPADXZ 402453c0 f i libvcruntimed:std_exception.obj
 0002:001473e0       ?is_valid@?$__crt_unique_heap_ptr@DU__crt_public_free_policy@@@@QBE_NXZ 402453e0 f i libvcruntimed:std_exception.obj
 0002:00147420       ?release@?$__crt_unique_heap_ptr@DU__crt_public_free_policy@@@@QAEXXZ 40245420 f i libvcruntimed:std_exception.obj
 0002:00147450       ___std_exception_copy      40245450 f   libvcruntimed:std_exception.obj
 0002:00147580       ___std_exception_destroy   40245580 f   libvcruntimed:std_exception.obj
 0002:001475c0       __CxxThrowException@8      402455c0 f   libvcruntimed:throw.obj
 0002:001476a0       ??$?0AAViterator@TryBlockMap@__FrameHandler3@@AAV012@$0A@@?$pair@Viterator@TryBlockMap@__FrameHandler3@@V123@@std@@QAE@AAViterator@TryBlockMap@__FrameHandler3@@0@Z 402456a0 f i libvcruntimed:trnsctrl.obj
 0002:001476e0       ??0iterator@TryBlockMap@__FrameHandler3@@QAE@AAV12@I@Z 402456e0 f i libvcruntimed:trnsctrl.obj
 0002:00147710       ?GetRangeOfTrysToCheck@__FrameHandler3@@SA?AU?$pair@Viterator@TryBlockMap@__FrameHandler3@@V123@@std@@AAVTryBlockMap@1@HPAXPBU_s_FuncInfo@@H@Z 40245710 f   libvcruntimed:trnsctrl.obj
 0002:00147830       ?_CallCatchBlock2@@YAPAXPAUEHRegistrationNode@@PBU_s_FuncInfo@@PAXHK@Z 40245830 f   libvcruntimed:trnsctrl.obj
 0002:001478c0       ?_CallSETranslator@@YAHPAUEHExceptionRecord@@PAUEHRegistrationNode@@PAX2PBU_s_FuncInfo@@H1@Z 402458c0 f   libvcruntimed:trnsctrl.obj
 0002:00147a10       ?_JumpToContinuation@@YGXPAXPAUEHRegistrationNode@@@Z 40245a10 f   libvcruntimed:trnsctrl.obj
 0002:00147a50       ?_UnwindNestedFrames@@YGXPAUEHRegistrationNode@@PAUEHExceptionRecord@@@Z 40245a50 f   libvcruntimed:trnsctrl.obj
 0002:00147ac0       __CatchGuardHandler        40245ac0 f   libvcruntimed:trnsctrl.obj
 0002:00147b20       __CreateFrameInfo          40245b20 f   libvcruntimed:trnsctrl.obj
 0002:00147b60       __FindAndUnlinkFrame       40245b60 f   libvcruntimed:trnsctrl.obj
 0002:00147bf0       __TranslatorGuardHandler   40245bf0 f   libvcruntimed:trnsctrl.obj
 0002:00147cd0       ___CxxFrameHandler         40245cd0 f   libvcruntimed:trnsctrl.obj
 0002:00147d20       ___CxxFrameHandler2        40245d20 f   libvcruntimed:trnsctrl.obj
 0002:00147d70       ___CxxFrameHandler3        40245d70 f   libvcruntimed:trnsctrl.obj
 0002:00147dc0       ___CxxLongjmpUnwind@4      40245dc0 f   libvcruntimed:trnsctrl.obj
 0002:00147e10       _memmove                   40245e10 f   libvcruntimed:memmove.obj
 0002:00148700       _memcmp                    40246700 f   libvcruntimed:memcmp.obj
 0002:00149200       ??$__crt_interlocked_exchange_pointer@$$A6AXXZP6AXXZ@@YAP6AXXZPDS6AXXZQ6AXXZ@Z 40247200 f i libvcruntimed:purevirt.obj
 0002:00149210       ??$__crt_interlocked_read_pointer@$$A6AXXZ@@YAP6AXXZPDS6AXXZ@Z 40247210 f i libvcruntimed:purevirt.obj
 0002:00149230       ?__crt_interlocked_read_32@@YAHPDH@Z 40247230 f i libvcruntimed:purevirt.obj
 0002:00149250       __get_purecall_handler     40247250 f   libvcruntimed:purevirt.obj
 0002:00149270       __purecall                 40247270 f   libvcruntimed:purevirt.obj
 0002:001492b0       __set_purecall_handler     402472b0 f   libvcruntimed:purevirt.obj
 0002:001492d0       ___uncaught_exception      402472d0 f   libvcruntimed:uncaught_exception.obj
 0002:00149330       _memchr                    40247330 f   libvcruntimed:memchr.obj
 0002:00149410       ___vcrt_initialize         40247410 f   libvcruntimed:initialization.obj
 0002:00149450       ___vcrt_thread_attach      40247450 f   libvcruntimed:initialization.obj
 0002:00149470       ___vcrt_thread_detach      40247470 f   libvcruntimed:initialization.obj
 0002:00149480       ___vcrt_uninitialize       40247480 f   libvcruntimed:initialization.obj
 0002:001494a0       ___vcrt_uninitialize_critical 402474a0 f   libvcruntimed:initialization.obj
 0002:00149530       __except_handler4          40247530 f   libvcruntimed:chandler4.obj
 0002:00149790       ___DestructExceptionObject 40247790 f   libvcruntimed:ehhelpers.obj
 0002:00149900       ?_CallMemberFunction0@@YGXQAX0@Z 40247900 f i libvcruntimed:ehhelpers.obj
 0002:001499d0       ?raw_name@type_info@@QBEPBDXZ 402479d0 f i libvcruntimed:ehhelpers.obj
 0002:001499f0       __IsExceptionObjectToBeDestroyed 402479f0 f   libvcruntimed:ehhelpers.obj
 0002:00149a40       __SetWinRTOutOfMemoryExceptionCallback 40247a40 f   libvcruntimed:ehhelpers.obj
 0002:00149a50       ___AdjustPointer           40247a50 f   libvcruntimed:ehhelpers.obj
 0002:00149ab0       ___FrameUnwindFilter       40247ab0 f   libvcruntimed:ehhelpers.obj
 0002:00149b60       ___GetPlatformExceptionInfo 40247b60 f   libvcruntimed:ehhelpers.obj
 0002:00149c00       ___current_exception       40247c00 f   libvcruntimed:ehhelpers.obj
 0002:00149c10       ___current_exception_context 40247c10 f   libvcruntimed:ehhelpers.obj
 0002:00149c20       ___processing_throw        40247c20 f   libvcruntimed:ehhelpers.obj
 0002:00149c30       ___std_terminate           40247c30 f   libvcruntimed:ehhelpers.obj
 0002:00149c40       __is_exception_typeof      40247c40 f   libvcruntimed:ehhelpers.obj
 0002:00149da0       ??$?RD@__crt_internal_free_policy@@QBEXQBD@Z 40247da0 f i libvcruntimed:std_type_info.obj
 0002:00149dd0       ??$?RX@__crt_internal_free_policy@@QBEXQBX@Z 40247dd0 f i libvcruntimed:std_type_info.obj
 0002:00149e00       ??$__crt_interlocked_compare_exchange_pointer@$$CBDPAD$$T@@YAPBDPDSBDQAD$$T@Z 40247e00 f i libvcruntimed:std_type_info.obj
 0002:00149e20       ??$__crt_interlocked_read_pointer@$$CBD@@YAPBDPDSBD@Z 40247e20 f i libvcruntimed:std_type_info.obj
 0002:00149e40       ??0?$__crt_unique_heap_ptr@DU__crt_internal_free_policy@@@@QAE@QAD@Z 40247e40 f i libvcruntimed:std_type_info.obj
 0002:00149e60       ??0?$__crt_unique_heap_ptr@XU__crt_internal_free_policy@@@@QAE@QAX@Z 40247e60 f i libvcruntimed:std_type_info.obj
 0002:00149e80       ??1?$__crt_unique_heap_ptr@DU__crt_internal_free_policy@@@@QAE@XZ 40247e80 f i libvcruntimed:std_type_info.obj
 0002:00149ea0       ??1?$__crt_unique_heap_ptr@XU__crt_internal_free_policy@@@@QAE@XZ 40247ea0 f i libvcruntimed:std_type_info.obj
 0002:00149ec0       ??B?$__crt_unique_heap_ptr@DU__crt_internal_free_policy@@@@QBE_NXZ 40247ec0 f i libvcruntimed:std_type_info.obj
 0002:00149ee0       ??B?$__crt_unique_heap_ptr@XU__crt_internal_free_policy@@@@QBE_NXZ 40247ee0 f i libvcruntimed:std_type_info.obj
 0002:00149f60       ?detach@?$__crt_unique_heap_ptr@XU__crt_internal_free_policy@@@@QAEPAXXZ 40247f60 f i libvcruntimed:std_type_info.obj
 0002:00149f90       ?get@?$__crt_unique_heap_ptr@DU__crt_internal_free_policy@@@@QBEPADXZ 40247f90 f i libvcruntimed:std_type_info.obj
 0002:00149fb0       ?get@?$__crt_unique_heap_ptr@XU__crt_internal_free_policy@@@@QBEPAXXZ 40247fb0 f i libvcruntimed:std_type_info.obj
 0002:00149fd0       ?is_valid@?$__crt_unique_heap_ptr@DU__crt_internal_free_policy@@@@QBE_NXZ 40247fd0 f i libvcruntimed:std_type_info.obj
 0002:0014a010       ?is_valid@?$__crt_unique_heap_ptr@XU__crt_internal_free_policy@@@@QBE_NXZ 40248010 f i libvcruntimed:std_type_info.obj
 0002:0014a050       ?release@?$__crt_unique_heap_ptr@DU__crt_internal_free_policy@@@@QAEXXZ 40248050 f i libvcruntimed:std_type_info.obj
 0002:0014a080       ?release@?$__crt_unique_heap_ptr@XU__crt_internal_free_policy@@@@QAEXXZ 40248080 f i libvcruntimed:std_type_info.obj
 0002:0014a0b0       ___std_type_info_compare   402480b0 f   libvcruntimed:std_type_info.obj
 0002:0014a0e0       ___std_type_info_destroy_list 402480e0 f   libvcruntimed:std_type_info.obj
 0002:0014a130       ___std_type_info_hash      40248130 f   libvcruntimed:std_type_info.obj
 0002:0014a1a0       ___std_type_info_name      402481a0 f   libvcruntimed:std_type_info.obj
 0002:0014a3e0       ___vcrt_GetModuleFileNameW 402483e0 f   libvcruntimed:winapi_thunks.obj
 0002:0014a400       ___vcrt_GetModuleHandleW   40248400 f   libvcruntimed:winapi_thunks.obj
 0002:0014a420       ___vcrt_LoadLibraryExW     40248420 f   libvcruntimed:winapi_thunks.obj
 0002:0014a440       ??$?RU__vcrt_ptd@@@__crt_internal_free_policy@@QBEXQBU__vcrt_ptd@@@Z 40248440 f i libvcruntimed:per_thread_data.obj
 0002:0014a470       ??0?$__crt_unique_heap_ptr@U__vcrt_ptd@@U__crt_internal_free_policy@@@@QAE@QAU__vcrt_ptd@@@Z 40248470 f i libvcruntimed:per_thread_data.obj
 0002:0014a4b0       ??1?$__crt_unique_heap_ptr@U__vcrt_ptd@@U__crt_internal_free_policy@@@@QAE@XZ 402484b0 f i libvcruntimed:per_thread_data.obj
 0002:0014a4f0       ??B?$__crt_unique_heap_ptr@U__vcrt_ptd@@U__crt_internal_free_policy@@@@QBE_NXZ 402484f0 f i libvcruntimed:per_thread_data.obj
 0002:0014a510       ?detach@?$__crt_unique_heap_ptr@U__vcrt_ptd@@U__crt_internal_free_policy@@@@QAEPAU__vcrt_ptd@@XZ 40248510 f i libvcruntimed:per_thread_data.obj
 0002:0014a540       ?get@?$__crt_unique_heap_ptr@U__vcrt_ptd@@U__crt_internal_free_policy@@@@QBEPAU__vcrt_ptd@@XZ 40248540 f i libvcruntimed:per_thread_data.obj
 0002:0014a560       ?is_valid@?$__crt_unique_heap_ptr@U__vcrt_ptd@@U__crt_internal_free_policy@@@@QBE_NXZ 40248560 f i libvcruntimed:per_thread_data.obj
 0002:0014a5a0       ?release@?$__crt_unique_heap_ptr@U__vcrt_ptd@@U__crt_internal_free_policy@@@@QAEXXZ 402485a0 f i libvcruntimed:per_thread_data.obj
 0002:0014a600       ___vcrt_freefls@4          40248600 f   libvcruntimed:per_thread_data.obj
 0002:0014a630       ___vcrt_freeptd_for_this_thread 40248630 f   libvcruntimed:per_thread_data.obj
 0002:0014a680       ___vcrt_getptd             40248680 f   libvcruntimed:per_thread_data.obj
 0002:0014a6b0       ___vcrt_getptd_noexit      402486b0 f   libvcruntimed:per_thread_data.obj
 0002:0014a860       ___vcrt_getptd_noinit      40248860 f   libvcruntimed:per_thread_data.obj
 0002:0014a8d0       ___vcrt_initialize_ptd     402488d0 f   libvcruntimed:per_thread_data.obj
 0002:0014a930       ___vcrt_uninitialize_ptd   40248930 f   libvcruntimed:per_thread_data.obj
 0002:0014b7a0       ??$TypeMatchHelper@V__FrameHandler3@@@@YAHPBU_s_HandlerType@@PBU_s_CatchableType@@PBU_s_ThrowInfo@@@Z 402497a0 f i libvcruntimed:frame.obj
 0002:0014b8b0       ??$__InternalCxxFrameHandler@V__FrameHandler3@@@@YA?AW4_EXCEPTION_DISPOSITION@@PAUEHExceptionRecord@@PAUEHRegistrationNode@@PAU_CONTEXT@@PAXPBU_s_FuncInfo@@H1E@Z 402498b0 f i libvcruntimed:frame.obj
 0002:0014bae0       ??$__InternalCxxFrameHandlerWrapper@V__FrameHandler3@@@@YA?AW4_EXCEPTION_DISPOSITION@@PAUEHExceptionRecord@@PAUEHRegistrationNode@@PAU_CONTEXT@@PAXPBU_s_FuncInfo@@H1E@Z 40249ae0 f i libvcruntimed:frame.obj
 0002:0014bb20       ??0HandlerMap@__FrameHandler3@@QAE@PBU_s_TryBlockMapEntry@@II@Z 40249b20 f i libvcruntimed:frame.obj
 0002:0014bb50       ??0TryBlockMap@__FrameHandler3@@QAE@PBU_s_FuncInfo@@I@Z 40249b50 f i libvcruntimed:frame.obj
 0002:0014bb80       ??0bad_exception@std@@QAE@ABV01@@Z 40249b80 f i libvcruntimed:frame.obj
 0002:0014bbb0       ??0bad_exception@std@@QAE@XZ 40249bb0 f i libvcruntimed:frame.obj
 0002:0014bbe0       ??0iterator@HandlerMap@__FrameHandler3@@QAE@AAV12@I@Z 40249be0 f i libvcruntimed:frame.obj
 0002:0014bc10       ??1bad_exception@std@@UAE@XZ 40249c10 f i libvcruntimed:frame.obj
 0002:0014bc30       ??8iterator@HandlerMap@__FrameHandler3@@QBE_NABV012@@Z 40249c30 f i libvcruntimed:frame.obj
 0002:0014bc70       ??8type_info@@QBE_NABV0@@Z 40249c70 f i libvcruntimed:frame.obj
 0002:0014bcf0       ??9iterator@HandlerMap@__FrameHandler3@@QBE_NABV012@@Z 40249cf0 f i libvcruntimed:frame.obj
 0002:0014bd40       ??Diterator@HandlerMap@__FrameHandler3@@QAE?BU_s_HandlerType@@XZ 40249d40 f i libvcruntimed:frame.obj
 0002:0014bd90       ??Diterator@TryBlockMap@__FrameHandler3@@QAE?BU_s_TryBlockMapEntry@@XZ 40249d90 f i libvcruntimed:frame.obj
 0002:0014bdf0       ??Eiterator@HandlerMap@__FrameHandler3@@QAEAAV012@XZ 40249df0 f i libvcruntimed:frame.obj
 0002:0014be20       ??Eiterator@TryBlockMap@__FrameHandler3@@QAEAAV012@XZ 40249e20 f i libvcruntimed:frame.obj
 0002:0014be50       ??Miterator@TryBlockMap@__FrameHandler3@@QBE_NABV012@@Z 40249e50 f i libvcruntimed:frame.obj
 0002:0014be90       ??_Ebad_exception@std@@UAEPAXI@Z 40249e90 f i libvcruntimed:frame.obj
 0002:0014be90       ??_Gbad_exception@std@@UAEPAXI@Z 40249e90 f i libvcruntimed:frame.obj
 0002:0014bed0       ?BuildCatchObject@__FrameHandler3@@SAXPAUEHExceptionRecord@@PAXPBU_s_HandlerType@@PBU_s_CatchableType@@@Z 40249ed0 f   libvcruntimed:frame.obj
 0002:0014bf00       ?BuildCatchObjectHelper@__FrameHandler3@@SAHPAUEHExceptionRecord@@PAXPBU_s_HandlerType@@PBU_s_CatchableType@@@Z 40249f00 f   libvcruntimed:frame.obj
 0002:0014c390       ?FrameUnwindToEmptyState@__FrameHandler3@@SAXPAUEHRegistrationNode@@PAXPBU_s_FuncInfo@@@Z 4024a390 f   libvcruntimed:frame.obj
 0002:0014c3c0       ?FrameUnwindToState@__FrameHandler3@@SAXPAUEHRegistrationNode@@PAXPBU_s_FuncInfo@@H@Z 4024a3c0 f   libvcruntimed:frame.obj
 0002:0014c5a0       ?GetMaxState@__FrameHandler3@@SAHPAXPBU_s_FuncInfo@@@Z 4024a5a0 f i libvcruntimed:frame.obj
 0002:0014c700       ?TypeMatch@__FrameHandler3@@SAHPBU_s_HandlerType@@PBU_s_CatchableType@@PBU_s_ThrowInfo@@@Z 4024a700 f   libvcruntimed:frame.obj
 0002:0014c720       ?_CallMemberFunction1@@YGXQAX00@Z 4024a720 f i libvcruntimed:frame.obj
 0002:0014c750       ?_CallMemberFunction2@@YGXQAX00H@Z 4024a750 f i libvcruntimed:frame.obj
 0002:0014c780       ?begin@HandlerMap@__FrameHandler3@@QAE?AViterator@12@XZ 4024a780 f i libvcruntimed:frame.obj
 0002:0014c7b0       ?end@HandlerMap@__FrameHandler3@@QAE?AViterator@12@XZ 4024a7b0 f i libvcruntimed:frame.obj
 0002:0014c7e0       ?getESTypes@__FrameHandler3@@SAPBU_s_ESTypeList@@PBU_s_FuncInfo@@@Z 4024a7e0 f i libvcruntimed:frame.obj
 0002:0014c7f0       ?getLastEntry@HandlerMap@__FrameHandler3@@QAEPBU_s_HandlerType@@XZ 4024a7f0 f i libvcruntimed:frame.obj
 0002:0014c820       ?getMagicNum@__FrameHandler3@@SAIPBU_s_FuncInfo@@@Z 4024a820 f i libvcruntimed:frame.obj
 0002:0014c840       ?getNumTryBlocks@TryBlockMap@__FrameHandler3@@QAEIXZ 4024a840 f i libvcruntimed:frame.obj
 0002:0014c860       ?isEHs@__FrameHandler3@@SA_NPBU_s_FuncInfo@@@Z 4024a860 f i libvcruntimed:frame.obj
 0002:0014c890       ?isNoExcept@__FrameHandler3@@SA_NPBU_s_FuncInfo@@@Z 4024a890 f i libvcruntimed:frame.obj
 0002:0014c8c0       ___BuildCatchObject        4024a8c0 f   libvcruntimed:frame.obj
 0002:0014c8f0       ___BuildCatchObjectHelper  4024a8f0 f   libvcruntimed:frame.obj
 0002:0014c920       ___TypeMatch               4024a920 f   libvcruntimed:frame.obj
 0002:0014c940       __CallSettingFrame@12      4024a940 f   libvcruntimed:lowhelpr.obj
 0002:0014c967       __NLG_Return               4024a967     libvcruntimed:lowhelpr.obj
 0002:0014c9b0       ___except_validate_context_record 4024a9b0 f   libvcruntimed:jbcxrval.obj
 0002:0014ca10       ___except_validate_jump_buffer 4024aa10 f   libvcruntimed:jbcxrval.obj
 0002:0014ca30       ___except_validate_jump_buffer_common 4024aa30 f i libvcruntimed:jbcxrval.obj
 0002:0014caa0       ___vcrt_initialize_locks   4024aaa0 f   libvcruntimed:locks.obj
 0002:0014cb10       ___vcrt_lock               4024ab10 f   libvcruntimed:locks.obj
 0002:0014cb30       ___vcrt_uninitialize_locks 4024ab30 f   libvcruntimed:locks.obj
 0002:0014cb90       ___vcrt_unlock             4024ab90 f   libvcruntimed:locks.obj
 0002:0014cbb0       __local_unwind4            4024abb0 f   libvcruntimed:exsup4.obj
 0002:0014cce0       __seh_longjmp_unwind4@4    4024ace0 f   libvcruntimed:exsup4.obj
 0002:0014cd20       @_EH4_CallFilterFunc@8     4024ad20 f   libvcruntimed:exsup4.obj
 0002:0014cd40       @_EH4_TransferToHandler@8  4024ad40 f   libvcruntimed:exsup4.obj
 0002:0014cd60       @_EH4_GlobalUnwind2@8      4024ad60 f   libvcruntimed:exsup4.obj
 0002:0014cd80       @_EH4_LocalUnwind@16       4024ad80 f   libvcruntimed:exsup4.obj
 0002:0014cda0       ??$?0$00@DName@@QAE@PAVUnDecorator@@PBDU?$StringLifeSelector@$00@@@Z 4024ada0 f i libvcruntimed:undname.obj
 0002:0014ce10       ??$?0$00@pcharNode@@QAE@PBDHU?$StringLifeSelector@$00@@AAV_HeapManager@@@Z 4024ae10 f i libvcruntimed:undname.obj
 0002:0014ce50       ??$?0$01@DName@@QAE@PAVUnDecorator@@PBDU?$StringLifeSelector@$01@@@Z 4024ae50 f i libvcruntimed:undname.obj
 0002:0014cec0       ??$?0$01@pcharNode@@QAE@PBDHU?$StringLifeSelector@$01@@AAV_HeapManager@@@Z 4024aec0 f i libvcruntimed:undname.obj
 0002:0014cf60       ??$?0$0A@@DName@@QAE@PAVUnDecorator@@PBDU?$StringLifeSelector@$0A@@@@Z 4024af60 f i libvcruntimed:undname.obj
 0002:0014cfd0       ??$?0$0A@@pcharNode@@QAE@PBDHU?$StringLifeSelector@$0A@@@AAV_HeapManager@@@Z 4024afd0 f i libvcruntimed:undname.obj
 0002:0014d070       ??$?0_K$0A@@?$optional@_K@std@@QAE@$$QA_K@Z 4024b070 f i libvcruntimed:undname.obj
 0002:0014d0a0       ??$?0_K@?$_Optional_construct_base@_K@std@@QAE@Uin_place_t@1@$$QA_K@Z 4024b0a0 f i libvcruntimed:undname.obj
 0002:0014d0d0       ??$?0_K@?$_Optional_destruct_base@_K$00@std@@QAE@Uin_place_t@1@$$QA_K@Z 4024b0d0 f i libvcruntimed:undname.obj
 0002:0014d100       ??$append@VDNameNode@@@DName@@AAEXPBVDNameNode@@@Z 4024b100 f i libvcruntimed:undname.obj
 0002:0014d1c0       ??$append@VDNameStatusNode@@@DName@@AAEXPBVDNameStatusNode@@@Z 4024b1c0 f i libvcruntimed:undname.obj
 0002:0014d280       ??$append@VcharNode@@@DName@@AAEXPBVcharNode@@@Z 4024b280 f i libvcruntimed:undname.obj
 0002:0014d340       ??$append@VpDNameNode@@@DName@@AAEXPBVpDNameNode@@@Z 4024b340 f i libvcruntimed:undname.obj
 0002:0014d400       ??$append@VpcharNode@@@DName@@AAEXPBVpcharNode@@@Z 4024b400 f i libvcruntimed:undname.obj
 0002:0014d4c0       ??$doPchar@$00@DName@@AAEXPBDH@Z 4024b4c0 f i libvcruntimed:undname.obj
 0002:0014d640       ??$doPchar@$01@DName@@AAEXPBDH@Z 4024b640 f i libvcruntimed:undname.obj
 0002:0014d7c0       ??$doPchar@$0A@@DName@@AAEXPBDH@Z 4024b7c0 f i libvcruntimed:undname.obj
 0002:0014dae0       ??0?$_Optional_construct_base@_K@std@@QAE@XZ 4024bae0 f i libvcruntimed:undname.obj
 0002:0014db00       ??0?$_Optional_destruct_base@_K$00@std@@QAE@XZ 4024bb00 f i libvcruntimed:undname.obj
 0002:0014db30       ??0?$optional@_K@std@@QAE@XZ 4024bb30 f i libvcruntimed:undname.obj
 0002:0014db50       ??0Block@_HeapManager@@QAE@XZ 4024bb50 f i libvcruntimed:undname.obj
 0002:0014db70       ??0DName@@QAE@ABV0@@Z      4024bb70 f i libvcruntimed:undname.obj
 0002:0014dbb0       ??0DName@@QAE@PAVUnDecorator@@@Z 4024bbb0 f i libvcruntimed:undname.obj
 0002:0014dbf0       ??0DName@@QAE@PAVUnDecorator@@AAPBDD@Z 4024bbf0 f   libvcruntimed:undname.obj
 0002:0014ddd0       ??0DName@@QAE@PAVUnDecorator@@ABUStringLiteral@@@Z 4024bdd0 f   libvcruntimed:undname.obj
 0002:0014de30       ??0DName@@QAE@PAVUnDecorator@@D@Z 4024be30 f   libvcruntimed:undname.obj
 0002:0014de80       ??0DName@@QAE@PAVUnDecorator@@PAV0@@Z 4024be80 f   libvcruntimed:undname.obj
 0002:0014df70       ??0DName@@QAE@PAVUnDecorator@@W4DNameStatus@@@Z 4024bf70 f   libvcruntimed:undname.obj
 0002:0014e030       ??0DName@@QAE@PAVUnDecorator@@_J@Z 4024c030 f   libvcruntimed:undname.obj
 0002:0014e160       ??0DName@@QAE@PAVUnDecorator@@_K@Z 4024c160 f   libvcruntimed:undname.obj
 0002:0014e240       ??0DNameNode@@IAE@XZ       4024c240 f i libvcruntimed:undname.obj
 0002:0014e260       ??0Replicator@@QAE@PAVUnDecorator@@@Z 4024c260 f i libvcruntimed:undname.obj
 0002:0014e300       ??0UnDecorator@@QAE@PBDP6APADJ@ZKP6APAXI@ZP6AXPAX@Z@Z 4024c300 f i libvcruntimed:undname.obj
 0002:0014e480       ??0_HeapManager@@QAE@P6APAXI@ZP6AXPAX@Z@Z 4024c480 f i libvcruntimed:undname.obj
 0002:0014e4d0       ??0_Nontrivial_dummy_type@std@@QAE@XZ 4024c4d0 f i libvcruntimed:undname.obj
 0002:0014e4f0       ??0charNode@@QAE@D@Z       4024c4f0 f i libvcruntimed:undname.obj
 0002:0014e530       ??0pDNameNode@@QAE@PAVDName@@@Z 4024c530 f   libvcruntimed:undname.obj
 0002:0014e5b0       ??0pairNode@@QAE@PBVDNameNode@@0@Z 4024c5b0 f i libvcruntimed:undname.obj
 0002:0014e630       ??2@YAPAXIAAV_HeapManager@@H@Z 4024c630 f   libvcruntimed:undname.obj
 0002:0014e680       ??4DName@@QAEAAV0@ABUStringLiteral@@@Z 4024c680 f   libvcruntimed:undname.obj
 0002:0014e6d0       ??4DName@@QAEAAV0@ABV0@@Z  4024c6d0 f   libvcruntimed:undname.obj
 0002:0014e700       ??4DName@@QAEAAV0@D@Z      4024c700 f i libvcruntimed:undname.obj
 0002:0014e740       ??4DName@@QAEAAV0@PAV0@@Z  4024c740 f   libvcruntimed:undname.obj
 0002:0014e810       ??4DName@@QAEAAV0@W4DNameStatus@@@Z 4024c810 f   libvcruntimed:undname.obj
 0002:0014e8b0       ??AReplicator@@QBE?AVDName@@H@Z 4024c8b0 f   libvcruntimed:undname.obj
 0002:0014e940       ??B?$optional@_K@std@@QBE_NXZ 4024c940 f i libvcruntimed:undname.obj
 0002:0014e960       ??D?$_Optional_construct_base@_K@std@@QGAEAA_KXZ 4024c960 f i libvcruntimed:undname.obj
 0002:0014e9c0       ??H@YA?AVDName@@ABUStringLiteral@@ABV0@@Z 4024c9c0 f i libvcruntimed:undname.obj
 0002:0014ea10       ??H@YA?AVDName@@DABV0@@Z   4024ca10 f i libvcruntimed:undname.obj
 0002:0014ea60       ??H@YA?AVDName@@W4DNameStatus@@ABV0@@Z 4024ca60 f i libvcruntimed:undname.obj
 0002:0014eab0       ??HDName@@QBE?AV0@ABUStringLiteral@@@Z 4024cab0 f   libvcruntimed:undname.obj
 0002:0014eaf0       ??HDName@@QBE?AV0@ABV0@@Z  4024caf0 f   libvcruntimed:undname.obj
 0002:0014eb30       ??HDName@@QBE?AV0@D@Z      4024cb30 f   libvcruntimed:undname.obj
 0002:0014eb70       ??HDName@@QBE?AV0@PAV0@@Z  4024cb70 f   libvcruntimed:undname.obj
 0002:0014ebb0       ??HDName@@QBE?AV0@W4DNameStatus@@@Z 4024cbb0 f   libvcruntimed:undname.obj
 0002:0014ebf0       ??HStringLiteral@@QBE?AU0@H@Z 4024cbf0 f i libvcruntimed:undname.obj
 0002:0014ed00       ??YDName@@QAEAAV0@ABUStringLiteral@@@Z 4024cd00 f   libvcruntimed:undname.obj
 0002:0014ee00       ??YDName@@QAEAAV0@ABV0@@Z  4024ce00 f   libvcruntimed:undname.obj
 0002:0014eec0       ??YDName@@QAEAAV0@D@Z      4024cec0 f   libvcruntimed:undname.obj
 0002:0014ef70       ??YDName@@QAEAAV0@PAV0@@Z  4024cf70 f   libvcruntimed:undname.obj
 0002:0014f060       ??YDName@@QAEAAV0@W4DNameStatus@@@Z 4024d060 f   libvcruntimed:undname.obj
 0002:0014f0e0       ??YReplicator@@QAEAAV0@ABVDName@@@Z 4024d0e0 f   libvcruntimed:undname.obj
 0002:0014f1a0       ??_5DName@@QAEAAV0@ABV0@@Z 4024d1a0 f   libvcruntimed:undname.obj
 0002:0014f220       ??__K_l@@YA?AUStringLiteral@@PBDI@Z 4024d220 f i libvcruntimed:undname.obj
 0002:0014f250       ?Destructor@UnDecorator@@QAEXXZ 4024d250 f i libvcruntimed:undname.obj
 0002:0014f270       ?Destructor@_HeapManager@@QAEXXZ 4024d270 f i libvcruntimed:undname.obj
 0002:0014f310       ?UScore@UnDecorator@@QAE?AUStringLiteral@@W4Tokens@@@Z 4024d310 f   libvcruntimed:undname.obj
 0002:0014f380       ?composeDeclaration@UnDecorator@@AAE?AVDName@@ABV2@@Z 4024d380 f i libvcruntimed:undname.obj
 0002:00151bf0       ?doAccessSpecifiers@UnDecorator@@QAEHXZ 4024fbf0 f i libvcruntimed:undname.obj
 0002:00151c30       ?doAllocationLanguage@UnDecorator@@QAEHXZ 4024fc30 f i libvcruntimed:undname.obj
 0002:00151c70       ?doAllocationModel@UnDecorator@@QAEHXZ 4024fc70 f i libvcruntimed:undname.obj
 0002:00151cb0       ?doEcsu@UnDecorator@@QAEHXZ 4024fcb0 f i libvcruntimed:undname.obj
 0002:00151cf0       ?doEllipsis@UnDecorator@@QAEHXZ 4024fcf0 f i libvcruntimed:undname.obj
 0002:00151d30       ?doFunctionReturns@UnDecorator@@QAEHXZ 4024fd30 f i libvcruntimed:undname.obj
 0002:00151d70       ?doMSKeywords@UnDecorator@@QAEHXZ 4024fd70 f i libvcruntimed:undname.obj
 0002:00151db0       ?doMemberTypes@UnDecorator@@QAEHXZ 4024fdb0 f i libvcruntimed:undname.obj
 0002:00151df0       ?doNameOnly@UnDecorator@@QAEHXZ 4024fdf0 f i libvcruntimed:undname.obj
 0002:00151e10       ?doNoIdentCharCheck@UnDecorator@@QAEHXZ 4024fe10 f i libvcruntimed:undname.obj
 0002:00151e30       ?doPchar@DName@@AAEXD@Z    4024fe30 f   libvcruntimed:undname.obj
 0002:00151ed0       ?doPtr64@UnDecorator@@QAEHXZ 4024fed0 f i libvcruntimed:undname.obj
 0002:00151f10       ?doRestrictionSpec@UnDecorator@@QAEHXZ 4024ff10 f i libvcruntimed:undname.obj
 0002:00151f50       ?doThisTypes@UnDecorator@@QAEHXZ 4024ff50 f i libvcruntimed:undname.obj
 0002:00151f90       ?doThrowTypes@UnDecorator@@QAEHXZ 4024ff90 f i libvcruntimed:undname.obj
 0002:00151fd0       ?doTypeOnly@UnDecorator@@QAEHXZ 4024ffd0 f i libvcruntimed:undname.obj
 0002:00151ff0       ?doUnderScore@UnDecorator@@QAEHXZ 4024fff0 f i libvcruntimed:undname.obj
 0002:00152030       ?getAddressOf@UnDecorator@@AAE?AVDName@@XZ 40250030 f   libvcruntimed:undname.obj
 0002:001520f0       ?getArgumentList@UnDecorator@@AAE?AVDName@@XZ 402500f0 f   libvcruntimed:undname.obj
 0002:001522b0       ?getArgumentTypes@UnDecorator@@AAE?AVDName@@XZ 402502b0 f   libvcruntimed:undname.obj
 0002:00152500       ?getArrayAccess@UnDecorator@@AAE?AVDName@@XZ 40250500 f   libvcruntimed:undname.obj
 0002:001525d0       ?getArrayObject@UnDecorator@@AAE?AVDName@@XZ 402505d0 f   libvcruntimed:undname.obj
 0002:00152740       ?getArrayType@UnDecorator@@AAE?AVDName@@ABV2@@Z 40250740 f i libvcruntimed:undname.obj
 0002:00152ac0       ?getBasedType@UnDecorator@@AAE?AVDName@@XZ 40250ac0 f   libvcruntimed:undname.obj
 0002:00152c30       ?getBasicDataType@UnDecorator@@AAE?AVDName@@ABV2@@Z 40250c30 f   libvcruntimed:undname.obj
 0002:00153970       ?getCHPEName@UnDecorator@@QAEPADPADH@Z 40251970 f i libvcruntimed:undname.obj
 0002:00153b60       ?getCallIndex@UnDecorator@@AAE?AVDName@@XZ 40251b60 f i libvcruntimed:undname.obj
 0002:00153b90       ?getCallingConvention@UnDecorator@@AAE?AVDName@@XZ 40251b90 f   libvcruntimed:undname.obj
 0002:00153e50       ?getDataIndirectType@UnDecorator@@AAE?AVDName@@ABV2@W4IndirectionKind@@0H@Z 40251e50 f   libvcruntimed:undname.obj
 0002:00154a50       ?getDataIndirectType@UnDecorator@@AAE?AVDName@@XZ 40252a50 f i libvcruntimed:undname.obj
 0002:00154ab0       ?getDataType@UnDecorator@@AAE?AVDName@@PAV2@@Z 40252ab0 f   libvcruntimed:undname.obj
 0002:00154c30       ?getDecoratedName@UnDecorator@@AAE?AVDName@@XZ 40252c30 f   libvcruntimed:undname.obj
 0002:001551f0       ?getDimension@UnDecorator@@AAE?AVDName@@_N@Z 402531f0 f   libvcruntimed:undname.obj
 0002:001554f0       ?getDispatchTarget@UnDecorator@@AAE?AVDName@@XZ 402534f0 f   libvcruntimed:undname.obj
 0002:001555c0       ?getDisplacement@UnDecorator@@AAE?AVDName@@XZ 402535c0 f i libvcruntimed:undname.obj
 0002:001555f0       ?getECSUDataType@UnDecorator@@AAE?AVDName@@XZ 402535f0 f   libvcruntimed:undname.obj
 0002:001559d0       ?getECSUName@UnDecorator@@AAE?AVDName@@XZ 402539d0 f i libvcruntimed:undname.obj
 0002:00155a00       ?getEnumEncoding@UnDecorator@@AAE?AVDName@@XZ 40253a00 f   libvcruntimed:undname.obj
 0002:00155ad0       ?getEnumType@UnDecorator@@AAE?AVDName@@XZ 40253ad0 f i libvcruntimed:undname.obj
 0002:00155d10       ?getExtendedDataIndirectType@UnDecorator@@AAE?AVDName@@AAW4IndirectionKind@@AA_NH@Z 40253d10 f   libvcruntimed:undname.obj
 0002:00156080       ?getExternalDataType@UnDecorator@@AAE?AVDName@@ABV2@@Z 40254080 f i libvcruntimed:undname.obj
 0002:00156140       ?getFloatingPoint@UnDecorator@@AAE?AVDName@@H@Z 40254140 f   libvcruntimed:undname.obj
 0002:001562f0       ?getFunctionIndirectType@UnDecorator@@AAE?AVDName@@ABV2@@Z 402542f0 f   libvcruntimed:undname.obj
 0002:00156970       ?getGuardNumber@UnDecorator@@AAE?AVDName@@XZ 40254970 f i libvcruntimed:undname.obj
 0002:001569a0       ?getHeap@UnDecorator@@QAEAAV_HeapManager@@XZ 402549a0 f i libvcruntimed:undname.obj
 0002:001569c0       ?getLastChar@DName@@QBEDXZ 402549c0 f i libvcruntimed:undname.obj
 0002:00156a10       ?getLastChar@DNameStatusNode@@UBEDXZ 40254a10 f i libvcruntimed:undname.obj
 0002:00156a50       ?getLastChar@charNode@@UBEDXZ 40254a50 f i libvcruntimed:undname.obj
 0002:00156a70       ?getLastChar@pDNameNode@@UBEDXZ 40254a70 f i libvcruntimed:undname.obj
 0002:00156ab0       ?getLastChar@pairNode@@UBEDXZ 40254ab0 f i libvcruntimed:undname.obj
 0002:00156b30       ?getLastChar@pcharNode@@UBEDXZ 40254b30 f i libvcruntimed:undname.obj
 0002:00156b70       ?getLexicalFrame@UnDecorator@@AAE?AVDName@@XZ 40254b70 f i libvcruntimed:undname.obj
 0002:00156bd0       ?getMemberAccess@UnDecorator@@AAE?AVDName@@XZ 40254bd0 f   libvcruntimed:undname.obj
 0002:00156ca0       ?getMemoryWithBuffer@_HeapManager@@QAEPAXI@Z 40254ca0 f   libvcruntimed:undname.obj
 0002:00156dc0       ?getMemoryWithoutBuffer@_HeapManager@@QAEPAXI@Z 40254dc0 f   libvcruntimed:undname.obj
 0002:00156e10       ?getModuleOwner@UnDecorator@@AAE?AVDName@@ABV2@@Z 40254e10 f   libvcruntimed:undname.obj
 0002:00156ff0       ?getNoexcept@UnDecorator@@AAE?AVDName@@XZ 40254ff0 f   libvcruntimed:undname.obj
 0002:00157090       ?getNumberOfDimensions@UnDecorator@@AAEHXZ 40255090 f   libvcruntimed:undname.obj
 0002:001571b0       ?getOperatorName@UnDecorator@@AAE?AVDName@@_NPA_N@Z 402551b0 f i libvcruntimed:undname.obj
 0002:00157f90       ?getPointerToMember@UnDecorator@@AAE?AVDName@@XZ 40255f90 f   libvcruntimed:undname.obj
 0002:001580d0       ?getPointerType@UnDecorator@@AAE?AVDName@@ABV2@0@Z 402560d0 f i libvcruntimed:undname.obj
 0002:00158100       ?getPointerTypeArray@UnDecorator@@AAE?AVDName@@ABV2@0@Z 40256100 f i libvcruntimed:undname.obj
 0002:00158130       ?getPrimaryDataType@UnDecorator@@AAE?AVDName@@ABV2@@Z 40256130 f   libvcruntimed:undname.obj
 0002:00158e10       ?getPtrRefDataType@UnDecorator@@AAE?AVDName@@ABV2@H@Z 40256e10 f   libvcruntimed:undname.obj
 0002:00159190       ?getPtrRefType@UnDecorator@@AAE?AVDName@@ABV2@0W4IndirectionKind@@@Z 40257190 f   libvcruntimed:undname.obj
 0002:001593a0       ?getReferenceType@UnDecorator@@AAE?AVDName@@ABV2@0W4IndirectionKind@@@Z 402573a0 f i libvcruntimed:undname.obj
 0002:001593e0       ?getRestrictionSpec@UnDecorator@@AAE?AVDName@@XZ 402573e0 f   libvcruntimed:undname.obj
 0002:00159610       ?getReturnType@UnDecorator@@AAE?AVDName@@PAV2@@Z 40257610 f   libvcruntimed:undname.obj
 0002:00159680       ?getScope@UnDecorator@@AAE?AVDName@@XZ 40257680 f   libvcruntimed:undname.obj
 0002:00159dc0       ?getScopedName@UnDecorator@@AAE?AVDName@@XZ 40257dc0 f   libvcruntimed:undname.obj
 0002:00159fa0       ?getSignedDimension@UnDecorator@@AAE?AVDName@@XZ 40257fa0 f   libvcruntimed:undname.obj
 0002:0015a050       ?getStorageConvention@UnDecorator@@AAE?AVDName@@XZ 40258050 f i libvcruntimed:undname.obj
 0002:0015a080       ?getString@DName@@QBEPADPAD0@Z 40258080 f i libvcruntimed:undname.obj
 0002:0015a0f0       ?getString@DName@@QBEPADPADH@Z 402580f0 f i libvcruntimed:undname.obj
 0002:0015a1a0       ?getString@DNameStatusNode@@UBEPADPAD0@Z 402581a0 f i libvcruntimed:undname.obj
 0002:0015a1e0       ?getString@charNode@@UBEPADPAD0@Z 402581e0 f i libvcruntimed:undname.obj
 0002:0015a220       ?getString@pDNameNode@@UBEPADPAD0@Z 40258220 f i libvcruntimed:undname.obj
 0002:0015a270       ?getString@pairNode@@UBEPADPAD0@Z 40258270 f i libvcruntimed:undname.obj
 0002:0015a320       ?getString@pcharNode@@UBEPADPAD0@Z 40258320 f i libvcruntimed:undname.obj
 0002:0015a360       ?getStringEncoding@UnDecorator@@AAE?AVDName@@W4PrefixKind@@H@Z 40258360 f   libvcruntimed:undname.obj
 0002:0015a4d0       ?getStringHelper@@YAPADPADPBD1H@Z 402584d0 f i libvcruntimed:undname.obj
 0002:0015a520       ?getStringObject@UnDecorator@@AAE?AVDName@@XZ 40258520 f   libvcruntimed:undname.obj
 0002:0015a5f0       ?getSymbolName@UnDecorator@@AAE?AVDName@@XZ 402585f0 f i libvcruntimed:undname.obj
 0002:0015a6a0       ?getTemplateArgumentList@UnDecorator@@AAE?AVDName@@XZ 402586a0 f   libvcruntimed:undname.obj
 0002:0015aa80       ?getTemplateName@UnDecorator@@AAE?AVDName@@_N@Z 40258a80 f   libvcruntimed:undname.obj
 0002:0015ace0       ?getTemplateNonTypeArgument@UnDecorator@@AAE?AVDName@@XZ 40258ce0 f   libvcruntimed:undname.obj
 0002:0015b530       ?getTemplateTypeArgument@UnDecorator@@AAE?AVDName@@XZ 40259530 f   libvcruntimed:undname.obj
 0002:0015b770       ?getThisType@UnDecorator@@AAE?AVDName@@XZ 40259770 f i libvcruntimed:undname.obj
 0002:0015b7d0       ?getThrowTypes@UnDecorator@@AAE?AVDName@@XZ 402597d0 f   libvcruntimed:undname.obj
 0002:0015b820       ?getTypeEncoding@UnDecorator@@AAEHXZ 40259820 f i libvcruntimed:undname.obj
 0002:0015c5d0       ?getUndecoratedName@UnDecorator@@QAEPADPADH@Z 4025a5d0 f i libvcruntimed:undname.obj
 0002:0015c7a0       ?getUnionObject@UnDecorator@@AAE?AVDName@@XZ 4025a7a0 f   libvcruntimed:undname.obj
 0002:0015c8c0       ?getVCallThunkType@UnDecorator@@AAE?AVDName@@XZ 4025a8c0 f i libvcruntimed:undname.obj
 0002:0015c970       ?getValue@UnDecorator@@AAE?AV?$optional@_K@std@@XZ 4025a970 f   libvcruntimed:undname.obj
 0002:0015ca70       ?getValueObject@UnDecorator@@AAE?AVDName@@XZ 4025aa70 f   libvcruntimed:undname.obj
 0002:0015cd30       ?getVbTableType@UnDecorator@@AAE?AVDName@@ABV2@@Z 4025ad30 f i libvcruntimed:undname.obj
 0002:0015cd60       ?getVdispMapType@UnDecorator@@AAE?AVDName@@ABV2@@Z 4025ad60 f i libvcruntimed:undname.obj
 0002:0015ce00       ?getVfTableType@UnDecorator@@AAE?AVDName@@ABV2@@Z 4025ae00 f i libvcruntimed:undname.obj
 0002:0015d090       ?getZName@UnDecorator@@AAE?AVDName@@_N0@Z 4025b090 f   libvcruntimed:undname.obj
 0002:0015d4d0       ?get_current_character_and_increment_buffer@UnDecorator@@AAEDXZ 4025b4d0 f i libvcruntimed:undname.obj
 0002:0015d520       ?haveTemplateParameters@UnDecorator@@QAEHXZ 4025b520 f i libvcruntimed:undname.obj
 0002:0015d540       ?increment_buffer@UnDecorator@@AAE_NI@Z 4025b540 f i libvcruntimed:undname.obj
 0002:0015d5b0       ?increment_buffer_no_check@UnDecorator@@AAEXI@Z 4025b5b0 f i libvcruntimed:undname.obj
 0002:0015d600       ?increment_buffer_no_check@UnDecorator@@AAEXXZ 4025b600 f i libvcruntimed:undname.obj
 0002:0015d630       ?isArray@DName@@QBEHXZ     4025b630 f i libvcruntimed:undname.obj
 0002:0015d650       ?isComArray@DName@@QBEHXZ  4025b650 f i libvcruntimed:undname.obj
 0002:0015d670       ?isEmpty@DName@@QBEHXZ     4025b670 f i libvcruntimed:undname.obj
 0002:0015d6b0       ?isFull@Replicator@@QBEHXZ 4025b6b0 f i libvcruntimed:undname.obj
 0002:0015d6f0       ?isNoTE@DName@@QBEHXZ      4025b6f0 f i libvcruntimed:undname.obj
 0002:0015d710       ?isPinPtr@DName@@QBEHXZ    4025b710 f i libvcruntimed:undname.obj
 0002:0015d730       ?isPtrRef@DName@@QBEHXZ    4025b730 f i libvcruntimed:undname.obj
 0002:0015d750       ?isUDC@DName@@QBEHXZ       4025b750 f i libvcruntimed:undname.obj
 0002:0015d7a0       ?isUDTThunk@DName@@QBEHXZ  4025b7a0 f i libvcruntimed:undname.obj
 0002:0015d7f0       ?isVCallThunk@DName@@QBEHXZ 4025b7f0 f i libvcruntimed:undname.obj
 0002:0015d810       ?isValid@DName@@QBEHXZ     4025b810 f i libvcruntimed:undname.obj
 0002:0015d850       ?length@DName@@QBEHXZ      4025b850 f i libvcruntimed:undname.obj
 0002:0015d8a0       ?length@DNameStatusNode@@UBEHXZ 4025b8a0 f i libvcruntimed:undname.obj
 0002:0015d8c0       ?length@charNode@@UBEHXZ   4025b8c0 f i libvcruntimed:undname.obj
 0002:0015d8e0       ?length@pDNameNode@@UBEHXZ 4025b8e0 f i libvcruntimed:undname.obj
 0002:0015d920       ?length@pairNode@@UBEHXZ   4025b920 f i libvcruntimed:undname.obj
 0002:0015d9b0       ?length@pcharNode@@UBEHXZ  4025b9b0 f i libvcruntimed:undname.obj
 0002:0015d9d0       ?make@DNameStatusNode@@SAPBV1@W4DNameStatus@@@Z 4025b9d0 f i libvcruntimed:undname.obj
 0002:0015da10       ?parseDecoratedName@UnDecorator@@AAE?AVDName@@XZ 4025ba10 f   libvcruntimed:undname.obj
 0002:0015dc40       ?raw_length@DNameStatusNode@@UBEHXZ 4025bc40 f i libvcruntimed:undname.obj
 0002:0015dc60       ?raw_length@charNode@@UBEHXZ 4025bc60 f i libvcruntimed:undname.obj
 0002:0015dc80       ?raw_length@pDNameNode@@UBEHXZ 4025bc80 f i libvcruntimed:undname.obj
 0002:0015dca0       ?raw_length@pairNode@@UBEHXZ 4025bca0 f i libvcruntimed:undname.obj
 0002:0015dcc0       ?raw_length@pcharNode@@UBEHXZ 4025bcc0 f i libvcruntimed:undname.obj
 0002:0015dce0       ?setIsArray@DName@@QAEXXZ  4025bce0 f i libvcruntimed:undname.obj
 0002:0015dd10       ?setIsComArray@DName@@QAEXXZ 4025bd10 f i libvcruntimed:undname.obj
 0002:0015dd40       ?setIsNoTE@DName@@QAEXXZ   4025bd40 f i libvcruntimed:undname.obj
 0002:0015dd70       ?setIsPinPtr@DName@@QAEXXZ 4025bd70 f i libvcruntimed:undname.obj
 0002:0015dda0       ?setIsUDC@DName@@QAEXXZ    4025bda0 f i libvcruntimed:undname.obj
 0002:0015dde0       ?setIsVCallThunk@DName@@QAEXXZ 4025bde0 f i libvcruntimed:undname.obj
 0002:0015de10       ?setPtrRef@DName@@QAEAAV1@XZ 4025be10 f i libvcruntimed:undname.obj
 0002:0015de40       ?status@DName@@QBE?AW4DNameStatus@@XZ 4025be40 f i libvcruntimed:undname.obj
 0002:0015df60       ___unDName                 4025bf60 f   libvcruntimed:undname.obj
 0002:0015dfa0       ___unDNameEx               4025bfa0 f   libvcruntimed:undname.obj
 0002:0015e0a0       _snprintf                  4025c0a0 f i libvcruntimed:undname.obj
 0002:0015e0f0       _unDNameGenerateCHPE       4025c0f0 f   libvcruntimed:undname.obj
 0002:0015e170       _vsnprintf                 4025c170 f i libvcruntimed:undname.obj
 0002:0015e210       __get_unexpected           4025c210 f   libvcruntimed:unexpected.obj
 0002:0015e230       _set_unexpected            4025c230 f   libvcruntimed:unexpected.obj
 0002:0015e270       _unexpected                4025c270 f   libvcruntimed:unexpected.obj
 0002:0015e2c0       ?GetCurrentState@__FrameHandler3@@SAHPAUEHRegistrationNode@@PAXPBU_s_FuncInfo@@@Z 4025c2c0 f   libvcruntimed:ehstate.obj
 0002:0015e300       ?SetState@__FrameHandler3@@SAXPAUEHRegistrationNode@@PAXPBU_s_FuncInfo@@H@Z 4025c300 f   libvcruntimed:ehstate.obj
 0002:0015e320       __global_unwind2           4025c320 f   libvcruntimed:exsup.obj
 0002:0015e3b0       __local_unwind2            4025c3b0 f   libvcruntimed:exsup.obj
 0002:0015e470       __abnormal_termination     4025c470 f   libvcruntimed:exsup.obj
 0002:0015e4b0       __NLG_Notify1              4025c4b0 f   libvcruntimed:exsup.obj
 0002:0015e4c0       __NLG_Notify               4025c4c0 f   libvcruntimed:exsup.obj
 0002:0015e4d7       __NLG_Dispatch             4025c4d7     libvcruntimed:exsup.obj
 0002:0015e4d7       __NLG_Dispatch2            4025c4d7     libvcruntimed:exsup.obj
 0002:0015e4f0       __NLG_Call                 4025c4f0 f   libvcruntimed:exsup.obj
 0002:0015e4f2       __NLG_Return2              4025c4f2     libvcruntimed:exsup.obj
 0002:0015e500       __abs64                    4025c500 f   libucrtd:abs.obj
 0002:0015e560       _abs                       4025c560 f   libucrtd:abs.obj
 0002:0015e590       _sin                       4025c590 f   libucrtd:sin.obj
 0002:0015e5f0       ??1scoped_global_state_reset@__crt_state_management@@QAE@XZ 4025c5f0 f i libucrtd:qsort.obj
 0002:0015e760       _qsort                     4025c760 f   libucrtd:qsort.obj
 0002:0015ef20       ??$is_overflow_condition@K@__crt_strtox@@YA_NIK@Z 4025cf20 f i libucrtd:atox.obj
 0002:0015ef90       ??$is_overflow_condition@_K@__crt_strtox@@YA_NI_K@Z 4025cf90 f i libucrtd:atox.obj
 0002:0015f040       ??$make_c_string_character_source@D$$T@__crt_strtox@@YA?AV?$c_string_character_source@D@0@QBD$$T@Z 4025d040 f i libucrtd:atox.obj
 0002:0015f060       ??$make_c_string_character_source@_W$$T@__crt_strtox@@YA?AV?$c_string_character_source@_W@0@QB_W$$T@Z 4025d060 f i libucrtd:atox.obj
 0002:0015f080       ??$parse_integer@KV?$c_string_character_source@D@__crt_strtox@@$00@__crt_strtox@@YAKAAV__crt_cached_ptd_host@@V?$c_string_character_source@D@0@H_N@Z 4025d080 f i libucrtd:atox.obj
 0002:0015f4c0       ??$parse_integer@KV?$c_string_character_source@_W@__crt_strtox@@$00@__crt_strtox@@YAKAAV__crt_cached_ptd_host@@V?$c_string_character_source@_W@0@H_N@Z 4025d4c0 f i libucrtd:atox.obj
 0002:0015f900       ??$parse_integer@_KV?$c_string_character_source@D@__crt_strtox@@$00@__crt_strtox@@YA_KAAV__crt_cached_ptd_host@@V?$c_string_character_source@D@0@H_N@Z 4025d900 f i libucrtd:atox.obj
 0002:0015fdd0       ??$parse_integer@_KV?$c_string_character_source@_W@__crt_strtox@@$00@__crt_strtox@@YA_KAAV__crt_cached_ptd_host@@V?$c_string_character_source@_W@0@H_N@Z 4025ddd0 f i libucrtd:atox.obj
 0002:001602b0       ??$parse_integer_from_string@JD$$T@__crt_strtox@@YAJQBD$$THQAU__crt_locale_pointers@@@Z 4025e2b0 f i libucrtd:atox.obj
 0002:00160320       ??$parse_integer_from_string@J_W$$T@__crt_strtox@@YAJQB_W$$THQAU__crt_locale_pointers@@@Z 4025e320 f i libucrtd:atox.obj
 0002:00160390       ??$parse_integer_from_string@_JD$$T@__crt_strtox@@YA_JQBD$$THQAU__crt_locale_pointers@@@Z 4025e390 f i libucrtd:atox.obj
 0002:00160400       ??$parse_integer_from_string@_J_W$$T@__crt_strtox@@YA_JQB_W$$THQAU__crt_locale_pointers@@@Z 4025e400 f i libucrtd:atox.obj
 0002:00160470       ??0?$c_string_character_source@D@__crt_strtox@@QAE@QBDQAPBD@Z 4025e470 f i libucrtd:atox.obj
 0002:001604b0       ??0?$c_string_character_source@_W@__crt_strtox@@QAE@QB_WQAPB_W@Z 4025e4b0 f i libucrtd:atox.obj
 0002:001604f0       ??0?$cached@H@__crt_cached_ptd_host@@QAE@XZ 4025e4f0 f i libucrtd:atox.obj
 0002:00160510       ??0?$cached@K@__crt_cached_ptd_host@@QAE@XZ 4025e510 f i libucrtd:atox.obj
 0002:00160530       ??0__crt_cached_ptd_host@@QAE@QAU__crt_locale_pointers@@@Z 4025e530 f i libucrtd:atox.obj
 0002:001605e0       ??0__crt_scoped_get_last_error_reset@@QAE@XZ 4025e5e0 f i libucrtd:atox.obj
 0002:00160610       ??1?$c_string_character_source@D@__crt_strtox@@QAE@XZ 4025e610 f i libucrtd:atox.obj
 0002:00160640       ??1?$c_string_character_source@_W@__crt_strtox@@QAE@XZ 4025e640 f i libucrtd:atox.obj
 0002:00160670       ??1__crt_cached_ptd_host@@QAE@XZ 4025e670 f i libucrtd:atox.obj
 0002:00160720       ??1__crt_scoped_get_last_error_reset@@QAE@XZ 4025e720 f i libucrtd:atox.obj
 0002:00160740       ?check_synchronize_global_state_index@__crt_cached_ptd_host@@AAEIABV__crt_scoped_get_last_error_reset@@@Z 4025e740 f i libucrtd:atox.obj
 0002:00160780       ?check_synchronize_per_thread_data@__crt_cached_ptd_host@@AAEPAU__acrt_ptd@@XZ 4025e780 f i libucrtd:atox.obj
 0002:001607c0       ?force_synchronize_global_state_index@__crt_cached_ptd_host@@AAEIABV__crt_scoped_get_last_error_reset@@@Z 4025e7c0 f i libucrtd:atox.obj
 0002:00160800       ?force_synchronize_per_thread_data@__crt_cached_ptd_host@@AAEPAU__acrt_ptd@@XZ 4025e800 f i libucrtd:atox.obj
 0002:00160860       ?get@?$c_string_character_source@D@__crt_strtox@@QAEDXZ 4025e860 f i libucrtd:atox.obj
 0002:001608a0       ?get@?$c_string_character_source@_W@__crt_strtox@@QAE_WXZ 4025e8a0 f i libucrtd:atox.obj
 0002:001608e0       ?get_current_state_index@__crt_state_management@@YAIABV__crt_scoped_get_last_error_reset@@@Z 4025e8e0 f i libucrtd:atox.obj
 0002:001608f0       ?get_errno@__crt_cached_ptd_host@@QAE@XZ 4025e8f0 f i libucrtd:atox.obj
 0002:00160910       ?get_locale@__crt_cached_ptd_host@@QAEPAU__crt_locale_pointers@@XZ 4025e910 f i libucrtd:atox.obj
 0002:00160940       ?get_raw_ptd@__crt_cached_ptd_host@@QAEPAU__acrt_ptd@@XZ 4025e940 f i libucrtd:atox.obj
 0002:00160960       ?is_space@__crt_strtox@@YA_NDQAU__crt_locale_pointers@@@Z 4025e960 f i libucrtd:atox.obj
 0002:001609b0       ?is_space@__crt_strtox@@YA_N_WPAU__crt_locale_pointers@@@Z 4025e9b0 f i libucrtd:atox.obj
 0002:001609f0       ?maximum_signed_value@__crt_strtox@@YAJK@Z 4025e9f0 f i libucrtd:atox.obj
 0002:00160a00       ?maximum_signed_value@__crt_strtox@@YA_J_K@Z 4025ea00 f i libucrtd:atox.obj
 0002:00160a20       ?minimum_signed_value@__crt_strtox@@YAJK@Z 4025ea20 f i libucrtd:atox.obj
 0002:00160a30       ?minimum_signed_value@__crt_strtox@@YA_J_K@Z 4025ea30 f i libucrtd:atox.obj
 0002:00160a50       ?parse_digit@__crt_strtox@@YAID@Z 4025ea50 f i libucrtd:atox.obj
 0002:00160ad0       ?parse_digit@__crt_strtox@@YAI_W@Z 4025ead0 f i libucrtd:atox.obj
 0002:00160b30       ?restore_state@?$c_string_character_source@D@__crt_strtox@@QAE_NQBD@Z 4025eb30 f i libucrtd:atox.obj
 0002:00160b50       ?restore_state@?$c_string_character_source@_W@__crt_strtox@@QAE_NQB_W@Z 4025eb50 f i libucrtd:atox.obj
 0002:00160b70       ?save_state@?$c_string_character_source@D@__crt_strtox@@QBEPBDXZ 4025eb70 f i libucrtd:atox.obj
 0002:00160b90       ?save_state@?$c_string_character_source@_W@__crt_strtox@@QBEPB_WXZ 4025eb90 f i libucrtd:atox.obj
 0002:00160bb0       ?set@?$cached@H@__crt_cached_ptd_host@@QAEHH@Z 4025ebb0 f i libucrtd:atox.obj
 0002:00160be0       ?unget@?$c_string_character_source@D@__crt_strtox@@QAEXD@Z 4025ebe0 f i libucrtd:atox.obj
 0002:00160cb0       ?unget@?$c_string_character_source@_W@__crt_strtox@@QAEX_W@Z 4025ecb0 f i libucrtd:atox.obj
 0002:00160d80       ?unsafe_value@?$cached@H@__crt_cached_ptd_host@@QAEHXZ 4025ed80 f i libucrtd:atox.obj
 0002:00160da0       ?unsafe_value@?$cached@K@__crt_cached_ptd_host@@QAEKXZ 4025eda0 f i libucrtd:atox.obj
 0002:00160dc0       ?update_locale@__crt_cached_ptd_host@@AAEXXZ 4025edc0 f i libucrtd:atox.obj
 0002:00160df0       ?update_locale_slow@__crt_cached_ptd_host@@AAEXXZ 4025edf0 f i libucrtd:atox.obj
 0002:00160ea0       ?valid@?$cached@H@__crt_cached_ptd_host@@QBE_NXZ 4025eea0 f i libucrtd:atox.obj
 0002:00160ec0       ?valid@?$cached@K@__crt_cached_ptd_host@@QBE_NXZ 4025eec0 f i libucrtd:atox.obj
 0002:00160ee0       ?validate@?$c_string_character_source@D@__crt_strtox@@QBE_NXZ 4025eee0 f i libucrtd:atox.obj
 0002:00160fa0       ?validate@?$c_string_character_source@_W@__crt_strtox@@QBE_NXZ 4025efa0 f i libucrtd:atox.obj
 0002:00161060       ?wide_character_to_digit@__crt_strtox@@YAH_W@Z 4025f060 f i libucrtd:atox.obj
 0002:00161450       ___acrt_disable_global_locale_sync 4025f450 f i libucrtd:atox.obj
 0002:00161480       ___acrt_enable_global_locale_sync 4025f480 f i libucrtd:atox.obj
 0002:001614b0       ___acrt_get_locale_data_prefix 4025f4b0 f i libucrtd:atox.obj
 0002:001614d0       ___acrt_locale_changed     4025f4d0 f i libucrtd:atox.obj
 0002:00161500       ___ascii_iswalpha          4025f500 f i libucrtd:atox.obj
 0002:00161550       ___ascii_toupper           4025f550 f i libucrtd:atox.obj
 0002:00161580       ___ascii_towupper          4025f580 f i libucrtd:atox.obj
 0002:001615a0       __atoi64                   4025f5a0 f   libucrtd:atox.obj
 0002:001615c0       __atoi64_l                 4025f5c0 f   libucrtd:atox.obj
 0002:001615f0       __atoi_l                   4025f5f0 f   libucrtd:atox.obj
 0002:00161620       __atol_l                   4025f620 f   libucrtd:atox.obj
 0002:00161650       __atoll_l                  4025f650 f   libucrtd:atox.obj
 0002:00161680       __chvalidchk_l             4025f680 f i libucrtd:atox.obj
 0002:001616b0       __ischartype_l             4025f6b0 f i libucrtd:atox.obj
 0002:00161750       __wtoi                     4025f750 f   libucrtd:atox.obj
 0002:00161770       __wtoi64                   4025f770 f   libucrtd:atox.obj
 0002:00161790       __wtoi64_l                 4025f790 f   libucrtd:atox.obj
 0002:001617c0       __wtoi_l                   4025f7c0 f   libucrtd:atox.obj
 0002:001617f0       __wtol                     4025f7f0 f   libucrtd:atox.obj
 0002:00161810       __wtol_l                   4025f810 f   libucrtd:atox.obj
 0002:00161840       __wtoll                    4025f840 f   libucrtd:atox.obj
 0002:00161860       __wtoll_l                  4025f860 f   libucrtd:atox.obj
 0002:00161890       _atoi                      4025f890 f   libucrtd:atox.obj
 0002:001618b0       _atol                      4025f8b0 f   libucrtd:atox.obj
 0002:001618d0       _atoll                     4025f8d0 f   libucrtd:atox.obj
 0002:001618f0       _strcmp                    4025f8f0 f   libucrtd:strcmp.obj
 0002:001619a0       _strcpy                    4025f9a0 f   libucrtd:strcat.obj
 0002:001619b0       _strcat                    4025f9b0 f   libucrtd:strcat.obj
 0002:00161ae0       _strlen                    4025fae0 f   libucrtd:strlen.obj
 0002:00161cd0       ??0_LocaleUpdate@@QAE@QAU__crt_locale_pointers@@@Z 4025fcd0 f i libucrtd:tolower_toupper.obj
 0002:00161de0       ??1_LocaleUpdate@@QAE@XZ   4025fde0 f i libucrtd:tolower_toupper.obj
 0002:00161e20       ?GetLocaleT@_LocaleUpdate@@QAEPAU__crt_locale_pointers@@XZ 4025fe20 f i libucrtd:tolower_toupper.obj
 0002:00161ff0       ___ascii_tolower           4025fff0 f i libucrtd:tolower_toupper.obj
 0002:00162020       __ctype_fast_check_internal 40260020 f i libucrtd:tolower_toupper.obj
 0002:00162040       __isleadbyte_fast_internal 40260040 f i libucrtd:tolower_toupper.obj
 0002:00162070       __tolower                  40260070 f   libucrtd:tolower_toupper.obj
 0002:00162080       __tolower_fast_internal    40260080 f i libucrtd:tolower_toupper.obj
 0002:001620a0       __tolower_l                402600a0 f   libucrtd:tolower_toupper.obj
 0002:001620d0       __toupper                  402600d0 f   libucrtd:tolower_toupper.obj
 0002:001620e0       __toupper_fast_internal    402600e0 f i libucrtd:tolower_toupper.obj
 0002:00162100       __toupper_l                40260100 f   libucrtd:tolower_toupper.obj
 0002:00162130       _tolower                   40260130 f   libucrtd:tolower_toupper.obj
 0002:00162180       _toupper                   40260180 f   libucrtd:tolower_toupper.obj
 0002:001621d0       ??$?RU?$__crt_report_hook_node@D@@@__crt_internal_free_policy@@QBEXQBU?$__crt_report_hook_node@D@@@Z 402601d0 f i libucrtd:dbgrpt.obj
 0002:00162200       ??$?RU?$__crt_report_hook_node@_W@@@__crt_internal_free_policy@@QBEXQBU?$__crt_report_hook_node@_W@@@Z 40260200 f i libucrtd:dbgrpt.obj
 0002:001634a0       ??$get_module_file_name@AAPAUHINSTANCE__@@AAY0BAF@DK@?$__crt_char_traits@D@@SAKAAPAUHINSTANCE__@@AAY0BAF@D$$QAK@Z 402614a0 f i libucrtd:dbgrpt.obj
 0002:001634d0       ??$get_module_file_name@AAPAUHINSTANCE__@@AAY0BAF@_WK@?$__crt_char_traits@_W@@SAKAAPAUHINSTANCE__@@AAY0BAF@_W$$QAK@Z 402614d0 f i libucrtd:dbgrpt.obj
 0002:00163500       ??$tcscpy_s@AAY0BAF@DIPBD@?$__crt_char_traits@D@@SAHAAY0BAF@D$$QAI$$QAPBD@Z 40261500 f i libucrtd:dbgrpt.obj
 0002:00163530       ??$tcscpy_s@AAY0BAF@_WIPB_W@?$__crt_char_traits@_W@@SAHAAY0BAF@_W$$QAI$$QAPB_W@Z 40261530 f i libucrtd:dbgrpt.obj
 0002:00163560       ??$tcslen@AAY0BAF@D@?$__crt_char_traits@D@@SAIAAY0BAF@D@Z 40261560 f i libucrtd:dbgrpt.obj
 0002:00163580       ??$tcslen@AAY0BAF@_W@?$__crt_char_traits@_W@@SAIAAY0BAF@_W@Z 40261580 f i libucrtd:dbgrpt.obj
 0002:001635a0       ??$tcslen@ABQBD@?$__crt_char_traits@D@@SAIABQBD@Z 402615a0 f i libucrtd:dbgrpt.obj
 0002:001635c0       ??$tcslen@ABQB_W@?$__crt_char_traits@_W@@SAIABQB_W@Z 402615c0 f i libucrtd:dbgrpt.obj
 0002:00163700       ??0?$__crt_unique_heap_ptr@U?$__crt_report_hook_node@D@@U__crt_internal_free_policy@@@@QAE@QAU?$__crt_report_hook_node@D@@@Z 40261700 f i libucrtd:dbgrpt.obj
 0002:00163720       ??0?$__crt_unique_heap_ptr@U?$__crt_report_hook_node@_W@@U__crt_internal_free_policy@@@@QAE@QAU?$__crt_report_hook_node@_W@@@Z 40261720 f i libucrtd:dbgrpt.obj
 0002:00163740       ??1?$__crt_unique_heap_ptr@U?$__crt_report_hook_node@D@@U__crt_internal_free_policy@@@@QAE@XZ 40261740 f i libucrtd:dbgrpt.obj
 0002:00163760       ??1?$__crt_unique_heap_ptr@U?$__crt_report_hook_node@_W@@U__crt_internal_free_policy@@@@QAE@XZ 40261760 f i libucrtd:dbgrpt.obj
 0002:00163780       ??B?$__crt_unique_heap_ptr@U?$__crt_report_hook_node@D@@U__crt_internal_free_policy@@@@QBE_NXZ 40261780 f i libucrtd:dbgrpt.obj
 0002:001637a0       ??B?$__crt_unique_heap_ptr@U?$__crt_report_hook_node@_W@@U__crt_internal_free_policy@@@@QBE_NXZ 402617a0 f i libucrtd:dbgrpt.obj
 0002:00163e60       ?detach@?$__crt_unique_heap_ptr@U?$__crt_report_hook_node@D@@U__crt_internal_free_policy@@@@QAEPAU?$__crt_report_hook_node@D@@XZ 40261e60 f i libucrtd:dbgrpt.obj
 0002:00163e90       ?detach@?$__crt_unique_heap_ptr@U?$__crt_report_hook_node@_W@@U__crt_internal_free_policy@@@@QAEPAU?$__crt_report_hook_node@_W@@XZ 40261e90 f i libucrtd:dbgrpt.obj
 0002:00163ec0       ?get@?$__crt_unique_heap_ptr@U?$__crt_report_hook_node@D@@U__crt_internal_free_policy@@@@QBEPAU?$__crt_report_hook_node@D@@XZ 40261ec0 f i libucrtd:dbgrpt.obj
 0002:00163ee0       ?get@?$__crt_unique_heap_ptr@U?$__crt_report_hook_node@_W@@U__crt_internal_free_policy@@@@QBEPAU?$__crt_report_hook_node@_W@@XZ 40261ee0 f i libucrtd:dbgrpt.obj
 0002:00163f60       ?is_valid@?$__crt_unique_heap_ptr@U?$__crt_report_hook_node@D@@U__crt_internal_free_policy@@@@QBE_NXZ 40261f60 f i libucrtd:dbgrpt.obj
 0002:00163fa0       ?is_valid@?$__crt_unique_heap_ptr@U?$__crt_report_hook_node@_W@@U__crt_internal_free_policy@@@@QBE_NXZ 40261fa0 f i libucrtd:dbgrpt.obj
 0002:00163fe0       ?release@?$__crt_unique_heap_ptr@U?$__crt_report_hook_node@D@@U__crt_internal_free_policy@@@@QAEXXZ 40261fe0 f i libucrtd:dbgrpt.obj
 0002:00164010       ?release@?$__crt_unique_heap_ptr@U?$__crt_report_hook_node@_W@@U__crt_internal_free_policy@@@@QAEXXZ 40262010 f i libucrtd:dbgrpt.obj
 0002:00164040       __CrtDbgReport             40262040 f   libucrtd:dbgrpt.obj
 0002:001640a0       __CrtDbgReportW            402620a0 f   libucrtd:dbgrpt.obj
 0002:00164100       __CrtSetReportHook2        40262100 f   libucrtd:dbgrpt.obj
 0002:00164120       __CrtSetReportHookW2       40262120 f   libucrtd:dbgrpt.obj
 0002:00164140       ___acrt_MessageWindowA     40262140 f   libucrtd:dbgrpt.obj
 0002:00164170       ___acrt_MessageWindowW     40262170 f   libucrtd:dbgrpt.obj
 0002:001641a0       __invoke_watson_if_error   402621a0 f i libucrtd:dbgrpt.obj
 0002:001641e0       __invoke_watson_if_oneof   402621e0 f i libucrtd:dbgrpt.obj
 0002:00164230       __snwprintf_s              40262230 f i libucrtd:dbgrpt.obj
 0002:00164280       __vsnwprintf_s_l           40262280 f i libucrtd:dbgrpt.obj
 0002:001642f0       _cos                       402622f0 f   libucrtd:cos.obj
 0002:00164350       _atan2                     40262350 f   libucrtd:atan2.obj
 0002:00164390       _fabs                      40262390 f   libucrtd:fabs.obj
 0002:001643c0       _tan                       402623c0 f   libucrtd:tan.obj
 0002:00164420       ??$assemble_floating_point_ind@M@__crt_strtox@@YAXAAM@Z 40262420 f i libucrtd:atof.obj
 0002:00164480       ??$assemble_floating_point_ind@N@__crt_strtox@@YAXAAN@Z 40262480 f i libucrtd:atof.obj
 0002:001644f0       ??$assemble_floating_point_infinity@M@__crt_strtox@@YAX_NAAM@Z 402624f0 f i libucrtd:atof.obj
 0002:00164570       ??$assemble_floating_point_infinity@N@__crt_strtox@@YAX_NAAN@Z 40262570 f i libucrtd:atof.obj
 0002:00164620       ??$assemble_floating_point_qnan@M@__crt_strtox@@YAX_NAAM@Z 40262620 f i libucrtd:atof.obj
 0002:001646a0       ??$assemble_floating_point_qnan@N@__crt_strtox@@YAX_NAAN@Z 402626a0 f i libucrtd:atof.obj
 0002:00164750       ??$assemble_floating_point_snan@M@__crt_strtox@@YAX_NAAM@Z 40262750 f i libucrtd:atof.obj
 0002:001647e0       ??$assemble_floating_point_snan@N@__crt_strtox@@YAX_NAAN@Z 402627e0 f i libucrtd:atof.obj
 0002:00164890       ??$assemble_floating_point_value_t@M@__crt_strtox@@YA?AW4SLD_STATUS@@_NH_KAAM@Z 40262890 f i libucrtd:atof.obj
 0002:00164920       ??$assemble_floating_point_value_t@N@__crt_strtox@@YA?AW4SLD_STATUS@@_NH_KAAN@Z 40262920 f i libucrtd:atof.obj
 0002:001649f0       ??$assemble_floating_point_zero@M@__crt_strtox@@YAX_NAAM@Z 402629f0 f i libucrtd:atof.obj
 0002:00164a70       ??$assemble_floating_point_zero@N@__crt_strtox@@YAX_NAAN@Z 40262a70 f i libucrtd:atof.obj
 0002:00165040       ??$convert_decimal_string_to_floating_type@M@__crt_strtox@@YA?AW4SLD_STATUS@@ABUfloating_point_string@0@AAM@Z 40263040 f i libucrtd:atof.obj
 0002:00165070       ??$convert_decimal_string_to_floating_type@N@__crt_strtox@@YA?AW4SLD_STATUS@@ABUfloating_point_string@0@AAN@Z 40263070 f i libucrtd:atof.obj
 0002:001650a0       ??$convert_hexadecimal_string_to_floating_type@M@__crt_strtox@@YA?AW4SLD_STATUS@@ABUfloating_point_string@0@AAM@Z 402630a0 f i libucrtd:atof.obj
 0002:001650d0       ??$convert_hexadecimal_string_to_floating_type@N@__crt_strtox@@YA?AW4SLD_STATUS@@ABUfloating_point_string@0@AAN@Z 402630d0 f i libucrtd:atof.obj
 0002:00165100       ??$parse_floating_point@V?$c_string_character_source@D@__crt_strtox@@M@__crt_strtox@@YA?AW4SLD_STATUS@@QAU__crt_locale_pointers@@V?$c_string_character_source@D@0@QAM@Z 40263100 f i libucrtd:atof.obj
 0002:00165330       ??$parse_floating_point@V?$c_string_character_source@D@__crt_strtox@@N@__crt_strtox@@YA?AW4SLD_STATUS@@QAU__crt_locale_pointers@@V?$c_string_character_source@D@0@QAN@Z 40263330 f i libucrtd:atof.obj
 0002:00165560       ??$parse_floating_point@V?$c_string_character_source@_W@__crt_strtox@@N@__crt_strtox@@YA?AW4SLD_STATUS@@QAU__crt_locale_pointers@@V?$c_string_character_source@_W@0@QAN@Z 40263560 f i libucrtd:atof.obj
 0002:00165790       ??$parse_floating_point_from_source@V?$c_string_character_source@D@__crt_strtox@@@__crt_strtox@@YA?AW4floating_point_parse_result@0@QAU__crt_locale_pointers@@AAV?$c_string_character_source@D@0@AAUfloating_point_string@0@@Z 40263790 f i libucrtd:atof.obj
 0002:00165ef0       ??$parse_floating_point_from_source@V?$c_string_character_source@_W@__crt_strtox@@@__crt_strtox@@YA?AW4floating_point_parse_result@0@QAU__crt_locale_pointers@@AAV?$c_string_character_source@_W@0@AAUfloating_point_string@0@@Z 40263ef0 f i libucrtd:atof.obj
 0002:00166660       ??$parse_floating_point_possible_infinity@DV?$c_string_character_source@D@__crt_strtox@@PBD@__crt_strtox@@YA?AW4floating_point_parse_result@0@AADAAV?$c_string_character_source@D@0@PBD@Z 40264660 f i libucrtd:atof.obj
 0002:001667b0       ??$parse_floating_point_possible_infinity@_WV?$c_string_character_source@_W@__crt_strtox@@PB_W@__crt_strtox@@YA?AW4floating_point_parse_result@0@AA_WAAV?$c_string_character_source@_W@0@PB_W@Z 402647b0 f i libucrtd:atof.obj
 0002:00166900       ??$parse_floating_point_possible_nan@DV?$c_string_character_source@D@__crt_strtox@@PBD@__crt_strtox@@YA?AW4floating_point_parse_result@0@AADAAV?$c_string_character_source@D@0@PBD@Z 40264900 f i libucrtd:atof.obj
 0002:00166b60       ??$parse_floating_point_possible_nan@_WV?$c_string_character_source@_W@__crt_strtox@@PB_W@__crt_strtox@@YA?AW4floating_point_parse_result@0@AA_WAAV?$c_string_character_source@_W@0@PB_W@Z 40264b60 f i libucrtd:atof.obj
 0002:00166dc0       ??$parse_floating_point_possible_nan_is_ind@DV?$c_string_character_source@D@__crt_strtox@@@__crt_strtox@@YA_NAADAAV?$c_string_character_source@D@0@@Z 40264dc0 f i libucrtd:atof.obj
