 qagame_mp_x86

 Timestamp is 69ee9b93 (Sun Apr 26 16:11:15 2026)

 Preferred load address is 20000000

 Start         Length     Name                   Class
 0001:00000000 00021330H .text$di                CODE
 0001:00021330 00210dd0H .text$mn                CODE
 0001:00232100 00010de0H .text$x                 CODE
 0001:00242ee0 000028ccH .text$yd                CODE
 0002:00000000 00000104H .CRT$XCA                DATA
 0002:00000104 00000124H .CRT$XCC                DATA
 0002:00000228 0000010cH .CRT$XCL                DATA
 0002:00000334 000005ecH .CRT$XCU                DATA
 0002:00000920 00000104H .CRT$XCZ                DATA
 0002:00000a24 00000104H .CRT$XIA                DATA
 0002:00000b28 00000118H .CRT$XIC                DATA
 0002:00000c40 00000104H .CRT$XIZ                DATA
 0002:00000d44 00000004H .CRT$XLA                DATA
 0002:00000d48 00000004H .CRT$XLZ                DATA
 0002:00000d4c 00000104H .CRT$XPA                DATA
 0002:00000e50 0000010cH .CRT$XPX                DATA
 0002:00000f5c 00000104H .CRT$XPXA               DATA
 0002:00001060 00000104H .CRT$XPZ                DATA
 0002:00001164 00000104H .CRT$XTA                DATA
 0002:00001268 00000118H .CRT$XTZ                DATA
 0002:00001380 0003a640H .rdata                  DATA
 0002:0003b9c0 00000180H .rdata$CastGuardVftablesA DATA
 0002:0003bb40 0000014cH .rdata$CastGuardVftablesC DATA
 0002:0003bc8c 0000011cH .rdata$T                DATA
 0002:0003bda8 00005280H .rdata$r                DATA
 0002:00041028 0000110cH .rdata$sxdata           DATA
 0002:00042134 00000188H .rdata$zzzdbg           DATA
 0002:000422bc 00000104H .rtc$IAA                DATA
 0002:000423c0 00000104H .rtc$IZZ                DATA
 0002:000424c4 00000104H .rtc$TAA                DATA
 0002:000425c8 00000108H .rtc$TZZ                DATA
 0002:000426d0 000132e0H .xdata$x                DATA
 0002:000559b0 00000170H .edata                  DATA
 0003:00000000 00009540H .data                   DATA
 0003:00009540 00000388H .data$r                 DATA
 0003:000098c8 00002300H .data$rs                DATA
 0003:0000bbc8 02a74c08H .bss                    DATA
 0004:00000000 000001f8H .idata$5                DATA
 0004:000001f8 00000014H .idata$2                DATA
 0004:0000020c 00000014H .idata$3                DATA
 0004:00000220 000001f8H .idata$4                DATA
 0004:00000418 000008d4H .idata$6                DATA
 0005:00000000 00000104H .tls                    DATA
 0005:00000104 00000104H .tls$                   DATA
 0005:00000208 00000101H .tls$ZZZ                DATA
 0006:00000000 0000010eH .00cfg                  DATA
 0007:00000000 00000199H .fptable                DATA
 0008:00000000 00000170H .rsrc$01                DATA
 0008:00000170 000002ccH .rsrc$02                DATA

  Address         Publics by Value              Rva+Base       Lib:Object

 0000:00000000       ___AbsoluteZero            00000000     <absolute>
 0000:00000000       ___arm64x_extra_rfe_table  00000000     <absolute>
 0000:00000000       ___arm64x_extra_rfe_table_size 00000000     <absolute>
 0000:00000000       ___arm64x_native_entrypoint 00000000     <absolute>
 0000:00000000       ___arm64x_redirection_metadata 00000000     <absolute>
 0000:00000000       ___arm64x_redirection_metadata_count 00000000     <absolute>
 0000:00000000       ___dynamic_value_reloc_table 00000000     <absolute>
 0000:00000000       ___enclave_config          00000000     <absolute>
 0000:00000000       ___guard_check_icall_a64n_fptr 00000000     <absolute>
 0000:00000000       ___guard_eh_cont_count     00000000     <absolute>
 0000:00000000       ___guard_eh_cont_table     00000000     <absolute>
 0000:00000000       ___guard_fids_count        00000000     <absolute>
 0000:00000000       ___guard_fids_table        00000000     <absolute>
 0000:00000000       ___guard_iat_count         00000000     <absolute>
 0000:00000000       ___guard_iat_table         00000000     <absolute>
 0000:00000000       ___guard_longjmp_count     00000000     <absolute>
 0000:00000000       ___guard_longjmp_table     00000000     <absolute>
 0000:00000000       ___hybrid_auxiliary_delayload_iat 00000000     <absolute>
 0000:00000000       ___hybrid_auxiliary_delayload_iat_copy 00000000     <absolute>
 0000:00000000       ___hybrid_auxiliary_iat    00000000     <absolute>
 0000:00000000       ___hybrid_auxiliary_iat_copy 00000000     <absolute>
 0000:00000000       ___hybrid_code_map         00000000     <absolute>
 0000:00000000       ___hybrid_code_map_count   00000000     <absolute>
 0000:00000000       ___hybrid_image_info_bitfield 00000000     <absolute>
 0000:00000000       ___volatile_metadata       00000000     <absolute>
 0000:00000000       ___x64_code_ranges_to_entry_points 00000000     <absolute>
 0000:00000000       ___x64_code_ranges_to_entry_points_count 00000000     <absolute>
 0000:00000000       __except_list              00000000     <absolute>
 0000:0000002c       __tls_array                0000002c     <absolute>
 0000:00000100       ___guard_flags             00000100     <absolute>
 0000:00000358       ___safe_se_handler_count   00000358     <absolute>
 0000:00000000       ___ImageBase               20000000     <linker-defined>
 0001:00021330       ??$?6U?$char_traits@D@std@@@std@@YAAAV?$basic_ostream@DU?$char_traits@D@std@@@0@AAV10@PBD@Z 20022330 f i g_main.obj
 0001:000216a0       ??$_Allocate_manually_vector_aligned@U_Default_allocate_traits@std@@@std@@YAPAXI@Z 200226a0 f i g_main.obj
 0001:000216e0       ??$_Construct@$00PBD@?$basic_string@DU?$char_traits@D@std@@V?$allocator@D@2@@std@@AAEXQBDI@Z 200226e0 f i g_main.obj
 0001:000217c0       ??$_Immortalize_memcpy_image@V_Iostream_error_category2@std@@@std@@YAABV_Iostream_error_category2@0@XZ 200227c0 f i g_main.obj
 0001:000217d0       ??$_Reallocate_grow_by@V<lambda_73347dd824626abab36262ed74192d8f>@@PBDI@?$basic_string@DU?$char_traits@D@std@@V?$allocator@D@2@@std@@AAEAAV01@IV<lambda_73347dd824626abab36262ed74192d8f>@@PBDI@Z 200227d0 f i g_main.obj
 0001:00021960       ??$endl@DU?$char_traits@D@std@@@std@@YAAAV?$basic_ostream@DU?$char_traits@D@std@@@0@AAV10@@Z 20022960 f i g_main.obj
 0001:00021a20       ??$use_facet@V?$ctype@D@std@@@std@@YAABV?$ctype@D@0@ABVlocale@0@@Z 20022a20 f i g_main.obj
 0001:00021c00       ??0?$basic_ios@DU?$char_traits@D@std@@@std@@IAE@XZ 20022c00 f i g_main.obj
 0001:00021c90       ??0?$basic_ostream@DU?$char_traits@D@std@@@std@@QAE@PAV?$basic_streambuf@DU?$char_traits@D@std@@@1@_N@Z 20022c90 f i g_main.obj
 0001:00021ec0       ??0?$basic_ostringstream@DU?$char_traits@D@std@@V?$allocator@D@2@@std@@QAE@XZ 20022ec0 f i g_main.obj
 0001:00022040       ??0?$fpos@U_Mbstatet@@@std@@QAE@_J@Z 20023040 f i g_main.obj
 0001:00022080       ??0_Locinfo@std@@QAE@PBD@Z 20023080 f i g_main.obj
 0001:00022140       ??0_System_error@std@@IAE@Verror_code@1@ABV?$basic_string@DU?$char_traits@D@std@@V?$allocator@D@2@@1@@Z 20023140 f i g_main.obj
 0001:00022480       ??0_System_error@std@@QAE@ABV01@@Z 20023480 f i g_main.obj
 0001:000224e0       ??0bad_alloc@std@@QAE@ABV01@@Z 200234e0 f i g_main.obj
 0001:00022520       ??0bad_array_new_length@std@@QAE@ABV01@@Z 20023520 f i g_main.obj
 0001:00022560       ??0bad_array_new_length@std@@QAE@XZ 20023560 f i g_main.obj
 0001:00022580       ??0bad_cast@std@@QAE@ABV01@@Z 20023580 f i g_main.obj
 0001:000225c0       ??0exception@std@@QAE@ABV01@@Z 200235c0 f i g_main.obj
 0001:00022600       ??0failure@ios_base@std@@QAE@ABV012@@Z 20023600 f i g_main.obj
 0001:00022660       ??0failure@ios_base@std@@QAE@PBDABVerror_code@2@@Z 20023660 f i g_main.obj
 0001:00022760       ??0runtime_error@std@@QAE@ABV01@@Z 20023760 f i g_main.obj
 0001:000227a0       ??0sentry@?$basic_ostream@DU?$char_traits@D@std@@@std@@QAE@AAV12@@Z 200237a0 f i g_main.obj
 0001:00022850       ??0system_error@std@@QAE@ABV01@@Z 20023850 f i g_main.obj
 0001:000228b0       ??1?$_Yarn@D@std@@QAE@XZ   200238b0 f i g_main.obj
 0001:000228d0       ??1?$_Yarn@_W@std@@QAE@XZ  200238d0 f i g_main.obj
 0001:000228f0       ??1?$basic_ios@DU?$char_traits@D@std@@@std@@UAE@XZ 200238f0 f i g_main.obj
 0001:00022950       ??1?$basic_ostream@DU?$char_traits@D@std@@@std@@UAE@XZ 20023950 f i g_main.obj
 0001:00022980       ??1?$basic_ostringstream@DU?$char_traits@D@std@@V?$allocator@D@2@@std@@UAE@XZ 20023980 f i g_main.obj
 0001:000229e0       ??1?$basic_streambuf@DU?$char_traits@D@std@@@std@@UAE@XZ 200239e0 f i g_main.obj
 0001:00022a20       ??1?$basic_string@DU?$char_traits@D@std@@V?$allocator@D@2@@std@@QAE@XZ 20023a20 f i g_main.obj
 0001:00022a80       ??1?$basic_stringbuf@DU?$char_traits@D@std@@V?$allocator@D@2@@std@@UAE@XZ 20023a80 f i g_main.obj
 0001:00022bc0       ??1?$ctype@D@std@@MAE@XZ   20023bc0 f i g_main.obj
 0001:00022c10       ??1?$unique_ptr@V_Facet_base@std@@U?$default_delete@V_Facet_base@std@@@2@@std@@QAE@XZ 20023c10 f i g_main.obj
 0001:00022c20       ??1_Facet_base@std@@UAE@XZ 20023c20 f i g_main.obj
 0001:00022c30       ??1_Locinfo@std@@QAE@XZ    20023c30 f i g_main.obj
 0001:00022d30       ??1_Sentry_base@?$basic_ostream@DU?$char_traits@D@std@@@std@@QAE@XZ 20023d30 f i g_main.obj
 0001:00022d80       ??1bad_array_new_length@std@@UAE@XZ 20023d80 f i g_main.obj
 0001:00022da0       ??1bad_cast@std@@UAE@XZ    20023da0 f i g_main.obj
 0001:00022dc0       ??1ctype_base@std@@UAE@XZ  20023dc0 f i g_main.obj
 0001:00022dd0       ??1error_category@std@@UAE@XZ 20023dd0 f i g_main.obj
 0001:00022de0       ??1exception@std@@UAE@XZ   20023de0 f i g_main.obj
 0001:00022e00       ??1facet@locale@std@@MAE@XZ 20023e00 f i g_main.obj
 0001:00022e10       ??1failure@ios_base@std@@UAE@XZ 20023e10 f i g_main.obj
 0001:00022e30       ??1ios_base@std@@UAE@XZ    20023e30 f i g_main.obj
 0001:00022e80       ??1locale@std@@QAE@XZ      20023e80 f i g_main.obj
 0001:00022ea0       ??1sentry@?$basic_ostream@DU?$char_traits@D@std@@@std@@QAE@XZ 20023ea0 f i g_main.obj
 0001:00022f10       ??1system_error@std@@UAE@XZ 20023f10 f i g_main.obj
 0001:00022f30       ??_D?$basic_ostringstream@DU?$char_traits@D@std@@V?$allocator@D@2@@std@@QAEXXZ 20023f30 f i g_main.obj
 0001:00022fd5       ??_E?$basic_ostream@DU?$char_traits@D@std@@@std@@$4PPPPPPPM@A@AEPAXI@Z 20023fd5 f i g_main.obj
 0001:00022fdf       ??_E?$basic_ostringstream@DU?$char_traits@D@std@@V?$allocator@D@2@@std@@$4PPPPPPPM@A@AEPAXI@Z 20023fdf f i g_main.obj
 0001:00022ff0       ??_E?$basic_ios@DU?$char_traits@D@std@@@std@@UAEPAXI@Z 20023ff0 f i g_main.obj
 0001:00022ff0       ??_G?$basic_ios@DU?$char_traits@D@std@@@std@@UAEPAXI@Z 20023ff0 f i g_main.obj
 0001:00023060       ??_E?$basic_ostream@DU?$char_traits@D@std@@@std@@UAEPAXI@Z 20024060 f i g_main.obj
 0001:00023060       ??_G?$basic_ostream@DU?$char_traits@D@std@@@std@@UAEPAXI@Z 20024060 f i g_main.obj
 0001:00023100       ??_E?$basic_ostringstream@DU?$char_traits@D@std@@V?$allocator@D@2@@std@@UAEPAXI@Z 20024100 f i g_main.obj
 0001:00023100       ??_G?$basic_ostringstream@DU?$char_traits@D@std@@V?$allocator@D@2@@std@@UAEPAXI@Z 20024100 f i g_main.obj
 0001:00023140       ??_E?$basic_streambuf@DU?$char_traits@D@std@@@std@@UAEPAXI@Z 20024140 f i g_main.obj
 0001:00023140       ??_G?$basic_streambuf@DU?$char_traits@D@std@@@std@@UAEPAXI@Z 20024140 f i g_main.obj
 0001:000231b0       ??_E?$basic_stringbuf@DU?$char_traits@D@std@@V?$allocator@D@2@@std@@UAEPAXI@Z 200241b0 f i g_main.obj
 0001:000231b0       ??_G?$basic_stringbuf@DU?$char_traits@D@std@@V?$allocator@D@2@@std@@UAEPAXI@Z 200241b0 f i g_main.obj
 0001:000231e0       ??_E?$ctype@D@std@@MAEPAXI@Z 200241e0 f i g_main.obj
 0001:000231e0       ??_G?$ctype@D@std@@MAEPAXI@Z 200241e0 f i g_main.obj
 0001:00023250       ??_E_Facet_base@std@@UAEPAXI@Z 20024250 f i g_main.obj
 0001:00023250       ??_G_Facet_base@std@@UAEPAXI@Z 20024250 f i g_main.obj
 0001:00023280       ??_E_Iostream_error_category2@std@@UAEPAXI@Z 20024280 f i g_main.obj
 0001:00023280       ??_G_Iostream_error_category2@std@@UAEPAXI@Z 20024280 f i g_main.obj
 0001:000232b0       ??_E_System_error@std@@UAEPAXI@Z 200242b0 f i g_main.obj
 0001:000232b0       ??_G_System_error@std@@UAEPAXI@Z 200242b0 f i g_main.obj
 0001:000232f0       ??_Ebad_alloc@std@@UAEPAXI@Z 200242f0 f i g_main.obj
 0001:000232f0       ??_Gbad_alloc@std@@UAEPAXI@Z 200242f0 f i g_main.obj
 0001:00023330       ??_Ebad_array_new_length@std@@UAEPAXI@Z 20024330 f i g_main.obj
 0001:00023330       ??_Gbad_array_new_length@std@@UAEPAXI@Z 20024330 f i g_main.obj
 0001:00023370       ??_Ebad_cast@std@@UAEPAXI@Z 20024370 f i g_main.obj
 0001:00023370       ??_Gbad_cast@std@@UAEPAXI@Z 20024370 f i g_main.obj
 0001:000233b0       ??_Ectype_base@std@@UAEPAXI@Z 200243b0 f i g_main.obj
 0001:000233b0       ??_Gctype_base@std@@UAEPAXI@Z 200243b0 f i g_main.obj
 0001:000233e0       ??_Eexception@std@@UAEPAXI@Z 200243e0 f i g_main.obj
 0001:000233e0       ??_Gexception@std@@UAEPAXI@Z 200243e0 f i g_main.obj
 0001:00023420       ??_Efacet@locale@std@@MAEPAXI@Z 20024420 f i g_main.obj
 0001:00023420       ??_Gfacet@locale@std@@MAEPAXI@Z 20024420 f i g_main.obj
 0001:00023450       ??_Efailure@ios_base@std@@UAEPAXI@Z 20024450 f i g_main.obj
 0001:00023450       ??_Gfailure@ios_base@std@@UAEPAXI@Z 20024450 f i g_main.obj
 0001:00023490       ??_Eios_base@std@@UAEPAXI@Z 20024490 f i g_main.obj
 0001:00023490       ??_Gios_base@std@@UAEPAXI@Z 20024490 f i g_main.obj
 0001:00023500       ??_Eruntime_error@std@@UAEPAXI@Z 20024500 f i g_main.obj
 0001:00023500       ??_Gruntime_error@std@@UAEPAXI@Z 20024500 f i g_main.obj
 0001:00023540       ??_Esystem_error@std@@UAEPAXI@Z 20024540 f i g_main.obj
 0001:00023540       ??_Gsystem_error@std@@UAEPAXI@Z 20024540 f i g_main.obj
 0001:00023580       ?BeginIntermission@@YAXXZ  20024580 f   g_main.obj
 0001:00023670       ?CalculateRanks@@YAXXZ     20024670 f   g_main.obj
 0001:000239c0       ?CheckCvars@@YAXXZ         200249c0 f   g_main.obj
 0001:00023aa0       ?CheckExitRules@@YAXXZ     20024aa0 f   g_main.obj
 0001:00024010       ?CheckIntermissionExit@@YAXXZ 20025010 f   g_main.obj
 0001:00024160       ?CheckVote@@YAXXZ          20025160 f   g_main.obj
 0001:000244c0       ?CheckWolfMP@@YAXXZ        200254c0 f   g_main.obj
 0001:00024610       ?Com_Error@@YAXHPBDZZ      20025610 f   g_main.obj
 0001:00024660       ?Com_Printf@@YAXPBDZZ      20025660 f   g_main.obj
 0001:000246b0       ?ExitLevel@@YAXXZ          200256b0 f   g_main.obj
 0001:000248f0       ?FindIntermissionPoint@@YAXXZ 200258f0 f   g_main.obj
 0001:00024af0       ?G_CheckForCursorHints@@YAXPAUgentity_s@@@Z 20025af0 f   g_main.obj
 0001:00025ad0       ?G_DPrintf@@YAXPBDZZ       20026ad0 f   g_main.obj
 0001:00025b20       ?G_EmplacedGunIsMountable@@YA?AW4qboolean@@PAUgentity_s@@0@Z 20026b20 f   g_main.obj
 0001:00025c10       ?G_EmplacedGunIsRepairable@@YA?AW4qboolean@@PAUgentity_s@@0@Z 20026c10 f   g_main.obj
 0001:00025cb0       ?G_Error@@YAXPBDZZ         20026cb0 f   g_main.obj
 0001:00025d00       ?G_FindTeams@@YAXXZ        20026d00 f   g_main.obj
 0001:00025f40       ?G_InitGame@@YAXHHH@Z      20026f40 f   g_main.obj
 0001:00026ed0       ?G_LogPrintf@@YAXPBDZZ     20027ed0 f   g_main.obj
 0001:00027000       ?G_PositionEntityOnTag@@YA?AW4qboolean@@PAUgentity_s@@0PAD@Z 20028000 f   g_main.obj
 0001:00027200       ?G_Printf@@YAXPBDZZ        20028200 f   g_main.obj
 0001:00027250       ?G_RegisterCvars@@YAXXZ    20028250 f   g_main.obj
 0001:000273a0       ?G_RemapTeamShaders@@YAXXZ 200283a0 f   g_main.obj
 0001:000273b0       ?G_RunEntity@@YAXPAUgentity_s@@H@Z 200283b0 f   g_main.obj
 0001:00027860       ?G_RunFrame@@YAXH@Z        20028860 f   g_main.obj
 0001:00027f90       ?G_RunThink@@YAXPAUgentity_s@@@Z 20028f90 f   g_main.obj
 0001:00028080       ?G_SetTargetName@@YAXPAUgentity_s@@PAD@Z 20029080 f   g_main.obj
 0001:000280d0       ?G_ShutdownGame@@YAXH@Z    200290d0 f   g_main.obj
 0001:00028270       ?G_SnapshotCallback@@YA?AW4qboolean@@HH@Z 20029270 f   g_main.obj
 0001:000282c0       ?G_TagLinkEntity@@YAXPAUgentity_s@@H@Z 200292c0 f   g_main.obj
 0001:00028a40       ?G_UpdateCvars@@YAXXZ      20029a40 f   g_main.obj
 0001:00029260       ?G_wipeCvars@@YAXXZ        2002a260 f   g_main.obj
 0001:000292d0       ?LogExit@@YAXPBD@Z         2002a2d0 f   g_main.obj
 0001:000299f0       ?MoveClientToIntermission@@YAXPAUgentity_s@@@Z 2002a9f0 f   g_main.obj
 0001:00029b80       ?ScoreIsTied@@YA?AW4qboolean@@XZ 2002ab80 f   g_main.obj
 0001:00029be0       ?SendScoreboardMessageToAllClients@@YAXXZ 2002abe0 f   g_main.obj
 0001:00029c40       ?SortRanks@@YAHPBX0@Z      2002ac40 f   g_main.obj
 0001:00029d60       ?_Decref@facet@locale@std@@UAEPAV_Facet_base@3@XZ 2002ad60 f i g_main.obj
 0001:00029d80       ?_Incref@facet@locale@std@@UAEXXZ 2002ad80 f i g_main.obj
 0001:00029d90       ?_Init@?$basic_streambuf@DU?$char_traits@D@std@@@std@@IAEXXZ 2002ad90 f i g_main.obj
 0001:00029e00       ?_Lock@?$basic_streambuf@DU?$char_traits@D@std@@@std@@UAEXXZ 2002ae00 f i g_main.obj
 0001:00029e10       ?_Osfx@?$basic_ostream@DU?$char_traits@D@std@@@std@@QAEXXZ 2002ae10 f i g_main.obj
 0001:00029f10       ?_Throw_bad_array_new_length@std@@YAXXZ 2002af10 f i g_main.obj
 0001:00029f40       ?_Unlock@?$basic_streambuf@DU?$char_traits@D@std@@@std@@UAEXXZ 2002af40 f i g_main.obj
 0001:00029f50       ?_Xlen_string@std@@YAXXZ   2002af50 f i g_main.obj
 0001:00029f60       ?bani_clearmapxp@@YAXXZ    2002af60 f   g_main.obj
 0001:00029fe0       ?bani_getmapxp@@YAXXZ      2002afe0 f   g_main.obj
 0001:0002a210       ?bani_storemapxp@@YAXXZ    2002b210 f   g_main.obj
 0001:0002a500       ?clear@ios_base@std@@QAEXH_N@Z 2002b500 f i g_main.obj
 0001:0002a590       ?deallocate@?$allocator@D@std@@QAEXQADI@Z 2002b590 f i g_main.obj
 0001:0002a5e0       ?default_error_condition@error_category@std@@UBE?AVerror_condition@2@H@Z 2002b5e0 f i g_main.obj
 0001:0002a600       ?do_narrow@?$ctype@D@std@@MBEDDD@Z 2002b600 f i g_main.obj
 0001:0002a610       ?do_narrow@?$ctype@D@std@@MBEPBDPBD0DPAD@Z 2002b610 f i g_main.obj
 0001:0002a640       ?do_tolower@?$ctype@D@std@@MBEDD@Z 2002b640 f i g_main.obj
 0001:0002a660       ?do_tolower@?$ctype@D@std@@MBEPBDPADPBD@Z 2002b660 f i g_main.obj
 0001:0002a6a0       ?do_toupper@?$ctype@D@std@@MBEDD@Z 2002b6a0 f i g_main.obj
 0001:0002a6c0       ?do_toupper@?$ctype@D@std@@MBEPBDPADPBD@Z 2002b6c0 f i g_main.obj
 0001:0002a700       ?do_widen@?$ctype@D@std@@MBEDD@Z 2002b700 f i g_main.obj
 0001:0002a710       ?do_widen@?$ctype@D@std@@MBEPBDPBD0PAD@Z 2002b710 f i g_main.obj
 0001:0002a740       ?equivalent@error_category@std@@UBE_NABVerror_code@2@H@Z 2002b740 f i g_main.obj
 0001:0002a770       ?equivalent@error_category@std@@UBE_NHABVerror_condition@2@@Z 2002b770 f i g_main.obj
 0001:0002a7c0       ?etpro_PlayerInfo@@YAXXZ   2002b7c0 f   g_main.obj
 0001:0002a870       ?flush@?$basic_ostream@DU?$char_traits@D@std@@@std@@QAEAAV12@XZ 2002b870 f i g_main.obj
 0001:0002aa10       ?imbue@?$basic_streambuf@DU?$char_traits@D@std@@@std@@MAEXABVlocale@2@@Z 2002ba10 f i g_main.obj
 0001:0002aa20       ?make_error_code@std@@YA?AVerror_code@1@W4io_errc@1@@Z 2002ba20 f i g_main.obj
 0001:0002aa40       ?message@_Iostream_error_category2@std@@UBE?AV?$basic_string@DU?$char_traits@D@std@@V?$allocator@D@2@@2@H@Z 2002ba40 f i g_main.obj
 0001:0002ab20       ?name@_Iostream_error_category2@std@@UBEPBDXZ 2002bb20 f i g_main.obj
 0001:0002ab30       ?overflow@?$basic_streambuf@DU?$char_traits@D@std@@@std@@MAEHH@Z 2002bb30 f i g_main.obj
 0001:0002ab40       ?overflow@?$basic_stringbuf@DU?$char_traits@D@std@@V?$allocator@D@2@@std@@MAEHH@Z 2002bb40 f i g_main.obj
 0001:0002ad40       ?pbackfail@?$basic_streambuf@DU?$char_traits@D@std@@@std@@MAEHH@Z 2002bd40 f i g_main.obj
 0001:0002ad50       ?pbackfail@?$basic_stringbuf@DU?$char_traits@D@std@@V?$allocator@D@2@@std@@MAEHH@Z 2002bd50 f i g_main.obj
 0001:0002adc0       ?put@?$basic_ostream@DU?$char_traits@D@std@@@std@@QAEAAV12@D@Z 2002bdc0 f i g_main.obj
 0001:0002b000       ?seekoff@?$basic_streambuf@DU?$char_traits@D@std@@@std@@MAE?AV?$fpos@U_Mbstatet@@@2@_JHH@Z 2002c000 f i g_main.obj
 0001:0002b040       ?seekoff@?$basic_stringbuf@DU?$char_traits@D@std@@V?$allocator@D@2@@std@@MAE?AV?$fpos@U_Mbstatet@@@2@_JHH@Z 2002c040 f i g_main.obj
 0001:0002b290       ?seekpos@?$basic_streambuf@DU?$char_traits@D@std@@@std@@MAE?AV?$fpos@U_Mbstatet@@@2@V32@H@Z 2002c290 f i g_main.obj
 0001:0002b2d0       ?seekpos@?$basic_stringbuf@DU?$char_traits@D@std@@V?$allocator@D@2@@std@@MAE?AV?$fpos@U_Mbstatet@@@2@V32@H@Z 2002c2d0 f i g_main.obj
 0001:0002b480       ?setbuf@?$basic_streambuf@DU?$char_traits@D@std@@@std@@MAEPAV12@PAD_J@Z 2002c480 f i g_main.obj
 0001:0002b490       ?setstate@?$basic_ios@DU?$char_traits@D@std@@@std@@QAEXH_N@Z 2002c490 f i g_main.obj
 0001:0002b4c0       ?showmanyc@?$basic_streambuf@DU?$char_traits@D@std@@@std@@MAE_JXZ 2002c4c0 f i g_main.obj
 0001:0002b4d0       ?str@?$basic_stringbuf@DU?$char_traits@D@std@@V?$allocator@D@2@@std@@QBE?AV?$basic_string@DU?$char_traits@D@std@@V?$allocator@D@2@@2@XZ 2002c4d0 f i g_main.obj
 0001:0002b690       ?strcut@@YAPADPAD0H@Z      2002c690 f   g_main.obj
 0001:0002b6e0       ?sync@?$basic_streambuf@DU?$char_traits@D@std@@@std@@MAEHXZ 2002c6e0 f i g_main.obj
 0001:0002b6f0       ?uflow@?$basic_streambuf@DU?$char_traits@D@std@@@std@@MAEHXZ 2002c6f0 f i g_main.obj
 0001:0002b720       ?underflow@?$basic_streambuf@DU?$char_traits@D@std@@@std@@MAEHXZ 2002c720 f i g_main.obj
 0001:0002b730       ?underflow@?$basic_stringbuf@DU?$char_traits@D@std@@V?$allocator@D@2@@std@@MAEHXZ 2002c730 f i g_main.obj
 0001:0002b7b0       ?what@exception@std@@UBEPBDXZ 2002c7b0 f i g_main.obj
 0001:0002b7d0       ?xsgetn@?$basic_streambuf@DU?$char_traits@D@std@@@std@@MAE_JPAD_J@Z 2002c7d0 f i g_main.obj
 0001:0002b8d0       ?xsputn@?$basic_streambuf@DU?$char_traits@D@std@@@std@@MAE_JPBD_J@Z 2002c8d0 f i g_main.obj
 0001:0002b9d0       _vmMain                    2002c9d0 f   g_main.obj
 0001:0002bbf0       ??$_Assign@D@?$basic_string@DU?$char_traits@D@std@@V?$allocator@D@2@@std@@AAEAAV01@QBDI@Z 2002cbf0 f i AbstractBulletModel.obj
 0001:0002bd50       ??$_Float_put_desired_precision@N@std@@YAH_JH@Z 2002cd50 f i AbstractBulletModel.obj
 0001:0002bda0       ??$_Float_put_desired_precision@O@std@@YAH_JH@Z 2002cda0 f i AbstractBulletModel.obj
 0001:0002bdf0       ??$_Fput_v3@$0A@@?$num_put@DV?$ostreambuf_iterator@DU?$char_traits@D@std@@@std@@@std@@ABE?AV?$ostreambuf_iterator@DU?$char_traits@D@std@@@1@V21@AAVios_base@1@DPBDI_N@Z 2002cdf0 f i AbstractBulletModel.obj
 0001:0002c320       ??$_Maklocchr@D@std@@YADDPADABU_Cvtvec@@@Z 2002d320 f i AbstractBulletModel.obj
 0001:0002c330       ??$_Maklocstr@D@std@@YAPADPBDPADABU_Cvtvec@@@Z 2002d330 f i AbstractBulletModel.obj
 0001:0002c390       ??$_Reallocate_grow_by@V<lambda_15711c68e099a15a58f4d77303cb286d>@@D@?$basic_string@DU?$char_traits@D@std@@V?$allocator@D@2@@std@@AAEAAV01@IV<lambda_15711c68e099a15a58f4d77303cb286d>@@D@Z 2002d390 f i AbstractBulletModel.obj
 0001:0002c500       ??$_Reallocate_grow_by@V<lambda_6607a66f2a10a1261ff9db96cba1015b>@@IID@?$basic_string@DU?$char_traits@D@std@@V?$allocator@D@2@@std@@AAEAAV01@IV<lambda_6607a66f2a10a1261ff9db96cba1015b>@@IID@Z 2002d500 f i AbstractBulletModel.obj
 0001:0002c6c0       ??$_Reallocate_grow_by@V<lambda_c1b8c41cb4019640539cfd828748c4d4>@@ID@?$basic_string@DU?$char_traits@D@std@@V?$allocator@D@2@@std@@AAEAAV01@IV<lambda_c1b8c41cb4019640539cfd828748c4d4>@@ID@Z 2002d6c0 f i AbstractBulletModel.obj
 0001:0002c860       ??$use_facet@V?$num_put@DV?$ostreambuf_iterator@DU?$char_traits@D@std@@@std@@@std@@@std@@YAABV?$num_put@DV?$ostreambuf_iterator@DU?$char_traits@D@std@@@std@@@0@ABVlocale@0@@Z 2002d860 f i AbstractBulletModel.obj
 0001:0002ca20       ??$use_facet@V?$numpunct@D@std@@@std@@YAABV?$numpunct@D@0@ABVlocale@0@@Z 2002da20 f i AbstractBulletModel.obj
 0001:0002ccb0       ??0?$basic_string@DU?$char_traits@D@std@@V?$allocator@D@2@@std@@QAE@ABV01@@Z 2002dcb0 f i AbstractBulletModel.obj
 0001:0002cdc0       ??0?$basic_string@DU?$char_traits@D@std@@V?$allocator@D@2@@std@@QAE@ID@Z 2002ddc0 f i AbstractBulletModel.obj
 0001:0002cee0       ??0?$basic_string@DU?$char_traits@D@std@@V?$allocator@D@2@@std@@QAE@U_String_constructor_concat_tag@1@AAV01@1@Z 2002dee0 f i AbstractBulletModel.obj
 0001:0002d110       ??0AbstractBulletModel@@IAE@W4type_t@0@AAVClient@@_N@Z 2002e110 f   AbstractBulletModel.obj
 0001:0002d660       ??1?$_Alloc_construct_ptr@V?$allocator@U?$_List_node@PAVAbstractBulletVolume@@PAX@std@@@std@@@std@@QAE@XZ 2002e660 f i AbstractBulletModel.obj
 0001:0002d680       ??1?$_Tidy_guard@V?$numpunct@D@std@@@std@@QAE@XZ 2002e680 f i AbstractBulletModel.obj
 0001:0002d6b0       ??1?$list@PAVAbstractBulletVolume@@V?$allocator@PAVAbstractBulletVolume@@@std@@@std@@QAE@XZ 2002e6b0 f i AbstractBulletModel.obj
 0001:0002d700       ??1?$num_put@DV?$ostreambuf_iterator@DU?$char_traits@D@std@@@std@@@std@@MAE@XZ 2002e700 f i AbstractBulletModel.obj
 0001:0002d710       ??1?$numpunct@D@std@@MAE@XZ 2002e710 f i AbstractBulletModel.obj
 0001:0002d750       ??1AbstractBulletModel@@UAE@XZ 2002e750 f   AbstractBulletModel.obj
 0001:0002d850       ??2?$NewAllocator@VAbstractBulletModel@@@@SAPAXI@Z 2002e850 f i AbstractBulletModel.obj
 0001:0002d890       ??3?$NewAllocator@VAbstractBulletModel@@@@SAXPAXI@Z 2002e890 f i AbstractBulletModel.obj
 0001:0002d8c0       ??6?$basic_ostream@DU?$char_traits@D@std@@@std@@QAEAAV01@H@Z 2002e8c0 f i AbstractBulletModel.obj
 0001:0002db30       ??6?$basic_ostream@DU?$char_traits@D@std@@@std@@QAEAAV01@PBX@Z 2002eb30 f i AbstractBulletModel.obj
 0001:0002dda0       ??_DLogger@@QAEXXZ         2002eda0 f i AbstractBulletModel.obj
 0001:0002de00       ??_E?$num_put@DV?$ostreambuf_iterator@DU?$char_traits@D@std@@@std@@@std@@MAEPAXI@Z 2002ee00 f i AbstractBulletModel.obj
 0001:0002de00       ??_G?$num_put@DV?$ostreambuf_iterator@DU?$char_traits@D@std@@@std@@@std@@MAEPAXI@Z 2002ee00 f i AbstractBulletModel.obj
 0001:0002de30       ??_E?$numpunct@D@std@@MAEPAXI@Z 2002ee30 f i AbstractBulletModel.obj
 0001:0002de30       ??_G?$numpunct@D@std@@MAEPAXI@Z 2002ee30 f i AbstractBulletModel.obj
 0001:0002de90       ??_EAbstractBulletModel@@UAEPAXI@Z 2002ee90 f i AbstractBulletModel.obj
 0001:0002de90       ??_GAbstractBulletModel@@UAEPAXI@Z 2002ee90 f i AbstractBulletModel.obj
 0001:0002dee0       ?_Ffmt@?$num_put@DV?$ostreambuf_iterator@DU?$char_traits@D@std@@@std@@@std@@ABAPADPADDH@Z 2002eee0 f i AbstractBulletModel.obj
 0001:0002dfe0       ?_Iput@?$num_put@DV?$ostreambuf_iterator@DU?$char_traits@D@std@@@std@@@std@@ABA?AV?$ostreambuf_iterator@DU?$char_traits@D@std@@@2@V32@AAVios_base@2@DPADI@Z 2002efe0 f i AbstractBulletModel.obj
 0001:0002e490       ?_Put@?$num_put@DV?$ostreambuf_iterator@DU?$char_traits@D@std@@@std@@@std@@ABA?AV?$ostreambuf_iterator@DU?$char_traits@D@std@@@2@V32@PBDI@Z 2002f490 f i AbstractBulletModel.obj
 0001:0002e520       ?_Rep@?$num_put@DV?$ostreambuf_iterator@DU?$char_traits@D@std@@@std@@@std@@ABA?AV?$ostreambuf_iterator@DU?$char_traits@D@std@@@2@V32@DI@Z 2002f520 f i AbstractBulletModel.obj
 0001:0002e5a0       ?_Tidy@?$basic_stringbuf@DU?$char_traits@D@std@@V?$allocator@D@2@@std@@IAEXXZ 2002f5a0 f i AbstractBulletModel.obj
 0001:0002e6a0       ?_Tidy_deallocate@?$basic_string@DU?$char_traits@D@std@@V?$allocator@D@2@@std@@AAEXXZ 2002f6a0 f i AbstractBulletModel.obj
 0001:0002e700       ?_Xran@?$_String_val@U?$_Simple_types@D@std@@@std@@SAXXZ 2002f700 f i AbstractBulletModel.obj
 0001:0002e710       ?__empty_global_delete@@YAXPAX@Z 2002f710 f i AbstractBulletModel.obj
 0001:0002e720       ?__empty_global_delete@@YAXPAXI@Z 2002f720 f i AbstractBulletModel.obj
 0001:0002e720       ?__global_delete@@YAXPAXI@Z 2002f720 f i AbstractBulletModel.obj
 0001:0002e730       ?append@?$basic_string@DU?$char_traits@D@std@@V?$allocator@D@2@@std@@QAEAAV12@ABV12@@Z 2002f730 f i AbstractBulletModel.obj
 0001:0002e7c0       ?append@?$basic_string@DU?$char_traits@D@std@@V?$allocator@D@2@@std@@QAEAAV12@QBD@Z 2002f7c0 f i AbstractBulletModel.obj
 0001:0002e850       ?cvarTrail@AbstractBulletModel@@SAXAAVCvar@cvar@@@Z 2002f850 f   AbstractBulletModel.obj
 0001:0002e890       ?do_decimal_point@?$numpunct@D@std@@MBEDXZ 2002f890 f i AbstractBulletModel.obj
 0001:0002e8a0       ?do_falsename@?$numpunct@D@std@@MBE?AV?$basic_string@DU?$char_traits@D@std@@V?$allocator@D@2@@2@XZ 2002f8a0 f i AbstractBulletModel.obj
 0001:0002e900       ?do_grouping@?$numpunct@D@std@@MBE?AV?$basic_string@DU?$char_traits@D@std@@V?$allocator@D@2@@2@XZ 2002f900 f i AbstractBulletModel.obj
 0001:0002e960       ?do_put@?$num_put@DV?$ostreambuf_iterator@DU?$char_traits@D@std@@@std@@@std@@MBE?AV?$ostreambuf_iterator@DU?$char_traits@D@std@@@2@V32@AAVios_base@2@DJ@Z 2002f960 f i AbstractBulletModel.obj
 0001:0002ea30       ?do_put@?$num_put@DV?$ostreambuf_iterator@DU?$char_traits@D@std@@@std@@@std@@MBE?AV?$ostreambuf_iterator@DU?$char_traits@D@std@@@2@V32@AAVios_base@2@DK@Z 2002fa30 f i AbstractBulletModel.obj
 0001:0002eb00       ?do_put@?$num_put@DV?$ostreambuf_iterator@DU?$char_traits@D@std@@@std@@@std@@MBE?AV?$ostreambuf_iterator@DU?$char_traits@D@std@@@2@V32@AAVios_base@2@DN@Z 2002fb00 f i AbstractBulletModel.obj
 0001:0002ed20       ?do_put@?$num_put@DV?$ostreambuf_iterator@DU?$char_traits@D@std@@@std@@@std@@MBE?AV?$ostreambuf_iterator@DU?$char_traits@D@std@@@2@V32@AAVios_base@2@DO@Z 2002fd20 f i AbstractBulletModel.obj
 0001:0002ef40       ?do_put@?$num_put@DV?$ostreambuf_iterator@DU?$char_traits@D@std@@@std@@@std@@MBE?AV?$ostreambuf_iterator@DU?$char_traits@D@std@@@2@V32@AAVios_base@2@DPBX@Z 2002ff40 f i AbstractBulletModel.obj
 0001:0002efa0       ?do_put@?$num_put@DV?$ostreambuf_iterator@DU?$char_traits@D@std@@@std@@@std@@MBE?AV?$ostreambuf_iterator@DU?$char_traits@D@std@@@2@V32@AAVios_base@2@D_J@Z 2002ffa0 f i AbstractBulletModel.obj
 0001:0002f080       ?do_put@?$num_put@DV?$ostreambuf_iterator@DU?$char_traits@D@std@@@std@@@std@@MBE?AV?$ostreambuf_iterator@DU?$char_traits@D@std@@@2@V32@AAVios_base@2@D_K@Z 20030080 f i AbstractBulletModel.obj
 0001:0002f160       ?do_put@?$num_put@DV?$ostreambuf_iterator@DU?$char_traits@D@std@@@std@@@std@@MBE?AV?$ostreambuf_iterator@DU?$char_traits@D@std@@@2@V32@AAVios_base@2@D_N@Z 20030160 f i AbstractBulletModel.obj
 0001:0002f3d0       ?do_thousands_sep@?$numpunct@D@std@@MBEDXZ 200303d0 f i AbstractBulletModel.obj
 0001:0002f3e0       ?do_truename@?$numpunct@D@std@@MBE?AV?$basic_string@DU?$char_traits@D@std@@V?$allocator@D@2@@2@XZ 200303e0 f i AbstractBulletModel.obj
 0001:0002f440       ?factory@AbstractBulletModel@@SA_NAAPAV1@AAVClient@@W4type_t@1@_N@Z 20030440 f   AbstractBulletModel.obj
 0001:0002f5a0       ?firePlayer@AbstractBulletModel@@QAEXAAVTraceContext@@@Z 200305a0 f   AbstractBulletModel.obj
 0001:0002f5e0       ?fireWorld@AbstractBulletModel@@SA_NAAVTraceContext@@@Z 200305e0 f   AbstractBulletModel.obj
 0001:0002f6b0       ?fireWorldAtomic@AbstractBulletModel@@CA_NAAVTraceContext@@_N@Z 200306b0 f   AbstractBulletModel.obj
 0001:0002fc50       ?registerBulletVolume@AbstractBulletModel@@QAEXAAVAbstractBulletVolume@@@Z 20030c50 f   AbstractBulletModel.obj
 0001:0002fcf0       ?resize@?$basic_string@DU?$char_traits@D@std@@V?$allocator@D@2@@std@@QAEXID@Z 20030cf0 f i AbstractBulletModel.obj
 0001:0002fd80       ?run@AbstractBulletModel@@QAEXXZ 20030d80 f   AbstractBulletModel.obj
 0001:0002fe40       ?str@?$basic_ostringstream@DU?$char_traits@D@std@@V?$allocator@D@2@@std@@QBE?AV?$basic_string@DU?$char_traits@D@std@@V?$allocator@D@2@@2@XZ 20030e40 f i AbstractBulletModel.obj
 0001:0002ff30       ?toString@AbstractBulletModel@@SA?AV?$basic_string@DU?$char_traits@D@std@@V?$allocator@D@2@@std@@W4dflags_t@1@@Z 20030f30 f   AbstractBulletModel.obj
 0001:00030000       ?toString@AbstractBulletModel@@SA?AV?$basic_string@DU?$char_traits@D@std@@V?$allocator@D@2@@std@@W4type_t@1@@Z 20031000 f   AbstractBulletModel.obj
 0001:000300d0       ?toString@AbstractBulletModel@@SAAAV?$basic_string@DU?$char_traits@D@std@@V?$allocator@D@2@@std@@W4dflags_t@1@AAV23@@Z 200310d0 f   AbstractBulletModel.obj
 0001:000305f0       ?toString@AbstractBulletModel@@SAAAV?$basic_string@DU?$char_traits@D@std@@V?$allocator@D@2@@std@@W4type_t@1@AAV23@@Z 200315f0 f   AbstractBulletModel.obj
 0001:00030750       ?updateVisibility@AbstractBulletModel@@AAEXXZ 20031750 f   AbstractBulletModel.obj
 0001:000307d0       ___local_stdio_printf_options 200317d0 f i AbstractBulletModel.obj
 0001:000307e0       _sprintf_s                 200317e0 f i AbstractBulletModel.obj
 0001:00030820       ??$_Construct_in_place_by_deref@PAPAVAbstractBulletVolume@@PAPAPAV1@@std@@YAXAAPAPAVAbstractBulletVolume@@AAPAPAPAV1@@Z 20031820 f i AbstractBulletVolume.obj
 0001:00030840       ??$_Copy_memmove@PAPAPAVAbstractBulletVolume@@PAPAPAV1@@std@@YAPAPAPAVAbstractBulletVolume@@PAPAPAV1@00@Z 20031840 f i AbstractBulletVolume.obj
 0001:00030870       ??$_Copy_memmove_tail@PAPAPAVAbstractBulletVolume@@@std@@YAPAPAPAVAbstractBulletVolume@@QBDQAPAPAV1@II@Z 20031870 f i AbstractBulletVolume.obj
 0001:000308a0       ??$_Uninitialized_copy_unchecked@PAPAPAVAbstractBulletVolume@@PAPAPAV1@@std@@YAPAPAPAVAbstractBulletVolume@@PAPAPAV1@QAPAPAV1@0@Z 200318a0 f i AbstractBulletVolume.obj
 0001:000308b0       ??$_Uninitialized_value_construct_n_unchecked1@PAPAPAVAbstractBulletVolume@@I@std@@YAPAPAPAVAbstractBulletVolume@@PAPAPAV1@I@Z 200318b0 f i AbstractBulletVolume.obj
 0001:000308d0       ??$_Zero_range@PAPAPAVAbstractBulletVolume@@@std@@YAPAPAPAVAbstractBulletVolume@@QAPAPAV1@0@Z 200318d0 f i AbstractBulletVolume.obj
 0001:00030900       ??$uninitialized_copy@PAPAPAVAbstractBulletVolume@@PAPAPAV1@@std@@YAPAPAPAVAbstractBulletVolume@@QAPAPAV1@0PAPAPAV1@@Z 20031900 f i AbstractBulletVolume.obj
 0001:00030910       ??0AbstractBulletVolume@@IAE@W4type_t@0@W4entityType_t@@AAVAbstractBulletModel@@_N@Z 20031910 f   AbstractBulletVolume.obj
 0001:00030a00       ??1?$deque@PAVAbstractBulletVolume@@V?$allocator@PAVAbstractBulletVolume@@@std@@@std@@QAE@XZ 20031a00 f i AbstractBulletVolume.obj
 0001:00030ad0       ??1AbstractBulletVolume@@UAE@XZ 20031ad0 f   AbstractBulletVolume.obj
 0001:00030b30       ??_EAbstractBulletVolume@@UAEPAXI@Z 20031b30 f i AbstractBulletVolume.obj
 0001:00030b30       ??_GAbstractBulletVolume@@UAEPAXI@Z 20031b30 f i AbstractBulletVolume.obj
 0001:00030b60       ?_Growmap@?$deque@PAVAbstractBulletVolume@@V?$allocator@PAVAbstractBulletVolume@@@std@@@std@@AAEXI@Z 20031b60 f i AbstractBulletVolume.obj
 0001:00030d20       ?_Xlen@?$deque@PAVAbstractBulletVolume@@V?$allocator@PAVAbstractBulletVolume@@@std@@@std@@CAXXZ 20031d20 f i AbstractBulletVolume.obj
 0001:00030d30       ?entityAlloc@AbstractBulletVolume@@QAEXXZ 20031d30 f   AbstractBulletVolume.obj
 0001:00030e50       ?entityCompute@AbstractBulletVolume@@QAEXXZ 20031e50 f   AbstractBulletVolume.obj
 0001:00031040       ?entityFree@AbstractBulletVolume@@QAEXXZ 20032040 f   AbstractBulletVolume.obj
 0001:00031120       ?factory@AbstractBulletVolume@@SA_NAAPAV1@W4type_t@1@AAVAbstractBulletModel@@_N@Z 20032120 f   AbstractBulletVolume.obj
 0001:00031200       ?fire@AbstractBulletVolume@@QAEXAAVTraceContext@@@Z 20032200 f   AbstractBulletVolume.obj
 0001:000314f0       ?toString@AbstractBulletVolume@@SA?AV?$basic_string@DU?$char_traits@D@std@@V?$allocator@D@2@@std@@W4type_t@1@@Z 200324f0 f   AbstractBulletVolume.obj
 0001:000315c0       ?toString@AbstractBulletVolume@@SAAAV?$basic_string@DU?$char_traits@D@std@@V?$allocator@D@2@@std@@W4type_t@1@AAV23@@Z 200325c0 f   AbstractBulletVolume.obj
 0001:000318f0       ??0AbstractHitModel@@IAE@W4type_t@0@AAVClient@@W4vitality_t@0@@Z 200328f0 f   AbstractHitModel.obj
 0001:00031eb0       ??1?$_Alloc_construct_ptr@V?$allocator@U?$_List_node@PAVAbstractHitModel@@PAX@std@@@std@@@std@@QAE@XZ 20032eb0 f i AbstractHitModel.obj
 0001:00031ed0       ??1?$_Alloc_construct_ptr@V?$allocator@U?$_List_node@PAVAbstractHitVolume@@PAX@std@@@std@@@std@@QAE@XZ 20032ed0 f i AbstractHitModel.obj
 0001:00031ef0       ??1?$list@PAVAbstractHitModel@@V?$allocator@PAVAbstractHitModel@@@std@@@std@@QAE@XZ 20032ef0 f i AbstractHitModel.obj
 0001:00031f40       ??1?$list@PAVAbstractHitVolume@@V?$allocator@PAVAbstractHitVolume@@@std@@@std@@QAE@XZ 20032f40 f i AbstractHitModel.obj
 0001:00031f90       ??1AbstractHitModel@@UAE@XZ 20032f90 f   AbstractHitModel.obj
 0001:00032120       ??2?$NewAllocator@VAbstractHitModel@@@@SAPAXI@Z 20033120 f i AbstractHitModel.obj
 0001:00032160       ??3?$NewAllocator@VAbstractHitModel@@@@SAXPAXI@Z 20033160 f i AbstractHitModel.obj
 0001:00032190       ??4AbstractHitModel@@UAEAAV0@ABV0@@Z 20033190 f   AbstractHitModel.obj
 0001:000321d0       ??_EAbstractHitModel@@UAEPAXI@Z 200331d0 f i AbstractHitModel.obj
 0001:000321d0       ??_GAbstractHitModel@@UAEPAXI@Z 200331d0 f i AbstractHitModel.obj
 0001:00032220       ?_Xran@?$bitset@$0EA@@std@@CAXXZ 20033220 f i AbstractHitModel.obj
 0001:00032230       ?cvarAntilag@AbstractHitModel@@SAXAAVCvar@cvar@@@Z 20033230 f   AbstractHitModel.obj
 0001:00032290       ?cvarAntilagLerp@AbstractHitModel@@SAXAAVCvar@cvar@@@Z 20033290 f   AbstractHitModel.obj
 0001:000322d0       ?cvarFat@AbstractHitModel@@SAXAAVCvar@cvar@@@Z 200332d0 f   AbstractHitModel.obj
 0001:00032330       ?cvarGhosting@AbstractHitModel@@SAXAAVCvar@cvar@@@Z 20033330 f   AbstractHitModel.obj
 0001:00032380       ?cvarZone@AbstractHitModel@@SAXAAVCvar@cvar@@@Z 20033380 f   AbstractHitModel.obj
 0001:000323b0       ?doTracePlayer@AbstractHitModel@@MAEPAVAbstractHitVolume@@AAVTraceContext@@@Z 200333b0 f   AbstractHitModel.obj
 0001:000324a0       ?factory@AbstractHitModel@@SA_NAAPAV1@AAVClient@@W4type_t@1@W4vitality_t@1@@Z 200334a0 f   AbstractHitModel.obj
 0001:00032760       ?ghostCleanup@AbstractHitModel@@SAXXZ 20033760 f   AbstractHitModel.obj
 0001:000327a0       ?ghostPrune@AbstractHitModel@@SAXXZ 200337a0 f   AbstractHitModel.obj
 0001:00032820       ?lerp@AbstractHitModel@@AAEXAAV1@M@Z 20033820 f   AbstractHitModel.obj
 0001:000328b0       ?recordHit@AbstractHitModel@@AAEXW4zone_t@AbstractHitVolume@@@Z 200338b0 f   AbstractHitModel.obj
 0001:000328f0       ?registerHitVolume@AbstractHitModel@@QAEXAAVAbstractHitVolume@@@Z 200338f0 f   AbstractHitModel.obj
 0001:00032990       ?run@AbstractHitModel@@QAEXXZ 20033990 f   AbstractHitModel.obj
 0001:00032b20       ?snapshot@AbstractHitModel@@AAEXXZ 20033b20 f   AbstractHitModel.obj
 0001:00032bf0       ?snapshotPrune@AbstractHitModel@@AAEXXZ 20033bf0 f   AbstractHitModel.obj
 0001:00032c70       ?toString@AbstractHitModel@@SA?AV?$basic_string@DU?$char_traits@D@std@@V?$allocator@D@2@@std@@W4dflags_t@1@@Z 20033c70 f   AbstractHitModel.obj
 0001:00032d40       ?toString@AbstractHitModel@@SA?AV?$basic_string@DU?$char_traits@D@std@@V?$allocator@D@2@@std@@W4type_t@1@@Z 20033d40 f   AbstractHitModel.obj
 0001:00032e10       ?toString@AbstractHitModel@@SA?AV?$basic_string@DU?$char_traits@D@std@@V?$allocator@D@2@@std@@W4vitality_t@1@@Z 20033e10 f   AbstractHitModel.obj
 0001:00032ee0       ?toString@AbstractHitModel@@SAAAV?$basic_string@DU?$char_traits@D@std@@V?$allocator@D@2@@std@@W4dflags_t@1@AAV23@@Z 20033ee0 f   AbstractHitModel.obj
 0001:000336e0       ?toString@AbstractHitModel@@SAAAV?$basic_string@DU?$char_traits@D@std@@V?$allocator@D@2@@std@@W4type_t@1@AAV23@@Z 200346e0 f   AbstractHitModel.obj
 0001:00033950       ?toString@AbstractHitModel@@SAAAV?$basic_string@DU?$char_traits@D@std@@V?$allocator@D@2@@std@@W4vitality_t@1@AAV23@@Z 20034950 f   AbstractHitModel.obj
 0001:00033ab0       ?tracePlayer@AbstractHitModel@@QAE_NAAVTraceContext@@@Z 20034ab0 f   AbstractHitModel.obj
 0001:00033ff0       ?tracePlayerBegin@AbstractHitModel@@AAEXAAVTraceContext@@@Z 20034ff0 f   AbstractHitModel.obj
 0001:00034e90       ?tracePlayerEnd@AbstractHitModel@@AAEXAAVTraceContext@@@Z 20035e90 f   AbstractHitModel.obj
 0001:00034f60       ?traceWorld@AbstractHitModel@@SA_NAAVTraceContext@@@Z 20035f60 f   AbstractHitModel.obj
 0001:00035380       ?updateVisibility@AbstractHitModel@@AAEXXZ 20036380 f   AbstractHitModel.obj
 0001:000354a0       ?volumeForZone@AbstractHitModel@@AAEPAVAbstractHitVolume@@W4zone_t@2@@Z 200364a0 f   AbstractHitModel.obj
 0001:000354e0       ??0AbstractHitVolume@@IAE@W4type_t@0@W4zone_t@0@W4entityType_t@@AAVAbstractHitModel@@W4scope_t@0@@Z 200364e0 f   AbstractHitVolume.obj
 0001:00035550       ??1AbstractHitVolume@@UAE@XZ 20036550 f   AbstractHitVolume.obj
 0001:000355a0       ??4AbstractHitVolume@@UAEAAV0@ABV0@@Z 200365a0 f   AbstractHitVolume.obj
 0001:000355f0       ??_EAbstractHitVolume@@UAEPAXI@Z 200365f0 f i AbstractHitVolume.obj
 0001:000355f0       ??_GAbstractHitVolume@@UAEPAXI@Z 200365f0 f i AbstractHitVolume.obj
 0001:00035690       ?entityAlloc@AbstractHitVolume@@QAEXXZ 20036690 f   AbstractHitVolume.obj
 0001:00035770       ?entityCompute@AbstractHitVolume@@QAEXXZ 20036770 f   AbstractHitVolume.obj
 0001:00035790       ?entityFree@AbstractHitVolume@@QAEXXZ 20036790 f   AbstractHitVolume.obj
 0001:00035800       ?expand@AbstractHitVolume@@QAEXABV1@@Z 20036800 f   AbstractHitVolume.obj
 0001:000358a0       ?lerp@AbstractHitVolume@@QAEXAAV1@M@Z 200368a0 f   AbstractHitVolume.obj
 0001:00035900       ?recordHit@AbstractHitVolume@@QAEXXZ 20036900 f   AbstractHitVolume.obj
 0001:00035920       ?set@AbstractHitVolume@@QAEXW4hitVolumeFlags_t@@@Z 20036920 f   AbstractHitVolume.obj
 0001:00035930       ?set@AbstractHitVolume@@QAEXW4hitVolumeFlags_t@@_N@Z 20036930 f   AbstractHitVolume.obj
 0001:00035960       ?toString@AbstractHitVolume@@SA?AV?$basic_string@DU?$char_traits@D@std@@V?$allocator@D@2@@std@@W4scope_t@1@@Z 20036960 f   AbstractHitVolume.obj
 0001:00035a30       ?toString@AbstractHitVolume@@SA?AV?$basic_string@DU?$char_traits@D@std@@V?$allocator@D@2@@std@@W4type_t@1@@Z 20036a30 f   AbstractHitVolume.obj
 0001:00035b00       ?toString@AbstractHitVolume@@SA?AV?$basic_string@DU?$char_traits@D@std@@V?$allocator@D@2@@std@@W4zone_t@1@@Z 20036b00 f   AbstractHitVolume.obj
 0001:00035bd0       ?toString@AbstractHitVolume@@SAAAV?$basic_string@DU?$char_traits@D@std@@V?$allocator@D@2@@std@@W4scope_t@1@AAV23@@Z 20036bd0 f   AbstractHitVolume.obj
 0001:00035d20       ?toString@AbstractHitVolume@@SAAAV?$basic_string@DU?$char_traits@D@std@@V?$allocator@D@2@@std@@W4type_t@1@AAV23@@Z 20036d20 f   AbstractHitVolume.obj
 0001:00035f30       ?toString@AbstractHitVolume@@SAAAV?$basic_string@DU?$char_traits@D@std@@V?$allocator@D@2@@std@@W4zone_t@1@AAV23@@Z 20036f30 f   AbstractHitVolume.obj
 0001:00036bd0       ?unset@AbstractHitVolume@@QAEXW4hitVolumeFlags_t@@@Z 20037bd0 f   AbstractHitVolume.obj
 0001:00036bf0       ??$?6DU?$char_traits@D@std@@V?$allocator@D@1@@std@@YAAAV?$basic_ostream@DU?$char_traits@D@std@@@0@AAV10@ABV?$basic_string@DU?$char_traits@D@std@@V?$allocator@D@2@@0@@Z 20037bf0 f i AbstractStateHitModel.obj
 0001:00036c20       ??$_Insert_string@DU?$char_traits@D@std@@I@std@@YAAAV?$basic_ostream@DU?$char_traits@D@std@@@0@AAV10@QBDI@Z 20037c20 f i AbstractStateHitModel.obj
 0001:00036f40       ??0AbstractStateHitModel@@IAE@W4type_t@AbstractHitModel@@AAVClient@@W4vitality_t@2@@Z 20037f40 f   AbstractStateHitModel.obj
 0001:00037000       ??1AbstractStateHitModel@@UAE@XZ 20038000 f   AbstractStateHitModel.obj
 0001:00037040       ??4AbstractStateHitModel@@QAEAAV0@ABV0@@Z 20038040 f   AbstractStateHitModel.obj
 0001:000370b0       ??_EAbstractStateHitModel@@UAEPAXI@Z 200380b0 f i AbstractStateHitModel.obj
 0001:000370b0       ??_GAbstractStateHitModel@@UAEPAXI@Z 200380b0 f i AbstractStateHitModel.obj
 0001:00037100       ?doRun@AbstractStateHitModel@@MAEXXZ 20038100 f   AbstractStateHitModel.obj
 0001:000372b0       ?doTracePlayer@AbstractStateHitModel@@MAEPAVAbstractHitVolume@@AAVTraceContext@@@Z 200382b0 f   AbstractStateHitModel.obj
 0001:00037360       ?toString@AbstractStateHitModel@@SA?AV?$basic_string@DU?$char_traits@D@std@@V?$allocator@D@2@@std@@W4state_t@1@@Z 20038360 f   AbstractStateHitModel.obj
 0001:00037430       ?toString@AbstractStateHitModel@@SAAAV?$basic_string@DU?$char_traits@D@std@@V?$allocator@D@2@@std@@W4state_t@1@AAV23@@Z 20038430 f   AbstractStateHitModel.obj
 0001:00037820       ??$?6U?$char_traits@D@std@@@std@@YAAAV?$basic_ostream@DU?$char_traits@D@std@@@0@AAV10@D@Z 20038820 f i AdminLog.obj
 0001:00037bc0       ??$?9DU?$char_traits@D@std@@V?$allocator@D@1@@std@@YA_NABV?$basic_string@DU?$char_traits@D@std@@V?$allocator@D@2@@0@0@Z 20038bc0 f i AdminLog.obj
 0001:00037c90       ??$_Fputc@D@std@@YA_NDPAU_iobuf@@@Z 20038c90 f i AdminLog.obj
 0001:00037cc0       ??$setfill@D@std@@YA?AU?$_Fillobj@D@0@D@Z 20038cc0 f i AdminLog.obj
 0001:00037cd0       ??$use_facet@V?$codecvt@DDU_Mbstatet@@@std@@@std@@YAABV?$codecvt@DDU_Mbstatet@@@0@ABVlocale@0@@Z 20038cd0 f i AdminLog.obj
 0001:00037e90       ??0?$basic_streambuf@DU?$char_traits@D@std@@@std@@IAE@XZ 20038e90 f i AdminLog.obj
 0001:00037f80       ??0AdminLog@@QAE@XZ        20038f80 f   AdminLog.obj
 0001:00038110       ??1?$basic_filebuf@DU?$char_traits@D@std@@@std@@UAE@XZ 20039110 f i AdminLog.obj
 0001:000381d0       ??1?$basic_ofstream@DU?$char_traits@D@std@@@std@@UAE@XZ 200391d0 f i AdminLog.obj
 0001:00038230       ??1?$codecvt@DDU_Mbstatet@@@std@@MAE@XZ 20039230 f i AdminLog.obj
 0001:00038240       ??1AdminLog@@QAE@XZ        20039240 f   AdminLog.obj
 0001:00038300       ??_D?$basic_ofstream@DU?$char_traits@D@std@@@std@@QAEXXZ 20039300 f i AdminLog.obj
 0001:000383a5       ??_E?$basic_ofstream@DU?$char_traits@D@std@@@std@@$4PPPPPPPM@A@AEPAXI@Z 200393a5 f i AdminLog.obj
 0001:000383b0       ??_E?$basic_filebuf@DU?$char_traits@D@std@@@std@@UAEPAXI@Z 200393b0 f i AdminLog.obj
 0001:000383b0       ??_G?$basic_filebuf@DU?$char_traits@D@std@@@std@@UAEPAXI@Z 200393b0 f i AdminLog.obj
 0001:000383e0       ??_E?$basic_ofstream@DU?$char_traits@D@std@@@std@@UAEPAXI@Z 200393e0 f i AdminLog.obj
 0001:000383e0       ??_G?$basic_ofstream@DU?$char_traits@D@std@@@std@@UAEPAXI@Z 200393e0 f i AdminLog.obj
 0001:00038420       ??_E?$codecvt@DDU_Mbstatet@@@std@@MAEPAXI@Z 20039420 f i AdminLog.obj
 0001:00038420       ??_G?$codecvt@DDU_Mbstatet@@@std@@MAEPAXI@Z 20039420 f i AdminLog.obj
 0001:00038450       ??_Ecodecvt_base@std@@UAEPAXI@Z 20039450 f i AdminLog.obj
 0001:00038450       ??_Gcodecvt_base@std@@UAEPAXI@Z 20039450 f i AdminLog.obj
 0001:00038480       ?_Endwrite@?$basic_filebuf@DU?$char_traits@D@std@@@std@@IAE_NXZ 20039480 f i AdminLog.obj
 0001:00038540       ?_Init@?$basic_filebuf@DU?$char_traits@D@std@@@std@@IAEXPAU_iobuf@@W4_Initfl@12@@Z 20039540 f i AdminLog.obj
 0001:00038670       ?_Initcvt@?$basic_filebuf@DU?$char_traits@D@std@@@std@@IAEXABV?$codecvt@DDU_Mbstatet@@@2@@Z 20039670 f i AdminLog.obj
 0001:00038720       ?_Lock@?$basic_filebuf@DU?$char_traits@D@std@@@std@@UAEXXZ 20039720 f i AdminLog.obj
 0001:00038740       ?_Reset_back@?$basic_filebuf@DU?$char_traits@D@std@@@std@@AAEXXZ 20039740 f i AdminLog.obj
 0001:00038770       ?_Unlock@?$basic_filebuf@DU?$char_traits@D@std@@@std@@UAEXXZ 20039770 f i AdminLog.obj
 0001:00038790       ?assign@?$basic_string@DU?$char_traits@D@std@@V?$allocator@D@2@@std@@QAEAAV12@QBDI@Z 20039790 f i AdminLog.obj
 0001:000388f0       ?close@?$basic_filebuf@DU?$char_traits@D@std@@@std@@QAEPAV12@XZ 200398f0 f i AdminLog.obj
 0001:00038a30       ?close@?$basic_ofstream@DU?$char_traits@D@std@@@std@@QAEXXZ 20039a30 f i AdminLog.obj
 0001:00038ae0       ?cvarCallback@AdminLog@@SAXAAVCvar@cvar@@@Z 20039ae0 f   AdminLog.obj
 0001:00038af0       ?do_always_noconv@?$codecvt@DDU_Mbstatet@@@std@@MBE_NXZ 20039af0 f i AdminLog.obj
 0001:00038b00       ?do_always_noconv@codecvt_base@std@@MBE_NXZ 20039b00 f i AdminLog.obj
 0001:00038b10       ?do_encoding@codecvt_base@std@@MBEHXZ 20039b10 f i AdminLog.obj
 0001:00038b20       ?do_in@?$codecvt@DDU_Mbstatet@@@std@@MBEHAAU_Mbstatet@@PBD1AAPBDPAD3AAPAD@Z 20039b20 f i AdminLog.obj
 0001:00038b50       ?do_length@?$codecvt@DDU_Mbstatet@@@std@@MBEHAAU_Mbstatet@@PBD1I@Z 20039b50 f i AdminLog.obj
 0001:00038b70       ?do_max_length@codecvt_base@std@@MBEHXZ 20039b70 f i AdminLog.obj
 0001:00038b80       ?do_out@?$codecvt@DDU_Mbstatet@@@std@@MBEHAAU_Mbstatet@@PBD1AAPBDPAD3AAPAD@Z 20039b80 f i AdminLog.obj
 0001:00038bb0       ?do_unshift@?$codecvt@DDU_Mbstatet@@@std@@MBEHAAU_Mbstatet@@PAD1AAPAD@Z 20039bb0 f i AdminLog.obj
 0001:00038bd0       ?imbue@?$basic_filebuf@DU?$char_traits@D@std@@@std@@MAEXABVlocale@2@@Z 20039bd0 f i AdminLog.obj
 0001:00038c00       ?init@AdminLog@@QAEXXZ     20039c00 f   AdminLog.obj
 0001:00038c10       ?log@AdminLog@@QAEXPAVClient@@ABV?$vector@V?$basic_string@DU?$char_traits@D@std@@V?$allocator@D@2@@std@@V?$allocator@V?$basic_string@DU?$char_traits@D@std@@V?$allocator@D@2@@std@@@2@@std@@_N@Z 20039c10 f   AdminLog.obj
 0001:00038ff0       ?open@?$basic_ofstream@DU?$char_traits@D@std@@@std@@QAEXPBDHH@Z 20039ff0 f i AdminLog.obj
 0001:000391b0       ?overflow@?$basic_filebuf@DU?$char_traits@D@std@@@std@@MAEHH@Z 2003a1b0 f i AdminLog.obj
 0001:00039340       ?pbackfail@?$basic_filebuf@DU?$char_traits@D@std@@@std@@MAEHH@Z 2003a340 f i AdminLog.obj
 0001:00039420       ?recompute@AdminLog@@QAEXXZ 2003a420 f   AdminLog.obj
 0001:000397e0       ?seekoff@?$basic_filebuf@DU?$char_traits@D@std@@@std@@MAE?AV?$fpos@U_Mbstatet@@@2@_JHH@Z 2003a7e0 f i AdminLog.obj
 0001:000398f0       ?seekpos@?$basic_filebuf@DU?$char_traits@D@std@@@std@@MAE?AV?$fpos@U_Mbstatet@@@2@V32@H@Z 2003a8f0 f i AdminLog.obj
 0001:000399f0       ?setbuf@?$basic_filebuf@DU?$char_traits@D@std@@@std@@MAEPAV?$basic_streambuf@DU?$char_traits@D@std@@@2@PAD_J@Z 2003a9f0 f i AdminLog.obj
 0001:00039a60       ?sync@?$basic_filebuf@DU?$char_traits@D@std@@@std@@MAEHXZ 2003aa60 f i AdminLog.obj
 0001:00039aa0       ?uflow@?$basic_filebuf@DU?$char_traits@D@std@@@std@@MAEHXZ 2003aaa0 f i AdminLog.obj
 0001:00039db0       ?underflow@?$basic_filebuf@DU?$char_traits@D@std@@@std@@MAEHXZ 2003adb0 f i AdminLog.obj
 0001:00039e00       ?xsgetn@?$basic_filebuf@DU?$char_traits@D@std@@@std@@MAE_JPAD_J@Z 2003ae00 f i AdminLog.obj
 0001:0003a070       ?xsputn@?$basic_filebuf@DU?$char_traits@D@std@@@std@@MAE_JPBD_J@Z 2003b070 f i AdminLog.obj
 0001:0003a280       ??0AdvancedHitModel@@QAE@AAVClient@@W4vitality_t@AbstractHitModel@@@Z 2003b280 f   AdvancedHitModel.obj
 0001:0003a3c0       ??1AdvancedHitModel@@UAE@XZ 2003b3c0 f   AdvancedHitModel.obj
 0001:0003a460       ??4AdvancedHitModel@@QAEAAV0@ABV0@@Z 2003b460 f   AdvancedHitModel.obj
 0001:0003a550       ??_EAdvancedHitModel@@UAEPAXI@Z 2003b550 f i AdvancedHitModel.obj
 0001:0003a550       ??_GAdvancedHitModel@@UAEPAXI@Z 2003b550 f i AdvancedHitModel.obj
 0001:0003a630       ?doRun@AdvancedHitModel@@MAEXXZ 2003b630 f   AdvancedHitModel.obj
 0001:0003b050       ?doSnapshot@AdvancedHitModel@@MAEPAV1@XZ 2003c050 f   AdvancedHitModel.obj
 0001:0003b0e0       ??0?$basic_string@DU?$char_traits@D@std@@V?$allocator@D@2@@std@@QAE@QBD@Z 2003c0e0 f i AlignedCuboidHV.obj
 0001:0003b200       ??0AlignedCuboidHV@@QAE@W4zone_t@AbstractHitVolume@@AAVAbstractHitModel@@W4scope_t@2@@Z 2003c200 f   AlignedCuboidHV.obj
 0001:0003b240       ??1AlignedCuboidHV@@UAE@XZ 2003c240 f   AlignedCuboidHV.obj
 0001:0003b250       ??_EAlignedCuboidHV@@UAEPAXI@Z 2003c250 f i AlignedCuboidHV.obj
 0001:0003b250       ??_GAlignedCuboidHV@@UAEPAXI@Z 2003c250 f i AlignedCuboidHV.obj
 0001:0003b280       ?castRay@AlignedCuboidHV@@UAE_NAAVTraceContext@@AAY02MAAM@Z 2003c280 f   AlignedCuboidHV.obj
 0001:0003b820       ?castRayPlane@AlignedCuboidHV@@IAE_NAAVTraceContext@@QAMAAMABV?$basic_string@DU?$char_traits@D@std@@V?$allocator@D@2@@std@@PAY02MHH@Z 2003c820 f   AlignedCuboidHV.obj
 0001:0003cb50       ?doEntityCompute@AlignedCuboidHV@@MAEXXZ 2003db50 f   AlignedCuboidHV.obj
 0001:0003ccd0       ??0BasicHitModel@@QAE@AAVClient@@W4vitality_t@AbstractHitModel@@@Z 2003dcd0 f   BasicHitModel.obj
 0001:0003cd10       ??1BasicHitModel@@UAE@XZ   2003dd10 f   BasicHitModel.obj
 0001:0003cd20       ??4BasicHitModel@@QAEAAV0@ABV0@@Z 2003dd20 f   BasicHitModel.obj
 0001:0003cd50       ??_EBasicHitModel@@UAEPAXI@Z 2003dd50 f i BasicHitModel.obj
 0001:0003cd50       ??_GBasicHitModel@@UAEPAXI@Z 2003dd50 f i BasicHitModel.obj
 0001:0003cda0       ?doSnapshot@BasicHitModel@@MAEPAV1@XZ 2003dda0 f   BasicHitModel.obj
 0001:0003ce30       ?doState@BasicHitModel@@MAEXXZ 2003de30 f   BasicHitModel.obj
 0001:0003cea0       ?doStateRun@BasicHitModel@@MAEXXZ 2003dea0 f   BasicHitModel.obj
 0001:0003d4b0       ??$?5DU?$char_traits@D@std@@V?$allocator@D@1@@std@@YAAAV?$basic_istream@DU?$char_traits@D@std@@@0@AAV10@AAV?$basic_string@DU?$char_traits@D@std@@V?$allocator@D@2@@0@@Z 2003e4b0 f i CensorDB.obj
 0001:0003d7b0       ??$?MDU?$char_traits@D@std@@V?$allocator@D@1@@std@@YA_NABV?$basic_string@DU?$char_traits@D@std@@V?$allocator@D@2@@0@0@Z 2003e7b0 f i CensorDB.obj
 0001:0003d880       ??$_Erase_tree@V?$allocator@U?$_Tree_node@V?$basic_string@DU?$char_traits@D@std@@V?$allocator@D@2@@std@@PAX@std@@@std@@@?$_Tree_val@U?$_Tree_simple_types@V?$basic_string@DU?$char_traits@D@std@@V?$allocator@D@2@@std@@@std@@@std@@QAEXAAV?$allocator@U?$_Tree_node@V?$basic_string@DU?$char_traits@D@std@@V?$allocator@D@2@@std@@PAX@std@@@1@PAU?$_Tree_node@V?$basic_string@DU?$char_traits@D@std@@V?$allocator@D@2@@std@@PAX@1@@Z 2003e880 f i CensorDB.obj
 0001:0003d940       ??$_Find_lower_bound@V?$basic_string@DU?$char_traits@D@std@@V?$allocator@D@2@@std@@@?$_Tree@V?$_Tset_traits@V?$basic_string@DU?$char_traits@D@std@@V?$allocator@D@2@@std@@U?$less@V?$basic_string@DU?$char_traits@D@std@@V?$allocator@D@2@@std@@@2@V?$allocator@V?$basic_string@DU?$char_traits@D@std@@V?$allocator@D@2@@std@@@2@$0A@@std@@@std@@IBE?AU?$_Tree_find_result@PAU?$_Tree_node@V?$basic_string@DU?$char_traits@D@std@@V?$allocator@D@2@@std@@PAX@std@@@1@ABV?$basic_string@DU?$char_traits@D@std@@V?$allocator@D@2@@1@@Z 2003e940 f i CensorDB.obj
 0001:0003d9b0       ??0CensorDB@@QAE@XZ        2003e9b0 f   CensorDB.obj
 0001:0003db90       ??1?$_Alloc_construct_ptr@V?$allocator@U?$_Tree_node@V?$basic_string@DU?$char_traits@D@std@@V?$allocator@D@2@@std@@PAX@std@@@std@@@std@@QAE@XZ 2003eb90 f i CensorDB.obj
 0001:0003dbb0       ??1?$_Tree_temp_node_alloc@V?$allocator@U?$_Tree_node@V?$basic_string@DU?$char_traits@D@std@@V?$allocator@D@2@@std@@PAX@std@@@std@@@std@@QAE@XZ 2003ebb0 f i CensorDB.obj
 0001:0003dbd0       ??1?$basic_ifstream@DU?$char_traits@D@std@@@std@@UAE@XZ 2003ebd0 f i CensorDB.obj
 0001:0003dc30       ??1?$basic_istream@DU?$char_traits@D@std@@@std@@UAE@XZ 2003ec30 f i CensorDB.obj
 0001:0003dc60       ??1CensorDB@@QAE@XZ        2003ec60 f   CensorDB.obj
 0001:0003dca0       ??1_Sentry_base@?$basic_istream@DU?$char_traits@D@std@@@std@@QAE@XZ 2003eca0 f i CensorDB.obj
 0001:0003dcf0       ??1sentry@?$basic_istream@DU?$char_traits@D@std@@@std@@QAE@XZ 2003ecf0 f i CensorDB.obj
 0001:0003dd50       ??_D?$basic_ifstream@DU?$char_traits@D@std@@@std@@QAEXXZ 2003ed50 f i CensorDB.obj
 0001:0003ddf5       ??_E?$basic_ifstream@DU?$char_traits@D@std@@@std@@$4PPPPPPPM@A@AEPAXI@Z 2003edf5 f i CensorDB.obj
 0001:0003ddff       ??_E?$basic_istream@DU?$char_traits@D@std@@@std@@$4PPPPPPPM@A@AEPAXI@Z 2003edff f i CensorDB.obj
 0001:0003de10       ??_E?$basic_ifstream@DU?$char_traits@D@std@@@std@@UAEPAXI@Z 2003ee10 f i CensorDB.obj
 0001:0003de10       ??_G?$basic_ifstream@DU?$char_traits@D@std@@@std@@UAEPAXI@Z 2003ee10 f i CensorDB.obj
 0001:0003de50       ??_E?$basic_istream@DU?$char_traits@D@std@@@std@@UAEPAXI@Z 2003ee50 f i CensorDB.obj
 0001:0003de50       ??_G?$basic_istream@DU?$char_traits@D@std@@@std@@UAEPAXI@Z 2003ee50 f i CensorDB.obj
 0001:0003def0       ?_Insert_node@?$_Tree_val@U?$_Tree_simple_types@V?$basic_string@DU?$char_traits@D@std@@V?$allocator@D@2@@std@@@std@@@std@@QAEPAU?$_Tree_node@V?$basic_string@DU?$char_traits@D@std@@V?$allocator@D@2@@std@@PAX@2@U?$_Tree_id@PAU?$_Tree_node@V?$basic_string@DU?$char_traits@D@std@@V?$allocator@D@2@@std@@PAX@std@@@2@QAU32@@Z 2003eef0 f i CensorDB.obj
 0001:0003e160       ?_Ipfx@?$basic_istream@DU?$char_traits@D@std@@@std@@QAE_N_N@Z 2003f160 f i CensorDB.obj
 0001:0003e410       ?_Throw_tree_length_error@std@@YAXXZ 2003f410 f i CensorDB.obj
 0001:0003e420       ?close@CensorDB@@AAEXXZ    2003f420 f   CensorDB.obj
 0001:0003e510       ?filter@CensorDB@@QAE_NAAV?$basic_string@DU?$char_traits@D@std@@V?$allocator@D@2@@std@@@Z 2003f510 f   CensorDB.obj
 0001:0003e9f0       ?filterWord@CensorDB@@AAE_NAAV?$basic_string@DU?$char_traits@D@std@@V?$allocator@D@2@@std@@@Z 2003f9f0 f   CensorDB.obj
 0001:0003ec90       ?init@?$basic_ios@DU?$char_traits@D@std@@@std@@IAEXPAV?$basic_streambuf@DU?$char_traits@D@std@@@2@_N@Z 2003fc90 f i CensorDB.obj
 0001:0003ee60       ?isAlphaNum@CensorDB@@AAE_ND@Z 2003fe60 f   CensorDB.obj
 0001:0003eea0       ?load@CensorDB@@QAEXXZ     2003fea0 f   CensorDB.obj
 0001:0003f0b0       ?open@?$basic_ifstream@DU?$char_traits@D@std@@@std@@QAEXPBDHH@Z 200400b0 f i CensorDB.obj
 0001:0003f270       ?open@CensorDB@@AAE_NXZ    20040270 f   CensorDB.obj
 0001:0003f8d0       ?sanitize@CensorDB@@AAEXAAV?$basic_string@DU?$char_traits@D@std@@V?$allocator@D@2@@std@@_N@Z 200408d0 f   CensorDB.obj
 0001:0003fac0       ?snextc@?$basic_streambuf@DU?$char_traits@D@std@@@std@@QAEHXZ 20040ac0 f i CensorDB.obj
 0001:0003fb50       ??0?$basic_stringbuf@DU?$char_traits@D@std@@V?$allocator@D@2@@std@@QAE@XZ 20040b50 f i Client.obj
 0001:0003fc60       ??0Client@@QAE@XZ          20040c60 f   Client.obj
 0001:0003fe20       ??0bad_cast@std@@QAE@XZ    20040e20 f i Client.obj
 0001:0003fe40       ??1Client@@QAE@XZ          20040e40 f   Client.obj
 0001:0003ff80       ??_D?$basic_ostream@DU?$char_traits@D@std@@@std@@QAEXXZ 20040f80 f i Client.obj
 0001:00040100       ?_Getcat@?$ctype@D@std@@SAIPAPBVfacet@locale@2@PBV42@@Z 20041100 f i Client.obj
 0001:00040340       ?_Throw_bad_cast@std@@YAXXZ 20041340 f i Client.obj
 0001:00040370       ?addStats@Client@@QAEXW4zone_t@AbstractHitVolume@@H@Z 20041370 f   Client.obj
 0001:000404c0       ?calculateKnockback@Client@@AAEHHQAM@Z 200414c0 f   Client.obj
 0001:000405d0       ?greeting@Client@@QAEXXZ   200415d0 f   Client.obj
 0001:00040920       ?headshotAllowed@Client@@AAE_NH@Z 20041920 f   Client.obj
 0001:00040940       ?init@Client@@QAEXXZ       20041940 f   Client.obj
 0001:00040a50       ?isReconcileSafe@Client@@QAE_NXZ 20041a50 f   Client.obj
 0001:00040aa0       ?isVisibleTarget@Client@@QAE_NXZ 20041aa0 f   Client.obj
 0001:00040af0       ?notifyBegin@Client@@QAEXXZ 20041af0 f   Client.obj
 0001:00040b10       ?notifyConnecting@Client@@QAEX_N@Z 20041b10 f   Client.obj
 0001:00040bb0       ?notifyNameChanged@Client@@QAEXXZ 20041bb0 f   Client.obj
 0001:00040bc0       ?recordHit@Client@@QAEXW4zone_t@AbstractHitVolume@@_N@Z 20041bc0 f   Client.obj
 0001:00040c90       ?reset@Client@@QAEXXZ      20041c90 f   Client.obj
 0001:00040cb0       ?run@Client@@QAEXXZ        20041cb0 f   Client.obj
 0001:00040d90       ?shutdown@Client@@QAEXXZ   20041d90 f   Client.obj
 0001:00040de0       ?str@?$basic_stringbuf@DU?$char_traits@D@std@@V?$allocator@D@2@@std@@QAEXABV?$basic_string@DU?$char_traits@D@std@@V?$allocator@D@2@@2@@Z 20041de0 f i Client.obj
 0001:00041120       ?takeBulletDamageFrom@Client@@QAEXABVTraceContext@@AAV1@H_NH@Z 20042120 f   Client.obj
 0001:00041d60       ?think@Client@@QAEXXZ      20042d60 f   Client.obj
 0001:00041d70       ?xpBackup@Client@@QAEXXZ   20042d70 f   Client.obj
 0001:00041e50       ?xpReset@Client@@QAEXXZ    20042e50 f   Client.obj
 0001:000420d0       ?xpRestore@Client@@QAEXXZ  200430d0 f   Client.obj
 0001:000422f0       ?xprint@Client@@QAEXABVBuffer@text@@@Z 200432f0 f   Client.obj
 0001:000423c0       ??$_Erase_tree@V?$allocator@U?$_Tree_node@U?$pair@$$CBV?$basic_string@DU?$char_traits@D@std@@V?$allocator@D@2@@std@@V12@@std@@PAX@std@@@std@@@?$_Tree_val@U?$_Tree_simple_types@U?$pair@$$CBV?$basic_string@DU?$char_traits@D@std@@V?$allocator@D@2@@std@@V12@@std@@@std@@@std@@QAEXAAV?$allocator@U?$_Tree_node@U?$pair@$$CBV?$basic_string@DU?$char_traits@D@std@@V?$allocator@D@2@@std@@V12@@std@@PAX@std@@@1@PAU?$_Tree_node@U?$pair@$$CBV?$basic_string@DU?$char_traits@D@std@@V?$allocator@D@2@@std@@V12@@std@@PAX@1@@Z 200433c0 f i Database.obj
 0001:00042420       ??0Database@@IAE@ABV?$basic_string@DU?$char_traits@D@std@@V?$allocator@D@2@@std@@0@Z 20043420 f   Database.obj
 0001:00042670       ??1?$_Alloc_construct_ptr@V?$allocator@U?$_Tree_node@U?$pair@$$CBV?$basic_string@DU?$char_traits@D@std@@V?$allocator@D@2@@std@@V12@@std@@PAX@std@@@std@@@std@@QAE@XZ 20043670 f i Database.obj
 0001:00042690       ??1?$_Tree_temp_node_alloc@V?$allocator@U?$_Tree_node@U?$pair@$$CBV?$basic_string@DU?$char_traits@D@std@@V?$allocator@D@2@@std@@V12@@std@@PAX@std@@@std@@@std@@QAE@XZ 20043690 f i Database.obj
 0001:000426b0       ??1?$basic_fstream@DU?$char_traits@D@std@@@std@@UAE@XZ 200436b0 f i Database.obj
 0001:00042750       ??1?$basic_iostream@DU?$char_traits@D@std@@@std@@UAE@XZ 20043750 f i Database.obj
 0001:000427c0       ??1?$pair@$$CBV?$basic_string@DU?$char_traits@D@std@@V?$allocator@D@2@@std@@V12@@std@@QAE@XZ 200437c0 f i Database.obj
 0001:00042880       ??1Database@@UAE@XZ        20043880 f   Database.obj
 0001:000429b0       ??6?$basic_ostream@DU?$char_traits@D@std@@@std@@QAEAAV01@_K@Z 200439b0 f i Database.obj
 0001:00042c20       ??A?$map@V?$basic_string@DU?$char_traits@D@std@@V?$allocator@D@2@@std@@V12@U?$less@V?$basic_string@DU?$char_traits@D@std@@V?$allocator@D@2@@std@@@2@V?$allocator@U?$pair@$$CBV?$basic_string@DU?$char_traits@D@std@@V?$allocator@D@2@@std@@V12@@std@@@2@@std@@QAEAAV?$basic_string@DU?$char_traits@D@std@@V?$allocator@D@2@@1@ABV21@@Z 20043c20 f i Database.obj
 0001:00042d90       ??_D?$basic_fstream@DU?$char_traits@D@std@@@std@@QAEXXZ 20043d90 f i Database.obj
 0001:00042e76       ??_E?$basic_fstream@DU?$char_traits@D@std@@@std@@$4PPPPPPPM@A@AEPAXI@Z 20043e76 f i Database.obj
 0001:00042e80       ??_E?$basic_iostream@DU?$char_traits@D@std@@@std@@$4PPPPPPPM@A@AEPAXI@Z 20043e80 f i Database.obj
 0001:00042e90       ??_E?$basic_fstream@DU?$char_traits@D@std@@@std@@UAEPAXI@Z 20043e90 f i Database.obj
 0001:00042e90       ??_G?$basic_fstream@DU?$char_traits@D@std@@@std@@UAEPAXI@Z 20043e90 f i Database.obj
 0001:00042ed0       ??_E?$basic_iostream@DU?$char_traits@D@std@@@std@@UAEPAXI@Z 20043ed0 f i Database.obj
 0001:00042ed0       ??_G?$basic_iostream@DU?$char_traits@D@std@@@std@@UAEPAXI@Z 20043ed0 f i Database.obj
 0001:00042fb0       ??_EDatabase@@UAEPAXI@Z    20043fb0 f i Database.obj
 0001:00042fb0       ??_GDatabase@@UAEPAXI@Z    20043fb0 f i Database.obj
 0001:00042fe0       ?_Insert_node@?$_Tree_val@U?$_Tree_simple_types@U?$pair@$$CBV?$basic_string@DU?$char_traits@D@std@@V?$allocator@D@2@@std@@V12@@std@@@std@@@std@@QAEPAU?$_Tree_node@U?$pair@$$CBV?$basic_string@DU?$char_traits@D@std@@V?$allocator@D@2@@std@@V12@@std@@PAX@2@U?$_Tree_id@PAU?$_Tree_node@U?$pair@$$CBV?$basic_string@DU?$char_traits@D@std@@V?$allocator@D@2@@std@@V12@@std@@PAX@std@@@2@QAU32@@Z 20043fe0 f i Database.obj
 0001:00043250       ?close@Database@@IAEXXZ    20044250 f   Database.obj
 0001:00043340       ?get@?$basic_istream@DU?$char_traits@D@std@@@std@@QAEHXZ 20044340 f i Database.obj
 0001:00043560       ?logBegin@Database@@IAEX_NABV?$basic_string@DU?$char_traits@D@std@@V?$allocator@D@2@@std@@@Z 20044560 f   Database.obj
 0001:00043780       ?logEnd@Database@@IAEXHABV?$basic_string@DU?$char_traits@D@std@@V?$allocator@D@2@@std@@@Z 20044780 f   Database.obj
 0001:00043a00       ?open@?$basic_fstream@DU?$char_traits@D@std@@@std@@QAEXPBDHH@Z 20044a00 f i Database.obj
 0001:00043bc0       ?open@Database@@IAE_N_NAAV?$basic_string@DU?$char_traits@D@std@@V?$allocator@D@2@@std@@@Z 20044bc0 f   Database.obj
 0001:00043fd0       ?parseData@Database@@IAEXAAV?$map@V?$basic_string@DU?$char_traits@D@std@@V?$allocator@D@2@@std@@V12@U?$less@V?$basic_string@DU?$char_traits@D@std@@V?$allocator@D@2@@std@@@2@V?$allocator@U?$pair@$$CBV?$basic_string@DU?$char_traits@D@std@@V?$allocator@D@2@@std@@V12@@std@@@2@@std@@@Z 20044fd0 f   Database.obj
 0001:000443e0       ?parsePair@Database@@AAE_NAAV?$basic_string@DU?$char_traits@D@std@@V?$allocator@D@2@@std@@0@Z 200453e0 f   Database.obj
 0001:00044890       ??$_Erase_tree@V?$allocator@U?$_Tree_node@HPAX@std@@@std@@@?$_Tree_val@U?$_Tree_simple_types@H@std@@@std@@QAEXAAV?$allocator@U?$_Tree_node@HPAX@std@@@1@PAU?$_Tree_node@HPAX@1@@Z 20045890 f i Entity.obj
 0001:000448e0       ??$_Erase_tree@V?$allocator@U?$_Tree_node@U?$pair@$$CBEM@std@@PAX@std@@@std@@@?$_Tree_val@U?$_Tree_simple_types@U?$pair@$$CBEM@std@@@std@@@std@@QAEXAAV?$allocator@U?$_Tree_node@U?$pair@$$CBEM@std@@PAX@std@@@1@PAU?$_Tree_node@U?$pair@$$CBEM@std@@PAX@1@@Z 200458e0 f i Entity.obj
 0001:00044930       ??0Entity@@QAE@XZ          20045930 f   Entity.obj
 0001:00044a00       ??1?$_Tree@V?$_Tmap_traits@EMU?$less@E@std@@V?$allocator@U?$pair@$$CBEM@std@@@2@$0A@@std@@@std@@QAE@XZ 20045a00 f i Entity.obj
 0001:00044a50       ??1?$_Tree@V?$_Tset_traits@HU?$less@H@std@@V?$allocator@H@2@$0A@@std@@@std@@QAE@XZ 20045a50 f i Entity.obj
 0001:00044aa0       ??1?$map@EMU?$less@E@std@@V?$allocator@U?$pair@$$CBEM@std@@@2@@std@@QAE@XZ 20045aa0 f i Entity.obj
 0001:00044ab0       ??1Entity@@QAE@XZ          20045ab0 f   Entity.obj
 0001:00044ad0       ?init@Entity@@QAEXXZ       20045ad0 f   Entity.obj
 0001:00044ae0       ?shutdown@Entity@@QAEXXZ   20045ae0 f   Entity.obj
 0001:00044af0       ??0EntityBulletModel@@QAE@AAVClient@@_N@Z 20045af0 f   EntityBulletModel.obj
 0001:00044b60       ??1EntityBulletModel@@UAE@XZ 20045b60 f   EntityBulletModel.obj
 0001:00044b90       ??_EEntityBulletModel@@UAEPAXI@Z 20045b90 f i EntityBulletModel.obj
 0001:00044b90       ??_GEntityBulletModel@@UAEPAXI@Z 20045b90 f i EntityBulletModel.obj
 0001:00044be0       ?adjustStartPoint@EntityBulletModel@@MAEXQAM@Z 20045be0 f   EntityBulletModel.obj
 0001:00044c30       ??0EntityHitModel@@QAE@AAVClient@@W4vitality_t@AbstractHitModel@@@Z 20045c30 f   EntityHitModel.obj
 0001:00044cb0       ??1EntityHitModel@@UAE@XZ  20045cb0 f   EntityHitModel.obj
 0001:00044ce0       ??4EntityHitModel@@QAEAAV0@ABV0@@Z 20045ce0 f   EntityHitModel.obj
 0001:00044d20       ??_EEntityHitModel@@UAEPAXI@Z 20045d20 f i EntityHitModel.obj
 0001:00044d20       ??_GEntityHitModel@@UAEPAXI@Z 20045d20 f i EntityHitModel.obj
 0001:00044d70       ?doRun@EntityHitModel@@MAEXXZ 20045d70 f   EntityHitModel.obj
 0001:00044ed0       ?doSnapshot@EntityHitModel@@MAEPAV1@XZ 20045ed0 f   EntityHitModel.obj
 0001:00044f60       ??0EtmainBulletModel@@QAE@AAVClient@@_N@Z 20045f60 f   EtmainBulletModel.obj
 0001:00044fd0       ??1EtmainBulletModel@@UAE@XZ 20045fd0 f   EtmainBulletModel.obj
 0001:00045000       ??_EEtmainBulletModel@@UAEPAXI@Z 20046000 f i EtmainBulletModel.obj
 0001:00045000       ??_GEtmainBulletModel@@UAEPAXI@Z 20046000 f i EtmainBulletModel.obj
 0001:00045050       ?adjustStartPoint@EtmainBulletModel@@MAEXQAM@Z 20046050 f   EtmainBulletModel.obj
 0001:00045060       ??0EtmainHitModel@@QAE@AAVClient@@W4vitality_t@AbstractHitModel@@@Z 20046060 f   EtmainHitModel.obj
 0001:00045090       ??1EtmainHitModel@@UAE@XZ  20046090 f   EtmainHitModel.obj
 0001:000450a0       ??4EtmainHitModel@@QAEAAV0@ABV0@@Z 200460a0 f   EtmainHitModel.obj
 0001:000450c0       ??_EEtmainHitModel@@UAEPAXI@Z 200460c0 f i EtmainHitModel.obj
 0001:000450c0       ??_GEtmainHitModel@@UAEPAXI@Z 200460c0 f i EtmainHitModel.obj
 0001:00045110       ?doSnapshot@EtmainHitModel@@MAEPAV1@XZ 20046110 f   EtmainHitModel.obj
 0001:000451a0       ?doState@EtmainHitModel@@MAEXXZ 200461a0 f   EtmainHitModel.obj
 0001:00045240       ?doStateRun@EtmainHitModel@@MAEXXZ 20046240 f   EtmainHitModel.obj
 0001:00045e30       ?mdx_PlayerAngles@@YAXPAUgentity_s@@QAM11W4qboolean@@@Z 20046e30 f   etpro_mdx.obj
 0001:00046440       ?mdx_PlayerAnimation@@YAXPAUgentity_s@@@Z 20047440 f   etpro_mdx.obj
 0001:00046e80       ?mdx_advanced_positions@@YAXAAUgentity_s@@AAUgrefEntity_t@@PAY02MPAUorientation_t@@@Z 20047e80 f   etpro_mdx.obj
 0001:00047780       ?mdx_calculate_bones_single@@YAXPAUgrefEntity_t@@H@Z 20048780 f   etpro_mdx.obj
 0001:00047850       ?mdx_cleanup@@YAXXZ        20048850 f   etpro_mdx.obj
 0001:000479c0       ?mdx_gentity_to_grefEntity@@YAXPAUgentity_s@@PAUgrefEntity_t@@H@Z 200489c0 f   etpro_mdx.obj
 0001:00047bd0       ?mdx_head_position@@YAXPAUgentity_s@@PAUgrefEntity_t@@QAM@Z 20048bd0 f   etpro_mdx.obj
 0001:00047e50       ?mdx_legs_position@@YAXPAUgentity_s@@PAUgrefEntity_t@@QAM@Z 20048e50 f   etpro_mdx.obj
 0001:000485c0       ?mdx_weapon_positions@@YAXAAUgentity_s@@AAUgrefEntity_t@@PAY02MPAUorientation_t@@@Z 200495c0 f   etpro_mdx.obj
 0001:00048630       ?trap_R_LerpTag@@YAHPAUorientation_t@@PAUgrefEntity_t@@PBDH@Z 20049630 f   etpro_mdx.obj
 0001:00048670       ?trap_R_LerpTagNumber@@YAHPAUorientation_t@@PAUgrefEntity_t@@H@Z 20049670 f   etpro_mdx.obj
 0001:00048780       ?trap_R_LookupTag@@YAHPAUgrefEntity_t@@PBD@Z 20049780 f   etpro_mdx.obj
 0001:000487c0       ?trap_R_RegisterModel@@YAHPBD@Z 200497c0 f   etpro_mdx.obj
 0001:00048ba0       ?onKill@Ach@@YAXPAUgentity_s@@0H@Z 20049ba0 f   g_achievements.obj
 0001:00048df0       ?onLevelInit@Ach@@YAXXZ    20049df0 f   g_achievements.obj
 0001:00048e00       ?onSpawn@Ach@@YAXH@Z       20049e00 f   g_achievements.obj
 0001:00048e40       ?onStat@Ach@@YAXH@Z        20049e40 f   g_achievements.obj
 0001:00049190       ??1?$_Alloc_construct_ptr@V?$allocator@U?$_List_node@Uusercmd_s@@PAX@std@@@std@@@std@@QAE@XZ 2004a190 f i g_active.obj
 0001:000491b0       ?ClientEndFrame@@YAXPAUgentity_s@@@Z 2004a1b0 f   g_active.obj
 0001:000496a0       ?ClientEvents@@YAXPAUgentity_s@@H@Z 2004a6a0 f   g_active.obj
 0001:000498a0       ?ClientImpacts@@YAXPAUgentity_s@@PAUpmove_t@@@Z 2004a8a0 f   g_active.obj
 0001:000499c0       ?ClientInactivityTimer@@YA?AW4qboolean@@PAUgclient_s@@@Z 2004a9c0 f   g_active.obj
 0001:00049c70       ?ClientIntermissionThink@@YAXPAUgclient_s@@@Z 2004ac70 f   g_active.obj
 0001:00049cd0       ?ClientNeedsAmmo@@YA?AW4qboolean@@H@Z 2004acd0 f   g_active.obj
 0001:00049d00       ?ClientThink@@YAXH@Z       2004ad00 f   g_active.obj
 0001:00049da0       ?ClientThink_cmd@@YAXHPAUusercmd_s@@_N@Z 2004ada0 f   g_active.obj
 0001:00049e40       ?ClientThink_real@@YAXPAUgentity_s@@_N@Z 2004ae40 f   g_active.obj
 0001:0004abe0       ?ClientTimerActions@@YAXPAUgentity_s@@H@Z 2004bbe0 f   g_active.obj
 0001:0004ad50       ?ClientTimerRegenCarryOver@@YAXPAUgentity_s@@H@Z 2004bd50 f   g_active.obj
 0001:0004ae60       ?G_AddUsercmd@@YAXHPAUusercmd_s@@@Z 2004be60 f   g_active.obj
 0001:0004af30       ?G_AllowAntiwarp@@YA_NH@Z  2004bf30 f   g_active.obj
 0001:0004b5c0       ?G_RunClient@@YAXPAUgentity_s@@@Z 2004c5c0 f   g_active.obj
 0001:0004b640       ?G_SetClientSound@@YAXPAUgentity_s@@@Z 2004c640 f   g_active.obj
 0001:0004b660       ?G_TouchTriggers@@YAXPAUgentity_s@@@Z 2004c660 f   g_active.obj
 0001:0004b8e0       ?P_DamageFeedback@@YAXPAUgentity_s@@@Z 2004c8e0 f   g_active.obj
 0001:0004bab0       ?P_WorldEffects@@YAXPAUgentity_s@@@Z 2004cab0 f   g_active.obj
 0001:0004bcd0       ?PushBot@@YAXPAUgentity_s@@0@Z 2004ccd0 f   g_active.obj
 0001:0004c040       ?ReadyToCallArtillery@@YA?AW4qboolean@@PAUgentity_s@@@Z 2004d040 f   g_active.obj
 0001:0004c0d0       ?ReadyToConstruct@@YA?AW4qboolean@@PAUgentity_s@@0W41@@Z 2004d0d0 f   g_active.obj
 0001:0004c1d0       ?SpectatorClientEndFrame@@YAXPAUgentity_s@@@Z 2004d1d0 f   g_active.obj
 0001:0004c630       ?SpectatorThink@@YAXPAUgentity_s@@PAUusercmd_s@@@Z 2004d630 f   g_active.obj
 0001:0004cb00       ?StuckInClient@@YA?AW4qboolean@@PAUgentity_s@@@Z 2004db00 f   g_active.obj
 0001:0004cce0       ?WolfFindKiller@@YAXPAUgentity_s@@@Z 2004dce0 f   g_active.obj
 0001:0004cee0       ?WolfFindMedic@@YAXPAUgentity_s@@@Z 2004dee0 f   g_active.obj
 0001:0004d180       ?WolfReviveBbox@@YAXPAUgentity_s@@@Z 2004e180 f   g_active.obj
 0001:0004d430       ?WolfRevivePushEnt@@YAXPAUgentity_s@@0@Z 2004e430 f   g_active.obj
 0001:0004d5f0       ?pop_front@?$list@Uusercmd_s@@V?$allocator@Uusercmd_s@@@std@@@std@@QAEXXZ 2004e5f0 f i g_active.obj
 0001:0004d620       ?SP_alarm_box@@YAXPAUgentity_s@@@Z 2004e620 f   g_alarm.obj
 0001:0004d7c0       ?alarmbox_die@@YAXPAUgentity_s@@00HH@Z 2004e7c0 f   g_alarm.obj
 0001:0004d810       ?alarmbox_finishspawning@@YAXPAUgentity_s@@@Z 2004e810 f   g_alarm.obj
 0001:0004d850       ?alarmbox_updateparts@@YAXPAUgentity_s@@W4qboolean@@@Z 2004e850 f   g_alarm.obj
 0001:0004d9b0       ?alarmbox_use@@YAXPAUgentity_s@@00@Z 2004e9b0 f   g_alarm.obj
 0001:0004da10       ?G_PredictPlayerClipVelocity@@YAXQAM00@Z 2004ea10 f   g_antilag.obj
 0001:0004dad0       ?G_PredictPlayerMove@@YAXPAUgentity_s@@M@Z 2004ead0 f   g_antilag.obj
 0001:0004db10       ?G_PredictPlayerSlideMove@@YA?AW4qboolean@@PAUgentity_s@@M@Z 2004eb10 f   g_antilag.obj
 0001:0004e260       ?G_PredictPlayerStepSlideMove@@YAXPAUgentity_s@@M@Z 2004f260 f   g_antilag.obj
 0001:0004e540       ?G_PredictPlayerTraceAll@@YAXPAUtrace_t@@QAM1PAUgentity_s@@@Z 2004f540 f   g_antilag.obj
 0001:0004e570       ?G_PredictPlayerTraceAllLegs@@YAXPAUtrace_t@@PAMQAM2PAUgentity_s@@@Z 2004f570 f   g_antilag.obj
 0001:0004e6b0       ?G_PredictPlayerTraceLegs@@YAXPAUtrace_t@@PAMQAM202HH_N@Z 2004f6b0 f   g_antilag.obj
 0001:0004e9e0       ?G_SkipCorrectionSafe@@YA?AW4qboolean@@PAUgentity_s@@@Z 2004f9e0 f   g_antilag.obj
 0001:0004ea70       ?G_RemoveFromAllIgnoreLists@@YAXH@Z 2004fa70 f   g_buddy_list.obj
 0001:0004ef10       ?G_RegisterCharacter@@YA?AW4qboolean@@PBDPAUbg_character_s@@@Z 2004ff10 f   g_character.obj
 0001:0004f010       ?G_RegisterPlayerClasses@@YAXXZ 20050010 f   g_character.obj
 0001:0004f0b0       ?G_UpdateCharacter@@YAXPAUgclient_s@@@Z 200500b0 f   g_character.obj
 0001:0004f250       ??$?6DU?$char_traits@D@std@@@std@@YAAAV?$basic_ostream@DU?$char_traits@D@std@@@0@AAV10@ABU?$_Smanip@_J@0@@Z 20050250 f i g_client.obj
 0001:0004f280       ??$_Traits_equal@U?$char_traits@D@std@@@std@@YA_NQBDI0I@Z 20050280 f i g_client.obj
 0001:0004f320       ??0?$basic_string@DU?$char_traits@D@std@@V?$allocator@D@2@@std@@QAE@$$QAV01@@Z 20050320 f i g_client.obj
 0001:0004f380       ??0?$basic_stringstream@DU?$char_traits@D@std@@V?$allocator@D@2@@std@@QAE@XZ 20050380 f i g_client.obj
 0001:0004f580       ??1?$basic_stringstream@DU?$char_traits@D@std@@V?$allocator@D@2@@std@@UAE@XZ 20050580 f i g_client.obj
 0001:0004f620       ??4?$basic_string@DU?$char_traits@D@std@@V?$allocator@D@2@@std@@QAEAAV01@QBD@Z 20050620 f i g_client.obj
 0001:0004f660       ??_D?$basic_stringstream@DU?$char_traits@D@std@@V?$allocator@D@2@@std@@QAEXXZ 20050660 f i g_client.obj
 0001:0004f746       ??_E?$basic_stringstream@DU?$char_traits@D@std@@V?$allocator@D@2@@std@@$4PPPPPPPM@A@AEPAXI@Z 20050746 f i g_client.obj
 0001:0004f750       ??_E?$basic_stringstream@DU?$char_traits@D@std@@V?$allocator@D@2@@std@@UAEPAXI@Z 20050750 f i g_client.obj
 0001:0004f750       ??_G?$basic_stringstream@DU?$char_traits@D@std@@V?$allocator@D@2@@std@@UAEPAXI@Z 20050750 f i g_client.obj
 0001:0004fa80       ?AddMedicTeamBonus@@YAXPAUgclient_s@@@Z 20050a80 f   g_client.obj
 0001:0004faf0       ?AddWeaponToPlayer@@YA?AW4qboolean@@PAUgclient_s@@W4weapon_t@@HHW41@@Z 20050af0 f   g_client.obj
 0001:0004fb80       ?BodySink2@@YAXPAUgentity_s@@@Z 20050b80 f   g_client.obj
 0001:0004fc10       ?BodySink@@YAXPAUgentity_s@@@Z 20050c10 f   g_client.obj
 0001:0004fc70       ?BodyUnlink@@YAXPAUgentity_s@@@Z 20050c70 f   g_client.obj
 0001:0004fca0       ?ClientBegin@@YAXH@Z       20050ca0 f   g_client.obj
 0001:000502b0       ?ClientConnect@@YA_NAAV?$basic_string@DU?$char_traits@D@std@@V?$allocator@D@2@@std@@HW4qboolean@@1@Z 200512b0 f   g_client.obj
 0001:00051c20       ?ClientDisconnect@@YAXH@Z  20052c20 f   g_client.obj
 0001:00052140       ?ClientSpawn@@YAXPAUgentity_s@@W4qboolean@@@Z 20053140 f   g_client.obj
 0001:00052c20       ?ClientStoreSurfaceFlags@@YAXHH@Z 20053c20 f   g_client.obj
 0001:00052c40       ?ClientUserinfoChanged@@YAXH@Z 20053c40 f   g_client.obj
 0001:00053970       ?CopyToBodyQue@@YAXPAUgentity_s@@@Z 20054970 f   g_client.obj
 0001:00053df0       ?G_AddClassSpecificTools@@YAXPAUgclient_s@@@Z 20054df0 f   g_client.obj
 0001:000541e0       ?G_ComputeMaxLives@@YAHPAUgclient_s@@H@Z 200551e0 f   g_client.obj
 0001:00054280       ?G_CountTeamMedics@@YAHW4team_t@@W4qboolean@@@Z 20055280 f   g_client.obj
 0001:00054320       ?G_IPFloodCheck@@YA_NHV?$basic_string@DU?$char_traits@D@std@@V?$allocator@D@2@@std@@@Z 20055320 f   g_client.obj
 0001:000547f0       ?G_StartPlayerAppropriateSound@@YAXPAUgentity_s@@PAD@Z 200557f0 f   g_client.obj
 0001:00054800       ?InitBodyQue@@YAXXZ        20055800 f   g_client.obj
 0001:00054850       ?PickTeam@@YA?AW4team_t@@H@Z 20055850 f   g_client.obj
 0001:000548b0       ?SP_info_player_checkpoint@@YAXPAUgentity_s@@@Z 200558b0 f   g_client.obj
 0001:000548d0       ?SP_info_player_deathmatch@@YAXPAUgentity_s@@@Z 200558d0 f   g_client.obj
 0001:000549c0       ?SP_info_player_intermission@@YAXPAUgentity_s@@@Z 200559c0 f   g_client.obj
 0001:000549d0       ?SP_info_player_start@@YAXPAUgentity_s@@@Z 200559d0 f   g_client.obj
 0001:000549f0       ?SelectNearestDeathmatchSpawnPoint@@YAPAUgentity_s@@QBM@Z 200559f0 f   g_client.obj
 0001:00054b00       ?SelectRandomDeathmatchSpawnPoint@@YAPAUgentity_s@@XZ 20055b00 f   g_client.obj
 0001:00054bb0       ?SelectSpawnPoint@@YAPAUgentity_s@@QBMQAM1@Z 20055bb0 f   g_client.obj
 0001:00054c60       ?SelectSpawnPointFromList@@YAPAUgentity_s@@PADQAM1@Z 20055c60 f   g_client.obj
 0001:00054dc0       ?SelectSpectatorSpawnPoint@@YAPAUgentity_s@@QAM0@Z 20055dc0 f   g_client.obj
 0001:00054e40       ?SetClientViewAngle@@YAXPAUgentity_s@@QAM@Z 20055e40 f   g_client.obj
 0001:00054f00       ?SetClientViewAnglePitch@@YAXPAUgentity_s@@M@Z 20055f00 f   g_client.obj
 0001:00054f90       ?SetWolfSpawnWeapons@@YAXPAUgclient_s@@@Z 20055f90 f   g_client.obj
 0001:00055280       ?SpotWouldTelefrag@@YA?AW4qboolean@@PAUgentity_s@@@Z 20056280 f   g_client.obj
 0001:00055390       ?TeamCount@@YA?AW4team_t@@HH@Z 20056390 f   g_client.obj
 0001:00055410       ?_SetCovertSpawnWeapons@@YA?AW4qboolean@@PAUgclient_s@@@Z 20056410 f   g_client.obj
 0001:000556b0       ?_SetEngineerSpawnWeapons@@YA?AW4qboolean@@PAUgclient_s@@@Z 200566b0 f   g_client.obj
 0001:00055850       ?_SetFieldOpSpawnWeapons@@YA?AW4qboolean@@PAUgclient_s@@@Z 20056850 f   g_client.obj
 0001:000559b0       ?_SetMedicSpawnWeapons@@YA?AW4qboolean@@PAUgclient_s@@@Z 200569b0 f   g_client.obj
 0001:00055b30       ?_SetSoldierSpawnWeapons@@YA?AW4qboolean@@PAUgclient_s@@@Z 20056b30 f   g_client.obj
 0001:00055d20       ?limbo@@YAXPAUgentity_s@@W4qboolean@@@Z 20056d20 f   g_client.obj
 0001:00056000       ?reinforce@@YAXPAUgentity_s@@@Z 20057000 f   g_client.obj
 0001:00056090       ?respawn@@YAXPAUgentity_s@@@Z 20057090 f   g_client.obj
 0001:00056170       ?right@std@@YAAAVios_base@1@AAV21@@Z 20057170 f i g_client.obj
 0001:00056190       ___local_stdio_scanf_options 20057190 f i g_client.obj
 0001:000561a0       _sscanf                    200571a0 f i g_client.obj
 0001:000561d0       ??$?8DU?$char_traits@D@std@@V?$allocator@D@1@@std@@YA_NABV?$basic_string@DU?$char_traits@D@std@@V?$allocator@D@2@@0@QBD@Z 200571d0 f i g_cmds.obj
 0001:000562a0       ??$?HDU?$char_traits@D@std@@V?$allocator@D@1@@std@@YA?AV?$basic_string@DU?$char_traits@D@std@@V?$allocator@D@2@@0@$$QAV10@ABV10@@Z 200572a0 f i g_cmds.obj
 0001:00056370       ??$?HDU?$char_traits@D@std@@V?$allocator@D@1@@std@@YA?AV?$basic_string@DU?$char_traits@D@std@@V?$allocator@D@2@@0@$$QAV10@D@Z 20057370 f i g_cmds.obj
 0001:00056410       ??$?HDU?$char_traits@D@std@@V?$allocator@D@1@@std@@YA?AV?$basic_string@DU?$char_traits@D@std@@V?$allocator@D@2@@0@$$QAV10@QBD@Z 20057410 f i g_cmds.obj
 0001:000564e0       ??$?HDU?$char_traits@D@std@@V?$allocator@D@1@@std@@YA?AV?$basic_string@DU?$char_traits@D@std@@V?$allocator@D@2@@0@QBD$$QAV10@@Z 200574e0 f i g_cmds.obj
 0001:00056610       ??$_Reallocate_grow_by@V<lambda_b58f63191d47f26c8413070fc8262ac6>@@IPBDI@?$basic_string@DU?$char_traits@D@std@@V?$allocator@D@2@@std@@AAEAAV01@IV<lambda_b58f63191d47f26c8413070fc8262ac6>@@IPBDI@Z 20057610 f i g_cmds.obj
 0001:000567d0       ??4?$basic_string@DU?$char_traits@D@std@@V?$allocator@D@2@@std@@QAEAAV01@$$QAV01@@Z 200577d0 f i g_cmds.obj
 0001:00056820       ?CheatsOk@@YA?AW4qboolean@@PAUgentity_s@@@Z 20057820 f   g_cmds.obj
 0001:000568d0       ?ClientCommand@@YAXH@Z     200578d0 f   g_cmds.obj
 0001:000574a0       ?ClientNumberFromString@@YAHPAUgentity_s@@PAD@Z 200584a0 f   g_cmds.obj
 0001:00057660       ?Cmd_Activate2_f@@YAXPAUgentity_s@@@Z 20058660 f   g_cmds.obj
 0001:000579a0       ?Cmd_Activate_f@@YAXPAUgentity_s@@@Z 200589a0 f   g_cmds.obj
 0001:00057dd0       ?Cmd_AuthCheck_f@@YAXPAUgentity_s@@IW4qboolean@@@Z 20058dd0 f   g_cmds.obj
 0001:00057e00       ?Cmd_CallVote_f@@YA?AW4qboolean@@PAUgentity_s@@IW41@@Z 20058e00 f   g_cmds.obj
 0001:000582d0       ?Cmd_FollowCycle_f@@YAXPAUgentity_s@@H@Z 200592d0 f   g_cmds.obj
 0001:00058490       ?Cmd_Follow_f@@YAXPAUgentity_s@@IW4qboolean@@@Z 20059490 f   g_cmds.obj
 0001:000587f0       ?Cmd_Give_f@@YAXPAUgentity_s@@@Z 200597f0 f   g_cmds.obj
 0001:00059090       ?Cmd_God_f@@YAXPAUgentity_s@@@Z 2005a090 f   g_cmds.obj
 0001:00059190       ?Cmd_Ignore_f@@YAXPAUgentity_s@@@Z 2005a190 f   g_cmds.obj
 0001:00059240       ?Cmd_IntermissionPlayerKillsDeaths_f@@YAXPAUgentity_s@@@Z 2005a240 f   g_cmds.obj
 0001:00059340       ?Cmd_IntermissionReady_f@@YAXPAUgentity_s@@@Z 2005a340 f   g_cmds.obj
 0001:00059370       ?Cmd_IntermissionWeaponAccuracies_f@@YAXPAUgentity_s@@@Z 2005a370 f   g_cmds.obj
 0001:00059460       ?Cmd_IntermissionWeaponStats_f@@YAXPAUgentity_s@@@Z 2005a460 f   g_cmds.obj
 0001:00059580       ?Cmd_Kill_f@@YAXPAUgentity_s@@@Z 2005a580 f   g_cmds.obj
 0001:00059730       ?Cmd_ListBotGoals_f@@YAXPAUgentity_s@@@Z 2005a730 f   g_cmds.obj
 0001:000598c0       ?Cmd_Noclip_f@@YAXPAUgentity_s@@@Z 2005a8c0 f   g_cmds.obj
 0001:000599f0       ?Cmd_Nofatigue_f@@YAXPAUgentity_s@@@Z 2005a9f0 f   g_cmds.obj
 0001:00059b00       ?Cmd_Notarget_f@@YAXPAUgentity_s@@@Z 2005ab00 f   g_cmds.obj
 0001:00059b80       ?Cmd_ResetSetup_f@@YAXPAUgentity_s@@@Z 2005ab80 f   g_cmds.obj
 0001:00059c30       ?Cmd_Say_f@@YAXPAUgentity_s@@HW4qboolean@@@Z 2005ac30 f   g_cmds.obj
 0001:00059cb0       ?Cmd_Score_f@@YAXPAUgentity_s@@@Z 2005acb0 f   g_cmds.obj
 0001:00059cd0       ?Cmd_SelectedObjective_f@@YAXPAUgentity_s@@@Z 2005acd0 f   g_cmds.obj
 0001:00059fd0       ?Cmd_SetCameraOrigin_f@@YAXPAUgentity_s@@@Z 2005afd0 f   g_cmds.obj
 0001:0005a0a0       ?Cmd_SetClass_f@@YAXPAUgentity_s@@IW4qboolean@@@Z 2005b0a0 f   g_cmds.obj
 0001:0005a0b0       ?Cmd_SetSniperSpot_f@@YAXPAUgentity_s@@@Z 2005b0b0 f   g_cmds.obj
 0001:0005a2d0       ?Cmd_SetSpawnPoint_f@@YAXPAUgentity_s@@@Z 2005b2d0 f   g_cmds.obj
 0001:0005a470       ?Cmd_SetViewpos_f@@YAXPAUgentity_s@@@Z 2005b470 f   g_cmds.obj
 0001:0005a5c0       ?Cmd_SetWeapons_f@@YAXPAUgentity_s@@IW4qboolean@@@Z 2005b5c0 f   g_cmds.obj
 0001:0005a5d0       ?Cmd_StartCamera_f@@YAXPAUgentity_s@@@Z 2005b5d0 f   g_cmds.obj
 0001:0005a7f0       ?Cmd_StopCamera_f@@YAXPAUgentity_s@@@Z 2005b7f0 f   g_cmds.obj
 0001:0005a860       ?Cmd_SwapPlacesWithBot_f@@YAXPAUgentity_s@@H@Z 2005b860 f   g_cmds.obj
 0001:0005abe0       ?Cmd_TeamBot_f@@YAXPAUgentity_s@@@Z 2005bbe0 f   g_cmds.obj
 0001:0005ad60       ?Cmd_Team_f@@YAXPAUgentity_s@@IW4qboolean@@@Z 2005bd60 f   g_cmds.obj
 0001:0005af20       ?Cmd_TicketTape_f@@YAXXZ   2005bf20 f   g_cmds.obj
 0001:0005af30       ?Cmd_UnIgnore_f@@YAXPAUgentity_s@@@Z 2005bf30 f   g_cmds.obj
 0001:0005b140       ?Cmd_Vote_f@@YAXPAUgentity_s@@@Z 2005c140 f   g_cmds.obj
 0001:0005bc60       ?Cmd_WeaponStat_f@@YAXPAUgentity_s@@@Z 2005cc60 f   g_cmds.obj
 0001:0005bd10       ?Cmd_Where_f@@YAXPAUgentity_s@@@Z 2005cd10 f   g_cmds.obj
 0001:0005bd60       ?ConcatArgs@@YAPADH@Z      2005cd60 f   g_cmds.obj
 0001:0005be20       ?Do_Activate2_f@@YA?AW4qboolean@@PAUgentity_s@@0@Z 2005ce20 f   g_cmds.obj
 0001:0005c040       ?Do_Activate_f@@YA?AW4qboolean@@PAUgentity_s@@0@Z 2005d040 f   g_cmds.obj
 0001:0005c660       ?G_CalcClientAccuracies@@YAXXZ 2005d660 f   g_cmds.obj
 0001:0005c760       ?G_CensorPenalize@@YAXPAUgentity_s@@@Z 2005d760 f   g_cmds.obj
 0001:0005c8b0       ?G_EntitySound@@YAXPAUgentity_s@@PBDH@Z 2005d8b0 f   g_cmds.obj
 0001:0005c900       ?G_EntitySoundNoCut@@YAXPAUgentity_s@@PBDH@Z 2005d900 f   g_cmds.obj
 0001:0005c950       ?G_FindFreeComplainIP@@YA?AW4qboolean@@PAUgclient_s@@PAUipFilter_s@@@Z 2005d950 f   g_cmds.obj
 0001:0005c9f0       ?G_IsClassDisabled@@YA_NPAUgentity_s@@H_N@Z 2005d9f0 f   g_cmds.obj
 0001:0005cd40       ?G_IsHeavyWeapon@@YA?AW4qboolean@@W4weapon_t@@@Z 2005dd40 f   g_cmds.obj
 0001:0005cd80       ?G_IsWeaponDisabled@@YA?AW4qboolean@@PAUgentity_s@@W4weapon_t@@W41@@Z 2005dd80 f   g_cmds.obj
 0001:0005d370       ?G_LeaveTank@@YAXPAUgentity_s@@W4qboolean@@@Z 2005e370 f   g_cmds.obj
 0001:0005d6c0       ?G_MakeReady@@YAXPAUgentity_s@@@Z 2005e6c0 f   g_cmds.obj
 0001:0005d6f0       ?G_MakeUnready@@YAXPAUgentity_s@@@Z 2005e6f0 f   g_cmds.obj
 0001:0005d720       ?G_NumPlayersOnTeam@@YAHW4team_t@@@Z 2005e720 f   g_cmds.obj
 0001:0005d790       ?G_NumPlayersWithWeapon@@YAHW4weapon_t@@W4team_t@@@Z 2005e790 f   g_cmds.obj
 0001:0005d840       ?G_PlayerCount@@YAHPAUgentity_s@@H@Z 2005e840 f   g_cmds.obj
 0001:0005d900       ?G_Say@@YAXPAUgentity_s@@0HPBD@Z 2005e900 f   g_cmds.obj
 0001:0005e630       ?G_SayTo@@YAXPAUgentity_s@@0HHV?$basic_string@DU?$char_traits@D@std@@V?$allocator@D@2@@std@@1_N@Z 2005f630 f   g_cmds.obj
 0001:0005e9f0       ?G_SendScore@@YAXPAUgentity_s@@@Z 2005f9f0 f   g_cmds.obj
 0001:0005ed30       ?G_SetClientWeapons@@YAXPAUgentity_s@@W4weapon_t@@1W4qboolean@@@Z 2005fd30 f   g_cmds.obj
 0001:0005edf0       ?G_TankIsMountable@@YA?AW4qboolean@@PAUgentity_s@@0@Z 2005fdf0 f   g_cmds.obj
 0001:0005ee50       ?G_TankIsOccupied@@YA?AW4qboolean@@PAUgentity_s@@@Z 2005fe50 f   g_cmds.obj
 0001:0005ee70       ?G_TeamCount@@YAHPAUgentity_s@@W4weapon_t@@@Z 2005fe70 f   g_cmds.obj
 0001:0005ef30       ?G_TeamDataForString@@YAXPBDHPAW4team_t@@PAW4spectatorState_t@@PAH@Z 2005ff30 f   g_cmds.obj
 0001:0005f110       ?G_UpdateSpawnCounts@@YAXXZ 20060110 f   g_cmds.obj
 0001:0005f280       ?G_Voice@@YAXPAUgentity_s@@0HPBDW4qboolean@@V?$basic_string@DU?$char_traits@D@std@@V?$allocator@D@2@@std@@@Z 20060280 f   g_cmds.obj
 0001:0005f780       ?G_VoiceTo@@YAXPAUgentity_s@@0HPBDW4qboolean@@V?$basic_string@DU?$char_traits@D@std@@V?$allocator@D@2@@std@@@Z 20060780 f   g_cmds.obj
 0001:0005fab0       ?G_canPickupMelee@@YA?AW4qboolean@@PAUgentity_s@@@Z 20060ab0 f   g_cmds.obj
 0001:0005fac0       ?SanitizeString@@YAXPAD0W4qboolean@@@Z 20060ac0 f   g_cmds.obj
 0001:0005fb40       ?SetPlayerSpawn@@YAXPAUgentity_s@@HW4qboolean@@@Z 20060b40 f   g_cmds.obj
 0001:0005fba0       ?SetTeam@@YA?AW4qboolean@@PAUgentity_s@@PBDW41@W4weapon_t@@32@Z 20060ba0 f   g_cmds.obj
 0001:00060340       ?StopFollowing@@YAXPAUgentity_s@@@Z 20061340 f   g_cmds.obj
 0001:00060450       ?G_commands_cmd@@YAXPAUgentity_s@@IW4qboolean@@@Z 20061450 f   g_cmds_ext.obj
 0001:000605c0       ?G_lock_cmd@@YAXPAUgentity_s@@IW4qboolean@@@Z 200615c0 f   g_cmds_ext.obj
 0001:00060720       ?G_pause_cmd@@YAXPAUgentity_s@@IW4qboolean@@@Z 20061720 f   g_cmds_ext.obj
 0001:00060990       ?G_players_cmd@@YAXPAUgentity_s@@IW4qboolean@@@Z 20061990 f   g_cmds_ext.obj
 0001:00060f50       ?G_ready_cmd@@YAXPAUgentity_s@@IW4qboolean@@@Z 20061f50 f   g_cmds_ext.obj
 0001:00061180       ?G_say_teamnl_cmd@@YAXPAUgentity_s@@IW4qboolean@@@Z 20062180 f   g_cmds_ext.obj
 0001:000611e0       ?G_scores_cmd@@YAXPAUgentity_s@@IW4qboolean@@@Z 200621e0 f   g_cmds_ext.obj
 0001:00061200       ?G_specinvite_cmd@@YAXPAUgentity_s@@IW4qboolean@@@Z 20062200 f   g_cmds_ext.obj
 0001:000613f0       ?G_speclock_cmd@@YAXPAUgentity_s@@IW4qboolean@@@Z 200623f0 f   g_cmds_ext.obj
 0001:00061560       ?G_statsall_cmd@@YAXPAUgentity_s@@IW4qboolean@@@Z 20062560 f   g_cmds_ext.obj
 0001:00061600       ?G_teamready_cmd@@YAXPAUgentity_s@@IW4qboolean@@@Z 20062600 f   g_cmds_ext.obj
 0001:00061760       ?G_weaponRankings_cmd@@YAXPAUgentity_s@@IW4qboolean@@@Z 20062760 f   g_cmds_ext.obj
 0001:00061b30       ?G_weaponStats_cmd@@YAXPAUgentity_s@@IW4qboolean@@@Z 20062b30 f   g_cmds_ext.obj
 0001:00061b50       ?G_cmdDebounce@@YA?AW4qboolean@@PAUgentity_s@@PBD@Z 20062b50 f   g_cmds_ext.obj
 0001:00061bf0       ?G_commandCheck@@YA?AW4qboolean@@PAUgentity_s@@PADW41@@Z 20062bf0 f   g_cmds_ext.obj
 0001:00061ca0       ?G_commandHelp@@YA?AW4qboolean@@PAUgentity_s@@PBDI@Z 20062ca0 f   g_cmds_ext.obj
 0001:00061d50       ?G_noTeamControls@@YAXPAUgentity_s@@@Z 20062d50 f   g_cmds_ext.obj
 0001:00061d90       ?G_weaponStatsLeaders_cmd@@YAXPAUgentity_s@@W4qboolean@@1@Z 20062d90 f   g_cmds_ext.obj
 0001:00062120       ?SortStats@@YAHPBX0@Z      20063120 f   g_cmds_ext.obj
 0001:00062290       ?AddKillScore@@YAXPAUgentity_s@@H@Z 20063290 f   g_combat.obj
 0001:00062310       ?AddScore@@YAXPAUgentity_s@@H@Z 20063310 f   g_combat.obj
 0001:00062360       ?CanDamage@@YA?AW4qboolean@@PAUgentity_s@@QAM@Z 20063360 f   g_combat.obj
 0001:00062a70       ?G_AdjustedDamageVec@@YAXPAUgentity_s@@QAM1@Z 20063a70 f   g_combat.obj
 0001:00062bc0       ?G_Damage@@YAXPAUgentity_s@@00QBMQAMHHH@Z 20063bc0 f   g_combat.obj
 0001:00063ad0       ?G_RadiusDamage@@YA?AW4qboolean@@QAMPAUgentity_s@@1MM1H@Z 20064ad0 f   g_combat.obj
 0001:00063f30       ?G_RailTrail@@YAXPAM0@Z    20064f30 f   g_combat.obj
 0001:00063f70       ?GibEntity@@YAXPAUgentity_s@@H@Z 20064f70 f   g_combat.obj
 0001:00064090       ?IsHeadShotWeapon@@YA?AW4qboolean@@H@Z 20065090 f   g_combat.obj
 0001:00064110       ?LookAtKiller@@YAXPAUgentity_s@@00@Z 20065110 f   g_combat.obj
 0001:000641d0       ?TossClientItems@@YAXPAUgentity_s@@@Z 200651d0 f   g_combat.obj
 0001:000644a0       ?body_die@@YAXPAUgentity_s@@00HH@Z 200654a0 f   g_combat.obj
 0001:000644d0       ?etpro_RadiusDamage@@YA?AW4qboolean@@QAMPAUgentity_s@@1MM1HW4RadiusScope@@@Z 200654d0 f   g_combat.obj
 0001:00064970       ?player_die@@YAXPAUgentity_s@@00HH@Z 20065970 f   g_combat.obj
 0001:000657c0       ?G_configSet@@YAXHW4qboolean@@@Z 200667c0 f   g_config.obj
 0001:000658c0       ?Cmd_FireTeam_MP_f@@YAXPAUgentity_s@@@Z 200668c0 f   g_fireteams.obj
 0001:00065fe0       ?G_AddClientToFireteam@@YAXHH@Z 20066fe0 f   g_fireteams.obj
 0001:00066150       ?G_ApplyToFireTeam@@YAXHH@Z 20067150 f   g_fireteams.obj
 0001:000662c0       ?G_CountTeamFireteams@@YAHW4team_t@@@Z 200672c0 f   g_fireteams.obj
 0001:00066310       ?G_DestroyFireteam@@YAXH@Z 20067310 f   g_fireteams.obj
 0001:000663d0       ?G_FindFreeFireteam@@YAPAUfireteamData_t@@XZ 200673d0 f   g_fireteams.obj
 0001:00066400       ?G_FindFreeFireteamIdent@@YAHW4team_t@@@Z 20067400 f   g_fireteams.obj
 0001:000664a0       ?G_FindFreePublicFireteam@@YAPAUfireteamData_t@@W4team_t@@@Z 200674a0 f   g_fireteams.obj
 0001:00066570       ?G_FireteamNumberForString@@YAHPBDW4team_t@@@Z 20067570 f   g_fireteams.obj
 0001:00066610       ?G_GetFireteamTeam@@YA?AW4team_t@@PAUfireteamData_t@@@Z 20067610 f   g_fireteams.obj
 0001:00066680       ?G_InviteToFireTeam@@YAXHH@Z 20067680 f   g_fireteams.obj
 0001:000667e0       ?G_IsFireteamLeader@@YA?AW4qboolean@@HPAPAUfireteamData_t@@@Z 200677e0 f   g_fireteams.obj
 0001:00066880       ?G_IsOnFireteam@@YA?AW4qboolean@@HPAPAUfireteamData_t@@@Z 20067880 f   g_fireteams.obj
 0001:00066930       ?G_KickFireTeamPlayer@@YAXHH@Z 20067930 f   g_fireteams.obj
 0001:00066a30       ?G_ProposeFireTeamPlayer@@YAXHH@Z 20067a30 f   g_fireteams.obj
 0001:00066bd0       ?G_RegisterFireteam@@YAXH@Z 20067bd0 f   g_fireteams.obj
 0001:00066de0       ?G_RemoveClientFromFireteams@@YAXHW4qboolean@@0@Z 20067de0 f   g_fireteams.obj
 0001:00066f10       ?G_UpdateFireteamConfigString@@YAXPAUfireteamData_t@@@Z 20067f10 f   g_fireteams.obj
 0001:00067000       ?G_WarnFireTeamPlayer@@YAXHH@Z 20068000 f   g_fireteams.obj
 0001:000670f0       ?G_GeoIP_CountryByIP@@YAPBDPBD@Z 200680f0 f   g_geoip.obj
 0001:00067210       ?G_GeoIP_Init@@YAXXZ       20068210 f   g_geoip.obj
 0001:000672e0       ?G_GeoIP_Shutdown@@YAXXZ   200682e0 f   g_geoip.obj
 0001:000673a0       ?AddMagicAmmo@@YA?AW4qboolean@@PAUgentity_s@@H@Z 200683a0 f   g_items.obj
 0001:000673d0       ?AddToClip@@YAHPAUplayerState_s@@HHH@Z 200683d0 f   g_items.obj
 0001:00067490       ?Add_Ammo@@YAHPAUgentity_s@@HHW4qboolean@@@Z 20068490 f   g_items.obj
 0001:00067610       ?Drop_Item@@YAPAUgentity_s@@PAU1@PAUgitem_s@@MW4qboolean@@@Z 20068610 f   g_items.obj
 0001:00067750       ?Fill_Clip@@YAXPAUplayerState_s@@H@Z 20068750 f   g_items.obj
 0001:00067770       ?FinishSpawningItem@@YAXPAUgentity_s@@@Z 20068770 f   g_items.obj
 0001:00067aa0       ?G_BounceItem@@YAXPAUgentity_s@@PAUtrace_t@@@Z 20068aa0 f   g_items.obj
 0001:00067cc0       ?G_CanPickupWeapon@@YA?AW4qboolean@@W4weapon_t@@PAUgentity_s@@@Z 20068cc0 f   g_items.obj
 0001:00067d80       ?G_DropWeapon@@YAXPAUgentity_s@@W4weapon_t@@@Z 20068d80 f   g_items.obj
 0001:00068140       ?G_GetPrimaryWeaponForClient@@YA?AW4weapon_t@@PAUgclient_s@@@Z 20069140 f   g_items.obj
 0001:000682a0       ?G_RunItem@@YAXPAUgentity_s@@@Z 200692a0 f   g_items.obj
 0001:00068480       ?G_RunItemProp@@YAXPAUgentity_s@@QAM@Z 20069480 f   g_items.obj
 0001:000685b0       ?G_SpawnItem@@YAXPAUgentity_s@@PAUgitem_s@@@Z 200695b0 f   g_items.obj
 0001:00068710       ?LaunchItem@@YAPAUgentity_s@@PAUgitem_s@@QAM1H@Z 20069710 f   g_items.obj
 0001:00068ad0       ?Pickup_Ammo@@YAHPAUgentity_s@@0@Z 20069ad0 f   g_items.obj
 0001:00068b10       ?Pickup_Binocs@@YAHPAUgentity_s@@0@Z 20069b10 f   g_items.obj
 0001:00068b70       ?Pickup_Clipboard@@YAHPAUgentity_s@@0@Z 20069b70 f   g_items.obj
 0001:00068b90       ?Pickup_Health@@YAHPAUgentity_s@@0@Z 20069b90 f   g_items.obj
 0001:00068dd0       ?Pickup_Key@@YAHPAUgentity_s@@0@Z 20069dd0 f   g_items.obj
 0001:00068e10       ?Pickup_Powerup@@YAHPAUgentity_s@@0@Z 20069e10 f   g_items.obj
 0001:000690a0       ?Pickup_Treasure@@YAHPAUgentity_s@@0@Z 2006a0a0 f   g_items.obj
 0001:000690b0       ?Pickup_Weapon@@YAHPAUgentity_s@@0@Z 2006a0b0 f   g_items.obj
 0001:00069620       ?RespawnItem@@YAXPAUgentity_s@@@Z 2006a620 f   g_items.obj
 0001:000696e0       ?Touch_Item@@YAXPAUgentity_s@@0PAUtrace_t@@@Z 2006a6e0 f   g_items.obj
 0001:000699e0       ?Touch_Item_Auto@@YAXPAUgentity_s@@0PAUtrace_t@@@Z 2006a9e0 f   g_items.obj
 0001:00069a90       ?Use_Item@@YAXPAUgentity_s@@00@Z 2006aa90 f   g_items.obj
 0001:00069ab0       ?G_Profile_Accrue@@YAXH@Z  2006aab0 f   g_profile.obj
 0001:00069c60       ?G_Profile_AnnounceMVP@@YAXXZ 2006ac60 f   g_profile.obj
 0001:00069df0       ?G_Profile_CheckRankUp@@YAXH@Z 2006adf0 f   g_profile.obj
 0001:00069e70       ?G_Profile_OnConnect@@YAXH@Z 2006ae70 f   g_profile.obj
 0001:00069f50       ?G_Profile_OnDeath@@YAXPAUgentity_s@@0@Z 2006af50 f   g_profile.obj
 0001:0006a180       ??$?9DU?$char_traits@D@std@@V?$allocator@D@1@@std@@YA_NABV?$basic_string@DU?$char_traits@D@std@@V?$allocator@D@2@@0@QBD@Z 2006b180 f i g_jaymod.obj
 0001:0006a250       ??$_Find_lower_bound@H@?$_Tree@V?$_Tset_traits@HU?$less@H@std@@V?$allocator@H@2@$0A@@std@@@std@@IBE?AU?$_Tree_find_result@PAU?$_Tree_node@HPAX@std@@@1@ABH@Z 2006b250 f i g_jaymod.obj
 0001:0006a2b0       ??$_Search_vectorized@$$CBD$$CBD@std@@YAPBDQBD00I@Z 2006b2b0 f i g_jaymod.obj
 0001:0006a2d0       ??$insert@$0A@$0A@@?$_Tree@V?$_Tset_traits@HU?$less@H@std@@V?$allocator@H@2@$0A@@std@@@std@@QAE?AU?$pair@V?$_Tree_const_iterator@V?$_Tree_val@U?$_Tree_simple_types@H@std@@@std@@@std@@_N@1@ABH@Z 2006b2d0 f i g_jaymod.obj
 0001:0006a3c0       ??0?$basic_istream@DU?$char_traits@D@std@@@std@@QAE@PAV?$basic_streambuf@DU?$char_traits@D@std@@@1@_N@Z 2006b3c0 f i g_jaymod.obj
 0001:0006a600       ??0?$set@HU?$less@H@std@@V?$allocator@H@2@@std@@QAE@XZ 2006b600 f i g_jaymod.obj
 0001:0006a650       ??1?$_Alloc_construct_ptr@V?$allocator@U?$_Tree_node@HPAX@std@@@std@@@std@@QAE@XZ 2006b650 f i g_jaymod.obj
 0001:0006a670       ??1?$set@HU?$less@H@std@@V?$allocator@H@2@@std@@QAE@XZ 2006b670 f i g_jaymod.obj
 0001:0006a680       ??1?$vector@PAVClient@@V?$allocator@PAVClient@@@std@@@std@@QAE@XZ 2006b680 f i g_jaymod.obj
 0001:0006a700       ??1?$vector@V?$basic_string@DU?$char_traits@D@std@@V?$allocator@D@2@@std@@V?$allocator@V?$basic_string@DU?$char_traits@D@std@@V?$allocator@D@2@@std@@@2@@std@@QAE@XZ 2006b700 f i g_jaymod.obj
 0001:0006a7f0       ??6?$basic_ostream@DU?$char_traits@D@std@@@std@@QAEAAV01@_J@Z 2006b7f0 f i g_jaymod.obj
 0001:0006aa60       ??E?$_Tree_const_iterator@V?$_Tree_val@U?$_Tree_simple_types@H@std@@@std@@@std@@QAE?AV01@H@Z 2006ba60 f i g_jaymod.obj
 0001:0006aad0       ?G_AddPoisonEvent@@YAXPAUgentity_s@@0@Z 2006bad0 f   g_jaymod.obj
 0001:0006ab80       ?G_ApplyCustomRanks@@YAXPAUgclient_s@@@Z 2006bb80 f   g_jaymod.obj
 0001:0006ac60       ?G_AuthCheck@@YAXPAUgentity_s@@PAD@Z 2006bc60 f   g_jaymod.obj
 0001:0006adb0       ?G_BanPlayer@@YAXPAUgentity_s@@V?$basic_string@DU?$char_traits@D@std@@V?$allocator@D@2@@std@@1H@Z 2006bdb0 f   g_jaymod.obj
 0001:0006b420       ?G_Banners@@YAXXZ          2006c420 f   g_jaymod.obj
 0001:0006b5a0       ?G_BinocWar@@YAXW4qboolean@@@Z 2006c5a0 f   g_jaymod.obj
 0001:0006b7d0       ?G_ChatShortcuts@@YAXPAUgentity_s@@AAV?$basic_string@DU?$char_traits@D@std@@V?$allocator@D@2@@std@@@Z 2006c7d0 f   g_jaymod.obj
 0001:0006be90       ?G_ClassSteal@@YA?AW4qboolean@@PAUgentity_s@@0@Z 2006ce90 f   g_jaymod.obj
 0001:0006bfe0       ?G_ClassStealFixWeapons@@YAXPAUgentity_s@@0@Z 2006cfe0 f   g_jaymod.obj
 0001:0006c700       ?G_DragCorpse@@YA?AW4qboolean@@PAUgentity_s@@0@Z 2006d700 f   g_jaymod.obj
 0001:0006c860       ?G_FallDamage@@YAXPAUgentity_s@@H@Z 2006d860 f   g_jaymod.obj
 0001:0006cbb0       ?G_HasJayFlag@@YA?AW4qboolean@@PAUgentity_s@@HH@Z 2006dbb0 f   g_jaymod.obj
 0001:0006cc20       ?G_InitCustomLevels@@YAXXZ 2006dc20 f   g_jaymod.obj
 0001:0006ce50       ?G_IsPoisoned@@YA?AW4qboolean@@PAUgentity_s@@@Z 2006de50 f   g_jaymod.obj
 0001:0006ce90       ?G_LiveUniformSteal@@YA?AW4qboolean@@PAUgentity_s@@0@Z 2006de90 f   g_jaymod.obj
 0001:0006d0b0       ?G_MakeShoutcaster@@YAXXZ  2006e0b0 f   g_jaymod.obj
 0001:0006d300       ?G_MutePlayer@@YA_NPAUgentity_s@@V?$basic_string@DU?$char_traits@D@std@@V?$allocator@D@2@@std@@1@Z 2006e300 f   g_jaymod.obj
 0001:0006d640       ?G_PlayDead@@YAXPAUgentity_s@@@Z 2006e640 f   g_jaymod.obj
 0001:0006d680       ?G_PlaySoundEnv_Cmd@@YAXXZ 2006e680 f   g_jaymod.obj
 0001:0006d8b0       ?G_PlaySound_Cmd@@YAXXZ    2006e8b0 f   g_jaymod.obj
 0001:0006dbf0       ?G_PrivateMessage@@YAXPAUgentity_s@@@Z 2006ebf0 f   g_jaymod.obj
 0001:0006eac0       ?G_PushPlayer@@YA?AW4qboolean@@PAUgentity_s@@0@Z 2006fac0 f   g_jaymod.obj
 0001:0006ece0       ?G_RemoveJayFlag@@YAXPAUgentity_s@@HH@Z 2006fce0 f   g_jaymod.obj
 0001:0006ed40       ?G_RemoveShoutcaster@@YAXXZ 2006fd40 f   g_jaymod.obj
 0001:0006ef90       ?G_ResetOnePoisonEvent@@YAXPAUgentity_s@@@Z 2006ff90 f   g_jaymod.obj
 0001:0006eff0       ?G_ResetPoisonEvent@@YAXPAUgentity_s@@H@Z 2006fff0 f   g_jaymod.obj
 0001:0006f030       ?G_ResetPoisonEvents@@YAXPAUgentity_s@@@Z 20070030 f   g_jaymod.obj
 0001:0006f070       ?G_RunPoisonEvents@@YAXPAUgentity_s@@@Z 20070070 f   g_jaymod.obj
 0001:0006f1a0       ?G_SetJayFlag@@YAXPAUgentity_s@@HH@Z 200701a0 f   g_jaymod.obj
 0001:0006f200       ?G_ShoutcasterLogin@@YAXPAUgentity_s@@@Z 20070200 f   g_jaymod.obj
 0001:0006f4a0       ?G_ShoutcasterLogout@@YAXPAUgentity_s@@@Z 200704a0 f   g_jaymod.obj
 0001:0006f520       ?G_SkillForMOD@@YAHH@Z     20070520 f   g_jaymod.obj
 0001:0006f600       ?G_SortBinocs@@YAHPBX0@Z   20070600 f   g_jaymod.obj
 0001:0006f650       ?G_TeamDamageRestriction@@YAXPAUgentity_s@@@Z 20070650 f   g_jaymod.obj
 0001:0006f790       ?G_TeamMaxArtillery@@YAHXZ 20070790 f   g_jaymod.obj
 0001:0006f7b0       ?G_TeamMaxLandMines@@YAHXZ 200707b0 f   g_jaymod.obj
 0001:0006f7d0       ?G_UniformRestore@@YA?AW4qboolean@@PAUgentity_s@@0@Z 200707d0 f   g_jaymod.obj
 0001:0006f8a0       ?G_UniformSteal@@YA?AW4qboolean@@PAUgentity_s@@0@Z 200708a0 f   g_jaymod.obj
 0001:0006faa0       ?G_UnmutePlayer@@YA_NPAUgentity_s@@@Z 20070aa0 f   g_jaymod.obj
 0001:0006fb60       ?G_UpdateJaymodCS@@YAXXZ   20070b60 f   g_jaymod.obj
 0001:00070160       ?G_UpdateUptime@@YAXXZ     20071160 f   g_jaymod.obj
 0001:000702c0       ?IsReflectable@@YA?AW4qboolean@@H@Z 200712c0 f   g_jaymod.obj
 0001:00070360       ?ThrowingKnifeTouch@@YAXPAUgentity_s@@0PAUtrace_t@@@Z 20071360 f   g_jaymod.obj
 0001:00070490       ?_Insert_node@?$_Tree_val@U?$_Tree_simple_types@H@std@@@std@@QAEPAU?$_Tree_node@HPAX@2@U?$_Tree_id@PAU?$_Tree_node@HPAX@std@@@2@QAU32@@Z 20071490 f i g_jaymod.obj
 0001:00070700       ?hex@std@@YAAAVios_base@1@AAV21@@Z 20071700 f i g_jaymod.obj
 0001:00070720       ?str@?$basic_stringstream@DU?$char_traits@D@std@@V?$allocator@D@2@@std@@QBE?AV?$basic_string@DU?$char_traits@D@std@@V?$allocator@D@2@@2@XZ 20071720 f i g_jaymod.obj
 0001:00070810       ??$_Find_vectorized@$$CBDD@std@@YAPBDQBD0D@Z 20071810 f i g_jaymod_utils.obj
 0001:000708d0       ?ClientNumbersFromString@@YAHPADPAH@Z 200718d0 f   g_jaymod_utils.obj
 0001:00070a40       ?G_ClientSound@@YAXPAUgentity_s@@PBD@Z 20071a40 f   g_jaymod_utils.obj
 0001:00070ac0       ?G_DbLoad@@YAXXZ           20071ac0 f   g_jaymod_utils.obj
 0001:00070e30       ?G_ShakeClient@@YAXPAUgentity_s@@H@Z 20071e30 f   g_jaymod_utils.obj
 0001:00070eb0       ?G_StripIPPort@@YAXAAV?$basic_string@DU?$char_traits@D@std@@V?$allocator@D@2@@std@@@Z 20071eb0 f   g_jaymod_utils.obj
 0001:00070f70       ?G_WeaponNumToStr@@YAPADW4weapon_t@@@Z 20071f70 f   g_jaymod_utils.obj
 0001:000711f0       ?Q_AddCR@@YAPADPAD@Z       200721f0 f   g_jaymod_utils.obj
 0001:00071260       ?Q_SayArgc@@YAHXZ          20072260 f   g_jaymod_utils.obj
 0001:000712c0       ?Q_SayConcatArgs@@YAPADH@Z 200722c0 f   g_jaymod_utils.obj
 0001:00071320       ?SanitizeString@@YA?AV?$basic_string@DU?$char_traits@D@std@@V?$allocator@D@2@@std@@ABV12@_N@Z 20072320 f   g_jaymod_utils.obj
 0001:000714a0       ?G_AddKillSpree@@YAXPAUgentity_s@@@Z 200724a0 f   g_killingspree.obj
 0001:00071540       ?G_AddLoseSpree@@YAXPAUgentity_s@@@Z 20072540 f   g_killingspree.obj
 0001:000715b0       ?G_AddMultiKill@@YAXPAUgentity_s@@@Z 200725b0 f   g_killingspree.obj
 0001:000716a0       ?G_DisplayLastKill@@YAXXZ  200726a0 f   g_killingspree.obj
 0001:000716e0       ?G_EndLoseSpree@@YAXPAUgentity_s@@@Z 200726e0 f   g_killingspree.obj
 0001:00071710       ?G_FirstBlood@@YAXPAUgentity_s@@@Z 20072710 f   g_killingspree.obj
 0001:000717a0       ?G_InitKillSpreeLevels@@YAXXZ 200727a0 f   g_killingspree.obj
 0001:00071920       ?G_LSFinalizeMap@@YAXXZ    20072920 f   g_killingspree.obj
 0001:00071be0       ?G_UpdateLastKill@@YAXPAUgentity_s@@@Z 20072be0 f   g_killingspree.obj
 0001:00071c10       ?G_addStats@@YAXPAUgentity_s@@0HH@Z 20072c10 f   g_match.obj
 0001:00071ee0       ?G_checkServerToggle@@YAHPAUvmCvar_t@@@Z 20072ee0 f   g_match.obj
 0001:00071ff0       ?G_createStats@@YAPADPAUgentity_s@@_N@Z 20072ff0 f   g_match.obj
 0001:00072300       ?G_delayPrint@@YAXPAUgentity_s@@@Z 20073300 f   g_match.obj
 0001:00072570       ?G_deleteStats@@YAXH@Z     20073570 f   g_match.obj
 0001:00072650       ?G_globalSound@@YAXPBD@Z   20073650 f   g_match.obj
 0001:00072690       ?G_initMatch@@YAXXZ        20073690 f   g_match.obj
 0001:000726b0       ?G_loadMatchGame@@YAXXZ    200736b0 f   g_match.obj
 0001:00072920       ?G_matchInfoDump@@YAXI@Z   20073920 f   g_match.obj
 0001:00072c50       ?G_parseStats@@YAXPAD@Z    20073c50 f   g_match.obj
 0001:00072e80       ?G_printFull@@YAXPADPAUgentity_s@@@Z 20073e80 f   g_match.obj
 0001:00072ef0       ?G_printMatchInfo@@YAXPAUgentity_s@@@Z 20073ef0 f   g_match.obj
 0001:00073230       ?G_resetModeState@@YAXXZ   20074230 f   g_match.obj
 0001:00073290       ?G_resetRoundState@@YAXXZ  20074290 f   g_match.obj
 0001:000732f0       ?G_spawnPrintf@@YAXHHPAUgentity_s@@@Z 200742f0 f   g_match.obj
 0001:00073370       ?G_statsPrint@@YAXPAUgentity_s@@H@Z 20074370 f   g_match.obj
 0001:00073500       ?G_weapStatIndex_MOD@@YAIH@Z 20074500 f   g_match.obj
 0001:00073540       ?G_Alloc@@YAPAXH@Z         20074540 f   g_mem.obj
 0001:000735d0       ?G_InitMemory@@YAXXZ       200745d0 f   g_mem.obj
 0001:000735e0       ?Svcmd_GameMem_f@@YAXXZ    200745e0 f   g_mem.obj
 0001:00073600       ?AngleDifference@@YAMMM@Z  20074600 f   g_misc.obj
 0001:00073680       ?ClientName@@YAPADHPADH@Z  20074680 f   g_misc.obj
 0001:00073710       ?FindClientByName@@YAHPAD@Z 20074710 f   g_misc.obj
 0001:000737f0       ?Fire_Lead_Ext@@YAXPAUgentity_s@@0MHQAM111H@Z 200747f0 f   g_misc.obj
 0001:00073c60       ?Flak_Animate@@YAXPAUgentity_s@@@Z 20074c60 f   g_misc.obj
 0001:00073d30       ?G_ConstructionBegun@@YA?AW4qboolean@@PAUgentity_s@@@Z 20074d30 f   g_misc.obj
 0001:00073d80       ?G_ConstructionForTeam@@YAPAUgentity_s@@PAU1@W4team_t@@@Z 20074d80 f   g_misc.obj
 0001:00073dd0       ?G_ConstructionIsDestroyable@@YA?AW4qboolean@@PAUgentity_s@@@Z 20074dd0 f   g_misc.obj
 0001:00073e20       ?G_ConstructionIsFullyBuilt@@YA?AW4qboolean@@PAUgentity_s@@@Z 20074e20 f   g_misc.obj
 0001:00073e50       ?G_ConstructionIsPartlyBuilt@@YA?AW4qboolean@@PAUgentity_s@@@Z 20074e50 f   g_misc.obj
 0001:00073e90       ?G_FindDynamite@@YAPAUgentity_s@@PAU1@@Z 20074e90 f   g_misc.obj
 0001:00073eb0       ?G_FindDynamiteTargetForTeam@@YAPAUgentity_s@@PAU1@W4team_t@@@Z 20074eb0 f   g_misc.obj
 0001:00074010       ?G_FindMissile@@YAPAUgentity_s@@PAU1@W4weapon_t@@@Z 20075010 f   g_misc.obj
 0001:00074090       ?G_GetTargetDynamite@@YAHPAHHPAUgentity_s@@@Z 20075090 f   g_misc.obj
 0001:00074310       ?G_InitTempTraceIgnoreEnts@@YAXXZ 20075310 f   g_misc.obj
 0001:00074330       ?G_IsConstructible@@YAPAUgentity_s@@W4team_t@@PAU1@@Z 20075330 f   g_misc.obj
 0001:000743a0       ?G_ResetTempTraceIgnoreEnts@@YAXXZ 200753a0 f   g_misc.obj
 0001:000743e0       ?G_SetAASBlockingEntity@@YAXPAUgentity_s@@H@Z 200753e0 f   g_misc.obj
 0001:000743f0       ?G_TempTraceIgnoreEntity@@YAXPAUgentity_s@@@Z 200753f0 f   g_misc.obj
 0001:00074450       ?G_TempTraceIgnorePlayersAndBodies@@YAXXZ 20075450 f   g_misc.obj
 0001:000744a0       ?InitShooter@@YAXPAUgentity_s@@H@Z 200754a0 f   g_misc.obj
 0001:000745b0       ?SP_aagun@@YAXPAUgentity_s@@@Z 200755b0 f   g_misc.obj
 0001:000745e0       ?SP_corona@@YAXPAUgentity_s@@@Z 200755e0 f   g_misc.obj
 0001:00074720       ?SP_dlight@@YAXPAUgentity_s@@@Z 20075720 f   g_misc.obj
 0001:00074a20       ?SP_info_camp@@YAXPAUgentity_s@@@Z 20075a20 f   g_misc.obj
 0001:00074a40       ?SP_info_notnull@@YAXPAUgentity_s@@@Z 20075a40 f   g_misc.obj
 0001:00074a60       ?SP_info_null@@YAXPAUgentity_s@@@Z 20075a60 f   g_misc.obj
 0001:00074ab0       ?SP_light@@YAXPAUgentity_s@@@Z 20075ab0 f   g_misc.obj
 0001:00074ac0       ?SP_lightJunior@@YAXPAUgentity_s@@@Z 20075ac0 f   g_misc.obj
 0001:00074ad0       ?SP_mg42@@YAXPAUgentity_s@@@Z 20075ad0 f   g_misc.obj
 0001:00074c40       ?SP_misc_commandmap_marker@@YAXPAUgentity_s@@@Z 20075c40 f   g_misc.obj
 0001:00074c80       ?SP_misc_constructiblemarker@@YAXPAUgentity_s@@@Z 20075c80 f   g_misc.obj
 0001:00074e00       ?SP_misc_firetrails@@YAXPAUgentity_s@@@Z 20075e00 f   g_misc.obj
 0001:00074e30       ?SP_misc_flak@@YAXPAUgentity_s@@@Z 20075e30 f   g_misc.obj
 0001:00074ee0       ?SP_misc_gamemodel@@YAXPAUgentity_s@@@Z 20075ee0 f   g_misc.obj
 0001:000752b0       ?SP_misc_grabber_trap@@YAXPAUgentity_s@@@Z 200762b0 f   g_misc.obj
 0001:000756c0       ?SP_misc_landmine@@YAXPAUgentity_s@@@Z 200766c0 f   g_misc.obj
 0001:00075730       ?SP_misc_light_surface@@YAXPAUgentity_s@@@Z 20076730 f   g_misc.obj
 0001:00075740       ?SP_misc_model@@YAXPAUgentity_s@@@Z 20076740 f   g_misc.obj
 0001:00075750       ?SP_misc_portal_camera@@YAXPAUgentity_s@@@Z 20076750 f   g_misc.obj
 0001:00075800       ?SP_misc_portal_surface@@YAXPAUgentity_s@@@Z 20076800 f   g_misc.obj
 0001:000758c0       ?SP_misc_spawner@@YAXPAUgentity_s@@@Z 200768c0 f   g_misc.obj
 0001:00075920       ?SP_misc_spotlight@@YAXPAUgentity_s@@@Z 20076920 f   g_misc.obj
 0001:000759b0       ?SP_misc_teleporter_dest@@YAXPAUgentity_s@@@Z 200769b0 f   g_misc.obj
 0001:000759c0       ?SP_misc_vis_dummy@@YAXPAUgentity_s@@@Z 200769c0 f   g_misc.obj
 0001:00075a50       ?SP_misc_vis_dummy_multiple@@YAXPAUgentity_s@@@Z 20076a50 f   g_misc.obj
 0001:00075ac0       ?SP_shooter_grenade@@YAXPAUgentity_s@@@Z 20076ac0 f   g_misc.obj
 0001:00075ae0       ?SP_shooter_mortar@@YAXPAUgentity_s@@@Z 20076ae0 f   g_misc.obj
 0001:00075b00       ?SP_shooter_rocket@@YAXPAUgentity_s@@@Z 20076b00 f   g_misc.obj
 0001:00075b20       ?TeleportPlayer@@YAXPAUgentity_s@@QAM1@Z 20076b20 f   g_misc.obj
 0001:00075bd0       ?Use_Shooter@@YAXPAUgentity_s@@00@Z 20076bd0 f   g_misc.obj
 0001:00075f90       ?aagun_die@@YAXPAUgentity_s@@00HH@Z 20076f90 f   g_misc.obj
 0001:00075fa0       ?aagun_fire@@YAXPAUgentity_s@@@Z 20076fa0 f   g_misc.obj
 0001:000760e0       ?aagun_spawn@@YAXPAUgentity_s@@@Z 200770e0 f   g_misc.obj
 0001:000762a0       ?aagun_stopusing@@YAXPAUgentity_s@@@Z 200772a0 f   g_misc.obj
 0001:00076320       ?aagun_think@@YAXPAUgentity_s@@@Z 20077320 f   g_misc.obj
 0001:00076660       ?aagun_touch@@YAXPAUgentity_s@@0PAUtrace_t@@@Z 20077660 f   g_misc.obj
 0001:00076670       ?aagun_track@@YAXPAUgentity_s@@0@Z 20077670 f   g_misc.obj
 0001:000767c0       ?aagun_use@@YAXPAUgentity_s@@00@Z 200777c0 f   g_misc.obj
 0001:00076840       ?clamp_hweapontofirearc@@YAXPAUgentity_s@@QAM@Z 20077840 f   g_misc.obj
 0001:00076960       ?clamp_playerbehindgun@@YAXPAUgentity_s@@0QBM@Z 20077960 f   g_misc.obj
 0001:00076af0       ?constructiblemarker_setup@@YAXPAUgentity_s@@@Z 20077af0 f   g_misc.obj
 0001:00076b40       ?dlight_finish_spawning@@YAXPAUgentity_s@@@Z 20077b40 f   g_misc.obj
 0001:00076ba0       ?firetrail_die@@YAXPAUgentity_s@@@Z 20077ba0 f   g_misc.obj
 0001:00076bb0       ?firetrail_use@@YAXPAUgentity_s@@00@Z 20077bb0 f   g_misc.obj
 0001:00076be0       ?flakPuff@@YAXQAM@Z        20077be0 f   g_misc.obj
 0001:00076ca0       ?flak_spawn@@YAXPAUgentity_s@@@Z 20077ca0 f   g_misc.obj
 0001:00076e90       ?grabber_attack@@YAXPAUgentity_s@@@Z 20077e90 f   g_misc.obj
 0001:00076ee0       ?grabber_close@@YAXPAUgentity_s@@0PAUtrace_t@@@Z 20077ee0 f   g_misc.obj
 0001:00076f10       ?grabber_die@@YAXPAUgentity_s@@00HH@Z 20077f10 f   g_misc.obj
 0001:00076f90       ?grabber_pain@@YAXPAUgentity_s@@0HQAM@Z 20077f90 f   g_misc.obj
 0001:00076fb0       ?grabber_think_hit@@YAXPAUgentity_s@@@Z 20077fb0 f   g_misc.obj
 0001:00077050       ?grabber_think_idle@@YAXPAUgentity_s@@@Z 20078050 f   g_misc.obj
 0001:00077090       ?grabber_use@@YAXPAUgentity_s@@00@Z 20078090 f   g_misc.obj
 0001:000770e0       ?grabber_wake@@YAXPAUgentity_s@@@Z 200780e0 f   g_misc.obj
 0001:00077380       ?grabber_wake_touch@@YAXPAUgentity_s@@0PAUtrace_t@@@Z 20078380 f   g_misc.obj
 0001:000776f0       ?locateCamera@@YAXPAUgentity_s@@@Z 200786f0 f   g_misc.obj
 0001:00077830       ?locateMaster@@YAXPAUgentity_s@@@Z 20078830 f   g_misc.obj
 0001:000778a0       ?mg42_die@@YAXPAUgentity_s@@00HH@Z 200788a0 f   g_misc.obj
 0001:00077ac0       ?mg42_fire@@YAXPAUgentity_s@@@Z 20078ac0 f   g_misc.obj
 0001:00077be0       ?mg42_spawn@@YAXPAUgentity_s@@@Z 20078be0 f   g_misc.obj
 0001:00078110       ?mg42_stopusing@@YAXPAUgentity_s@@@Z 20079110 f   g_misc.obj
 0001:000781e0       ?mg42_think@@YAXPAUgentity_s@@@Z 200791e0 f   g_misc.obj
 0001:00078620       ?mg42_touch@@YAXPAUgentity_s@@0PAUtrace_t@@@Z 20079620 f   g_misc.obj
 0001:00078690       ?mg42_track@@YAXPAUgentity_s@@0@Z 20079690 f   g_misc.obj
 0001:000787e0       ?mg42_use@@YAXPAUgentity_s@@00@Z 200797e0 f   g_misc.obj
 0001:000788a0       ?misc_firetrails_think@@YAXPAUgentity_s@@@Z 200798a0 f   g_misc.obj
 0001:00078a20       ?misc_spawner_think@@YAXPAUgentity_s@@@Z 20079a20 f   g_misc.obj
 0001:00078a90       ?misc_spawner_use@@YAXPAUgentity_s@@00@Z 20079a90 f   g_misc.obj
 0001:00078ad0       ?shutoff_dlight@@YAXPAUgentity_s@@@Z 20079ad0 f   g_misc.obj
 0001:00078b10       ?spotlight_finish_spawning@@YAXPAUgentity_s@@@Z 20079b10 f   g_misc.obj
 0001:00078b70       ?stristr@@YAPADPAD0@Z      20079b70 f   g_misc.obj
 0001:00078bf0       ?use_corona@@YAXPAUgentity_s@@00@Z 20079bf0 f   g_misc.obj
 0001:00078c30       ?use_dlight@@YAXPAUgentity_s@@00@Z 20079c30 f   g_misc.obj
 0001:00078cc0       ?use_spotlight@@YAXPAUgentity_s@@00@Z 20079cc0 f   g_misc.obj
 0001:00078d30       ?DynaFree@@YAXPAUgentity_s@@@Z 20079d30 f   g_missile.obj
 0001:00078e40       ?DynaSink@@YAXPAUgentity_s@@@Z 20079e40 f   g_missile.obj
 0001:00078ec0       ?G_BounceMissile@@YAXPAUgentity_s@@PAUtrace_t@@@Z 20079ec0 f   g_missile.obj
 0001:00079350       ?G_BurnTarget@@YAXPAUgentity_s@@0W4qboolean@@@Z 2007a350 f   g_missile.obj
 0001:000796e0       ?G_CountTeamLandmines@@YAHW4team_t@@@Z 2007a6e0 f   g_missile.obj
 0001:00079780       ?G_ExplodeMines@@YAXPAUgentity_s@@@Z 2007a780 f   g_missile.obj
 0001:000797b0       ?G_ExplodeMissile@@YAXPAUgentity_s@@@Z 2007a7b0 f   g_missile.obj
 0001:00079f40       ?G_ExplodeSatchels@@YA?AW4qboolean@@PAUgentity_s@@@Z 2007af40 f   g_missile.obj
 0001:0007a060       ?G_FadeItems@@YAXPAUgentity_s@@H@Z 2007b060 f   g_missile.obj
 0001:0007a100       ?G_FindSatchel@@YAPAUgentity_s@@PAU1@@Z 2007b100 f   g_missile.obj
 0001:0007a170       ?G_FlameDamage@@YAXPAUgentity_s@@0@Z 2007b170 f   g_missile.obj
 0001:0007a290       ?G_FreeSatchel@@YAXPAUgentity_s@@@Z 2007b290 f   g_missile.obj
 0001:0007a340       ?G_HasDroppedItem@@YA?AW4qboolean@@PAUgentity_s@@H@Z 2007b340 f   g_missile.obj
 0001:0007a3b0       ?G_LandminePrime@@YAXPAUgentity_s@@@Z 2007b3b0 f   g_missile.obj
 0001:0007a3e0       ?G_LandmineSnapshotCallback@@YA?AW4qboolean@@HH@Z 2007b3e0 f   g_missile.obj
 0001:0007a4c0       ?G_LandmineThink@@YAXPAUgentity_s@@@Z 2007b4c0 f   g_missile.obj
 0001:0007a6a0       ?G_MissileDie@@YAXPAUgentity_s@@00HH@Z 2007b6a0 f   g_missile.obj
 0001:0007a750       ?G_MissileImpact@@YAXPAUgentity_s@@PAUtrace_t@@H@Z 2007b750 f   g_missile.obj
 0001:0007ac40       ?G_PredictBounceMissile@@YAXPAUgentity_s@@PAUtrajectory_t@@PAUtrace_t@@H@Z 2007bc40 f   g_missile.obj
 0001:0007ae20       ?G_PredictMissile@@YAHPAUgentity_s@@HQAMW4qboolean@@@Z 2007be20 f   g_missile.obj
 0001:0007b030       ?G_RunBomb@@YAXPAUgentity_s@@@Z 2007c030 f   g_missile.obj
 0001:0007b040       ?G_RunFlamechunk@@YAXPAUgentity_s@@@Z 2007c040 f   g_missile.obj
 0001:0007b450       ?G_RunMissile@@YAXPAUgentity_s@@@Z 2007c450 f   g_missile.obj
 0001:0007bd20       ?G_SweepForLandmines@@YA_NPAUgentity_s@@MH@Z 2007cd20 f   g_missile.obj
 0001:0007beb0       ?G_TripMinePrime@@YAXPAUgentity_s@@@Z 2007ceb0 f   g_missile.obj
 0001:0007bee0       ?G_TripMineThink@@YAXPAUgentity_s@@@Z 2007cee0 f   g_missile.obj
 0001:0007c020       ?LandMinePostTrigger@@YAXPAUgentity_s@@@Z 2007d020 f   g_missile.obj
 0001:0007c0a0       ?LandMineTrigger@@YAXPAUgentity_s@@@Z 2007d0a0 f   g_missile.obj
 0001:0007c100       ?LandminePostThink@@YAXPAUgentity_s@@@Z 2007d100 f   g_missile.obj
 0001:0007c260       ?Landmine_Check_Ground@@YAXPAUgentity_s@@@Z 2007d260 f   g_missile.obj
 0001:0007c370       ?M_think@@YAXPAUgentity_s@@@Z 2007d370 f   g_missile.obj
 0001:0007c460       ?fire_flamebarrel@@YAPAUgentity_s@@PAU1@QAM1@Z 2007d460 f   g_missile.obj
 0001:0007c700       ?fire_flamechunk@@YAPAUgentity_s@@PAU1@QAM1@Z 2007d700 f   g_missile.obj
 0001:0007c920       ?fire_grenade@@YAPAUgentity_s@@PAU1@QAM1H@Z 2007d920 f   g_missile.obj
 0001:0007d4a0       ?fire_lead@@YAXPAUgentity_s@@QAM1H@Z 2007e4a0 f   g_missile.obj
 0001:0007d7d0       ?fire_mortar@@YAPAUgentity_s@@PAU1@QAM1@Z 2007e7d0 f   g_missile.obj
 0001:0007d9c0       ?fire_rocket@@YAPAUgentity_s@@PAU1@QAM1@Z 2007e9c0 f   g_missile.obj
 0001:0007dcf0       ?sEntWillTriggerMine@@YA?AW4qboolean@@PAUgentity_s@@0@Z 2007ecf0 f   g_missile.obj
 0001:0007ddf0       ?visible@@YA?AW4qboolean@@PAUgentity_s@@0@Z 2007edf0 f   g_missile.obj
 0001:0007de50       ??0Chunk@molotov@@QAE@XZ   2007ee50 f   g_molotov.obj
 0001:0007deb0       ??1?$_Alloc_construct_ptr@V?$allocator@U?$_List_node@HPAX@std@@@std@@@std@@QAE@XZ 2007eeb0 f i g_molotov.obj
 0001:0007ded0       ??1?$_Alloc_construct_ptr@V?$allocator@U?$_List_node@PAUgentity_s@@PAX@std@@@std@@@std@@QAE@XZ 2007eed0 f i g_molotov.obj
 0001:0007def0       ??1?$_Alloc_construct_ptr@V?$allocator@U?$_List_node@PAVChunk@molotov@@PAX@std@@@std@@@std@@QAE@XZ 2007eef0 f i g_molotov.obj
 0001:0007df10       ??1?$list@HV?$allocator@H@std@@@std@@QAE@XZ 2007ef10 f i g_molotov.obj
 0001:0007df60       ??1?$list@PAUgentity_s@@V?$allocator@PAUgentity_s@@@std@@@std@@QAE@XZ 2007ef60 f i g_molotov.obj
 0001:0007dfb0       ??1Chunk@molotov@@QAE@XZ   2007efb0 f   g_molotov.obj
 0001:0007dfc0       ??E?$_Tree_unchecked_const_iterator@V?$_Tree_val@U?$_Tree_simple_types@H@std@@@std@@U_Iterator_base0@2@@std@@QAEAAV01@XZ 2007efc0 f i g_molotov.obj
 0001:0007e030       ?_Extract@?$_Tree_val@U?$_Tree_simple_types@H@std@@@std@@QAEPAU?$_Tree_node@HPAX@2@V?$_Tree_unchecked_const_iterator@V?$_Tree_val@U?$_Tree_simple_types@H@std@@@std@@U_Iterator_base0@2@@2@@Z 2007f030 f i g_molotov.obj
 0001:0007e3d0       ?_Lrotate@?$_Tree_val@U?$_Tree_simple_types@H@std@@@std@@QAEXPAU?$_Tree_node@HPAX@2@@Z 2007f3d0 f i g_molotov.obj
 0001:0007e440       ?_Rrotate@?$_Tree_val@U?$_Tree_simple_types@H@std@@@std@@QAEXPAU?$_Tree_node@HPAX@2@@Z 2007f440 f i g_molotov.obj
 0001:0007e4b0       ?clear@?$_Tree@V?$_Tset_traits@HU?$less@H@std@@V?$allocator@H@2@$0A@@std@@@std@@QAEXXZ 2007f4b0 f i g_molotov.obj
 0001:0007e510       ?compute@Chunk@molotov@@QAEXXZ 2007f510 f   g_molotov.obj
 0001:0007e590       ?destroy@molotov@@YAXPAUgentity_s@@@Z 2007f590 f   g_molotov.obj
 0001:0007e5d0       ?inflictDamage@Chunk@molotov@@AAEXXZ 2007f5d0 f   g_molotov.obj
 0001:0007eb80       ?init@molotov@@YAXXZ       2007fb80 f   g_molotov.obj
 0001:0007eb90       ?launch@molotov@@YAPAUgentity_s@@AAU2@H@Z 2007fb90 f   g_molotov.obj
 0001:0007edf0       ?markAvail@Chunk@molotov@@QAEXXZ 2007fdf0 f   g_molotov.obj
 0001:0007ee50       ?markUsed@Chunk@molotov@@QAEXXZ 2007fe50 f   g_molotov.obj
 0001:0007eeb0       ?process@Chunk@molotov@@QAE_NXZ 2007feb0 f   g_molotov.obj
 0001:0007ef20       ?push_front@?$list@PAVChunk@molotov@@V?$allocator@PAVChunk@molotov@@@std@@@std@@QAEX$$QAPAVChunk@molotov@@@Z 2007ff20 f i g_molotov.obj
 0001:0007efc0       ?run@molotov@@YAXPAUgentity_s@@@Z 2007ffc0 f   g_molotov.obj
 0001:0007f930       ?runChunks@molotov@@YAXXZ  20080930 f   g_molotov.obj
 0001:0007f980       ?shutdown@molotov@@YAXXZ   20080980 f   g_molotov.obj
 0001:0007fa90       ?spawn@molotov@@YAAAUgentity_s@@AAU2@QAM1@Z 20080a90 f   g_molotov.obj
 0001:0007fd40       ?BecomeExplosion@@YAXPAUgentity_s@@@Z 20080d40 f   g_mover.obj
 0001:0007fdb0       ?Blocked_Door@@YAXPAUgentity_s@@0@Z 20080db0 f   g_mover.obj
 0001:0007fea0       ?Blocked_DoorRotate@@YAXPAUgentity_s@@0@Z 20080ea0 f   g_mover.obj
 0001:0007ffc0       ?DoorSetSounds@@YAXPAUgentity_s@@HW4qboolean@@@Z 20080fc0 f   g_mover.obj
 0001:00080120       ?Door_reverse_sounds@@YAXPAUgentity_s@@@Z 20081120 f   g_mover.obj
 0001:000801c0       ?G_Activate@@YAXPAUgentity_s@@0@Z 200811c0 f   g_mover.obj
 0001:00080280       ?G_AllocDebrisChunk@@YAPAUdebrisChunk_s@@XZ 20081280 f   g_mover.obj
 0001:000802c0       ?G_BlockThink@@YAXPAUgentity_s@@@Z 200812c0 f   g_mover.obj
 0001:00080310       ?G_LinkDamageParents@@YAXXZ 20081310 f   g_mover.obj
 0001:00080380       ?G_LinkDebris@@YAXXZ       20081380 f   g_mover.obj
 0001:00080490       ?G_MoverPush@@YA?AW4qboolean@@PAUgentity_s@@QAM1PAPAU2@@Z 20081490 f   g_mover.obj
 0001:00080c30       ?G_MoverTeam@@YAXPAUgentity_s@@@Z 20081c30 f   g_mover.obj
 0001:00080e90       ?G_RunMover@@YAXPAUgentity_s@@@Z 20081e90 f   g_mover.obj
 0001:00080f60       ?G_TestEntityDropToFloor@@YAXPAUgentity_s@@M@Z 20081f60 f   g_mover.obj
 0001:000810b0       ?G_TestEntityMoveTowardsPos@@YAXPAUgentity_s@@QAM@Z 200820b0 f   g_mover.obj
 0001:00081190       ?G_TestEntityPosition@@YAPAUgentity_s@@PAU1@@Z 20082190 f   g_mover.obj
 0001:00081420       ?G_TryDoor@@YAXPAUgentity_s@@00@Z 20082420 f   g_mover.obj
 0001:00081540       ?G_TryPushingEntity@@YA?AW4qboolean@@PAUgentity_s@@0QAM1@Z 20082540 f   g_mover.obj
 0001:00081e20       ?GotoPos3@@YAXPAUgentity_s@@@Z 20082e20 f   g_mover.obj
 0001:00081e70       ?InitConstructible@@YAXPAUgentity_s@@@Z 20082e70 f   g_mover.obj
 0001:00081ea0       ?InitExplosive@@YAXPAUgentity_s@@@Z 20082ea0 f   g_mover.obj
 0001:00081f50       ?InitMover@@YAXPAUgentity_s@@@Z 20082f50 f   g_mover.obj
 0001:00082210       ?InitMoverRotate@@YAXPAUgentity_s@@@Z 20083210 f   g_mover.obj
 0001:000824f0       ?IsBinaryMoverBlocked@@YA?AW4qboolean@@PAUgentity_s@@00@Z 200834f0 f   g_mover.obj
 0001:000827e0       ?MatchTeam@@YAXPAUgentity_s@@HH@Z 200837e0 f   g_mover.obj
 0001:00082850       ?MatchTeamReverseAngleOnSlaves@@YAXPAUgentity_s@@HH@Z 20083850 f   g_mover.obj
 0001:000828e0       ?Reached_BinaryMover@@YAXPAUgentity_s@@@Z 200838e0 f   g_mover.obj
 0001:00082b90       ?Reached_Train@@YAXPAUgentity_s@@@Z 20083b90 f   g_mover.obj
 0001:00082dd0       ?Reached_Train_rotating@@YAXPAUgentity_s@@@Z 20083dd0 f   g_mover.obj
 0001:000831a0       ?Reached_TrinaryMover@@YAXPAUgentity_s@@@Z 200841a0 f   g_mover.obj
 0001:00083360       ?ReturnToPos1@@YAXPAUgentity_s@@@Z 20084360 f   g_mover.obj
 0001:000833b0       ?ReturnToPos1Rotate@@YAXPAUgentity_s@@@Z 200843b0 f   g_mover.obj
 0001:00083410       ?ReturnToPos2@@YAXPAUgentity_s@@@Z 20084410 f   g_mover.obj
 0001:00083460       ?SP_func_bobbing@@YAXPAUgentity_s@@@Z 20084460 f   g_mover.obj
 0001:000835e0       ?SP_func_brushmodel@@YAXPAUgentity_s@@@Z 200845e0 f   g_mover.obj
 0001:000836a0       ?SP_func_button@@YAXPAUgentity_s@@@Z 200846a0 f   g_mover.obj
 0001:000838c0       ?SP_func_constructible@@YAXPAUgentity_s@@@Z 200848c0 f   g_mover.obj
 0001:00083c30       ?SP_func_debris@@YAXPAUgentity_s@@@Z 20084c30 f   g_mover.obj
 0001:00083d50       ?SP_func_door@@YAXPAUgentity_s@@@Z 20084d50 f   g_mover.obj
 0001:00084130       ?SP_func_door_rotating@@YAXPAUgentity_s@@@Z 20085130 f   g_mover.obj
 0001:00084470       ?SP_func_explosive@@YAXPAUgentity_s@@@Z 20085470 f   g_mover.obj
 0001:000849f0       ?SP_func_invisible_user@@YAXPAUgentity_s@@@Z 200859f0 f   g_mover.obj
 0001:00084bb0       ?SP_func_leaky@@YAXPAUgentity_s@@@Z 20085bb0 f   g_mover.obj
 0001:00084c50       ?SP_func_pendulum@@YAXPAUgentity_s@@@Z 20085c50 f   g_mover.obj
 0001:00084e10       ?SP_func_plat@@YAXPAUgentity_s@@@Z 20085e10 f   g_mover.obj
 0001:00085020       ?SP_func_rotating@@YAXPAUgentity_s@@@Z 20086020 f   g_mover.obj
 0001:00085160       ?SP_func_secret@@YAXPAUgentity_s@@@Z 20086160 f   g_mover.obj
 0001:000855a0       ?SP_func_static@@YAXPAUgentity_s@@@Z 200865a0 f   g_mover.obj
 0001:00085730       ?SP_func_train@@YAXPAUgentity_s@@@Z 20086730 f   g_mover.obj
 0001:00085840       ?SP_func_train_rotating@@YAXPAUgentity_s@@@Z 20086840 f   g_mover.obj
 0001:00085940       ?SP_info_limbo_camera@@YAXPAUgentity_s@@@Z 20086940 f   g_mover.obj
 0001:000859d0       ?SP_info_train_spline_main@@YAXPAUgentity_s@@@Z 200869d0 f   g_mover.obj
 0001:00085b30       ?SP_path_corner@@YAXPAUgentity_s@@@Z 20086b30 f   g_mover.obj
 0001:00085ba0       ?SP_path_corner_2@@YAXPAUgentity_s@@@Z 20086ba0 f   g_mover.obj
 0001:00085c30       ?SP_target_effect@@YAXPAUgentity_s@@@Z 20086c30 f   g_mover.obj
 0001:00085df0       ?SP_target_explosion@@YAXPAUgentity_s@@@Z 20086df0 f   g_mover.obj
 0001:000860d0       ?SetMoverState@@YAXPAUgentity_s@@W4moverState_t@@H@Z 200870d0 f   g_mover.obj
 0001:00086990       ?SpawnPlatTrigger@@YAXPAUgentity_s@@@Z 20087990 f   g_mover.obj
 0001:00086b50       ?Static_Pain@@YAXPAUgentity_s@@0HQAM@Z 20087b50 f   g_mover.obj
 0001:00086d50       ?Think_BeginMoving@@YAXPAUgentity_s@@@Z 20087d50 f   g_mover.obj
 0001:00086d70       ?Think_BeginMoving_rotating@@YAXPAUgentity_s@@@Z 20087d70 f   g_mover.obj
 0001:00086d90       ?Think_MatchTeam@@YAXPAUgentity_s@@@Z 20087d90 f   g_mover.obj
 0001:00086dc0       ?Think_SetupTrainTargets@@YAXPAUgentity_s@@@Z 20087dc0 f   g_mover.obj
 0001:00086f90       ?Think_SetupTrainTargets_rotating@@YAXPAUgentity_s@@@Z 20087f90 f   g_mover.obj
 0001:00087120       ?Think_SpawnNewDoorTrigger@@YAXPAUgentity_s@@@Z 20088120 f   g_mover.obj
 0001:00087360       ?ThrowDebris@@YAXPAUgentity_s@@PADMQAM@Z 20088360 f   g_mover.obj
 0001:00087370       ?Touch_Button@@YAXPAUgentity_s@@0PAUtrace_t@@@Z 20088370 f   g_mover.obj
 0001:000873b0       ?Touch_DoorTrigger@@YAXPAUgentity_s@@0PAUtrace_t@@@Z 200883b0 f   g_mover.obj
 0001:000875b0       ?Touch_Plat@@YAXPAUgentity_s@@0PAUtrace_t@@@Z 200885b0 f   g_mover.obj
 0001:00087600       ?Touch_PlatCenterTrigger@@YAXPAUgentity_s@@0PAUtrace_t@@@Z 20088600 f   g_mover.obj
 0001:00087640       ?Use_BinaryMover@@YAXPAUgentity_s@@00@Z 20088640 f   g_mover.obj
 0001:00087a80       ?Use_Func_Rotate@@YAXPAUgentity_s@@00@Z 20088a80 f   g_mover.obj
 0001:00087af0       ?Use_Static@@YAXPAUgentity_s@@00@Z 20088af0 f   g_mover.obj
 0001:00087b20       ?Use_TrinaryMover@@YAXPAUgentity_s@@00@Z 20088b20 f   g_mover.obj
 0001:00087de0       ?findNonAIBrushTargeter@@YA?AW4qboolean@@PAUgentity_s@@@Z 20088de0 f   g_mover.obj
 0001:00087eb0       ?finishSpawningKeyedMover@@YAXPAUgentity_s@@@Z 20088eb0 f   g_mover.obj
 0001:00088000       ?func_brushmodel_delete@@YAXPAUgentity_s@@@Z 20089000 f   g_mover.obj
 0001:00088010       ?func_constructible_explode@@YAXPAUgentity_s@@00HH@Z 20089010 f   g_mover.obj
 0001:000885c0       ?func_constructible_spawn@@YAXPAUgentity_s@@00@Z 200895c0 f   g_mover.obj
 0001:000885f0       ?func_constructible_underconstructionthink@@YAXPAUgentity_s@@@Z 200895f0 f   g_mover.obj
 0001:00088830       ?func_constructible_use@@YAXPAUgentity_s@@00@Z 20089830 f   g_mover.obj
 0001:00088a60       ?func_constructiblespawn@@YAXPAUgentity_s@@@Z 20089a60 f   g_mover.obj
 0001:000891c0       ?func_explosive_alert@@YAXPAUgentity_s@@@Z 2008a1c0 f   g_mover.obj
 0001:000891f0       ?func_explosive_explode@@YAXPAUgentity_s@@00HH@Z 2008a1f0 f   g_mover.obj
 0001:00089550       ?func_explosive_spawn@@YAXPAUgentity_s@@00@Z 2008a550 f   g_mover.obj
 0001:00089590       ?func_explosive_touch@@YAXPAUgentity_s@@0PAUtrace_t@@@Z 2008a590 f   g_mover.obj
 0001:000895c0       ?func_explosive_use@@YAXPAUgentity_s@@00@Z 2008a5c0 f   g_mover.obj
 0001:00089630       ?info_limbo_camera_setup@@YAXPAUgentity_s@@@Z 2008a630 f   g_mover.obj
 0001:00089840       ?target_effect@@YAXPAUgentity_s@@00@Z 2008a840 f   g_mover.obj
 0001:00089930       ?target_explosion_use@@YAXPAUgentity_s@@00@Z 2008a930 f   g_mover.obj
 0001:00089a30       ?use_invisible_user@@YAXPAUgentity_s@@00@Z 2008aa30 f   g_mover.obj
 0001:00089b10       ?G_smvAddTeam_cmd@@YAXPAUgentity_s@@H@Z 2008ab10 f   g_multiview.obj
 0001:00089c10       ?G_smvAddView@@YAXPAUgentity_s@@H@Z 2008ac10 f   g_multiview.obj
 0001:00089e40       ?G_smvAdd_cmd@@YAXPAUgentity_s@@@Z 2008ae40 f   g_multiview.obj
 0001:00089ff0       ?G_smvAllRemoveSingleClient@@YAXH@Z 2008aff0 f   g_multiview.obj
 0001:0008a060       ?G_smvCommands@@YA?AW4qboolean@@PAUgentity_s@@PAD@Z 2008b060 f   g_multiview.obj
 0001:0008a070       ?G_smvDel_cmd@@YAXPAUgentity_s@@@Z 2008b070 f   g_multiview.obj
 0001:0008a120       ?G_smvGenerateClientList@@YAIPAUgentity_s@@@Z 2008b120 f   g_multiview.obj
 0001:0008a1c0       ?G_smvLocateEntityInMVList@@YA?AW4qboolean@@PAUgentity_s@@HW41@@Z 2008b1c0 f   g_multiview.obj
 0001:0008a240       ?G_smvRegenerateClients@@YAXPAUgentity_s@@H@Z 2008b240 f   g_multiview.obj
 0001:0008a280       ?G_smvRemoveEntityInMVList@@YAXPAUgentity_s@@PAUmview_t@@@Z 2008b280 f   g_multiview.obj
 0001:0008a2d0       ?G_smvRemoveInvalidClients@@YAXPAUgentity_s@@H@Z 2008b2d0 f   g_multiview.obj
 0001:0008a360       ?G_smvRunCamera@@YA?AW4qboolean@@PAUgentity_s@@@Z 2008b360 f   g_multiview.obj
 0001:0008a800       ?G_smvUpdateClientCSList@@YAXPAUgentity_s@@@Z 2008b800 f   g_multiview.obj
 0001:0008a830       ?Delayed_Leak_Think@@YAXPAUgentity_s@@@Z 2008b830 f   g_props.obj
 0001:0008a8f0       ?DropToFloor@@YAXPAUgentity_s@@@Z 2008b8f0 f   g_props.obj
 0001:0008aa00       ?DropToFloorG@@YAXPAUgentity_s@@@Z 2008ba00 f   g_props.obj
 0001:0008aac0       ?InitProp@@YAXPAUgentity_s@@@Z 2008bac0 f   g_props.obj
 0001:0008ada0       ?Just_Got_Thrown@@YAXPAUgentity_s@@@Z 2008bda0 f   g_props.obj
 0001:0008af90       ?OilParticles_think@@YAXPAUgentity_s@@@Z 2008bf90 f   g_props.obj
 0001:0008b070       ?OilSlick_remove@@YAXPAUgentity_s@@@Z 2008c070 f   g_props.obj
 0001:0008b0f0       ?OilSlick_remove_think@@YAXPAUgentity_s@@@Z 2008c0f0 f   g_props.obj
 0001:0008b120       ?PGUNsparks_use@@YAXPAUgentity_s@@00@Z 2008c120 f   g_props.obj
 0001:0008b1b0       ?Prop_Break_Sound@@YAXPAUgentity_s@@@Z 2008c1b0 f   g_props.obj
 0001:0008b220       ?Prop_Check_Ground@@YAXPAUgentity_s@@@Z 2008c220 f   g_props.obj
 0001:0008b330       ?Prop_Touch@@YA?AW4qboolean@@PAUgentity_s@@0QAM@Z 2008c330 f   g_props.obj
 0001:0008b5a0       ?Props_Activated@@YAXPAUgentity_s@@@Z 2008c5a0 f   g_props.obj
 0001:0008bb10       ?Props_Barrel_Animate@@YAXPAUgentity_s@@@Z 2008cb10 f   g_props.obj
 0001:0008bc40       ?Props_Barrel_Die@@YAXPAUgentity_s@@00HH@Z 2008cc40 f   g_props.obj
 0001:0008bdc0       ?Props_Barrel_Pain@@YAXPAUgentity_s@@0HQAM@Z 2008cdc0 f   g_props.obj
 0001:0008be20       ?Props_Barrel_Think@@YAXPAUgentity_s@@@Z 2008ce20 f   g_props.obj
 0001:0008be40       ?Props_Barrel_Touch@@YAXPAUgentity_s@@0PAUtrace_t@@@Z 2008ce40 f   g_props.obj
 0001:0008be50       ?Props_Chair_Animate@@YAXPAUgentity_s@@@Z 2008ce50 f   g_props.obj
 0001:0008c090       ?Props_Chair_Die@@YAXPAUgentity_s@@00HH@Z 2008d090 f   g_props.obj
 0001:0008c150       ?Props_Chair_Skyboxtouch@@YAXPAUgentity_s@@@Z 2008d150 f   g_props.obj
 0001:0008c170       ?Props_Chair_Think@@YAXPAUgentity_s@@@Z 2008d170 f   g_props.obj
 0001:0008c3d0       ?Props_Chair_Touch@@YAXPAUgentity_s@@0PAUtrace_t@@@Z 2008d3d0 f   g_props.obj
 0001:0008c540       ?Props_TurnLightsOff@@YAXPAUgentity_s@@@Z 2008d540 f   g_props.obj
 0001:0008c590       ?Psmoke_think@@YAXPAUgentity_s@@@Z 2008d590 f   g_props.obj
 0001:0008c640       ?Psparks_think@@YAXPAUgentity_s@@@Z 2008d640 f   g_props.obj
 0001:0008c650       ?SP_Dust@@YAXPAUgentity_s@@@Z 2008d650 f   g_props.obj
 0001:0008c6d0       ?SP_OilParticles@@YAXPAUgentity_s@@@Z 2008d6d0 f   g_props.obj
 0001:0008c6e0       ?SP_OilSlick@@YAXPAUgentity_s@@@Z 2008d6e0 f   g_props.obj
 0001:0008c770       ?SP_Props_58x112tablew@@YAXPAUgentity_s@@@Z 2008d770 f   g_props.obj
 0001:0008c7e0       ?SP_Props_Bench@@YAXPAUgentity_s@@@Z 2008d7e0 f   g_props.obj
 0001:0008c850       ?SP_Props_Chair@@YAXPAUgentity_s@@@Z 2008d850 f   g_props.obj
 0001:0008ca30       ?SP_Props_ChairChat@@YAXPAUgentity_s@@@Z 2008da30 f   g_props.obj
 0001:0008ca60       ?SP_Props_ChairChatArm@@YAXPAUgentity_s@@@Z 2008da60 f   g_props.obj
 0001:0008ca90       ?SP_Props_ChairHiback@@YAXPAUgentity_s@@@Z 2008da90 f   g_props.obj
 0001:0008cc70       ?SP_Props_ChairSide@@YAXPAUgentity_s@@@Z 2008dc70 f   g_props.obj
 0001:0008ce80       ?SP_Props_ChateauChair@@YAXPAUgentity_s@@@Z 2008de80 f   g_props.obj
 0001:0008d070       ?SP_Props_Crate32x64@@YAXPAUgentity_s@@@Z 2008e070 f   g_props.obj
 0001:0008d0e0       ?SP_Props_DamageInflictor@@YAXPAUgentity_s@@@Z 2008e0e0 f   g_props.obj
 0001:0008d130       ?SP_Props_Desklamp@@YAXPAUgentity_s@@@Z 2008e130 f   g_props.obj
 0001:0008d310       ?SP_Props_Flamebarrel@@YAXPAUgentity_s@@@Z 2008e310 f   g_props.obj
 0001:0008d500       ?SP_Props_Flipping_Table@@YAXPAUgentity_s@@@Z 2008e500 f   g_props.obj
 0001:0008d6b0       ?SP_Props_Locker_Tall@@YAXPAUgentity_s@@@Z 2008e6b0 f   g_props.obj
 0001:0008d730       ?SP_Props_Radio@@YAXPAUgentity_s@@@Z 2008e730 f   g_props.obj
 0001:0008d7b0       ?SP_Props_RadioSEVEN@@YAXPAUgentity_s@@@Z 2008e7b0 f   g_props.obj
 0001:0008d840       ?SP_SmokeDust@@YAXPAUgentity_s@@@Z 2008e840 f   g_props.obj
 0001:0008d8b0       ?SP_crate_32@@YAXPAUgentity_s@@@Z 2008e8b0 f   g_props.obj
 0001:0008da30       ?SP_crate_64@@YAXPAUgentity_s@@@Z 2008ea30 f   g_props.obj
 0001:0008dbb0       ?SP_props_box_32@@YAXPAUgentity_s@@@Z 2008ebb0 f   g_props.obj
 0001:0008dc80       ?SP_props_box_48@@YAXPAUgentity_s@@@Z 2008ec80 f   g_props.obj
 0001:0008dd50       ?SP_props_box_64@@YAXPAUgentity_s@@@Z 2008ed50 f   g_props.obj
 0001:0008de20       ?SP_props_castlebed@@YAXPAUgentity_s@@@Z 2008ee20 f   g_props.obj
 0001:0008dea0       ?SP_props_decorBRUSH@@YAXPAUgentity_s@@@Z 2008eea0 f   g_props.obj
 0001:0008def0       ?SP_props_decor_Scale@@YAXPAUgentity_s@@@Z 2008eef0 f   g_props.obj
 0001:0008dff0       ?SP_props_decoration@@YAXPAUgentity_s@@@Z 2008eff0 f   g_props.obj
 0001:0008e590       ?SP_props_flamethrower@@YAXPAUgentity_s@@@Z 2008f590 f   g_props.obj
 0001:0008e680       ?SP_props_footlocker@@YAXPAUgentity_s@@@Z 2008f680 f   g_props.obj
 0001:0008e9d0       ?SP_props_gunsparks@@YAXPAUgentity_s@@@Z 2008f9d0 f   g_props.obj
 0001:0008ea70       ?SP_props_shard_generator@@YAXPAUgentity_s@@@Z 2008fa70 f   g_props.obj
 0001:0008eb00       ?SP_props_snowGenerator@@YAXPAUgentity_s@@@Z 2008fb00 f   g_props.obj
 0001:0008ed90       ?SP_props_sparks@@YAXPAUgentity_s@@@Z 2008fd90 f   g_props.obj
 0001:0008edb0       ?SP_props_statue@@YAXPAUgentity_s@@@Z 2008fdb0 f   g_props.obj
 0001:0008f200       ?SP_props_statueBRUSH@@YAXPAUgentity_s@@@Z 20090200 f   g_props.obj
 0001:0008f260       ?SP_skyportal@@YAXPAUgentity_s@@@Z 20090260 f   g_props.obj
 0001:0008f3d0       ?Spawn_Junk@@YAXPAUgentity_s@@@Z 200903d0 f   g_props.obj
 0001:0008f590       ?Spawn_Shard@@YAXPAUgentity_s@@0HH@Z 20090590 f   g_props.obj
 0001:0008f870       ?Use_DamageInflictor@@YAXPAUgentity_s@@00@Z 20090870 f   g_props.obj
 0001:0008f900       ?Use_Props_Shard_Generator@@YAXPAUgentity_s@@00@Z 20090900 f   g_props.obj
 0001:0008f960       ?Use_props_decoration@@YAXPAUgentity_s@@00@Z 20090960 f   g_props.obj
 0001:0008f9d0       ?barrel_smoke@@YAXPAUgentity_s@@@Z 200909d0 f   g_props.obj
 0001:0008fa90       ?crate_animate@@YAXPAUgentity_s@@@Z 20090a90 f   g_props.obj
 0001:0008fb10       ?crate_die@@YAXPAUgentity_s@@00HH@Z 20090b10 f   g_props.obj
 0001:0008fbb0       ?dust_angles_think@@YAXPAUgentity_s@@@Z 20090bb0 f   g_props.obj
 0001:0008fc30       ?dust_use@@YAXPAUgentity_s@@00@Z 20090c30 f   g_props.obj
 0001:0008fd50       ?flippy_table_animate@@YAXPAUgentity_s@@@Z 20090d50 f   g_props.obj
 0001:0008fd60       ?flippy_table_use@@YAXPAUgentity_s@@00@Z 20090d60 f   g_props.obj
 0001:0008ff20       ?init_locker@@YAXPAUgentity_s@@@Z 20090f20 f   g_props.obj
 0001:00090010       ?locker_tall_think@@YAXPAUgentity_s@@@Z 20091010 f   g_props.obj
 0001:00090060       ?moveit@@YAXPAUgentity_s@@MM@Z 20091060 f   g_props.obj
 0001:000902e0       ?propExplosion@@YAXPAUgentity_s@@@Z 200912e0 f   g_props.obj
 0001:00090420       ?propExplosionLarge@@YAXPAUgentity_s@@@Z 20091420 f   g_props.obj
 0001:00090560       ?prop_smoke@@YAXPAUgentity_s@@@Z 20091560 f   g_props.obj
 0001:000905c0       ?props_58x112tablew_die@@YAXPAUgentity_s@@00HH@Z 200915c0 f   g_props.obj
 0001:00090600       ?props_58x112tablew_think@@YAXPAUgentity_s@@@Z 20091600 f   g_props.obj
 0001:00090660       ?props_bench_die@@YAXPAUgentity_s@@00HH@Z 20091660 f   g_props.obj
 0001:00090690       ?props_bench_think@@YAXPAUgentity_s@@@Z 20091690 f   g_props.obj
 0001:00090700       ?props_castlebed_animate@@YAXPAUgentity_s@@@Z 20091700 f   g_props.obj
 0001:00090760       ?props_castlebed_die@@YAXPAUgentity_s@@00HH@Z 20091760 f   g_props.obj
 0001:000907c0       ?props_castlebed_touch@@YAXPAUgentity_s@@0PAUtrace_t@@@Z 200917c0 f   g_props.obj
 0001:00090860       ?props_crate32x64_die@@YAXPAUgentity_s@@00HH@Z 20091860 f   g_props.obj
 0001:00090890       ?props_crate32x64_think@@YAXPAUgentity_s@@@Z 20091890 f   g_props.obj
 0001:00090900       ?props_decoration_animate@@YAXPAUgentity_s@@@Z 20091900 f   g_props.obj
 0001:00090990       ?props_decoration_death@@YAXPAUgentity_s@@00HH@Z 20091990 f   g_props.obj
 0001:00090a50       ?props_flamethrower_init@@YAXPAUgentity_s@@@Z 20091a50 f   g_props.obj
 0001:00090b50       ?props_flamethrower_think@@YAXPAUgentity_s@@@Z 20091b50 f   g_props.obj
 0001:00090da0       ?props_flamethrower_use@@YAXPAUgentity_s@@00@Z 20091da0 f   g_props.obj
 0001:00090e60       ?props_flippy_blocked@@YAXPAUgentity_s@@0@Z 20091e60 f   g_props.obj
 0001:00091130       ?props_flippy_table_die@@YAXPAUgentity_s@@00HH@Z 20092130 f   g_props.obj
 0001:00091180       ?props_locker_death@@YAXPAUgentity_s@@00HH@Z 20092180 f   g_props.obj
 0001:000911f0       ?props_locker_endrattle@@YAXPAUgentity_s@@@Z 200921f0 f   g_props.obj
 0001:00091230       ?props_locker_mass@@YAXPAUgentity_s@@@Z 20092230 f   g_props.obj
 0001:00091420       ?props_locker_pain@@YAXPAUgentity_s@@0HQAM@Z 20092420 f   g_props.obj
 0001:00091440       ?props_locker_spawn_item@@YAXPAUgentity_s@@@Z 20092440 f   g_props.obj
 0001:000914e0       ?props_locker_tall_die@@YAXPAUgentity_s@@00HH@Z 200924e0 f   g_props.obj
 0001:00091530       ?props_locker_use@@YAXPAUgentity_s@@00@Z 20092530 f   g_props.obj
 0001:00091590       ?props_radio_die@@YAXPAUgentity_s@@00HH@Z 20092590 f   g_props.obj
 0001:000915d0       ?props_radio_dieSEVEN@@YAXPAUgentity_s@@00HH@Z 200925d0 f   g_props.obj
 0001:00091650       ?props_snowGenerator_think@@YAXPAUgentity_s@@@Z 20092650 f   g_props.obj
 0001:000918d0       ?props_snowGenerator_use@@YAXPAUgentity_s@@00@Z 200928d0 f   g_props.obj
 0001:00091940       ?props_statue_animate@@YAXPAUgentity_s@@@Z 20092940 f   g_props.obj
 0001:00091a30       ?props_statue_blocked@@YAXPAUgentity_s@@@Z 20092a30 f   g_props.obj
 0001:00091cd0       ?props_statue_death@@YAXPAUgentity_s@@00HH@Z 20092cd0 f   g_props.obj
 0001:00091dc0       ?props_statue_touch@@YAXPAUgentity_s@@0PAUtrace_t@@@Z 20092dc0 f   g_props.obj
 0001:00091df0       ?props_touch@@YAXPAUgentity_s@@0PAUtrace_t@@@Z 20092df0 f   g_props.obj
 0001:00091e20       ?smokedust_use@@YAXPAUgentity_s@@00@Z 20092e20 f   g_props.obj
 0001:00091ef0       ?smoker_think@@YAXPAUgentity_s@@@Z 20092ef0 f   g_props.obj
 0001:00091f40       ?sparks_angles_think@@YAXPAUgentity_s@@@Z 20092f40 f   g_props.obj
 0001:00092060       ?touch_crate_64@@YAXPAUgentity_s@@0PAUtrace_t@@@Z 20093060 f   g_props.obj
 0001:00092110       ?touch_props_box_32@@YAXPAUgentity_s@@0PAUtrace_t@@@Z 20093110 f   g_props.obj
 0001:000921c0       ?touch_props_box_48@@YAXPAUgentity_s@@0PAUtrace_t@@@Z 200931c0 f   g_props.obj
 0001:00092270       ?touch_props_box_64@@YAXPAUgentity_s@@0PAUtrace_t@@@Z 20093270 f   g_props.obj
 0001:00092320       ?validOilSlickSpawnPoint@@YA?AW4qboolean@@QAMPAUgentity_s@@@Z 20093320 f   g_props.obj
 0001:00092410       ?Cmd_AuthRcon_f@@YAXPAUgentity_s@@@Z 20093410 f   g_referee.obj
 0001:000924d0       ?G_MakeReferee@@YAXXZ      200934d0 f   g_referee.obj
 0001:000925b0       ?G_MuteClient@@YAXXZ       200935b0 f   g_referee.obj
 0001:00092710       ?G_PlayerBan@@YAXXZ        20093710 f   g_referee.obj
 0001:000927b0       ?G_RemoveReferee@@YAXXZ    200937b0 f   g_referee.obj
 0001:00092870       ?G_UnMuteClient@@YAXXZ     20093870 f   g_referee.obj
 0001:00092960       ?G_refAllReady_cmd@@YAXPAUgentity_s@@@Z 20093960 f   g_referee.obj
 0001:000929f0       ?G_refClientnumForName@@YAHPAUgentity_s@@PBD@Z 200939f0 f   g_referee.obj
 0001:00092ad0       ?G_refCommandCheck@@YA?AW4qboolean@@PAUgentity_s@@PAD@Z 20093ad0 f   g_referee.obj
 0001:00092da0       ?G_refHelp_cmd@@YAXPAUgentity_s@@@Z 20093da0 f   g_referee.obj
 0001:00092eb0       ?G_refLockTeams_cmd@@YAXPAUgentity_s@@W4qboolean@@@Z 20093eb0 f   g_referee.obj
 0001:00092f70       ?G_refMute_cmd@@YAXPAUgentity_s@@W4qboolean@@@Z 20093f70 f   g_referee.obj
 0001:00093290       ?G_refPause_cmd@@YAXPAUgentity_s@@W4qboolean@@@Z 20094290 f   g_referee.obj
 0001:00093450       ?G_refPlayerPut_cmd@@YAXPAUgentity_s@@H@Z 20094450 f   g_referee.obj
 0001:000935d0       ?G_refPrintf@@YAXPAUgentity_s@@PBDZZ 200945d0 f   g_referee.obj
 0001:00093670       ?G_refRemove_cmd@@YAXPAUgentity_s@@@Z 20094670 f   g_referee.obj
 0001:000937b0       ?G_refSpeclockTeams_cmd@@YAXPAUgentity_s@@W4qboolean@@@Z 200947b0 f   g_referee.obj
 0001:00093870       ?G_refWarmup_cmd@@YAXPAUgentity_s@@@Z 20094870 f   g_referee.obj
 0001:00093940       ?G_refWarning_cmd@@YAXPAUgentity_s@@@Z 20094940 f   g_referee.obj
 0001:00093a60       ?G_ref_cmd@@YAXPAUgentity_s@@IW4qboolean@@@Z 20094a60 f   g_referee.obj
 0001:00093d20       ?G_Script_ActionForString@@YAPAUg_script_stack_action_t@@PAD@Z 20094d20 f   g_script.obj
 0001:00093db0       ?G_Script_EventForString@@YAHPBD@Z 20094db0 f   g_script.obj
 0001:00093e30       ?G_Script_EventStringInit@@YAXXZ 20094e30 f   g_script.obj
 0001:00094040       ?G_Script_ParseSpawnbot@@YAXPAPADQADH@Z 20095040 f   g_script.obj
 0001:000941a0       ?G_Script_ScriptChange@@YAXPAUgentity_s@@H@Z 200951a0 f   g_script.obj
 0001:000942a0       ?G_Script_ScriptEvent@@YAXPAUgentity_s@@PBD1@Z 200952a0 f   g_script.obj
 0001:000944b0       ?G_Script_ScriptLoad@@YAXXZ 200954b0 f   g_script.obj
 0001:000946f0       ?G_Script_ScriptParse@@YAXPAUgentity_s@@@Z 200956f0 f   g_script.obj
 0001:00095090       ?G_Script_ScriptRun@@YA?AW4qboolean@@PAUgentity_s@@@Z 20096090 f   g_script.obj
 0001:000952a0       ?SP_func_fakebrush@@YAXPAUgentity_s@@@Z 200962a0 f   g_script.obj
 0001:000952d0       ?SP_script_camera@@YAXPAUgentity_s@@@Z 200962d0 f   g_script.obj
 0001:00095370       ?SP_script_model_med@@YAXPAUgentity_s@@@Z 20096370 f   g_script.obj
 0001:00095450       ?SP_script_mover@@YAXPAUgentity_s@@@Z 20096450 f   g_script.obj
 0001:00095940       ?SP_script_multiplayer@@YAXPAUgentity_s@@@Z 20096940 f   g_script.obj
 0001:000959f0       ?mountedmg42_fire@@YAXPAUgentity_s@@@Z 200969f0 f   g_script.obj
 0001:00095b40       ?script_linkentity@@YAXPAUgentity_s@@@Z 20096b40 f   g_script.obj
 0001:00095b50       ?script_model_med_spawn@@YAXPAUgentity_s@@@Z 20096b50 f   g_script.obj
 0001:00095be0       ?script_model_med_use@@YAXPAUgentity_s@@00@Z 20096be0 f   g_script.obj
 0001:00095c00       ?script_mover_aas_blocking@@YAXPAUgentity_s@@@Z 20096c00 f   g_script.obj
 0001:00095d20       ?script_mover_blocked@@YAXPAUgentity_s@@0@Z 20096d20 f   g_script.obj
 0001:00095db0       ?script_mover_die@@YAXPAUgentity_s@@00HH@Z 20096db0 f   g_script.obj
 0001:00095e20       ?script_mover_set_blocking@@YAXPAUgentity_s@@@Z 20096e20 f   g_script.obj
 0001:00095e50       ?script_mover_spawn@@YAXPAUgentity_s@@@Z 20096e50 f   g_script.obj
 0001:00095f20       ?script_mover_use@@YAXPAUgentity_s@@00@Z 20096f20 f   g_script.obj
 0001:00095f90       ?G_IsValidBotStateGoal@@YA?AW4qboolean@@PAUgentity_s@@@Z 20096f90 f   g_script_actions.obj
 0001:00096040       ?G_ScriptAction_AIScriptName@@YA?AW4qboolean@@PAUgentity_s@@PAD@Z 20097040 f   g_script_actions.obj
 0001:00096050       ?G_ScriptAction_AbortIfNotSinglePlayer@@YA?AW4qboolean@@PAUgentity_s@@PAD@Z 20097050 f   g_script_actions.obj
 0001:00096090       ?G_ScriptAction_AbortIfWarmup@@YA?AW4qboolean@@PAUgentity_s@@PAD@Z 20097090 f   g_script_actions.obj
 0001:000960d0       ?G_ScriptAction_AbortMove@@YA?AW4qboolean@@PAUgentity_s@@PAD@Z 200970d0 f   g_script_actions.obj
 0001:00096230       ?G_ScriptAction_Accum@@YA?AW4qboolean@@PAUgentity_s@@PAD@Z 20097230 f   g_script_actions.obj
 0001:00096a70       ?G_ScriptAction_AddTankAmmo@@YA?AW4qboolean@@PAUgentity_s@@PAD@Z 20097a70 f   g_script_actions.obj
 0001:00096b80       ?G_ScriptAction_AddTeamVoiceAnnounce@@YA?AW4qboolean@@PAUgentity_s@@PAD@Z 20097b80 f   g_script_actions.obj
 0001:00096c90       ?G_ScriptAction_AlertEntity@@YA?AW4qboolean@@PAUgentity_s@@PAD@Z 20097c90 f   g_script_actions.obj
 0001:00096d90       ?G_ScriptAction_AlliedRespawntime@@YA?AW4qboolean@@PAUgentity_s@@PAD@Z 20097d90 f   g_script_actions.obj
 0001:00096e10       ?G_ScriptAction_AllowTankEnter@@YA?AW4qboolean@@PAUgentity_s@@PAD@Z 20097e10 f   g_script_actions.obj
 0001:00096eb0       ?G_ScriptAction_AllowTankExit@@YA?AW4qboolean@@PAUgentity_s@@PAD@Z 20097eb0 f   g_script_actions.obj
 0001:00096f50       ?G_ScriptAction_Announce@@YA?AW4qboolean@@PAUgentity_s@@PAD@Z 20097f50 f   g_script_actions.obj
 0001:00096fd0       ?G_ScriptAction_Announce_Icon@@YA?AW4qboolean@@PAUgentity_s@@PAD@Z 20097fd0 f   g_script_actions.obj
 0001:000970b0       ?G_ScriptAction_AttatchToTrain@@YA?AW4qboolean@@PAUgentity_s@@PAD@Z 200980b0 f   g_script_actions.obj
 0001:00097180       ?G_ScriptAction_AxisRespawntime@@YA?AW4qboolean@@PAUgentity_s@@PAD@Z 20098180 f   g_script_actions.obj
 0001:00097200       ?G_ScriptAction_BotDebugging@@YA?AW4qboolean@@PAUgentity_s@@PAD@Z 20098200 f   g_script_actions.obj
 0001:000972e0       ?G_ScriptAction_ChangeModel@@YA?AW4qboolean@@PAUgentity_s@@PAD@Z 200982e0 f   g_script_actions.obj
 0001:00097380       ?G_ScriptAction_Construct@@YA?AW4qboolean@@PAUgentity_s@@PAD@Z 20098380 f   g_script_actions.obj
 0001:00097410       ?G_ScriptAction_ConstructibleChargeBarReq@@YA?AW4qboolean@@PAUgentity_s@@PAD@Z 20098410 f   g_script_actions.obj
 0001:000974b0       ?G_ScriptAction_ConstructibleClass@@YA?AW4qboolean@@PAUgentity_s@@PAD@Z 200984b0 f   g_script_actions.obj
 0001:00097560       ?G_ScriptAction_ConstructibleConstructXPBonus@@YA?AW4qboolean@@PAUgentity_s@@PAD@Z 20098560 f   g_script_actions.obj
 0001:000975e0       ?G_ScriptAction_ConstructibleDestructXPBonus@@YA?AW4qboolean@@PAUgentity_s@@PAD@Z 200985e0 f   g_script_actions.obj
 0001:00097660       ?G_ScriptAction_ConstructibleDuration@@YA?AW4qboolean@@PAUgentity_s@@PAD@Z 20098660 f   g_script_actions.obj
 0001:000976f0       ?G_ScriptAction_ConstructibleHealth@@YA?AW4qboolean@@PAUgentity_s@@PAD@Z 200986f0 f   g_script_actions.obj
 0001:00097770       ?G_ScriptAction_ConstructibleWeaponclass@@YA?AW4qboolean@@PAUgentity_s@@PAD@Z 20098770 f   g_script_actions.obj
 0001:000977f0       ?G_ScriptAction_Cvar@@YA?AW4qboolean@@PAUgentity_s@@PAD@Z 200987f0 f   g_script_actions.obj
 0001:00097e60       ?G_ScriptAction_DisableMessage@@YA?AW4qboolean@@PAUgentity_s@@PAD@Z 20098e60 f   g_script_actions.obj
 0001:00097ee0       ?G_ScriptAction_DisableSpeaker@@YA?AW4qboolean@@PAUgentity_s@@PAD@Z 20098ee0 f   g_script_actions.obj
 0001:00097fa0       ?G_ScriptAction_EnableSpeaker@@YA?AW4qboolean@@PAUgentity_s@@PAD@Z 20098fa0 f   g_script_actions.obj
 0001:00098060       ?G_ScriptAction_EndRound@@YA?AW4qboolean@@PAUgentity_s@@PAD@Z 20099060 f   g_script_actions.obj
 0001:00098090       ?G_ScriptAction_EntityScriptName@@YA?AW4qboolean@@PAUgentity_s@@PAD@Z 20099090 f   g_script_actions.obj
 0001:000980b0       ?G_ScriptAction_FaceAngles@@YA?AW4qboolean@@PAUgentity_s@@PAD@Z 200990b0 f   g_script_actions.obj
 0001:000985b0       ?G_ScriptAction_FadeAllSounds@@YA?AW4qboolean@@PAUgentity_s@@PAD@Z 200995b0 f   g_script_actions.obj
 0001:000986c0       ?G_ScriptAction_FollowPath@@YA?AW4qboolean@@PAUgentity_s@@PAD@Z 200996c0 f   g_script_actions.obj
 0001:00098be0       ?G_ScriptAction_FollowSpline@@YA?AW4qboolean@@PAUgentity_s@@PAD@Z 20099be0 f   g_script_actions.obj
 0001:00099300       ?G_ScriptAction_FreezeAnimation@@YA?AW4qboolean@@PAUgentity_s@@PAD@Z 2009a300 f   g_script_actions.obj
 0001:00099320       ?G_ScriptAction_GlobalAccum@@YA?AW4qboolean@@PAUgentity_s@@PAD@Z 2009a320 f   g_script_actions.obj
 0001:00099a60       ?G_ScriptAction_GotoMarker@@YA?AW4qboolean@@PAUgentity_s@@PAD@Z 2009aa60 f   g_script_actions.obj
 0001:0009a6a0       ?G_ScriptAction_Halt@@YA?AW4qboolean@@PAUgentity_s@@PAD@Z 2009b6a0 f   g_script_actions.obj
 0001:0009a820       ?G_ScriptAction_Kill@@YA?AW4qboolean@@PAUgentity_s@@PAD@Z 2009b820 f   g_script_actions.obj
 0001:0009a890       ?G_ScriptAction_MusicFade@@YA?AW4qboolean@@PAUgentity_s@@PAD@Z 2009b890 f   g_script_actions.obj
 0001:0009a990       ?G_ScriptAction_MusicPlay@@YA?AW4qboolean@@PAUgentity_s@@PAD@Z 2009b990 f   g_script_actions.obj
 0001:0009aa10       ?G_ScriptAction_MusicQueue@@YA?AW4qboolean@@PAUgentity_s@@PAD@Z 2009ba10 f   g_script_actions.obj
 0001:0009aa80       ?G_ScriptAction_MusicStart@@YA?AW4qboolean@@PAUgentity_s@@PAD@Z 2009ba80 f   g_script_actions.obj
 0001:0009ab20       ?G_ScriptAction_MusicStop@@YA?AW4qboolean@@PAUgentity_s@@PAD@Z 2009bb20 f   g_script_actions.obj
 0001:0009ab80       ?G_ScriptAction_NumberofObjectives@@YA?AW4qboolean@@PAUgentity_s@@PAD@Z 2009bb80 f   g_script_actions.obj
 0001:0009ac40       ?G_ScriptAction_ObjectiveStatus@@YA?AW4qboolean@@PAUgentity_s@@PAD@Z 2009bc40 f   g_script_actions.obj
 0001:0009ae30       ?G_ScriptAction_PlayAnim@@YA?AW4qboolean@@PAUgentity_s@@PAD@Z 2009be30 f   g_script_actions.obj
 0001:0009b150       ?G_ScriptAction_PlaySound@@YA?AW4qboolean@@PAUgentity_s@@PAD@Z 2009c150 f   g_script_actions.obj
 0001:0009b2e0       ?G_ScriptAction_Print@@YA?AW4qboolean@@PAUgentity_s@@PAD@Z 2009c2e0 f   g_script_actions.obj
 0001:0009b370       ?G_ScriptAction_PrintAccum@@YA?AW4qboolean@@PAUgentity_s@@PAD@Z 2009c370 f   g_script_actions.obj
 0001:0009b420       ?G_ScriptAction_PrintGlobalAccum@@YA?AW4qboolean@@PAUgentity_s@@PAD@Z 2009c420 f   g_script_actions.obj
 0001:0009b4d0       ?G_ScriptAction_RemoveEntity@@YA?AW4qboolean@@PAUgentity_s@@PAD@Z 2009c4d0 f   g_script_actions.obj
 0001:0009b500       ?G_ScriptAction_RemoveTeamVoiceAnnounce@@YA?AW4qboolean@@PAUgentity_s@@PAD@Z 2009c500 f   g_script_actions.obj
 0001:0009b5c0       ?G_ScriptAction_RepairMG42@@YA?AW4qboolean@@PAUgentity_s@@PAD@Z 2009c5c0 f   g_script_actions.obj
 0001:0009b700       ?G_ScriptAction_ResetScript@@YA?AW4qboolean@@PAUgentity_s@@PAD@Z 2009c700 f   g_script_actions.obj
 0001:0009b720       ?G_ScriptAction_SetAASState@@YA?AW4qboolean@@PAUgentity_s@@PAD@Z 2009c720 f   g_script_actions.obj
 0001:0009b8b0       ?G_ScriptAction_SetAutoSpawn@@YA?AW4qboolean@@PAUgentity_s@@PAD@Z 2009c8b0 f   g_script_actions.obj
 0001:0009b9e0       ?G_ScriptAction_SetBotGoalPriority@@YA?AW4qboolean@@PAUgentity_s@@PAD@Z 2009c9e0 f   g_script_actions.obj
 0001:0009bbc0       ?G_ScriptAction_SetBotGoalState@@YA?AW4qboolean@@PAUgentity_s@@PAD@Z 2009cbc0 f   g_script_actions.obj
 0001:0009bdd0       ?G_ScriptAction_SetChargeTimeFactor@@YA?AW4qboolean@@PAUgentity_s@@PAD@Z 2009cdd0 f   g_script_actions.obj
 0001:0009c240       ?G_ScriptAction_SetDamagable@@YA?AW4qboolean@@PAUgentity_s@@PAD@Z 2009d240 f   g_script_actions.obj
 0001:0009c320       ?G_ScriptAction_SetDebugLevel@@YA?AW4qboolean@@PAUgentity_s@@PAD@Z 2009d320 f   g_script_actions.obj
 0001:0009c3a0       ?G_ScriptAction_SetDefendingTeam@@YA?AW4qboolean@@PAUgentity_s@@PAD@Z 2009d3a0 f   g_script_actions.obj
 0001:0009c460       ?G_ScriptAction_SetGlobalFog@@YA?AW4qboolean@@PAUgentity_s@@PAD@Z 2009d460 f   g_script_actions.obj
 0001:0009c5d0       ?G_ScriptAction_SetHQStatus@@YA?AW4qboolean@@PAUgentity_s@@PAD@Z 2009d5d0 f   g_script_actions.obj
 0001:0009c6a0       ?G_ScriptAction_SetInitialCamera@@YA?AW4qboolean@@PAUgentity_s@@PAD@Z 2009d6a0 f   g_script_actions.obj
 0001:0009c790       ?G_ScriptAction_SetMainObjective@@YA?AW4qboolean@@PAUgentity_s@@PAD@Z 2009d790 f   g_script_actions.obj
 0001:0009c7a0       ?G_ScriptAction_SetModelFromBrushmodel@@YA?AW4qboolean@@PAUgentity_s@@PAD@Z 2009d7a0 f   g_script_actions.obj
 0001:0009c940       ?G_ScriptAction_SetPosition@@YA?AW4qboolean@@PAUgentity_s@@PAD@Z 2009d940 f   g_script_actions.obj
 0001:0009ca30       ?G_ScriptAction_SetRotation@@YA?AW4qboolean@@PAUgentity_s@@PAD@Z 2009da30 f   g_script_actions.obj
 0001:0009cb40       ?G_ScriptAction_SetRoundTimelimit@@YA?AW4qboolean@@PAUgentity_s@@PAD@Z 2009db40 f   g_script_actions.obj
 0001:0009cc20       ?G_ScriptAction_SetSpeed@@YA?AW4qboolean@@PAUgentity_s@@PAD@Z 2009dc20 f   g_script_actions.obj
 0001:0009cdd0       ?G_ScriptAction_SetState@@YA?AW4qboolean@@PAUgentity_s@@PAD@Z 2009ddd0 f   g_script_actions.obj
 0001:0009cf50       ?G_ScriptAction_SetTankAmmo@@YA?AW4qboolean@@PAUgentity_s@@PAD@Z 2009df50 f   g_script_actions.obj
 0001:0009d010       ?G_ScriptAction_SetWinner@@YA?AW4qboolean@@PAUgentity_s@@PAD@Z 2009e010 f   g_script_actions.obj
 0001:0009d0d0       ?G_ScriptAction_ShaderRemap@@YA?AW4qboolean@@PAUgentity_s@@PAD@Z 2009e0d0 f   g_script_actions.obj
 0001:0009d1d0       ?G_ScriptAction_ShaderRemapFlush@@YA?AW4qboolean@@PAUgentity_s@@PAD@Z 2009e1d0 f   g_script_actions.obj
 0001:0009d1f0       ?G_ScriptAction_SpawnRubble@@YA?AW4qboolean@@PAUgentity_s@@PAD@Z 2009e1f0 f   g_script_actions.obj
 0001:0009d280       ?G_ScriptAction_StartAnimation@@YA?AW4qboolean@@PAUgentity_s@@PAD@Z 2009e280 f   g_script_actions.obj
 0001:0009d450       ?G_ScriptAction_StartCam@@YA?AW4qboolean@@PAUgentity_s@@PAD@Z 2009e450 f   g_script_actions.obj
 0001:0009d550       ?G_ScriptAction_StopCam@@YA?AW4qboolean@@PAUgentity_s@@PAD@Z 2009e550 f   g_script_actions.obj
 0001:0009d5a0       ?G_ScriptAction_StopRotation@@YA?AW4qboolean@@PAUgentity_s@@PAD@Z 2009e5a0 f   g_script_actions.obj
 0001:0009d640       ?G_ScriptAction_StopSound@@YA?AW4qboolean@@PAUgentity_s@@PAD@Z 2009e640 f   g_script_actions.obj
 0001:0009d660       ?G_ScriptAction_TagConnect@@YA?AW4qboolean@@PAUgentity_s@@PAD@Z 2009e660 f   g_script_actions.obj
 0001:0009d7b0       ?G_ScriptAction_TeamVoiceAnnounce@@YA?AW4qboolean@@PAUgentity_s@@PAD@Z 2009e7b0 f   g_script_actions.obj
 0001:0009d8a0       ?G_ScriptAction_ToggleSpeaker@@YA?AW4qboolean@@PAUgentity_s@@PAD@Z 2009e8a0 f   g_script_actions.obj
 0001:0009d960       ?G_ScriptAction_Trigger@@YA?AW4qboolean@@PAUgentity_s@@PAD@Z 2009e960 f   g_script_actions.obj
 0001:0009dc80       ?G_ScriptAction_UnFreezeAnimation@@YA?AW4qboolean@@PAUgentity_s@@PAD@Z 2009ec80 f   g_script_actions.obj
 0001:0009dca0       ?G_ScriptAction_VoiceAnnounce@@YA?AW4qboolean@@PAUgentity_s@@PAD@Z 2009eca0 f   g_script_actions.obj
 0001:0009dd90       ?G_ScriptAction_Wait@@YA?AW4qboolean@@PAUgentity_s@@PAD@Z 2009ed90 f   g_script_actions.obj
 0001:0009def0       ?etpro_ScriptAction_Create@@YA?AW4qboolean@@PAUgentity_s@@PAD@Z 2009eef0 f   g_script_actions.obj
 0001:0009e0a0       ?etpro_ScriptAction_DeleteEntity@@YA?AW4qboolean@@PAUgentity_s@@PAD@Z 2009f0a0 f   g_script_actions.obj
 0001:0009e740       ?etpro_ScriptAction_SetValues@@YA?AW4qboolean@@PAUgentity_s@@PAD@Z 2009f740 f   g_script_actions.obj
 0001:0009ea30       ?G_CalcRank@@YAXPAUgclient_s@@@Z 2009fa30 f   g_session.obj
 0001:0009eb10       ?G_ClientSwap@@YAXPAUgclient_s@@@Z 2009fb10 f   g_session.obj
 0001:0009eba0       ?G_InitSessionData@@YAXPAUgclient_s@@PAD@Z 2009fba0 f   g_session.obj
 0001:0009ed90       ?G_InitWorldSession@@YAXXZ 2009fd90 f   g_session.obj
 0001:0009f0e0       ?G_ReadSessionData@@YAXPAUgclient_s@@@Z 200a00e0 f   g_session.obj
 0001:0009f5f0       ?G_WriteClientSessionData@@YAXPAUgclient_s@@W4qboolean@@@Z 200a05f0 f   g_session.obj
 0001:0009fa40       ?G_WriteSessionData@@YAXW4qboolean@@@Z 200a0a40 f   g_session.obj
 0001:0009fcb0       ?G_AddSpawnVarToken@@YAPADPBD@Z 200a0cb0 f   g_spawn.obj
 0001:0009fd40       ?G_CallSpawn@@YA?AW4qboolean@@PAUgentity_s@@@Z 200a0d40 f   g_spawn.obj
 0001:0009fec0       ?G_NewString@@YAPADPBD@Z   200a0ec0 f   g_spawn.obj
 0001:0009ff40       ?G_ParseField@@YAXPBD0PAUgentity_s@@@Z 200a0f40 f   g_spawn.obj
 0001:000a00e0       ?G_ParseSpawnVars@@YA?AW4qboolean@@XZ 200a10e0 f   g_spawn.obj
 0001:000a0260       ?G_SpawnEntitiesFromString@@YAXXZ 200a1260 f   g_spawn.obj
 0001:000a02f0       ?G_SpawnFloatExt@@YA?AW4qboolean@@PBD0PAM0H@Z 200a12f0 f   g_spawn.obj
 0001:000a0330       ?G_SpawnGEntityFromSpawnVars@@YAXXZ 200a1330 f   g_spawn.obj
 0001:000a04f0       ?G_SpawnGEntityFromSpawnVarsLink@@YAXXZ 200a14f0 f   g_spawn.obj
 0001:000a06d0       ?G_SpawnIntExt@@YA?AW4qboolean@@PBD0PAH0H@Z 200a16d0 f   g_spawn.obj
 0001:000a0710       ?G_SpawnStringExt@@YA?AW4qboolean@@PBD0PAPAD0H@Z 200a1710 f   g_spawn.obj
 0001:000a07e0       ?G_SpawnVector2DExt@@YA?AW4qboolean@@PBD0PAM0H@Z 200a17e0 f   g_spawn.obj
 0001:000a0830       ?G_SpawnVectorExt@@YA?AW4qboolean@@PBD0PAM0H@Z 200a1830 f   g_spawn.obj
 0001:000a0880       ?SP_worldspawn@@YAXXZ      200a1880 f   g_spawn.obj
 0001:000a0b20       ?G_AddKillSkillPoints@@YAXPAUgentity_s@@W4meansOfDeath_t@@W4hitRegion_t@@W4qboolean@@@Z 200a1b20 f   g_stats.obj
 0001:000a1690       ?G_AddKillSkillPointsForDestruction@@YAXPAUgentity_s@@W4meansOfDeath_t@@PAUg_constructible_stats_s@@@Z 200a2690 f   g_stats.obj
 0001:000a1880       ?G_AddSkillPoints@@YAXPAUgentity_s@@W4skillType_t@@M@Z 200a2880 f   g_stats.obj
 0001:000a1ab0       ?G_BuildEndgameStats@@YAXXZ 200a2ab0 f   g_stats.obj
 0001:000a26d0       ?G_DebugAddSkillLevel@@YAXPAUgentity_s@@W4skillType_t@@@Z 200a36d0 f   g_stats.obj
 0001:000a2820       ?G_DebugAddSkillPoints@@YAXPAUgentity_s@@W4skillType_t@@MPBD@Z 200a3820 f   g_stats.obj
 0001:000a2990       ?G_DebugCloseSkillLog@@YAXXZ 200a3990 f   g_stats.obj
 0001:000a2a10       ?G_DebugOpenSkillLog@@YAXXZ 200a3a10 f   g_stats.obj
 0001:000a2b00       ?G_LogDeath@@YAXPAUgentity_s@@W4weapon_t@@@Z 200a3b00 f   g_stats.obj
 0001:000a2b90       ?G_LogKill@@YAXPAUgentity_s@@W4weapon_t@@@Z 200a3b90 f   g_stats.obj
 0001:000a2c20       ?G_LogRegionHit@@YAXPAUgentity_s@@W4hitRegion_t@@@Z 200a3c20 f   g_stats.obj
 0001:000a2ca0       ?G_LogTeamKill@@YAXPAUgentity_s@@W4weapon_t@@@Z 200a3ca0 f   g_stats.obj
 0001:000a2d30       ?G_LoseKillSkillPoints@@YAXPAUgentity_s@@W4meansOfDeath_t@@W4hitRegion_t@@W4qboolean@@@Z 200a3d30 f   g_stats.obj
 0001:000a2e90       ?G_LoseSkillPoints@@YAXPAUgentity_s@@W4skillType_t@@M@Z 200a3e90 f   g_stats.obj
 0001:000a3090       ?G_PrintAccuracyLog@@YAXPAUgentity_s@@@Z 200a4090 f   g_stats.obj
 0001:000a32c0       ?G_SetPlayerScore@@YAXPAUgclient_s@@@Z 200a42c0 f   g_stats.obj
 0001:000a3300       ?G_SetPlayerSkill@@YAXPAUgclient_s@@W4skillType_t@@@Z 200a4300 f   g_stats.obj
 0001:000a38a0       ?CreateMapServerEntities@@YAXXZ 200a48a0 f   g_sv_entities.obj
 0001:000a3900       ?CreateServerEntity@@YAPAUg_serverEntity_s@@PAUgentity_s@@@Z 200a4900 f   g_sv_entities.obj
 0001:000a39d0       ?CreateServerEntityFromData@@YAXPAD00QAMH1@Z 200a49d0 f   g_sv_entities.obj
 0001:000a3a80       ?FindServerEntity@@YAPAUg_serverEntity_s@@PAU1@HPAD@Z 200a4a80 f   g_sv_entities.obj
 0001:000a3b00       ?GetFreeServerEntity@@YAPAUg_serverEntity_s@@XZ 200a4b00 f   g_sv_entities.obj
 0001:000a3b60       ?GetServerEntity@@YAPAUg_serverEntity_s@@H@Z 200a4b60 f   g_sv_entities.obj
 0001:000a3ba0       ?InitServerEntities@@YAXXZ 200a4ba0 f   g_sv_entities.obj
 0001:000a3bd0       ?InitServerEntitySetupFunc@@YAXPAUg_serverEntity_s@@@Z 200a4bd0 f   g_sv_entities.obj
 0001:000a3cc0       ?InitialServerEntitySetup@@YAXXZ 200a4cc0 f   g_sv_entities.obj
 0001:000a3d10       ?AddIP@@YAXPAUipFilterList_s@@PBD@Z 200a4d10 f   g_svcmds.obj
 0001:000a3da0       ?AddIPBan@@YAXPBD@Z        200a4da0 f   g_svcmds.obj
 0001:000a3dc0       ?AddMaxLivesBan@@YAXPBD@Z  200a4dc0 f   g_svcmds.obj
 0001:000a3de0       ?AddMaxLivesGUID@@YAXPAD@Z 200a4de0 f   g_svcmds.obj
 0001:000a3e40       ?ClearMaxLivesBans@@YAXXZ  200a4e40 f   g_svcmds.obj
 0001:000a3ea0       ?ClientForString@@YAPAUgclient_s@@PBD@Z 200a4ea0 f   g_svcmds.obj
 0001:000a3fa0       ?ConsoleChat@@YA?AW4qboolean@@W41@@Z 200a4fa0 f   g_svcmds.obj
 0001:000a4180       ?ConsoleCommand@@YA?AW4qboolean@@XZ 200a5180 f   g_svcmds.obj
 0001:000a4a30       ?G_FilterIPBanPacket@@YA_NPBD@Z 200a5a30 f   g_svcmds.obj
 0001:000a4a50       ?G_FilterMaxLivesIPPacket@@YA_NPBD@Z 200a5a50 f   g_svcmds.obj
 0001:000a4a70       ?G_FilterMaxLivesPacket@@YA_NPBD@Z 200a5a70 f   g_svcmds.obj
 0001:000a4ad0       ?G_FilterPacket@@YA_NPAUipFilterList_s@@PBD@Z 200a5ad0 f   g_svcmds.obj
 0001:000a4b90       ?G_GetPlayerByName@@YAPAUgclient_s@@PAD@Z 200a5b90 f   g_svcmds.obj
 0001:000a4c80       ?G_GetPlayerByNum@@YAPAUgclient_s@@H@Z 200a5c80 f   g_svcmds.obj
 0001:000a4d50       ?G_ProcessIPBans@@YAXXZ    200a5d50 f   g_svcmds.obj
 0001:000a4e10       ?PrintMaxLivesGUID@@YAXXZ  200a5e10 f   g_svcmds.obj
 0001:000a4e70       ?StringToFilter@@YA?AW4qboolean@@PBDPAUipFilter_s@@@Z 200a5e70 f   g_svcmds.obj
 0001:000a4f50       ?Svcmd_AddIP_f@@YAXXZ      200a5f50 f   g_svcmds.obj
 0001:000a4fc0       ?Svcmd_Campaign_f@@YAXXZ   200a5fc0 f   g_svcmds.obj
 0001:000a50f0       ?Svcmd_EntityList_f@@YAXXZ 200a60f0 f   g_svcmds.obj
 0001:000a5340       ?Svcmd_ForceTeam_f@@YAXXZ  200a6340 f   g_svcmds.obj
 0001:000a5810       ?Svcmd_ListCampaigns_f@@YAXXZ 200a6810 f   g_svcmds.obj
 0001:000a59f0       ?Svcmd_RemoveIP_f@@YAXXZ   200a69f0 f   g_svcmds.obj
 0001:000a5ae0       ?Svcmd_ResetMatch_f@@YAXW4qboolean@@0@Z 200a6ae0 f   g_svcmds.obj
 0001:000a5b70       ?Svcmd_RevivePlayer@@YAXPAD@Z 200a6b70 f   g_svcmds.obj
 0001:000a5bd0       ?Svcmd_ShuffleTeams_f@@YAXXZ 200a6bd0 f   g_svcmds.obj
 0001:000a5c10       ?Svcmd_StartMatch_f@@YAXXZ 200a6c10 f   g_svcmds.obj
 0001:000a5c20       ?Svcmd_SwapTeams_f@@YAXXZ  200a6c20 f   g_svcmds.obj
 0001:000a5df0       ??1?$list@V?$basic_string@DU?$char_traits@D@std@@V?$allocator@D@2@@std@@V?$allocator@V?$basic_string@DU?$char_traits@D@std@@V?$allocator@D@2@@std@@@2@@std@@QAE@XZ 200a6df0 f i g_syscalls.obj
 0001:000a5ea0       ?PASSFLOAT@@YAHM@Z         200a6ea0 f   g_syscalls.obj
 0001:000a5ec0       ?trap_AAS_AreaCenter@@YAXHQAM@Z 200a6ec0 f   g_syscalls.obj
 0001:000a5ee0       ?trap_AAS_AreaLadder@@YAHH@Z 200a6ee0 f   g_syscalls.obj
 0001:000a5f00       ?trap_AAS_AreaReachability@@YAHH@Z 200a6f00 f   g_syscalls.obj
 0001:000a5f20       ?trap_AAS_AreaTravelTimeToGoalArea@@YAHHQAMHH@Z 200a6f20 f   g_syscalls.obj
 0001:000a5f50       ?trap_AAS_AreaWaypoint@@YA?AW4qboolean@@HQAM@Z 200a6f50 f   g_syscalls.obj
 0001:000a5f70       ?trap_AAS_BBoxAreas@@YAHQAM0PAHH@Z 200a6f70 f   g_syscalls.obj
 0001:000a5fa0       ?trap_AAS_EntityInfo@@YAXHPAX@Z 200a6fa0 f   g_syscalls.obj
 0001:000a5fc0       ?trap_AAS_FloatForBSPEpairKey@@YAHHPADPAM@Z 200a6fc0 f   g_syscalls.obj
 0001:000a5ff0       ?trap_AAS_Initialized@@YAHXZ 200a6ff0 f   g_syscalls.obj
 0001:000a6010       ?trap_AAS_IntForBSPEpairKey@@YAHHPADPAH@Z 200a7010 f   g_syscalls.obj
 0001:000a6040       ?trap_AAS_NextBSPEntity@@YAHH@Z 200a7040 f   g_syscalls.obj
 0001:000a6060       ?trap_AAS_PointAreaNum@@YAHQAM@Z 200a7060 f   g_syscalls.obj
 0001:000a6080       ?trap_AAS_PointContents@@YAHQAM@Z 200a7080 f   g_syscalls.obj
 0001:000a60a0       ?trap_AAS_PredictClientMovement@@YAHPAXHQAMHH11HHMHHH@Z 200a70a0 f   g_syscalls.obj
 0001:000a6100       ?trap_AAS_PresenceTypeBoundingBox@@YAXHQAM0@Z 200a7100 f   g_syscalls.obj
 0001:000a6130       ?trap_AAS_SetCurrentWorld@@YAXH@Z 200a7130 f   g_syscalls.obj
 0001:000a6140       ?trap_AAS_Swimming@@YAHQAM@Z 200a7140 f   g_syscalls.obj
 0001:000a6160       ?trap_AAS_Time@@YAMXZ      200a7160 f   g_syscalls.obj
 0001:000a6190       ?trap_AAS_TraceAreas@@YAHQAM0PAHPAY02MH@Z 200a7190 f   g_syscalls.obj
 0001:000a61c0       ?trap_AAS_ValueForBSPEpairKey@@YAHHPAD0H@Z 200a71c0 f   g_syscalls.obj
 0001:000a61f0       ?trap_AAS_VectorForBSPEpairKey@@YAHHPADQAM@Z 200a71f0 f   g_syscalls.obj
 0001:000a6220       ?trap_AdjustAreaPortalState@@YAXPAUgentity_s@@W4qboolean@@@Z 200a7220 f   g_syscalls.obj
 0001:000a6240       ?trap_AreasConnected@@YA?AW4qboolean@@HH@Z 200a7240 f   g_syscalls.obj
 0001:000a6260       ?trap_Argc@@YAHXZ          200a7260 f   g_syscalls.obj
 0001:000a6270       ?trap_Argv@@YAXHPADH@Z     200a7270 f   g_syscalls.obj
 0001:000a6290       ?trap_BotAllocChatState@@YAHXZ 200a7290 f   g_syscalls.obj
 0001:000a62b0       ?trap_BotAllocGoalState@@YAHH@Z 200a72b0 f   g_syscalls.obj
 0001:000a62d0       ?trap_BotAllocMoveState@@YAHXZ 200a72d0 f   g_syscalls.obj
 0001:000a62f0       ?trap_BotAllocWeaponState@@YAHXZ 200a72f0 f   g_syscalls.obj
 0001:000a6310       ?trap_BotAllocateClient@@YAHH@Z 200a7310 f   g_syscalls.obj
 0001:000a6330       ?trap_BotAvoidGoalTime@@YAMHH@Z 200a7330 f   g_syscalls.obj
 0001:000a6360       ?trap_BotChatLength@@YAHH@Z 200a7360 f   g_syscalls.obj
 0001:000a6380       ?trap_BotChooseBestFightWeapon@@YAHHPAH@Z 200a7380 f   g_syscalls.obj
 0001:000a63a0       ?trap_BotChooseLTGItem@@YAHHQAMPAHH@Z 200a73a0 f   g_syscalls.obj
 0001:000a63d0       ?trap_BotChooseNBGItem@@YAHHQAMPAHHPAXM@Z 200a73d0 f   g_syscalls.obj
 0001:000a6410       ?trap_BotDumpAvoidGoals@@YAXH@Z 200a7410 f   g_syscalls.obj
 0001:000a6430       ?trap_BotDumpGoalStack@@YAXH@Z 200a7430 f   g_syscalls.obj
 0001:000a6450       ?trap_BotEmptyGoalStack@@YAXH@Z 200a7450 f   g_syscalls.obj
 0001:000a6470       ?trap_BotEnterChat@@YAXHHH@Z 200a7470 f   g_syscalls.obj
 0001:000a6480       ?trap_BotFindMatch@@YAHPADPAXK@Z 200a7480 f   g_syscalls.obj
 0001:000a64b0       ?trap_BotFreeCharacter@@YAXH@Z 200a74b0 f   g_syscalls.obj
 0001:000a64d0       ?trap_BotFreeChatState@@YAXH@Z 200a74d0 f   g_syscalls.obj
 0001:000a64f0       ?trap_BotFreeClient@@YAXH@Z 200a74f0 f   g_syscalls.obj
 0001:000a6510       ?trap_BotFreeGoalState@@YAXH@Z 200a7510 f   g_syscalls.obj
 0001:000a6530       ?trap_BotFreeItemWeights@@YAXH@Z 200a7530 f   g_syscalls.obj
 0001:000a6550       ?trap_BotFreeMoveState@@YAXH@Z 200a7550 f   g_syscalls.obj
 0001:000a6570       ?trap_BotFreeWeaponState@@YAXH@Z 200a7570 f   g_syscalls.obj
 0001:000a6590       ?trap_BotGetChatMessage@@YAXHPADH@Z 200a7590 f   g_syscalls.obj
 0001:000a65c0       ?trap_BotGetLevelItemGoal@@YAHHPADPAX@Z 200a75c0 f   g_syscalls.obj
 0001:000a65f0       ?trap_BotGetMapLocationGoal@@YAHPADPAX@Z 200a75f0 f   g_syscalls.obj
 0001:000a6610       ?trap_BotGetNextCampSpotGoal@@YAHHPAX@Z 200a7610 f   g_syscalls.obj
 0001:000a6630       ?trap_BotGetSecondGoal@@YAHHPAX@Z 200a7630 f   g_syscalls.obj
 0001:000a6650       ?trap_BotGetServerCommand@@YAHHPADH@Z 200a7650 f   g_syscalls.obj
 0001:000a6680       ?trap_BotGetSnapshotEntity@@YAHHH@Z 200a7680 f   g_syscalls.obj
 0001:000a66a0       ?trap_BotGetTopGoal@@YAHHPAX@Z 200a76a0 f   g_syscalls.obj
 0001:000a66c0       ?trap_BotGetWeaponInfo@@YAXHHPAX@Z 200a76c0 f   g_syscalls.obj
 0001:000a66f0       ?trap_BotGoalName@@YAXHPADH@Z 200a76f0 f   g_syscalls.obj
 0001:000a6720       ?trap_BotInitAvoidReach@@YAXH@Z 200a7720 f   g_syscalls.obj
 0001:000a6740       ?trap_BotInitLevelItems@@YAXXZ 200a7740 f   g_syscalls.obj
 0001:000a6750       ?trap_BotInitMoveState@@YAXHPAX@Z 200a7750 f   g_syscalls.obj
 0001:000a6770       ?trap_BotInitialChat@@YAXHPADH00000000@Z 200a7770 f   g_syscalls.obj
 0001:000a67c0       ?trap_BotInterbreedGoalFuzzyLogic@@YAXHHH@Z 200a77c0 f   g_syscalls.obj
 0001:000a67f0       ?trap_BotItemGoalInVisButNotVisible@@YAHHQAM0PAX@Z 200a77f0 f   g_syscalls.obj
 0001:000a6820       ?trap_BotLibDefine@@YAHPAD@Z 200a7820 f   g_syscalls.obj
 0001:000a6840       ?trap_BotLibLoadMap@@YAHPBD@Z 200a7840 f   g_syscalls.obj
 0001:000a6860       ?trap_BotLibSetup@@YAHXZ   200a7860 f   g_syscalls.obj
 0001:000a6880       ?trap_BotLibShutdown@@YAHXZ 200a7880 f   g_syscalls.obj
 0001:000a68a0       ?trap_BotLibStartFrame@@YAHM@Z 200a78a0 f   g_syscalls.obj
 0001:000a68d0       ?trap_BotLibTest@@YAHHPADQAM1@Z 200a78d0 f   g_syscalls.obj
 0001:000a6900       ?trap_BotLibUpdateEntity@@YAHHPAX@Z 200a7900 f   g_syscalls.obj
 0001:000a6920       ?trap_BotLibVarGet@@YAHPAD0H@Z 200a7920 f   g_syscalls.obj
 0001:000a6950       ?trap_BotLibVarSet@@YAHPAD0@Z 200a7950 f   g_syscalls.obj
 0001:000a6970       ?trap_BotLoadCharacter@@YAHPADH@Z 200a7970 f   g_syscalls.obj
 0001:000a6990       ?trap_BotLoadChatFile@@YAHHPAD0@Z 200a7990 f   g_syscalls.obj
 0001:000a69c0       ?trap_BotLoadItemWeights@@YAHHPAD@Z 200a79c0 f   g_syscalls.obj
 0001:000a69e0       ?trap_BotLoadWeaponWeights@@YAHHPAD@Z 200a79e0 f   g_syscalls.obj
 0001:000a6a00       ?trap_BotMatchVariable@@YAXPAXHPADH@Z 200a7a00 f   g_syscalls.obj
 0001:000a6a30       ?trap_BotMoveInDirection@@YAHHQAMMH@Z 200a7a30 f   g_syscalls.obj
 0001:000a6a70       ?trap_BotMoveToGoal@@YAXPAXH0H@Z 200a7a70 f   g_syscalls.obj
 0001:000a6aa0       ?trap_BotMovementViewTarget@@YAHHPAXHMQAM@Z 200a7aa0 f   g_syscalls.obj
 0001:000a6ae0       ?trap_BotMutateGoalFuzzyLogic@@YAXHM@Z 200a7ae0 f   g_syscalls.obj
 0001:000a6b10       ?trap_BotNextConsoleMessage@@YAHHPAX@Z 200a7b10 f   g_syscalls.obj
 0001:000a6b30       ?trap_BotNumConsoleMessages@@YAHH@Z 200a7b30 f   g_syscalls.obj
 0001:000a6b50       ?trap_BotNumInitialChats@@YAHHPAD@Z 200a7b50 f   g_syscalls.obj
 0001:000a6b70       ?trap_BotPopGoal@@YAXH@Z   200a7b70 f   g_syscalls.obj
 0001:000a6b90       ?trap_BotPredictVisiblePosition@@YAHQAMHPAXH0@Z 200a7b90 f   g_syscalls.obj
 0001:000a6bc0       ?trap_BotPushGoal@@YAXHPAX@Z 200a7bc0 f   g_syscalls.obj
 0001:000a6be0       ?trap_BotQueueConsoleMessage@@YAXHHPAD@Z 200a7be0 f   g_syscalls.obj
 0001:000a6c10       ?trap_BotReachabilityArea@@YAHQAMH@Z 200a7c10 f   g_syscalls.obj
 0001:000a6c30       ?trap_BotRemoveConsoleMessage@@YAXHH@Z 200a7c30 f   g_syscalls.obj
 0001:000a6c50       ?trap_BotRemoveFromAvoidGoals@@YAXHH@Z 200a7c50 f   g_syscalls.obj
 0001:000a6c70       ?trap_BotReplaceSynonyms@@YAXPADK@Z 200a7c70 f   g_syscalls.obj
 0001:000a6c90       ?trap_BotReplyChat@@YAHHPADHH00000000@Z 200a7c90 f   g_syscalls.obj
 0001:000a6ce0       ?trap_BotResetAvoidGoals@@YAXH@Z 200a7ce0 f   g_syscalls.obj
 0001:000a6d00       ?trap_BotResetAvoidReach@@YAXH@Z 200a7d00 f   g_syscalls.obj
 0001:000a6d20       ?trap_BotResetGoalState@@YAXH@Z 200a7d20 f   g_syscalls.obj
 0001:000a6d40       ?trap_BotResetLastAvoidReach@@YAXH@Z 200a7d40 f   g_syscalls.obj
 0001:000a6d60       ?trap_BotResetMoveState@@YAXH@Z 200a7d60 f   g_syscalls.obj
 0001:000a6d80       ?trap_BotResetWeaponState@@YAXH@Z 200a7d80 f   g_syscalls.obj
 0001:000a6da0       ?trap_BotSaveGoalFuzzyLogic@@YAXHPAD@Z 200a7da0 f   g_syscalls.obj
 0001:000a6dc0       ?trap_BotSetChatGender@@YAXHH@Z 200a7dc0 f   g_syscalls.obj
 0001:000a6de0       ?trap_BotSetChatName@@YAXHPAD@Z 200a7de0 f   g_syscalls.obj
 0001:000a6e00       ?trap_BotTouchingGoal@@YAHQAMPAX@Z 200a7e00 f   g_syscalls.obj
 0001:000a6e20       ?trap_BotUpdateEntityItems@@YAXXZ 200a7e20 f   g_syscalls.obj
 0001:000a6e30       ?trap_BotUserCommand@@YAXHPAUusercmd_s@@@Z 200a7e30 f   g_syscalls.obj
 0001:000a6e50       ?trap_Characteristic_BFloat@@YAMHHMM@Z 200a7e50 f   g_syscalls.obj
 0001:000a6eb0       ?trap_Characteristic_BInteger@@YAHHHHH@Z 200a7eb0 f   g_syscalls.obj
 0001:000a6ee0       ?trap_Characteristic_Float@@YAMHH@Z 200a7ee0 f   g_syscalls.obj
 0001:000a6f10       ?trap_Characteristic_Integer@@YAHHH@Z 200a7f10 f   g_syscalls.obj
 0001:000a6f30       ?trap_Characteristic_String@@YAXHHPADH@Z 200a7f30 f   g_syscalls.obj
 0001:000a6f60       ?trap_Cvar_LatchedVariableStringBuffer@@YAXPBDPADH@Z 200a7f60 f   g_syscalls.obj
 0001:000a6f80       ?trap_Cvar_Register@@YAXPAUvmCvar_t@@PBD1H@Z 200a7f80 f   g_syscalls.obj
 0001:000a6fb0       ?trap_Cvar_Set@@YAXPBD0@Z  200a7fb0 f   g_syscalls.obj
 0001:000a6fd0       ?trap_Cvar_Update@@YAXPAUvmCvar_t@@@Z 200a7fd0 f   g_syscalls.obj
 0001:000a6ff0       ?trap_Cvar_VariableIntegerValue@@YAHPBD@Z 200a7ff0 f   g_syscalls.obj
 0001:000a7010       ?trap_Cvar_VariableStringBuffer@@YAXPBDPADH@Z 200a8010 f   g_syscalls.obj
 0001:000a7030       ?trap_DebugPolygonCreate@@YAHHHPAY02M@Z 200a8030 f   g_syscalls.obj
 0001:000a7050       ?trap_DebugPolygonDelete@@YAXH@Z 200a8050 f   g_syscalls.obj
 0001:000a7070       ?trap_DropClient@@YAXHPBDH@Z 200a8070 f   g_syscalls.obj
 0001:000a7090       ?trap_EA_Activate@@YAXH@Z  200a8090 f   g_syscalls.obj
 0001:000a70b0       ?trap_EA_Attack@@YAXH@Z    200a80b0 f   g_syscalls.obj
 0001:000a70d0       ?trap_EA_Command@@YAXHPAD@Z 200a80d0 f   g_syscalls.obj
 0001:000a70f0       ?trap_EA_Crouch@@YAXH@Z    200a80f0 f   g_syscalls.obj
 0001:000a7110       ?trap_EA_DelayedJump@@YAXH@Z 200a8110 f   g_syscalls.obj
 0001:000a7130       ?trap_EA_DropInv@@YAXHPAD@Z 200a8130 f   g_syscalls.obj
 0001:000a7150       ?trap_EA_DropItem@@YAXHPAD@Z 200a8150 f   g_syscalls.obj
 0001:000a7170       ?trap_EA_EndRegular@@YAXHM@Z 200a8170 f   g_syscalls.obj
 0001:000a71a0       ?trap_EA_Gesture@@YAXH@Z   200a81a0 f   g_syscalls.obj
 0001:000a71c0       ?trap_EA_GetInput@@YAXHMPAX@Z 200a81c0 f   g_syscalls.obj
 0001:000a7200       ?trap_EA_Jump@@YAXH@Z      200a8200 f   g_syscalls.obj
 0001:000a7220       ?trap_EA_Move@@YAXHQAMM@Z  200a8220 f   g_syscalls.obj
 0001:000a7260       ?trap_EA_MoveBack@@YAXH@Z  200a8260 f   g_syscalls.obj
 0001:000a7280       ?trap_EA_MoveDown@@YAXH@Z  200a8280 f   g_syscalls.obj
 0001:000a72a0       ?trap_EA_MoveForward@@YAXH@Z 200a82a0 f   g_syscalls.obj
 0001:000a72c0       ?trap_EA_MoveLeft@@YAXH@Z  200a82c0 f   g_syscalls.obj
 0001:000a72e0       ?trap_EA_MoveRight@@YAXH@Z 200a82e0 f   g_syscalls.obj
 0001:000a7300       ?trap_EA_MoveUp@@YAXH@Z    200a8300 f   g_syscalls.obj
 0001:000a7320       ?trap_EA_Prone@@YAXH@Z     200a8320 f   g_syscalls.obj
 0001:000a7340       ?trap_EA_Reload@@YAXH@Z    200a8340 f   g_syscalls.obj
 0001:000a7360       ?trap_EA_ResetInput@@YAXHPAX@Z 200a8360 f   g_syscalls.obj
 0001:000a7380       ?trap_EA_Respawn@@YAXH@Z   200a8380 f   g_syscalls.obj
 0001:000a73a0       ?trap_EA_Say@@YAXHPAD@Z    200a83a0 f   g_syscalls.obj
 0001:000a73c0       ?trap_EA_SayTeam@@YAXHPAD@Z 200a83c0 f   g_syscalls.obj
 0001:000a73e0       ?trap_EA_SelectWeapon@@YAXHH@Z 200a83e0 f   g_syscalls.obj
 0001:000a7400       ?trap_EA_Talk@@YAXH@Z      200a8400 f   g_syscalls.obj
 0001:000a7420       ?trap_EA_UseInv@@YAXHPAD@Z 200a8420 f   g_syscalls.obj
 0001:000a7440       ?trap_EA_UseItem@@YAXHPAD@Z 200a8440 f   g_syscalls.obj
 0001:000a7460       ?trap_EA_View@@YAXHQAM@Z   200a8460 f   g_syscalls.obj
 0001:000a7480       ?trap_EA_Walk@@YAXH@Z      200a8480 f   g_syscalls.obj
 0001:000a74a0       ?trap_EntitiesInBox@@YAHQBM0PAHH@Z 200a84a0 f   g_syscalls.obj
 0001:000a74d0       ?trap_EntityContact@@YA?AW4qboolean@@QBM0PBUgentity_s@@@Z 200a84d0 f   g_syscalls.obj
 0001:000a74f0       ?trap_EntityContactCapsule@@YA?AW4qboolean@@QBM0PBUgentity_s@@@Z 200a84f0 f   g_syscalls.obj
 0001:000a7510       ?trap_Error@@YAXPBD@Z      200a8510 f   g_syscalls.obj
 0001:000a7530       ?trap_FS_FCloseFile@@YAXH@Z 200a8530 f   g_syscalls.obj
 0001:000a7550       ?trap_FS_FOpenFile@@YAHPBDPAHW4fsMode_t@@@Z 200a8550 f   g_syscalls.obj
 0001:000a7570       ?trap_FS_GetFileList@@YAHPBD0PADH@Z 200a8570 f   g_syscalls.obj
 0001:000a75a0       ?trap_FS_Read@@YAXPAXHH@Z  200a85a0 f   g_syscalls.obj
 0001:000a75c0       ?trap_FS_Rename@@YAHPBD0@Z 200a85c0 f   g_syscalls.obj
 0001:000a75e0       ?trap_FS_Write@@YAHPBXHH@Z 200a85e0 f   g_syscalls.obj
 0001:000a7600       ?trap_GeneticParentsAndChildSelection@@YAHHPAMPAH11@Z 200a8600 f   g_syscalls.obj
 0001:000a7630       ?trap_GetConfigstring@@YAXHPADH@Z 200a8630 f   g_syscalls.obj
 0001:000a7650       ?trap_GetEntityToken@@YA?AW4qboolean@@PADH@Z 200a8650 f   g_syscalls.obj
 0001:000a7670       ?trap_GetServerinfo@@YAXPADH@Z 200a8670 f   g_syscalls.obj
 0001:000a7690       ?trap_GetSoundLength@@YAHH@Z 200a8690 f   g_syscalls.obj
 0001:000a76b0       ?trap_GetTag@@YA?AW4qboolean@@HHPADPAUorientation_t@@@Z 200a86b0 f   g_syscalls.obj
 0001:000a76e0       ?trap_GetUsercmd@@YAXHPAUusercmd_s@@@Z 200a86e0 f   g_syscalls.obj
 0001:000a7700       ?trap_GetUserinfo@@YAXHPADH@Z 200a8700 f   g_syscalls.obj
 0001:000a7720       ?trap_InPVS@@YA?AW4qboolean@@QBM0@Z 200a8720 f   g_syscalls.obj
 0001:000a7740       ?trap_InPVSIgnorePortals@@YA?AW4qboolean@@QBM0@Z 200a8740 f   g_syscalls.obj
 0001:000a7760       ?trap_LinkEntity@@YAXPAUgentity_s@@@Z 200a8760 f   g_syscalls.obj
 0001:000a7780       ?trap_LoadTag@@YA?AW4qboolean@@PBD@Z 200a8780 f   g_syscalls.obj
 0001:000a77a0       ?trap_LocateGameData@@YAXPAUgentity_s@@HHPAUplayerState_s@@H@Z 200a87a0 f   g_syscalls.obj
 0001:000a77d0       ?trap_Milliseconds@@YAHXZ  200a87d0 f   g_syscalls.obj
 0001:000a77e0       ?trap_PC_AddGlobalDefine@@YAHPAD@Z 200a87e0 f   g_syscalls.obj
 0001:000a7800       ?trap_PC_FreeSource@@YAHH@Z 200a8800 f   g_syscalls.obj
 0001:000a7820       ?trap_PC_LoadSource@@YAHPBD@Z 200a8820 f   g_syscalls.obj
 0001:000a7840       ?trap_PC_ReadToken@@YAHHPAUpc_token_s@@@Z 200a8840 f   g_syscalls.obj
 0001:000a7860       ?trap_PC_SourceFileAndLine@@YAHHPADPAH@Z 200a8860 f   g_syscalls.obj
 0001:000a7890       ?trap_PC_UnReadToken@@YAHH@Z 200a8890 f   g_syscalls.obj
 0001:000a78b0       ?trap_PbStat@@YAXHPAD0@Z   200a88b0 f   g_syscalls.obj
 0001:000a78e0       ?trap_PointContents@@YAHQBMH@Z 200a88e0 f   g_syscalls.obj
 0001:000a7900       ?trap_Print@@YAXABV?$basic_string@DU?$char_traits@D@std@@V?$allocator@D@2@@std@@@Z 200a8900 f   g_syscalls.obj
 0001:000a7a90       ?trap_Printf@@YAXPBD@Z     200a8a90 f   g_syscalls.obj
 0001:000a7ab0       ?trap_RealTime@@YAHPAUqtime_s@@@Z 200a8ab0 f   g_syscalls.obj
 0001:000a7ad0       ?trap_RegisterSound@@YAHPBDW4qboolean@@@Z 200a8ad0 f   g_syscalls.obj
 0001:000a7af0       ?trap_SendConsoleCommand@@YAXHPBD@Z 200a8af0 f   g_syscalls.obj
 0001:000a7b10       ?trap_SendServerCommand@@YAXABV?$basic_string@DU?$char_traits@D@std@@V?$allocator@D@2@@std@@ABVBuffer@text@@H@Z 200a8b10 f   g_syscalls.obj
 0001:000a7c80       ?trap_SendServerCommand@@YAXHPBD@Z 200a8c80 f   g_syscalls.obj
 0001:000a7d30       ?trap_SetBrushModel@@YAXPAUgentity_s@@PBD@Z 200a8d30 f   g_syscalls.obj
 0001:000a7e10       ?trap_SetConfigstring@@YAXHPBD@Z 200a8e10 f   g_syscalls.obj
 0001:000a7e80       ?trap_SetUserinfo@@YAXHPBD@Z 200a8e80 f   g_syscalls.obj
 0001:000a7ef0       ?trap_SnapVector@@YAXPAM@Z 200a8ef0 f   g_syscalls.obj
 0001:000a7f10       ?trap_StringContains@@YAHPAD0H@Z 200a8f10 f   g_syscalls.obj
 0001:000a7f40       ?trap_Trace@@YAXPAUtrace_t@@QBM111HH@Z 200a8f40 f   g_syscalls.obj
 0001:000a7f70       ?trap_TraceCapsule@@YAXPAUtrace_t@@QBM111HH@Z 200a8f70 f   g_syscalls.obj
 0001:000a7fa0       ?trap_TraceCapsuleNoEnts@@YAXPAUtrace_t@@QBM111HH@Z 200a8fa0 f   g_syscalls.obj
 0001:000a7fd0       ?trap_TraceNoEnts@@YAXPAUtrace_t@@QBM111HH@Z 200a8fd0 f   g_syscalls.obj
 0001:000a8000       ?trap_UnifyWhiteSpaces@@YAXPAD@Z 200a9000 f   g_syscalls.obj
 0001:000a8020       ?trap_UnlinkEntity@@YAXPAUgentity_s@@@Z 200a9020 f   g_syscalls.obj
 0001:000a8040       _dllEntry                  200a9040 f   g_syscalls.obj
 0001:000a8050       ?G_CheckForNeededClasses@@YAXXZ 200a9050 f   g_systemmsg.obj
 0001:000a8230       ?G_CheckMenDown@@YAXXZ     200a9230 f   g_systemmsg.obj
 0001:000a8350       ?G_GetSysMessageNumber@@YAHPBD@Z 200a9350 f   g_systemmsg.obj
 0001:000a83a0       ?G_NeedEngineers@@YA?AW4qboolean@@H@Z 200a93a0 f   g_systemmsg.obj
 0001:000a8430       ?G_SendSystemMessage@@YAXW4sysMsg_t@@H@Z 200a9430 f   g_systemmsg.obj
 0001:000a8510       ?G_KillEnts@@YAXPBDPAUgentity_s@@1W4meansOfDeath_t@@@Z 200a9510 f   g_target.obj
 0001:000a8650       ?SP_misc_beam@@YAXPAUgentity_s@@@Z 200a9650 f   g_target.obj
 0001:000a8770       ?SP_target_alarm@@YAXPAUgentity_s@@@Z 200a9770 f   g_target.obj
 0001:000a8790       ?SP_target_autosave@@YAXPAUgentity_s@@@Z 200a9790 f   g_target.obj
 0001:000a87a0       ?SP_target_counter@@YAXPAUgentity_s@@@Z 200a97a0 f   g_target.obj
 0001:000a87c0       ?SP_target_delay@@YAXPAUgentity_s@@@Z 200a97c0 f   g_target.obj
 0001:000a8850       ?SP_target_fog@@YAXPAUgentity_s@@@Z 200a9850 f   g_target.obj
 0001:000a8900       ?SP_target_give@@YAXPAUgentity_s@@@Z 200a9900 f   g_target.obj
 0001:000a8920       ?SP_target_kill@@YAXPAUgentity_s@@@Z 200a9920 f   g_target.obj
 0001:000a8940       ?SP_target_laser@@YAXPAUgentity_s@@@Z 200a9940 f   g_target.obj
 0001:000a89a0       ?SP_target_location@@YAXPAUgentity_s@@@Z 200a99a0 f   g_target.obj
 0001:000a89c0       ?SP_target_lock@@YAXPAUgentity_s@@@Z 200a99c0 f   g_target.obj
 0001:000a89e0       ?SP_target_position@@YAXPAUgentity_s@@@Z 200a99e0 f   g_target.obj
 0001:000a8a00       ?SP_target_print@@YAXPAUgentity_s@@@Z 200a9a00 f   g_target.obj
 0001:000a8a20       ?SP_target_relay@@YAXPAUgentity_s@@@Z 200a9a20 f   g_target.obj
 0001:000a8ab0       ?SP_target_remove_powerups@@YAXPAUgentity_s@@@Z 200a9ab0 f   g_target.obj
 0001:000a8ad0       ?SP_target_rumble@@YAXPAUgentity_s@@@Z 200a9ad0 f   g_target.obj
 0001:000a8d70       ?SP_target_score@@YAXPAUgentity_s@@@Z 200a9d70 f   g_target.obj
 0001:000a8da0       ?SP_target_script_trigger@@YAXPAUgentity_s@@@Z 200a9da0 f   g_target.obj
 0001:000a8df0       ?SP_target_smoke@@YAXPAUgentity_s@@@Z 200a9df0 f   g_target.obj
 0001:000a9000       ?SP_target_speaker@@YAXPAUgentity_s@@@Z 200aa000 f   g_target.obj
 0001:000a9230       ?SP_target_teleporter@@YAXPAUgentity_s@@@Z 200aa230 f   g_target.obj
 0001:000a9280       ?Think_Target_Delay@@YAXPAUgentity_s@@@Z 200aa280 f   g_target.obj
 0001:000a92a0       ?Use_Target_Alarm@@YAXPAUgentity_s@@00@Z 200aa2a0 f   g_target.obj
 0001:000a92c0       ?Use_Target_Counter@@YAXPAUgentity_s@@00@Z 200aa2c0 f   g_target.obj
 0001:000a9300       ?Use_Target_Delay@@YAXPAUgentity_s@@00@Z 200aa300 f   g_target.obj
 0001:000a93b0       ?Use_Target_Give@@YAXPAUgentity_s@@00@Z 200aa3b0 f   g_target.obj
 0001:000a9460       ?Use_Target_Lock@@YAXPAUgentity_s@@00@Z 200aa460 f   g_target.obj
 0001:000a94e0       ?Use_Target_Print@@YAXPAUgentity_s@@00@Z 200aa4e0 f   g_target.obj
 0001:000a95f0       ?Use_Target_Score@@YAXPAUgentity_s@@00@Z 200aa5f0 f   g_target.obj
 0001:000a9610       ?Use_Target_Speaker@@YAXPAUgentity_s@@00@Z 200aa610 f   g_target.obj
 0001:000a9690       ?Use_target_fog@@YAXPAUgentity_s@@00@Z 200aa690 f   g_target.obj
 0001:000a9730       ?Use_target_remove_powerups@@YAXPAUgentity_s@@00@Z 200aa730 f   g_target.obj
 0001:000a97a0       ?misc_beam_start@@YAXPAUgentity_s@@@Z 200aa7a0 f   g_target.obj
 0001:000a98f0       ?misc_beam_think@@YAXPAUgentity_s@@@Z 200aa8f0 f   g_target.obj
 0001:000a9b70       ?relay_AIScript_AlertEntity@@YAXPAUgentity_s@@@Z 200aab70 f   g_target.obj
 0001:000a9b90       ?smoke_init@@YAXPAUgentity_s@@@Z 200aab90 f   g_target.obj
 0001:000a9c70       ?smoke_think@@YAXPAUgentity_s@@@Z 200aac70 f   g_target.obj
 0001:000a9ce0       ?smoke_toggle@@YAXPAUgentity_s@@00@Z 200aace0 f   g_target.obj
 0001:000a9d30       ?target_kill_use@@YAXPAUgentity_s@@00@Z 200aad30 f   g_target.obj
 0001:000a9d90       ?target_laser_off@@YAXPAUgentity_s@@@Z 200aad90 f   g_target.obj
 0001:000a9dc0       ?target_laser_on@@YAXPAUgentity_s@@@Z 200aadc0 f   g_target.obj
 0001:000a9df0       ?target_laser_start@@YAXPAUgentity_s@@@Z 200aadf0 f   g_target.obj
 0001:000a9ee0       ?target_laser_think@@YAXPAUgentity_s@@@Z 200aaee0 f   g_target.obj
 0001:000aa130       ?target_laser_use@@YAXPAUgentity_s@@00@Z 200ab130 f   g_target.obj
 0001:000aa170       ?target_relay_use@@YAXPAUgentity_s@@00@Z 200ab170 f   g_target.obj
 0001:000aa250       ?target_rumble_think@@YAXPAUgentity_s@@@Z 200ab250 f   g_target.obj
 0001:000aa400       ?target_rumble_use@@YAXPAUgentity_s@@00@Z 200ab400 f   g_target.obj
 0001:000aa470       ?target_script_trigger_use@@YAXPAUgentity_s@@00@Z 200ab470 f   g_target.obj
 0001:000aa4f0       ?target_speaker_multiple@@YAXPAUgentity_s@@@Z 200ab4f0 f   g_target.obj
 0001:000aa570       ?target_teleporter_use@@YAXPAUgentity_s@@00@Z 200ab570 f   g_target.obj
 0001:000aa5d0       ?CheckTeamStatus@@YAXXZ    200ab5d0 f   g_team.obj
 0001:000aa6c0       ?FindClosestObjectiveIndex@@YAHQAM@Z 200ab6c0 f   g_team.obj
 0001:000aa7b0       ?FindFarthestObjectiveIndex@@YAHQAM@Z 200ab7b0 f   g_team.obj
 0001:000aa880       ?G_SortPlayersByXP@@YAHPBX0@Z 200ab880 f   g_team.obj
 0001:000aa8d0       ?G_SortPlayersByXPRate@@YAHPBX0@Z 200ab8d0 f   g_team.obj
 0001:000aa990       ?G_allowFollow@@YA?AW4qboolean@@PAUgentity_s@@H@Z 200ab990 f   g_team.obj
 0001:000aaa70       ?G_blockoutTeam@@YAHPAUgentity_s@@H@Z 200aba70 f   g_team.obj
 0001:000aaa90       ?G_checkReady@@YA?AW4qboolean@@XZ 200aba90 f   g_team.obj
 0001:000aabb0       ?G_desiredFollow@@YA?AW4qboolean@@PAUgentity_s@@H@Z 200abbb0 f   g_team.obj
 0001:000aac00       ?G_readyMatchState@@YA?AW4qboolean@@XZ 200abc00 f   g_team.obj
 0001:000aacf0       ?G_removeSpecInvite@@YAXH@Z 200abcf0 f   g_team.obj
 0001:000aad70       ?G_shuffleTeams@@YAXXZ     200abd70 f   g_team.obj
 0001:000aaf30       ?G_swapTeamLocks@@YAXXZ    200abf30 f   g_team.obj
 0001:000aaf70       ?G_swapTeams@@YAXXZ        200abf70 f   g_team.obj
 0001:000ab030       ?G_teamID@@YAHPAUgentity_s@@@Z 200ac030 f   g_team.obj
 0001:000ab060       ?G_teamJoinCheck@@YA?AW4qboolean@@HPAUgentity_s@@@Z 200ac060 f   g_team.obj
 0001:000ab170       ?G_teamReset@@YAXHW4qboolean@@@Z 200ac170 f   g_team.obj
 0001:000ab1f0       ?G_updateSpecLock@@YAXHW4qboolean@@@Z 200ac1f0 f   g_team.obj
 0001:000ab300       ?G_verifyMatchState@@YAXH@Z 200ac300 f   g_team.obj
 0001:000ab410       ?OnSameTeam@@YA?AW4qboolean@@PAUgentity_s@@0@Z 200ac410 f   g_team.obj
 0001:000ab460       ?OtherTeam@@YAHH@Z         200ac460 f   g_team.obj
 0001:000ab490       ?OtherTeamName@@YAPBDH@Z   200ac490 f   g_team.obj
 0001:000ab4d0       ?Pickup_Team@@YAHPAUgentity_s@@0@Z 200ac4d0 f   g_team.obj
 0001:000ab5e0       ?PrintMsg@@YAXPAUgentity_s@@PBDZZ 200ac5e0 f   g_team.obj
 0001:000ab6c0       ?SP_team_CTF_blueplayer@@YAXPAUgentity_s@@@Z 200ac6c0 f   g_team.obj
 0001:000ab6e0       ?SP_team_CTF_bluespawn@@YAXPAUgentity_s@@@Z 200ac6e0 f   g_team.obj
 0001:000ab7d0       ?SP_team_CTF_redplayer@@YAXPAUgentity_s@@@Z 200ac7d0 f   g_team.obj
 0001:000ab7f0       ?SP_team_CTF_redspawn@@YAXPAUgentity_s@@@Z 200ac7f0 f   g_team.obj
 0001:000ab8e0       ?SP_team_WOLF_checkpoint@@YAXPAUgentity_s@@@Z 200ac8e0 f   g_team.obj
 0001:000abaa0       ?SP_team_WOLF_objective@@YAXPAUgentity_s@@@Z 200acaa0 f   g_team.obj
 0001:000abb90       ?SelectCTFSpawnPoint@@YAPAUgentity_s@@W4team_t@@HQAM1H@Z 200acb90 f   g_team.obj
 0001:000abc10       ?SelectRandomTeamSpawnPoint@@YAPAUgentity_s@@HW4team_t@@H@Z 200acc10 f   g_team.obj
 0001:000abef0       ?TeamColorString@@YAPBDH@Z 200acef0 f   g_team.obj
 0001:000abf30       ?TeamName@@YAPBDH@Z        200acf30 f   g_team.obj
 0001:000abf70       ?Team_CheckHurtCarrier@@YAXPAUgentity_s@@0@Z 200acf70 f   g_team.obj
 0001:000abfe0       ?Team_ClassForString@@YAHPAD@Z 200acfe0 f   g_team.obj
 0001:000ac0a0       ?Team_DroppedFlagThink@@YAXPAUgentity_s@@@Z 200ad0a0 f   g_team.obj
 0001:000ac190       ?Team_FragBonuses@@YAXPAUgentity_s@@00@Z 200ad190 f   g_team.obj
 0001:000ac5b0       ?Team_InitGame@@YAXXZ      200ad5b0 f   g_team.obj
 0001:000ac5c0       ?Team_ResetFlag@@YAXPAUgentity_s@@@Z 200ad5c0 f   g_team.obj
 0001:000ac660       ?Team_ResetFlags@@YAXXZ    200ad660 f   g_team.obj
 0001:000ac710       ?Team_ReturnFlag@@YAXPAUgentity_s@@@Z 200ad710 f   g_team.obj
 0001:000ac760       ?Team_ReturnFlagSound@@YAXPAUgentity_s@@H@Z 200ad760 f   g_team.obj
 0001:000ac7d0       ?Team_TouchEnemyFlag@@YAHPAUgentity_s@@0H@Z 200ad7d0 f   g_team.obj
 0001:000ac9f0       ?Team_TouchOurFlag@@YAHPAUgentity_s@@0H@Z 200ad9f0 f   g_team.obj
 0001:000acb80       ?TeamplayInfoMessage@@YAXW4team_t@@@Z 200adb80 f   g_team.obj
 0001:000acde0       ?Use_Team_InitialSpawnpoint@@YAXPAUgentity_s@@00@Z 200adde0 f   g_team.obj
 0001:000ace10       ?Use_Team_Spawnpoint@@YAXPAUgentity_s@@00@Z 200ade10 f   g_team.obj
 0001:000acea0       ?checkpoint_hold_think@@YAXPAUgentity_s@@@Z 200adea0 f   g_team.obj
 0001:000acf20       ?checkpoint_spawntouch@@YAXPAUgentity_s@@0PAUtrace_t@@@Z 200adf20 f   g_team.obj
 0001:000ad300       ?checkpoint_think@@YAXPAUgentity_s@@@Z 200ae300 f   g_team.obj
 0001:000ad3c0       ?checkpoint_touch@@YAXPAUgentity_s@@0PAUtrace_t@@@Z 200ae3c0 f   g_team.obj
 0001:000ad530       ?checkpoint_use@@YAXPAUgentity_s@@00@Z 200ae530 f   g_team.obj
 0001:000ad6f0       ?checkpoint_use_think@@YAXPAUgentity_s@@@Z 200ae6f0 f   g_team.obj
 0001:000ad720       ?objective_Register@@YAXPAUgentity_s@@@Z 200ae720 f   g_team.obj
 0001:000ad930       ?team_wolf_objective_use@@YAXPAUgentity_s@@00@Z 200ae930 f   g_team.obj
 0001:000ada60       _sprintf                   200aea60 f i g_team.obj
 0001:000adaa0       ?G_AllocMapEntityData@@YAPAUmapEntityData_s@@PAUmapEntityData_Team_s@@@Z 200aeaa0 f   g_teammapdata.obj
 0001:000adc50       ?G_FindMapEntityData@@YAPAUmapEntityData_s@@PAUmapEntityData_Team_s@@H@Z 200aec50 f   g_teammapdata.obj
 0001:000adca0       ?G_FindMapEntityDataSingleClient@@YAPAUmapEntityData_s@@PAUmapEntityData_Team_s@@PAU1@HH@Z 200aeca0 f   g_teammapdata.obj
 0001:000add20       ?G_FreeMapEntityData@@YAPAUmapEntityData_s@@PAUmapEntityData_Team_s@@PAU1@@Z 200aed20 f   g_teammapdata.obj
 0001:000add80       ?G_InitMapEntityData@@YAXPAUmapEntityData_Team_s@@@Z 200aed80 f   g_teammapdata.obj
 0001:000adde0       ?G_PushMapEntityToBuffer@@YAXAAV?$basic_stringstream@DU?$char_traits@D@std@@V?$allocator@D@2@@std@@PAUmapEntityData_s@@@Z 200aede0 f   g_teammapdata.obj
 0001:000ae1e0       ?G_ResetTeamMapData@@YAXXZ 200af1e0 f   g_teammapdata.obj
 0001:000ae200       ?G_SendInfo@@YAXPAUgentity_s@@AAV?$basic_stringstream@DU?$char_traits@D@std@@V?$allocator@D@2@@std@@AAH2AA_N@Z 200af200 f   g_teammapdata.obj
 0001:000ae490       ?G_SendMapEntityInfo@@YAXPAUgentity_s@@@Z 200af490 f   g_teammapdata.obj
 0001:000ae830       ?G_SendSpectatorMapEntityInfo@@YAXPAUgentity_s@@@Z 200af830 f   g_teammapdata.obj
 0001:000aed90       ?G_SetupFrustum@@YAXPAUgentity_s@@@Z 200afd90 f   g_teammapdata.obj
 0001:000af090       ?G_SetupFrustum_ForBinoculars@@YAXPAUgentity_s@@@Z 200b0090 f   g_teammapdata.obj
 0001:000af3d0       ?G_UpdateTeamMapData@@YAXXZ 200b03d0 f   g_teammapdata.obj
 0001:000b0170       ?G_UpdateTeamMapData_CommandmapMarker@@YAXPAUgentity_s@@@Z 200b1170 f   g_teammapdata.obj
 0001:000b02f0       ?G_UpdateTeamMapData_Construct@@YAXPAUgentity_s@@@Z 200b12f0 f   g_teammapdata.obj
 0001:000b0480       ?G_UpdateTeamMapData_Destruct@@YAXPAUgentity_s@@@Z 200b1480 f   g_teammapdata.obj
 0001:000b08d0       ?G_UpdateTeamMapData_LandMine@@YAXPAUgentity_s@@W4qboolean@@1@Z 200b18d0 f   g_teammapdata.obj
 0001:000b0a60       ?G_UpdateTeamMapData_Player@@YAXPAUgentity_s@@W4qboolean@@1@Z 200b1a60 f   g_teammapdata.obj
 0001:000b0c20       ?G_UpdateTeamMapData_Tank@@YAXPAUgentity_s@@@Z 200b1c20 f   g_teammapdata.obj
 0001:000b0d40       ?G_VisibleFromBinoculars@@YA?AW4qboolean@@PAUgentity_s@@0QAM@Z 200b1d40 f   g_teammapdata.obj
 0001:000b0e30       ?dec@std@@YAAAVios_base@1@AAV21@@Z 200b1e30 f i g_teammapdata.obj
 0001:000b0e50       ?str@?$basic_stringstream@DU?$char_traits@D@std@@V?$allocator@D@2@@std@@QAEXABV?$basic_string@DU?$char_traits@D@std@@V?$allocator@D@2@@2@@Z 200b1e50 f i g_teammapdata.obj
 0001:000b0f90       ?AimAtTarget@@YAXPAUgentity_s@@@Z 200b1f90 f   g_trigger.obj
 0001:000b1160       ?G_IsAllowedAmmo@@YA?AW4qboolean@@PAUgentity_s@@@Z 200b2160 f   g_trigger.obj
 0001:000b11b0       ?G_IsAllowedHeal@@YA?AW4qboolean@@PAUgentity_s@@@Z 200b21b0 f   g_trigger.obj
 0001:000b11f0       ?G_SetConfigStringValue@@YAXHPBD0@Z 200b21f0 f   g_trigger.obj
 0001:000b1250       ?InitTrigger@@YAXPAUgentity_s@@@Z 200b2250 f   g_trigger.obj
 0001:000b12c0       ?SP_func_timer@@YAXPAUgentity_s@@@Z 200b22c0 f   g_trigger.obj
 0001:000b13b0       ?SP_gas@@YAXPAUgentity_s@@@Z 200b23b0 f   g_trigger.obj
 0001:000b13c0       ?SP_misc_cabinet_health@@YAXPAUgentity_s@@@Z 200b23c0 f   g_trigger.obj
 0001:000b1470       ?SP_misc_cabinet_supply@@YAXPAUgentity_s@@@Z 200b2470 f   g_trigger.obj
 0001:000b1520       ?SP_target_push@@YAXPAUgentity_s@@@Z 200b2520 f   g_trigger.obj
 0001:000b1650       ?SP_trigger_aidoor@@YAXPAUgentity_s@@@Z 200b2650 f   g_trigger.obj
 0001:000b16b0       ?SP_trigger_always@@YAXPAUgentity_s@@@Z 200b26b0 f   g_trigger.obj
 0001:000b16e0       ?SP_trigger_ammo@@YAXPAUgentity_s@@@Z 200b26e0 f   g_trigger.obj
 0001:000b1800       ?SP_trigger_concussive_dust@@YAXPAUgentity_s@@@Z 200b2800 f   g_trigger.obj
 0001:000b1840       ?SP_trigger_flagonly@@YAXPAUgentity_s@@@Z 200b2840 f   g_trigger.obj
 0001:000b18b0       ?SP_trigger_flagonly_multiple@@YAXPAUgentity_s@@@Z 200b28b0 f   g_trigger.obj
 0001:000b1920       ?SP_trigger_heal@@YAXPAUgentity_s@@@Z 200b2920 f   g_trigger.obj
 0001:000b1a40       ?SP_trigger_hurt@@YAXPAUgentity_s@@@Z 200b2a40 f   g_trigger.obj
 0001:000b1b20       ?SP_trigger_multiple@@YAXPAUgentity_s@@@Z 200b2b20 f   g_trigger.obj
 0001:000b1bf0       ?SP_trigger_objective_info@@YAXPAUgentity_s@@@Z 200b2bf0 f   g_trigger.obj
 0001:000b2150       ?SP_trigger_once@@YAXPAUgentity_s@@@Z 200b3150 f   g_trigger.obj
 0001:000b21a0       ?SP_trigger_push@@YAXPAUgentity_s@@@Z 200b31a0 f   g_trigger.obj
 0001:000b21b0       ?SP_trigger_teleport@@YAXPAUgentity_s@@@Z 200b31b0 f   g_trigger.obj
 0001:000b2200       ?Think_SetupObjectiveInfo@@YAXPAUgentity_s@@@Z 200b3200 f   g_trigger.obj
 0001:000b2840       ?Touch_Multi@@YAXPAUgentity_s@@0PAUtrace_t@@@Z 200b3840 f   g_trigger.obj
 0001:000b2910       ?Touch_ObjectiveInfo@@YAXPAUgentity_s@@0PAUtrace_t@@@Z 200b3910 f   g_trigger.obj
 0001:000b2940       ?Touch_flagonly@@YAXPAUgentity_s@@0PAUtrace_t@@@Z 200b3940 f   g_trigger.obj
 0001:000b2b40       ?Touch_flagonly_multiple@@YAXPAUgentity_s@@0PAUtrace_t@@@Z 200b3b40 f   g_trigger.obj
 0001:000b2d10       ?Use_Multi@@YAXPAUgentity_s@@00@Z 200b3d10 f   g_trigger.obj
 0001:000b2d30       ?Use_target_push@@YAXPAUgentity_s@@00@Z 200b3d30 f   g_trigger.obj
 0001:000b2db0       ?ammo_touch@@YAXPAUgentity_s@@0PAUtrace_t@@@Z 200b3db0 f   g_trigger.obj
 0001:000b2fa0       ?constructible_indicator_think@@YAXPAUgentity_s@@@Z 200b3fa0 f   g_trigger.obj
 0001:000b3150       ?explosive_indicator_think@@YAXPAUgentity_s@@@Z 200b4150 f   g_trigger.obj
 0001:000b3290       ?func_timer_think@@YAXPAUgentity_s@@@Z 200b4290 f   g_trigger.obj
 0001:000b3340       ?func_timer_use@@YAXPAUgentity_s@@00@Z 200b4340 f   g_trigger.obj
 0001:000b3380       ?heal_touch@@YAXPAUgentity_s@@0PAUtrace_t@@@Z 200b4380 f   g_trigger.obj
 0001:000b3570       ?hurt_think@@YAXPAUgentity_s@@@Z 200b4570 f   g_trigger.obj
 0001:000b35b0       ?hurt_touch@@YAXPAUgentity_s@@0PAUtrace_t@@@Z 200b45b0 f   g_trigger.obj
 0001:000b3660       ?hurt_use@@YAXPAUgentity_s@@00@Z 200b4660 f   g_trigger.obj
 0001:000b36f0       ?multi_trigger@@YAXPAUgentity_s@@0@Z 200b46f0 f   g_trigger.obj
 0001:000b3810       ?multi_wait@@YAXPAUgentity_s@@@Z 200b4810 f   g_trigger.obj
 0001:000b3830       ?trigger_aidoor_stayopen@@YAXPAUgentity_s@@0PAUtrace_t@@@Z 200b4830 f   g_trigger.obj
 0001:000b3840       ?trigger_always_think@@YAXPAUgentity_s@@@Z 200b4840 f   g_trigger.obj
 0001:000b3860       ?trigger_ammo_setup@@YAXPAUgentity_s@@@Z 200b4860 f   g_trigger.obj
 0001:000b38e0       ?trigger_ammo_think@@YAXPAUgentity_s@@@Z 200b48e0 f   g_trigger.obj
 0001:000b3930       ?trigger_concussive_touch@@YAXPAUgentity_s@@0PAUtrace_t@@@Z 200b4930 f   g_trigger.obj
 0001:000b3940       ?trigger_heal_setup@@YAXPAUgentity_s@@@Z 200b4940 f   g_trigger.obj
 0001:000b39c0       ?trigger_heal_think@@YAXPAUgentity_s@@@Z 200b49c0 f   g_trigger.obj
 0001:000b3a10       ?trigger_push_touch@@YAXPAUgentity_s@@0PAUtrace_t@@@Z 200b4a10 f   g_trigger.obj
 0001:000b3a20       ?trigger_push_use@@YAXPAUgentity_s@@00@Z 200b4a20 f   g_trigger.obj
 0001:000b3a30       ?trigger_teleporter_touch@@YAXPAUgentity_s@@0PAUtrace_t@@@Z 200b4a30 f   g_trigger.obj
 0001:000b3aa0       ?AddRemap@@YAXPBD0M@Z      200b4aa0 f   g_utils.obj
 0001:000b3ba0       ?BuildShaderStateConfig@@YAPBDXZ 200b4ba0 f   g_utils.obj
 0001:000b3c70       ?DebugLine@@YAHQAM0H@Z     200b4c70 f   g_utils.obj
 0001:000b3ee0       ?G_AddEvent@@YAXPAUgentity_s@@HH@Z 200b4ee0 f   g_utils.obj
 0001:000b3fa0       ?G_AddPredictableEvent@@YAXPAUgentity_s@@HH@Z 200b4fa0 f   g_utils.obj
 0001:000b3fd0       ?G_AllowTeamsAllowed@@YA?AW4qboolean@@PAUgentity_s@@0@Z 200b4fd0 f   g_utils.obj
 0001:000b4060       ?G_AnimScriptSound@@YAXHQAMH@Z 200b5060 f   g_utils.obj
 0001:000b4090       ?G_CharacterIndex@@YAHPBD@Z 200b5090 f   g_utils.obj
 0001:000b40b0       ?G_Find@@YAPAUgentity_s@@PAU1@HPBD@Z 200b50b0 f   g_utils.obj
 0001:000b4140       ?G_FindByTargetname@@YAPAUgentity_s@@PAU1@PBD@Z 200b5140 f   g_utils.obj
 0001:000b41e0       ?G_FindByTargetnameFast@@YAPAUgentity_s@@PAU1@PBDH@Z 200b51e0 f   g_utils.obj
 0001:000b4270       ?G_FindConfigstringIndex@@YAHPBDHHW4qboolean@@@Z 200b5270 f   g_utils.obj
 0001:000b4370       ?G_FreeEntity@@YAXPAUgentity_s@@@Z 200b5370 f   g_utils.obj
 0001:000b44b0       ?G_GetTeamFromEntity@@YA?AW4team_t@@PAUgentity_s@@@Z 200b54b0 f   g_utils.obj
 0001:000b4640       ?G_InitGentity@@YAXPAUgentity_s@@@Z 200b5640 f   g_utils.obj
 0001:000b4700       ?G_KillBox@@YAXPAUgentity_s@@@Z 200b5700 f   g_utils.obj
 0001:000b4e60       ?G_MapIsValidCampaignStartMap@@YA?AW4qboolean@@XZ 200b5e60 f   g_utils.obj
 0001:000b4ec0       ?G_ModelIndex@@YAHPAD@Z    200b5ec0 f   g_utils.obj
 0001:000b4ee0       ?G_ParseCampaigns@@YAXXZ   200b5ee0 f   g_utils.obj
 0001:000b5290       ?G_PickTarget@@YAPAUgentity_s@@PAD@Z 200b6290 f   g_utils.obj
 0001:000b5310       ?G_PopupMessage@@YAPAUgentity_s@@W4popupMessageType_e@@@Z 200b6310 f   g_utils.obj
 0001:000b5390       ?G_PrintClientSpammyCenterPrint@@YAXHPAD@Z 200b6390 f   g_utils.obj
 0001:000b5400       ?G_ProcessTagConnect@@YAXPAUgentity_s@@W4qboolean@@@Z 200b6400 f   g_utils.obj
 0001:000b5560       ?G_SetAngle@@YAXPAUgentity_s@@QBM_N@Z 200b6560 f   g_utils.obj
 0001:000b5640       ?G_SetEntState@@YAXPAUgentity_s@@W4entState_t@@@Z 200b6640 f   g_utils.obj
 0001:000b5c00       ?G_SetMovedir@@YAXQAM0@Z   200b6c00 f   g_utils.obj
 0001:000b5cb0       ?G_SetOrigin@@YAXPAUgentity_s@@QAM_N@Z 200b6cb0 f   g_utils.obj
 0001:000b5db0       ?G_ShaderIndex@@YAHPAD@Z   200b6db0 f   g_utils.obj
 0001:000b5dd0       ?G_SkinIndex@@YAHPBD@Z     200b6dd0 f   g_utils.obj
 0001:000b5df0       ?G_Sound@@YAXPAUgentity_s@@H@Z 200b6df0 f   g_utils.obj
 0001:000b5e20       ?G_SoundIndex@@YAHPBD@Z    200b6e20 f   g_utils.obj
 0001:000b5e50       ?G_Spawn@@YAPAUgentity_s@@XZ 200b6e50 f   g_utils.obj
 0001:000b5f60       ?G_StringIndex@@YAHPBD@Z   200b6f60 f   g_utils.obj
 0001:000b5f80       ?G_TeamCommand@@YAXW4team_t@@PAD@Z 200b6f80 f   g_utils.obj
 0001:000b6000       ?G_TempEntity@@YAPAUgentity_s@@QBMH@Z 200b7000 f   g_utils.obj
 0001:000b60c0       ?G_UseEntity@@YAXPAUgentity_s@@00@Z 200b70c0 f   g_utils.obj
 0001:000b6100       ?G_UseTargets@@YAXPAUgentity_s@@0@Z 200b7100 f   g_utils.obj
 0001:000b6260       ?infront@@YA?AW4qboolean@@PAUgentity_s@@0@Z 200b7260 f   g_utils.obj
 0001:000b6330       ?vtos@@YAPADQBM@Z          200b7330 f   g_utils.obj
 0001:000b6390       ?vtosf@@YAPADQBM@Z         200b7390 f   g_utils.obj
 0001:000b6410       ?G_Comp_v@@YAHPAUgentity_s@@IPAD1W4qboolean@@@Z 200b7410 f   g_vote.obj
 0001:000b6500       ?G_Gametype_v@@YAHPAUgentity_s@@IPAD1W4qboolean@@@Z 200b7500 f   g_vote.obj
 0001:000b66d0       ?G_Generic_v@@YAHPAUgentity_s@@IPAD1W4qboolean@@@Z 200b76d0 f   g_vote.obj
 0001:000b6760       ?G_Kick_v@@YAHPAUgentity_s@@IPAD1W4qboolean@@@Z 200b7760 f   g_vote.obj
 0001:000b6980       ?G_Mute_v@@YAHPAUgentity_s@@IPAD1W4qboolean@@@Z 200b7980 f   g_vote.obj
 0001:000b6cb0       ?G_UnMute_v@@YAHPAUgentity_s@@IPAD1W4qboolean@@@Z 200b7cb0 f   g_vote.obj
 0001:000b6e90       ?G_Map_v@@YAHPAUgentity_s@@IPAD1W4qboolean@@@Z 200b7e90 f   g_vote.obj
 0001:000b70b0       ?G_Campaign_v@@YAHPAUgentity_s@@IPAD1W4qboolean@@@Z 200b80b0 f   g_vote.obj
 0001:000b7220       ?G_MapRestart_v@@YAHPAUgentity_s@@IPAD1W4qboolean@@@Z 200b8220 f   g_vote.obj
 0001:000b7320       ?G_MatchReset_v@@YAHPAUgentity_s@@IPAD1W4qboolean@@@Z 200b8320 f   g_vote.obj
 0001:000b73d0       ?G_Mutespecs_v@@YAHPAUgentity_s@@IPAD1W4qboolean@@@Z 200b83d0 f   g_vote.obj
 0001:000b7430       ?G_Nextmap_v@@YAHPAUgentity_s@@IPAD1W4qboolean@@@Z 200b8430 f   g_vote.obj
 0001:000b75f0       ?G_Pub_v@@YAHPAUgentity_s@@IPAD1W4qboolean@@@Z 200b85f0 f   g_vote.obj
 0001:000b76e0       ?G_Referee_v@@YAHPAUgentity_s@@IPAD1W4qboolean@@@Z 200b86e0 f   g_vote.obj
 0001:000b7940       ?G_ShuffleTeams_v@@YAHPAUgentity_s@@IPAD1W4qboolean@@@Z 200b8940 f   g_vote.obj
 0001:000b7a10       ?G_StartMatch_v@@YAHPAUgentity_s@@IPAD1W4qboolean@@@Z 200b8a10 f   g_vote.obj
 0001:000b7b80       ?G_SwapTeams_v@@YAHPAUgentity_s@@IPAD1W4qboolean@@@Z 200b8b80 f   g_vote.obj
 0001:000b7c50       ?G_FriendlyFire_v@@YAHPAUgentity_s@@IPAD1W4qboolean@@@Z 200b8c50 f   g_vote.obj
 0001:000b7cb0       ?G_Timelimit_v@@YAHPAUgentity_s@@IPAD1W4qboolean@@@Z 200b8cb0 f   g_vote.obj
 0001:000b7dd0       ?G_Warmupfire_v@@YAHPAUgentity_s@@IPAD1W4qboolean@@@Z 200b8dd0 f   g_vote.obj
 0001:000b7fe0       ?G_Unreferee_v@@YAHPAUgentity_s@@IPAD1W4qboolean@@@Z 200b8fe0 f   g_vote.obj
 0001:000b8240       ?G_BalancedTeams_v@@YAHPAUgentity_s@@IPAD1W4qboolean@@@Z 200b9240 f   g_vote.obj
 0001:000b82c0       ?G_GametypeList@@YAXPAUgentity_s@@@Z 200b92c0 f   g_vote.obj
 0001:000b8330       ?G_WarmupDamageTypeList@@YAXPAUgentity_s@@@Z 200b9330 f   g_vote.obj
 0001:000b83a0       ?G_playersMessage@@YAXPAUgentity_s@@@Z 200b93a0 f   g_vote.obj
 0001:000b83c0       ?G_voteCmdCheck@@YAHPAUgentity_s@@PAD1W4qboolean@@@Z 200b93c0 f   g_vote.obj
 0001:000b8470       ?G_voteCurrentSetting@@YAXPAUgentity_s@@PBD1@Z 200b9470 f   g_vote.obj
 0001:000b84a0       ?G_voteDescription@@YA?AW4qboolean@@PAUgentity_s@@W41@H@Z 200b94a0 f   g_vote.obj
 0001:000b8570       ?G_voteDisableMessage@@YAXPAUgentity_s@@PBD@Z 200b9570 f   g_vote.obj
 0001:000b8590       ?G_voteFlags@@YAXXZ        200b9590 f   g_vote.obj
 0001:000b8600       ?G_voteHelp@@YAXPAUgentity_s@@W4qboolean@@@Z 200b9600 f   g_vote.obj
 0001:000b8880       ?G_voteProcessOnOff@@YAHPAUgentity_s@@PAD1W4qboolean@@HHH@Z 200b9880 f   g_vote.obj
 0001:000b8a20       ?G_voteSetOnOff@@YAXPBD0@Z 200b9a20 f   g_vote.obj
 0001:000b8a80       ?G_voteSetValue@@YAXPBD0@Z 200b9a80 f   g_vote.obj
 0001:000b8ac0       ?G_voteSetVoteString@@YAXPBD@Z 200b9ac0 f   g_vote.obj
 0001:000b8b10       ??1?$_Alloc_construct_ptr@V?$allocator@U?$_Tree_node@U?$pair@$$CBEM@std@@PAX@std@@@std@@@std@@QAE@XZ 200b9b10 f i g_weapon.obj
 0001:000b8b30       ?AccuracyHit@@YA?AW4qboolean@@PAUgentity_s@@0@Z 200b9b30 f   g_weapon.obj
 0001:000b8b90       ?AddLean@@YAXPAUgentity_s@@QAM@Z 200b9b90 f   g_weapon.obj
 0001:000b8c50       ?AutoBuildConstruction@@YAXPAUgentity_s@@@Z 200b9c50 f   g_weapon.obj
 0001:000b9290       ?Bullet_Endpos@@YAXPAUgentity_s@@MPAY02M@Z 200ba290 f   g_weapon.obj
 0001:000b9470       ?Bullet_Fire@@YAXPAUgentity_s@@MHW4qboolean@@@Z 200ba470 f   g_weapon.obj
 0001:000b9980       ?CalcMuzzlePoint@@YAXPAUgentity_s@@HQAM111@Z 200ba980 f   g_weapon.obj
 0001:000b9c10       ?CalcMuzzlePointForActivate@@YAXPAUgentity_s@@QAM111@Z 200bac10 f   g_weapon.obj
 0001:000b9cd0       ?CalcMuzzlePoints@@YAXPAUgentity_s@@H@Z 200bacd0 f   g_weapon.obj
 0001:000b9fb0       ?EntsThatRadiusCanDamage@@YAHQAMMPAH@Z 200bafb0 f   g_weapon.obj
 0001:000ba3b0       ?FireWeapon@@YAXPAUgentity_s@@@Z 200bb3b0 f   g_weapon.obj
 0001:000bb290       ?G_AddAirstrikeToCounters@@YAXPAUgentity_s@@@Z 200bc290 f   g_weapon.obj
 0001:000bb2e0       ?G_AirStrikeExplode@@YAXPAUgentity_s@@@Z 200bc2e0 f   g_weapon.obj
 0001:000bb320       ?G_AvailableAirstrikes@@YA?AW4qboolean@@PAUgentity_s@@@Z 200bc320 f   g_weapon.obj
 0001:000bb380       ?G_BouncingBettyTrip@@YAXPAUgentity_s@@@Z 200bc380 f   g_weapon.obj
 0001:000bb3f0       ?G_BurnMeGood@@YAXPAUgentity_s@@00@Z 200bc3f0 f   g_weapon.obj
 0001:000bb4e0       ?G_DistanceFalloffAdjustment@@YAHHMM@Z 200bc4e0 f   g_weapon.obj
 0001:000bb550       ?G_GetWeaponClassForMOD@@YAHW4meansOfDeath_t@@@Z 200bc550 f   g_weapon.obj
 0001:000bb600       ?G_GetWeaponDamage@@YAHH@Z 200bc600 f   g_weapon.obj
 0001:000bb720       ?G_GetWeaponSpread@@YAMH@Z 200bc720 f   g_weapon.obj
 0001:000bb810       ?G_GlobalClientEvent@@YAXHHH@Z 200bc810 f   g_weapon.obj
 0001:000bb850       ?G_LandmineArmed@@YA?AW4qboolean@@PAUgentity_s@@@Z 200bc850 f   g_weapon.obj
 0001:000bb880       ?G_LandmineSpotted@@YA?AW4qboolean@@PAUgentity_s@@@Z 200bc880 f   g_weapon.obj
 0001:000bb8a0       ?G_LandmineTeam@@YA?AW4team_t@@PAUgentity_s@@@Z 200bc8a0 f   g_weapon.obj
 0001:000bb8c0       ?G_LandmineTriggered@@YA?AW4qboolean@@PAUgentity_s@@@Z 200bc8c0 f   g_weapon.obj
 0001:000bb8f0       ?G_LandmineUnarmed@@YA?AW4qboolean@@PAUgentity_s@@@Z 200bc8f0 f   g_weapon.obj
 0001:000bb930       ?G_PlaceTripmine@@YAXPAUgentity_s@@@Z 200bc930 f   g_weapon.obj
 0001:000bbbe0       ?G_PlayerCanBeSeenByOthers@@YA?AW4qboolean@@PAUgentity_s@@@Z 200bcbe0 f   g_weapon.obj
 0001:000bbd90       ?G_PoisonGasExplode@@YAXPAUgentity_s@@@Z 200bcd90 f   g_weapon.obj
 0001:000bbf00       ?G_PoisonGasTrip@@YAXPAUgentity_s@@@Z 200bcf00 f   g_weapon.obj
 0001:000bc090       ?G_ThrowingKnife_launch@@YAPAUgentity_s@@AAU1@H@Z 200bd090 f   g_weapon.obj
 0001:000bc320       ?G_Update_CS_Airstrikes@@YAXXZ 200bd320 f   g_weapon.obj
 0001:000bc4a0       ?G_WeaponIsExplosive@@YA?AW4qboolean@@W4meansOfDeath_t@@@Z 200bd4a0 f   g_weapon.obj
 0001:000bcb30       ?IsSilencedWeapon@@YA?AW4qboolean@@H@Z 200bdb30 f   g_weapon.obj
 0001:000bcb60       ?MagicSink@@YAXPAUgentity_s@@@Z 200bdb60 f   g_weapon.obj
 0001:000bcc50       ?ReviveEntity@@YA?AW4qboolean@@PAUgentity_s@@0@Z 200bdc50 f   g_weapon.obj
 0001:000bd210       ?SnapVectorTowards@@YAXQAMQBM@Z 200be210 f   g_weapon.obj
 0001:000be1a0       ?Weapon_AdrenalineShare@@YAXPAUgentity_s@@@Z 200bf1a0 f   g_weapon.obj
 0001:000be420       ?Weapon_AdrenalineSyringe@@YAXPAUgentity_s@@@Z 200bf420 f   g_weapon.obj
 0001:000be450       ?Weapon_Artillery@@YAXPAUgentity_s@@@Z 200bf450 f   g_weapon.obj
 0001:000bf020       ?Weapon_Engineer@@YAXPAUgentity_s@@@Z 200c0020 f   g_weapon.obj
 0001:000c10f0       ?Weapon_FlamethrowerFire@@YAPAUgentity_s@@PAU1@@Z 200c20f0 f   g_weapon.obj
 0001:000c13c0       ?Weapon_Knife@@YAXPAUgentity_s@@@Z 200c23c0 f   g_weapon.obj
 0001:000c1720       ?Weapon_M97@@YAXPAUgentity_s@@@Z 200c2720 f   g_weapon.obj
 0001:000c1a50       ?Weapon_MagicAmmo@@YAXPAUgentity_s@@@Z 200c2a50 f   g_weapon.obj
 0001:000c1f70       ?Weapon_Medic@@YAXPAUgentity_s@@@Z 200c2f70 f   g_weapon.obj
 0001:000c2450       ?Weapon_Panzerfaust_Fire@@YAPAUgentity_s@@PAU1@@Z 200c3450 f   g_weapon.obj
 0001:000c2470       ?Weapon_PoisonSyringe@@YAXPAUgentity_s@@@Z 200c3470 f   g_weapon.obj
 0001:000c26a0       ?Weapon_Syringe@@YAXPAUgentity_s@@@Z 200c36a0 f   g_weapon.obj
 0001:000c29e0       ?_Insert_node@?$_Tree_val@U?$_Tree_simple_types@U?$pair@$$CBEM@std@@@std@@@std@@QAEPAU?$_Tree_node@U?$pair@$$CBEM@std@@PAX@2@U?$_Tree_id@PAU?$_Tree_node@U?$pair@$$CBEM@std@@PAX@std@@@2@QAU32@@Z 200c39e0 f i g_weapon.obj
 0001:000c2c50       ?artilleryGoAway@@YAXPAUgentity_s@@@Z 200c3c50 f   g_weapon.obj
 0001:000c2c70       ?artillerySpotterThink@@YAXPAUgentity_s@@@Z 200c3c70 f   g_weapon.obj
 0001:000c3070       ?artilleryThink@@YAXPAUgentity_s@@@Z 200c4070 f   g_weapon.obj
 0001:000c30e0       ?artilleryThink_real@@YAXPAUgentity_s@@@Z 200c40e0 f   g_weapon.obj
 0001:000c3190       ?trap_EngineerTrace@@YAXPAUtrace_t@@QBM111HH@Z 200c4190 f   g_weapon.obj
 0001:000c31d0       ?weapon_callAirStrike@@YAXPAUgentity_s@@@Z 200c41d0 f   g_weapon.obj
 0001:000c3b30       ?weapon_callSecondPlane@@YAXPAUgentity_s@@@Z 200c4b30 f   g_weapon.obj
 0001:000c3b90       ?weapon_checkAirStrike@@YA?AW4qboolean@@PAUgentity_s@@@Z 200c4b90 f   g_weapon.obj
 0001:000c3ec0       ?weapon_checkAirStrikeThink1@@YAXPAUgentity_s@@@Z 200c4ec0 f   g_weapon.obj
 0001:000c3f30       ?weapon_checkAirStrikeThink2@@YAXPAUgentity_s@@@Z 200c4f30 f   g_weapon.obj
 0001:000c3fa0       ?weapon_gpg40_fire@@YAPAUgentity_s@@PAU1@H@Z 200c4fa0 f   g_weapon.obj
 0001:000c4270       ?weapon_grenadelauncher_fire@@YAPAUgentity_s@@PAU1@H@Z 200c5270 f   g_weapon.obj
 0001:000c4aa0       ?weapon_mortar_fire@@YAPAUgentity_s@@PAU1@H@Z 200c5aa0 f   g_weapon.obj
 0001:000c4d70       ??$?8DU?$char_traits@D@std@@@std@@YA_NABV?$istreambuf_iterator@DU?$char_traits@D@std@@@0@0@Z 200c5d70 f i Level.obj
 0001:000c4e30       ??$?9DU?$char_traits@D@std@@@std@@YA_NABV?$istreambuf_iterator@DU?$char_traits@D@std@@@0@0@Z 200c5e30 f i Level.obj
 0001:000c4e50       ??$_Common_extract_with_num_get@J@?$basic_istream@DU?$char_traits@D@std@@@std@@AAEAAV01@AAJ@Z 200c5e50 f i Level.obj
 0001:000c5060       ??$_Find_elem@D$0BL@@std@@YAIAAY0BL@$$CBDD@Z 200c6060 f i Level.obj
 0001:000c5090       ??$_Find_elem@D$0BN@@std@@YAIAAY0BN@$$CBDD@Z 200c6090 f i Level.obj
 0001:000c50c0       ??$_Getloctxt@V?$istreambuf_iterator@DU?$char_traits@D@std@@@std@@D@std@@YAHAAV?$istreambuf_iterator@DU?$char_traits@D@std@@@0@0IPBDW4_Case_sensitive@0@@Z 200c60c0 f i Level.obj
 0001:000c54d0       ??$_Parse_fp_with_locale@$0A@@?$num_get@DV?$istreambuf_iterator@DU?$char_traits@D@std@@@std@@@std@@CA?AU_Num_get_parse_result@1@QADHAAV?$istreambuf_iterator@DU?$char_traits@D@std@@@1@1ABVlocale@1@@Z 200c64d0 f i Level.obj
 0001:000c6c40       ??$_Parse_int_with_locale@$0A@@?$num_get@DV?$istreambuf_iterator@DU?$char_traits@D@std@@@std@@@std@@CA?AU_Num_get_parse_result@1@QADAAV?$istreambuf_iterator@DU?$char_traits@D@std@@@1@1HABVlocale@1@@Z 200c7c40 f i Level.obj
 0001:000c77c0       ??$_Reverse_vectorized@$00@std@@YAXPAX0@Z 200c87c0 f i Level.obj
 0001:000c77d0       ??$use_facet@V?$num_get@DV?$istreambuf_iterator@DU?$char_traits@D@std@@@std@@@std@@@std@@YAABV?$num_get@DV?$istreambuf_iterator@DU?$char_traits@D@std@@@std@@@0@ABVlocale@0@@Z 200c87d0 f i Level.obj
 0001:000c7990       ??0Level@@QAE@ABV0@@Z      200c8990 f   Level.obj
 0001:000c7a80       ??0Level@@QAE@XZ           200c8a80 f   Level.obj
 0001:000c7b70       ??1?$num_get@DV?$istreambuf_iterator@DU?$char_traits@D@std@@@std@@@std@@MAE@XZ 200c8b70 f i Level.obj
 0001:000c7b80       ??1Level@@QAE@XZ           200c8b80 f   Level.obj
 0001:000c7d00       ??4?$basic_string@DU?$char_traits@D@std@@V?$allocator@D@2@@std@@QAEAAV01@ABV01@@Z 200c8d00 f i Level.obj
 0001:000c7e80       ??4Level@@QAEAAV0@ABV0@@Z  200c8e80 f   Level.obj
 0001:000c7f00       ??8Level@@QBE_NABV0@@Z     200c8f00 f   Level.obj
 0001:000c7f10       ??9Level@@QBE_NABV0@@Z     200c8f10 f   Level.obj
 0001:000c7f20       ??A?$map@V?$basic_string@DU?$char_traits@D@std@@V?$allocator@D@2@@std@@V12@U?$less@V?$basic_string@DU?$char_traits@D@std@@V?$allocator@D@2@@std@@@2@V?$allocator@U?$pair@$$CBV?$basic_string@DU?$char_traits@D@std@@V?$allocator@D@2@@std@@V12@@std@@@2@@std@@QAEAAV?$basic_string@DU?$char_traits@D@std@@V?$allocator@D@2@@1@$$QAV21@@Z 200c8f20 f i Level.obj
 0001:000c80b0       ??_E?$num_get@DV?$istreambuf_iterator@DU?$char_traits@D@std@@@std@@@std@@MAEPAXI@Z 200c90b0 f i Level.obj
 0001:000c80b0       ??_G?$num_get@DV?$istreambuf_iterator@DU?$char_traits@D@std@@@std@@@std@@MAEPAXI@Z 200c90b0 f i Level.obj
 0001:000c80e0       ?decode@Level@@AAEXAAV?$map@V?$basic_string@DU?$char_traits@D@std@@V?$allocator@D@2@@std@@V12@U?$less@V?$basic_string@DU?$char_traits@D@std@@V?$allocator@D@2@@std@@@2@V?$allocator@U?$pair@$$CBV?$basic_string@DU?$char_traits@D@std@@V?$allocator@D@2@@std@@V12@@std@@@2@@std@@@Z 200c90e0 f   Level.obj
 0001:000c8aa0       ?do_get@?$num_get@DV?$istreambuf_iterator@DU?$char_traits@D@std@@@std@@@std@@MBE?AV?$istreambuf_iterator@DU?$char_traits@D@std@@@2@V32@0AAVios_base@2@AAHAAG@Z 200c9aa0 f i Level.obj
 0001:000c8c30       ?do_get@?$num_get@DV?$istreambuf_iterator@DU?$char_traits@D@std@@@std@@@std@@MBE?AV?$istreambuf_iterator@DU?$char_traits@D@std@@@2@V32@0AAVios_base@2@AAHAAI@Z 200c9c30 f i Level.obj
 0001:000c8d90       ?do_get@?$num_get@DV?$istreambuf_iterator@DU?$char_traits@D@std@@@std@@@std@@MBE?AV?$istreambuf_iterator@DU?$char_traits@D@std@@@2@V32@0AAVios_base@2@AAHAAJ@Z 200c9d90 f i Level.obj
 0001:000c8ee0       ?do_get@?$num_get@DV?$istreambuf_iterator@DU?$char_traits@D@std@@@std@@@std@@MBE?AV?$istreambuf_iterator@DU?$char_traits@D@std@@@2@V32@0AAVios_base@2@AAHAAK@Z 200c9ee0 f i Level.obj
 0001:000c9030       ?do_get@?$num_get@DV?$istreambuf_iterator@DU?$char_traits@D@std@@@std@@@std@@MBE?AV?$istreambuf_iterator@DU?$char_traits@D@std@@@2@V32@0AAVios_base@2@AAHAAM@Z 200ca030 f i Level.obj
 0001:000c91a0       ?do_get@?$num_get@DV?$istreambuf_iterator@DU?$char_traits@D@std@@@std@@@std@@MBE?AV?$istreambuf_iterator@DU?$char_traits@D@std@@@2@V32@0AAVios_base@2@AAHAAN@Z 200ca1a0 f i Level.obj
 0001:000c9310       ?do_get@?$num_get@DV?$istreambuf_iterator@DU?$char_traits@D@std@@@std@@@std@@MBE?AV?$istreambuf_iterator@DU?$char_traits@D@std@@@2@V32@0AAVios_base@2@AAHAAO@Z 200ca310 f i Level.obj
 0001:000c94a0       ?do_get@?$num_get@DV?$istreambuf_iterator@DU?$char_traits@D@std@@@std@@@std@@MBE?AV?$istreambuf_iterator@DU?$char_traits@D@std@@@2@V32@0AAVios_base@2@AAHAAPAX@Z 200ca4a0 f i Level.obj
 0001:000c9600       ?do_get@?$num_get@DV?$istreambuf_iterator@DU?$char_traits@D@std@@@std@@@std@@MBE?AV?$istreambuf_iterator@DU?$char_traits@D@std@@@2@V32@0AAVios_base@2@AAHAA_J@Z 200ca600 f i Level.obj
 0001:000c9750       ?do_get@?$num_get@DV?$istreambuf_iterator@DU?$char_traits@D@std@@@std@@@std@@MBE?AV?$istreambuf_iterator@DU?$char_traits@D@std@@@2@V32@0AAVios_base@2@AAHAA_K@Z 200ca750 f i Level.obj
 0001:000c98a0       ?do_get@?$num_get@DV?$istreambuf_iterator@DU?$char_traits@D@std@@@std@@@std@@MBE?AV?$istreambuf_iterator@DU?$char_traits@D@std@@@2@V32@0AAVios_base@2@AAHAA_N@Z 200ca8a0 f i Level.obj
 0001:000c9ce0       ?encode@Level@@AAEXAAV?$basic_ostream@DU?$char_traits@D@std@@@std@@H@Z 200cace0 f   Level.obj
 0001:000c9e60       ?isNull@Level@@QBE_NXZ     200cae60 f   Level.obj
 0001:000c9e70       ??$?5V?$basic_istringstream@DU?$char_traits@D@std@@V?$allocator@D@2@@std@@AAH$0A@@std@@YA$$QAV?$basic_istringstream@DU?$char_traits@D@std@@V?$allocator@D@2@@0@$$QAV10@AAH@Z 200cae70 f i LevelDB.obj
 0001:000c9ea0       ??$_Erase_tree@V?$allocator@U?$_Tree_node@U?$pair@$$CBHVLevel@@@std@@PAX@std@@@std@@@?$_Tree_val@U?$_Tree_simple_types@U?$pair@$$CBHVLevel@@@std@@@std@@@std@@QAEXAAV?$allocator@U?$_Tree_node@U?$pair@$$CBHVLevel@@@std@@PAX@std@@@1@PAU?$_Tree_node@U?$pair@$$CBHVLevel@@@std@@PAX@1@@Z 200caea0 f i LevelDB.obj
 0001:000c9f10       ??$_Find_lower_bound@H@?$_Tree@V?$_Tmap_traits@HVLevel@@U?$less@H@std@@V?$allocator@U?$pair@$$CBHVLevel@@@std@@@3@$0A@@std@@@std@@IBE?AU?$_Tree_find_result@PAU?$_Tree_node@U?$pair@$$CBHVLevel@@@std@@PAX@std@@@1@ABH@Z 200caf10 f i LevelDB.obj
 0001:000c9f70       ??0?$basic_stringbuf@DU?$char_traits@D@std@@V?$allocator@D@2@@std@@QAE@ABV?$basic_string@DU?$char_traits@D@std@@V?$allocator@D@2@@1@H@Z 200caf70 f i LevelDB.obj
 0001:000ca120       ??0LevelDB@@QAE@XZ         200cb120 f   LevelDB.obj
 0001:000ca300       ??1?$_Alloc_construct_ptr@V?$allocator@U?$_Tree_node@U?$pair@$$CBHVLevel@@@std@@PAX@std@@@std@@@std@@QAE@XZ 200cb300 f i LevelDB.obj
 0001:000ca320       ??1?$_Tree_temp_node_alloc@V?$allocator@U?$_Tree_node@U?$pair@$$CBHVLevel@@@std@@PAX@std@@@std@@@std@@QAE@XZ 200cb320 f i LevelDB.obj
 0001:000ca340       ??1?$basic_istringstream@DU?$char_traits@D@std@@V?$allocator@D@2@@std@@UAE@XZ 200cb340 f i LevelDB.obj
 0001:000ca3a0       ??1?$map@V?$basic_string@DU?$char_traits@D@std@@V?$allocator@D@2@@std@@V12@U?$less@V?$basic_string@DU?$char_traits@D@std@@V?$allocator@D@2@@std@@@2@V?$allocator@U?$pair@$$CBV?$basic_string@DU?$char_traits@D@std@@V?$allocator@D@2@@std@@V12@@std@@@2@@std@@QAE@XZ 200cb3a0 f i LevelDB.obj
 0001:000ca3d0       ??1LevelDB@@UAE@XZ         200cb3d0 f   LevelDB.obj
 0001:000ca420       ??6?$basic_ostream@DU?$char_traits@D@std@@@std@@QAEAAV01@I@Z 200cb420 f i LevelDB.obj
 0001:000ca690       ??A?$map@HVLevel@@U?$less@H@std@@V?$allocator@U?$pair@$$CBHVLevel@@@std@@@3@@std@@QAEAAVLevel@@ABH@Z 200cb690 f i LevelDB.obj
 0001:000ca780       ??E?$_Tree_unchecked_const_iterator@V?$_Tree_val@U?$_Tree_simple_types@U?$pair@$$CBHVLevel@@@std@@@std@@@std@@U_Iterator_base0@2@@std@@QAEAAV01@XZ 200cb780 f i LevelDB.obj
 0001:000ca7f0       ??_D?$basic_istringstream@DU?$char_traits@D@std@@V?$allocator@D@2@@std@@QAEXXZ 200cb7f0 f i LevelDB.obj
 0001:000ca895       ??_E?$basic_istringstream@DU?$char_traits@D@std@@V?$allocator@D@2@@std@@$4PPPPPPPM@A@AEPAXI@Z 200cb895 f i LevelDB.obj
 0001:000ca8a0       ??_E?$basic_istringstream@DU?$char_traits@D@std@@V?$allocator@D@2@@std@@UAEPAXI@Z 200cb8a0 f i LevelDB.obj
 0001:000ca8a0       ??_G?$basic_istringstream@DU?$char_traits@D@std@@V?$allocator@D@2@@std@@UAEPAXI@Z 200cb8a0 f i LevelDB.obj
 0001:000ca8e0       ??_ELevelDB@@UAEPAXI@Z     200cb8e0 f i LevelDB.obj
 0001:000ca8e0       ??_GLevelDB@@UAEPAXI@Z     200cb8e0 f i LevelDB.obj
 0001:000ca910       ?_Extract@?$_Tree_val@U?$_Tree_simple_types@U?$pair@$$CBHVLevel@@@std@@@std@@@std@@QAEPAU?$_Tree_node@U?$pair@$$CBHVLevel@@@std@@PAX@2@V?$_Tree_unchecked_const_iterator@V?$_Tree_val@U?$_Tree_simple_types@U?$pair@$$CBHVLevel@@@std@@@std@@@std@@U_Iterator_base0@2@@2@@Z 200cb910 f i LevelDB.obj
 0001:000cacb0       ?_Insert_node@?$_Tree_val@U?$_Tree_simple_types@U?$pair@$$CBHVLevel@@@std@@@std@@@std@@QAEPAU?$_Tree_node@U?$pair@$$CBHVLevel@@@std@@PAX@2@U?$_Tree_id@PAU?$_Tree_node@U?$pair@$$CBHVLevel@@@std@@PAX@std@@@2@QAU32@@Z 200cbcb0 f i LevelDB.obj
 0001:000caf20       ?_Lrotate@?$_Tree_val@U?$_Tree_simple_types@U?$pair@$$CBHVLevel@@@std@@@std@@@std@@QAEXPAU?$_Tree_node@U?$pair@$$CBHVLevel@@@std@@PAX@2@@Z 200cbf20 f i LevelDB.obj
 0001:000caf90       ?_Rrotate@?$_Tree_val@U?$_Tree_simple_types@U?$pair@$$CBHVLevel@@@std@@@std@@@std@@QAEXPAU?$_Tree_node@U?$pair@$$CBHVLevel@@@std@@PAX@2@@Z 200cbf90 f i LevelDB.obj
 0001:000cb000       ?erase@?$_Tree@V?$_Tmap_traits@HVLevel@@U?$less@H@std@@V?$allocator@U?$pair@$$CBHVLevel@@@std@@@3@$0A@@std@@@std@@QAEIABH@Z 200cc000 f i LevelDB.obj
 0001:000cb1a0       ?fetchByKey@LevelDB@@QAEAAVLevel@@ABV?$basic_string@DU?$char_traits@D@std@@V?$allocator@D@2@@std@@AAV34@_N@Z 200cc1a0 f   LevelDB.obj
 0001:000cb1d0       ?fetchByKey@LevelDB@@QAEAAVLevel@@HAAV?$basic_string@DU?$char_traits@D@std@@V?$allocator@D@2@@std@@_N@Z 200cc1d0 f   LevelDB.obj
 0001:000cb5f0       ?fetchByName@LevelDB@@QAEAAVLevel@@ABV?$basic_string@DU?$char_traits@D@std@@V?$allocator@D@2@@std@@AAV34@@Z 200cc5f0 f   LevelDB.obj
 0001:000cb940       ?load@LevelDB@@QAEXXZ      200cc940 f   LevelDB.obj
 0001:000cc230       ?remove@LevelDB@@QAEIAAVLevel@@ABV2@@Z 200cd230 f   LevelDB.obj
 0001:000cc280       ?save@LevelDB@@QAEXXZ      200cd280 f   LevelDB.obj
 0001:000cc5a0       ?toKey@LevelDB@@AAEHABV?$basic_string@DU?$char_traits@D@std@@V?$allocator@D@2@@std@@@Z 200cd5a0 f   LevelDB.obj
 0001:000cc780       ??$_Erase_tree@V?$allocator@U?$_Tree_node@U?$pair@$$CBV?$basic_string@DU?$char_traits@D@std@@V?$allocator@D@2@@std@@VMapRecord@@@std@@PAX@std@@@std@@@?$_Tree_val@U?$_Tree_simple_types@U?$pair@$$CBV?$basic_string@DU?$char_traits@D@std@@V?$allocator@D@2@@std@@VMapRecord@@@std@@@std@@@std@@QAEXAAV?$allocator@U?$_Tree_node@U?$pair@$$CBV?$basic_string@DU?$char_traits@D@std@@V?$allocator@D@2@@std@@VMapRecord@@@std@@PAX@std@@@1@PAU?$_Tree_node@U?$pair@$$CBV?$basic_string@DU?$char_traits@D@std@@V?$allocator@D@2@@std@@VMapRecord@@@std@@PAX@1@@Z 200cd780 f i MapDB.obj
 0001:000cc7f0       ??$_Find_lower_bound@V?$basic_string@DU?$char_traits@D@std@@V?$allocator@D@2@@std@@@?$_Tree@V?$_Tmap_traits@$$CBV?$basic_string@DU?$char_traits@D@std@@V?$allocator@D@2@@std@@VMapRecord@@U?$less@$$CBV?$basic_string@DU?$char_traits@D@std@@V?$allocator@D@2@@std@@@2@V?$allocator@U?$pair@$$CBV?$basic_string@DU?$char_traits@D@std@@V?$allocator@D@2@@std@@VMapRecord@@@std@@@2@$0A@@std@@@std@@IBE?AU?$_Tree_find_result@PAU?$_Tree_node@U?$pair@$$CBV?$basic_string@DU?$char_traits@D@std@@V?$allocator@D@2@@std@@VMapRecord@@@std@@PAX@std@@@1@ABV?$basic_string@DU?$char_traits@D@std@@V?$allocator@D@2@@1@@Z 200cd7f0 f i MapDB.obj
 0001:000cc860       ??0MapDB@@QAE@XZ           200cd860 f   MapDB.obj
 0001:000cca30       ??1?$_Alloc_construct_ptr@V?$allocator@U?$_Tree_node@U?$pair@$$CBV?$basic_string@DU?$char_traits@D@std@@V?$allocator@D@2@@std@@VMapRecord@@@std@@PAX@std@@@std@@@std@@QAE@XZ 200cda30 f i MapDB.obj
 0001:000cca50       ??1?$_Tree_temp_node_alloc@V?$allocator@U?$_Tree_node@U?$pair@$$CBV?$basic_string@DU?$char_traits@D@std@@V?$allocator@D@2@@std@@VMapRecord@@@std@@PAX@std@@@std@@@std@@QAE@XZ 200cda50 f i MapDB.obj
 0001:000cca70       ??1?$pair@$$CBV?$basic_string@DU?$char_traits@D@std@@V?$allocator@D@2@@std@@VMapRecord@@@std@@QAE@XZ 200cda70 f i MapDB.obj
 0001:000ccae0       ??1MapDB@@UAE@XZ           200cdae0 f   MapDB.obj
 0001:000ccb30       ??E?$_Tree_unchecked_const_iterator@V?$_Tree_val@U?$_Tree_simple_types@U?$pair@$$CBV?$basic_string@DU?$char_traits@D@std@@V?$allocator@D@2@@std@@VMapRecord@@@std@@@std@@@std@@U_Iterator_base0@2@@std@@QAEAAV01@XZ 200cdb30 f i MapDB.obj
 0001:000ccba0       ??_EMapDB@@UAEPAXI@Z       200cdba0 f i MapDB.obj
 0001:000ccba0       ??_GMapDB@@UAEPAXI@Z       200cdba0 f i MapDB.obj
 0001:000ccbd0       ?_Extract@?$_Tree_val@U?$_Tree_simple_types@U?$pair@$$CBV?$basic_string@DU?$char_traits@D@std@@V?$allocator@D@2@@std@@VMapRecord@@@std@@@std@@@std@@QAEPAU?$_Tree_node@U?$pair@$$CBV?$basic_string@DU?$char_traits@D@std@@V?$allocator@D@2@@std@@VMapRecord@@@std@@PAX@2@V?$_Tree_unchecked_const_iterator@V?$_Tree_val@U?$_Tree_simple_types@U?$pair@$$CBV?$basic_string@DU?$char_traits@D@std@@V?$allocator@D@2@@std@@VMapRecord@@@std@@@std@@@std@@U_Iterator_base0@2@@2@@Z 200cdbd0 f i MapDB.obj
 0001:000ccf70       ?_Insert_node@?$_Tree_val@U?$_Tree_simple_types@U?$pair@$$CBV?$basic_string@DU?$char_traits@D@std@@V?$allocator@D@2@@std@@VMapRecord@@@std@@@std@@@std@@QAEPAU?$_Tree_node@U?$pair@$$CBV?$basic_string@DU?$char_traits@D@std@@V?$allocator@D@2@@std@@VMapRecord@@@std@@PAX@2@U?$_Tree_id@PAU?$_Tree_node@U?$pair@$$CBV?$basic_string@DU?$char_traits@D@std@@V?$allocator@D@2@@std@@VMapRecord@@@std@@PAX@std@@@2@QAU32@@Z 200cdf70 f i MapDB.obj
 0001:000cd1e0       ?_Lrotate@?$_Tree_val@U?$_Tree_simple_types@U?$pair@$$CBV?$basic_string@DU?$char_traits@D@std@@V?$allocator@D@2@@std@@VMapRecord@@@std@@@std@@@std@@QAEXPAU?$_Tree_node@U?$pair@$$CBV?$basic_string@DU?$char_traits@D@std@@V?$allocator@D@2@@std@@VMapRecord@@@std@@PAX@2@@Z 200ce1e0 f i MapDB.obj
 0001:000cd250       ?_Rrotate@?$_Tree_val@U?$_Tree_simple_types@U?$pair@$$CBV?$basic_string@DU?$char_traits@D@std@@V?$allocator@D@2@@std@@VMapRecord@@@std@@@std@@@std@@QAEXPAU?$_Tree_node@U?$pair@$$CBV?$basic_string@DU?$char_traits@D@std@@V?$allocator@D@2@@std@@VMapRecord@@@std@@PAX@2@@Z 200ce250 f i MapDB.obj
 0001:000cd2c0       ?erase@?$_Tree@V?$_Tmap_traits@$$CBV?$basic_string@DU?$char_traits@D@std@@V?$allocator@D@2@@std@@VMapRecord@@U?$less@$$CBV?$basic_string@DU?$char_traits@D@std@@V?$allocator@D@2@@std@@@2@V?$allocator@U?$pair@$$CBV?$basic_string@DU?$char_traits@D@std@@V?$allocator@D@2@@std@@VMapRecord@@@std@@@2@$0A@@std@@@std@@QAEIABV?$basic_string@DU?$char_traits@D@std@@V?$allocator@D@2@@2@@Z 200ce2c0 f i MapDB.obj
 0001:000cd490       ?fetchByKey@MapDB@@QAEAAVMapRecord@@ABV?$basic_string@DU?$char_traits@D@std@@V?$allocator@D@2@@std@@AAV34@_N@Z 200ce490 f   MapDB.obj
 0001:000cd6f0       ?load@MapDB@@QAEXXZ        200ce6f0 f   MapDB.obj
 0001:000cdde0       ?save@MapDB@@QAEXXZ        200cede0 f   MapDB.obj
 0001:000ce100       ??0MapEntity@@QAE@XZ       200cf100 f   MapEntity.obj
 0001:000ce1a0       ??1MapEntity@@QAE@XZ       200cf1a0 f   MapEntity.obj
 0001:000ce1b0       ?changed@MapEntity@@QAE_NXZ 200cf1b0 f   MapEntity.obj
 0001:000ce200       ?reconcile@MapEntity@@QAEXXZ 200cf200 f   MapEntity.obj
 0001:000ce250       ??0MapEntityList@@QAE@XZ   200cf250 f   MapEntityList.obj
 0001:000ce270       ??1MapEntityList@@QAE@XZ   200cf270 f   MapEntityList.obj
 0001:000ce280       ?clean@MapEntityList@@AAEXXZ 200cf280 f   MapEntityList.obj
 0001:000ce2c0       ?findEnt@MapEntityList@@QAEPAVMapEntity@@H@Z 200cf2c0 f   MapEntityList.obj
 0001:000ce310       ?findEntSingleClient@MapEntityList@@QAEPAVMapEntity@@HHAAH@Z 200cf310 f   MapEntityList.obj
 0001:000ce390       ?init@MapEntityList@@AAEXXZ 200cf390 f   MapEntityList.obj
 0001:000ce3b0       ?reset@MapEntityList@@QAEXXZ 200cf3b0 f   MapEntityList.obj
 0001:000ce3d0       ??$_Common_extract_with_num_get@_J@?$basic_istream@DU?$char_traits@D@std@@@std@@AAEAAV01@AA_J@Z 200cf3d0 f i MapRecord.obj
 0001:000ce5e0       ??0MapRecord@@QAE@ABV0@@Z  200cf5e0 f   MapRecord.obj
 0001:000ce690       ??0MapRecord@@QAE@XZ       200cf690 f   MapRecord.obj
 0001:000ce730       ??1MapRecord@@QAE@XZ       200cf730 f   MapRecord.obj
 0001:000ce840       ??4MapRecord@@QAEAAV0@ABV0@@Z 200cf840 f   MapRecord.obj
 0001:000ce8b0       ??6?$basic_ostream@DU?$char_traits@D@std@@@std@@QAEAAV01@J@Z 200cf8b0 f i MapRecord.obj
 0001:000ceb20       ??8MapRecord@@QBE_NABV0@@Z 200cfb20 f   MapRecord.obj
 0001:000ceb30       ?decode@MapRecord@@AAEXAAV?$map@V?$basic_string@DU?$char_traits@D@std@@V?$allocator@D@2@@std@@V12@U?$less@V?$basic_string@DU?$char_traits@D@std@@V?$allocator@D@2@@std@@@2@V?$allocator@U?$pair@$$CBV?$basic_string@DU?$char_traits@D@std@@V?$allocator@D@2@@std@@V12@@std@@@2@@std@@@Z 200cfb30 f   MapRecord.obj
 0001:000cf470       ?encode@MapRecord@@AAEXAAV?$basic_ostream@DU?$char_traits@D@std@@@std@@H@Z 200d0470 f   MapRecord.obj
 0001:000cf6b0       ?isNull@MapRecord@@AAE_NXZ 200d06b0 f   MapRecord.obj
 0001:000cf6c0       ??0MuzzleBulletModel@@QAE@AAVClient@@_N@Z 200d06c0 f   MuzzleBulletModel.obj
 0001:000cf730       ??1MuzzleBulletModel@@UAE@XZ 200d0730 f   MuzzleBulletModel.obj
 0001:000cf760       ??_EMuzzleBulletModel@@UAEPAXI@Z 200d0760 f i MuzzleBulletModel.obj
 0001:000cf760       ??_GMuzzleBulletModel@@UAEPAXI@Z 200d0760 f i MuzzleBulletModel.obj
 0001:000cf7b0       ?adjustStartPoint@MuzzleBulletModel@@MAEXQAM@Z 200d07b0 f   MuzzleBulletModel.obj
 0001:000cfcc0       ??0OrientedCuboidHV@@QAE@W4zone_t@AbstractHitVolume@@AAVAbstractHitModel@@W4scope_t@2@@Z 200d0cc0 f   OrientedCuboidHV.obj
 0001:000cfd40       ??1OrientedCuboidHV@@UAE@XZ 200d0d40 f   OrientedCuboidHV.obj
 0001:000cfd50       ??4OrientedCuboidHV@@QAEAAV0@ABV0@@Z 200d0d50 f   OrientedCuboidHV.obj
 0001:000cfe20       ??_EOrientedCuboidHV@@UAEPAXI@Z 200d0e20 f i OrientedCuboidHV.obj
 0001:000cfe20       ??_GOrientedCuboidHV@@UAEPAXI@Z 200d0e20 f i OrientedCuboidHV.obj
 0001:000cfe50       ?castRay@OrientedCuboidHV@@UAE_NAAVTraceContext@@AAY02MAAM@Z 200d0e50 f   OrientedCuboidHV.obj
 0001:000d0440       ?castRayTriangle@OrientedCuboidHV@@IAE_NAAVTraceContext@@AAY02MAAMABV?$basic_string@DU?$char_traits@D@std@@V?$allocator@D@2@@std@@AAY02$$CBM44@Z 200d1440 f   OrientedCuboidHV.obj
 0001:000d1390       ?doEntityCompute@OrientedCuboidHV@@MAEXXZ 200d2390 f   OrientedCuboidHV.obj
 0001:000d1480       ?reorient@OrientedCuboidHV@@QAEXXZ 200d2480 f   OrientedCuboidHV.obj
 0001:000d1790       ??0OrientedHitModel@@QAE@AAVClient@@W4vitality_t@AbstractHitModel@@@Z 200d2790 f   OrientedHitModel.obj
 0001:000d18f0       ??1OrientedHitModel@@UAE@XZ 200d28f0 f   OrientedHitModel.obj
 0001:000d1990       ??4OrientedHitModel@@QAEAAV0@ABV0@@Z 200d2990 f   OrientedHitModel.obj
 0001:000d1a90       ??_EOrientedHitModel@@UAEPAXI@Z 200d2a90 f i OrientedHitModel.obj
 0001:000d1a90       ??_GOrientedHitModel@@UAEPAXI@Z 200d2a90 f i OrientedHitModel.obj
 0001:000d1ae0       ?doRun@OrientedHitModel@@MAEXXZ 200d2ae0 f   OrientedHitModel.obj
 0001:000d2e70       ?doSnapshot@OrientedHitModel@@MAEPAV1@XZ 200d3e70 f   OrientedHitModel.obj
 0001:000d2f00       ??$?HDU?$char_traits@D@std@@V?$allocator@D@1@@std@@YA?AV?$basic_string@DU?$char_traits@D@std@@V?$allocator@D@2@@0@ABV10@0@Z 200d3f00 f i Privilege.obj
 0001:000d3040       ??0Privilege@@QAE@W4Type@0@ABV?$basic_string@DU?$char_traits@D@std@@V?$allocator@D@2@@std@@_N@Z 200d4040 f   Privilege.obj
 0001:000d30d0       ??1Privilege@@QAE@XZ       200d40d0 f   Privilege.obj
 0001:000d3190       ??8Privilege@@QBE_NABV0@@Z 200d4190 f   Privilege.obj
 0001:000d31a0       ??9Privilege@@QBE_NABV0@@Z 200d41a0 f   Privilege.obj
 0001:000d31b0       ?toName@Privilege@@CA?AV?$basic_string@DU?$char_traits@D@std@@V?$allocator@D@2@@std@@W4Type@1@ABV23@@Z 200d41b0 f   Privilege.obj
 0001:000d34e0       ??$_Copy_nodes@$0A@@?$_Tree@V?$_Tmap_traits@V?$basic_string@DU?$char_traits@D@std@@V?$allocator@D@2@@std@@PBVPrivilege@@U?$less@V?$basic_string@DU?$char_traits@D@std@@V?$allocator@D@2@@std@@@2@V?$allocator@U?$pair@$$CBV?$basic_string@DU?$char_traits@D@std@@V?$allocator@D@2@@std@@PBVPrivilege@@@std@@@2@$0A@@std@@@std@@IAEPAU?$_Tree_node@U?$pair@$$CBV?$basic_string@DU?$char_traits@D@std@@V?$allocator@D@2@@std@@PBVPrivilege@@@std@@PAX@1@PAU21@0@Z 200d44e0 f i PrivilegeSet.obj
 0001:000d35f0       ??$_Copy_nodes@$0A@@?$_Tree@V?$_Tset_traits@PBVPrivilege@@U?$less@PBVPrivilege@@@std@@V?$allocator@PBVPrivilege@@@3@$0A@@std@@@std@@IAEPAU?$_Tree_node@PBVPrivilege@@PAX@1@PAU21@0@Z 200d45f0 f i PrivilegeSet.obj
 0001:000d36d0       ??$_Destroy_range@V?$allocator@V?$basic_string@DU?$char_traits@D@std@@V?$allocator@D@2@@std@@@std@@@std@@YAXPAV?$basic_string@DU?$char_traits@D@std@@V?$allocator@D@2@@0@QAV10@AAV?$allocator@V?$basic_string@DU?$char_traits@D@std@@V?$allocator@D@2@@std@@@0@@Z 200d46d0 f i PrivilegeSet.obj
 0001:000d3750       ??$_Emplace_reallocate@V?$basic_string@DU?$char_traits@D@std@@V?$allocator@D@2@@std@@@?$vector@V?$basic_string@DU?$char_traits@D@std@@V?$allocator@D@2@@std@@V?$allocator@V?$basic_string@DU?$char_traits@D@std@@V?$allocator@D@2@@std@@@2@@std@@AAEPAV?$basic_string@DU?$char_traits@D@std@@V?$allocator@D@2@@1@QAV21@$$QAV21@@Z 200d4750 f i PrivilegeSet.obj
 0001:000d3990       ??$_Erase_tree@V?$allocator@U?$_Tree_node@PBVPrivilege@@PAX@std@@@std@@@?$_Tree_val@U?$_Tree_simple_types@PBVPrivilege@@@std@@@std@@QAEXAAV?$allocator@U?$_Tree_node@PBVPrivilege@@PAX@std@@@1@PAU?$_Tree_node@PBVPrivilege@@PAX@1@@Z 200d4990 f i PrivilegeSet.obj
 0001:000d39e0       ??$_Erase_tree@V?$allocator@U?$_Tree_node@U?$pair@$$CBV?$basic_string@DU?$char_traits@D@std@@V?$allocator@D@2@@std@@PBVPrivilege@@@std@@PAX@std@@@std@@@?$_Tree_val@U?$_Tree_simple_types@U?$pair@$$CBV?$basic_string@DU?$char_traits@D@std@@V?$allocator@D@2@@std@@PBVPrivilege@@@std@@@std@@@std@@QAEXAAV?$allocator@U?$_Tree_node@U?$pair@$$CBV?$basic_string@DU?$char_traits@D@std@@V?$allocator@D@2@@std@@PBVPrivilege@@@std@@PAX@std@@@1@PAU?$_Tree_node@U?$pair@$$CBV?$basic_string@DU?$char_traits@D@std@@V?$allocator@D@2@@std@@PBVPrivilege@@@std@@PAX@1@@Z 200d49e0 f i PrivilegeSet.obj
 0001:000d3aa0       ??$_Erase_tree_and_orphan@V?$allocator@U?$_Tree_node@PBVPrivilege@@PAX@std@@@std@@@?$_Tree_val@U?$_Tree_simple_types@PBVPrivilege@@@std@@@std@@QAEXAAV?$allocator@U?$_Tree_node@PBVPrivilege@@PAX@std@@@1@PAU?$_Tree_node@PBVPrivilege@@PAX@1@@Z 200d4aa0 f i PrivilegeSet.obj
 0001:000d3af0       ??$_Erase_tree_and_orphan@V?$allocator@U?$_Tree_node@U?$pair@$$CBV?$basic_string@DU?$char_traits@D@std@@V?$allocator@D@2@@std@@PBVPrivilege@@@std@@PAX@std@@@std@@@?$_Tree_val@U?$_Tree_simple_types@U?$pair@$$CBV?$basic_string@DU?$char_traits@D@std@@V?$allocator@D@2@@std@@PBVPrivilege@@@std@@@std@@@std@@QAEXAAV?$allocator@U?$_Tree_node@U?$pair@$$CBV?$basic_string@DU?$char_traits@D@std@@V?$allocator@D@2@@std@@PBVPrivilege@@@std@@PAX@std@@@1@PAU?$_Tree_node@U?$pair@$$CBV?$basic_string@DU?$char_traits@D@std@@V?$allocator@D@2@@std@@PBVPrivilege@@@std@@PAX@1@@Z 200d4af0 f i PrivilegeSet.obj
 0001:000d3bb0       ??$_Find_lower_bound@PBVPrivilege@@@?$_Tree@V?$_Tset_traits@PBVPrivilege@@U?$less@PBVPrivilege@@@std@@V?$allocator@PBVPrivilege@@@3@$0A@@std@@@std@@IBE?AU?$_Tree_find_result@PAU?$_Tree_node@PBVPrivilege@@PAX@std@@@1@ABQBVPrivilege@@@Z 200d4bb0 f i PrivilegeSet.obj
 0001:000d3c10       ??$_Find_lower_bound@V?$basic_string@DU?$char_traits@D@std@@V?$allocator@D@2@@std@@@?$_Tree@V?$_Tmap_traits@V?$basic_string@DU?$char_traits@D@std@@V?$allocator@D@2@@std@@PBVPrivilege@@U?$less@V?$basic_string@DU?$char_traits@D@std@@V?$allocator@D@2@@std@@@2@V?$allocator@U?$pair@$$CBV?$basic_string@DU?$char_traits@D@std@@V?$allocator@D@2@@std@@PBVPrivilege@@@std@@@2@$0A@@std@@@std@@IBE?AU?$_Tree_find_result@PAU?$_Tree_node@U?$pair@$$CBV?$basic_string@DU?$char_traits@D@std@@V?$allocator@D@2@@std@@PBVPrivilege@@@std@@PAX@std@@@1@ABV?$basic_string@DU?$char_traits@D@std@@V?$allocator@D@2@@1@@Z 200d4c10 f i PrivilegeSet.obj
 0001:000d3c80       ??$_Freenode@V?$allocator@U?$_Tree_node@U?$pair@$$CBV?$basic_string@DU?$char_traits@D@std@@V?$allocator@D@2@@std@@PBVPrivilege@@@std@@PAX@std@@@std@@@?$_Tree_node@U?$pair@$$CBV?$basic_string@DU?$char_traits@D@std@@V?$allocator@D@2@@std@@PBVPrivilege@@@std@@PAX@std@@SAXAAV?$allocator@U?$_Tree_node@U?$pair@$$CBV?$basic_string@DU?$char_traits@D@std@@V?$allocator@D@2@@std@@PBVPrivilege@@@std@@PAX@std@@@1@PAU01@@Z 200d4c80 f i PrivilegeSet.obj
 0001:000d3d00       ??$_Uninitialized_move@PAV?$basic_string@DU?$char_traits@D@std@@V?$allocator@D@2@@std@@V?$allocator@V?$basic_string@DU?$char_traits@D@std@@V?$allocator@D@2@@std@@@2@@std@@YAPAV?$basic_string@DU?$char_traits@D@std@@V?$allocator@D@2@@0@QAV10@0PAV10@AAV?$allocator@V?$basic_string@DU?$char_traits@D@std@@V?$allocator@D@2@@std@@@0@@Z 200d4d00 f i PrivilegeSet.obj
 0001:000d3d80       ??0PrivilegeSet@@QAE@XZ    200d4d80 f   PrivilegeSet.obj
 0001:000d3e40       ??1?$_Alloc_construct_ptr@V?$allocator@U?$_List_node@PBVPrivilege@@PAX@std@@@std@@@std@@QAE@XZ 200d4e40 f i PrivilegeSet.obj
 0001:000d3e60       ??1?$_Alloc_construct_ptr@V?$allocator@U?$_List_node@V?$basic_string@DU?$char_traits@D@std@@V?$allocator@D@2@@std@@PAX@std@@@std@@@std@@QAE@XZ 200d4e60 f i PrivilegeSet.obj
 0001:000d3e80       ??1?$_Alloc_construct_ptr@V?$allocator@U?$_Tree_node@PBVPrivilege@@PAX@std@@@std@@@std@@QAE@XZ 200d4e80 f i PrivilegeSet.obj
 0001:000d3ea0       ??1?$_Alloc_construct_ptr@V?$allocator@U?$_Tree_node@U?$pair@$$CBV?$basic_string@DU?$char_traits@D@std@@V?$allocator@D@2@@std@@PBVPrivilege@@@std@@PAX@std@@@std@@@std@@QAE@XZ 200d4ea0 f i PrivilegeSet.obj
 0001:000d3ec0       ??1?$_Erase_tree_and_orphan_guard@V?$allocator@U?$_Tree_node@PBVPrivilege@@PAX@std@@@std@@@?$_Tree_val@U?$_Tree_simple_types@PBVPrivilege@@@std@@@std@@QAE@XZ 200d4ec0 f i PrivilegeSet.obj
 0001:000d3ee0       ??1?$_Erase_tree_and_orphan_guard@V?$allocator@U?$_Tree_node@U?$pair@$$CBV?$basic_string@DU?$char_traits@D@std@@V?$allocator@D@2@@std@@PBVPrivilege@@@std@@PAX@std@@@std@@@?$_Tree_val@U?$_Tree_simple_types@U?$pair@$$CBV?$basic_string@DU?$char_traits@D@std@@V?$allocator@D@2@@std@@PBVPrivilege@@@std@@@std@@@std@@QAE@XZ 200d4ee0 f i PrivilegeSet.obj
 0001:000d3f00       ??1?$_Tree@V?$_Tset_traits@PBVPrivilege@@U?$less@PBVPrivilege@@@std@@V?$allocator@PBVPrivilege@@@3@$0A@@std@@@std@@QAE@XZ 200d4f00 f i PrivilegeSet.obj
 0001:000d3f50       ??1?$_Tree_temp_node_alloc@V?$allocator@U?$_Tree_node@U?$pair@$$CBV?$basic_string@DU?$char_traits@D@std@@V?$allocator@D@2@@std@@PBVPrivilege@@@std@@PAX@std@@@std@@@std@@QAE@XZ 200d4f50 f i PrivilegeSet.obj
 0001:000d3f70       ??1?$list@PBVPrivilege@@V?$allocator@PBVPrivilege@@@std@@@std@@QAE@XZ 200d4f70 f i PrivilegeSet.obj
 0001:000d3fc0       ??1?$set@PBVPrivilege@@U?$less@PBVPrivilege@@@std@@V?$allocator@PBVPrivilege@@@3@@std@@QAE@XZ 200d4fc0 f i PrivilegeSet.obj
 0001:000d3fd0       ??1PrivilegeSet@@QAE@XZ    200d4fd0 f   PrivilegeSet.obj
 0001:000d4010       ??4PrivilegeSet@@QAEAAV0@ABV0@@Z 200d5010 f   PrivilegeSet.obj
 0001:000d4170       ??E?$_Tree_unchecked_const_iterator@V?$_Tree_val@U?$_Tree_simple_types@PBVPrivilege@@@std@@@std@@U_Iterator_base0@2@@std@@QAEAAV01@XZ 200d5170 f i PrivilegeSet.obj
 0001:000d41e0       ??E?$_Tree_unchecked_const_iterator@V?$_Tree_val@U?$_Tree_simple_types@U?$pair@$$CBV?$basic_string@DU?$char_traits@D@std@@V?$allocator@D@2@@std@@PBVPrivilege@@@std@@@std@@@std@@U_Iterator_base0@2@@std@@QAEAAV01@XZ 200d51e0 f i PrivilegeSet.obj
 0001:000d4250       ?_Deallocate_for_capacity@?$basic_string@DU?$char_traits@D@std@@V?$allocator@D@2@@std@@CAXAAV?$allocator@D@2@QADI@Z 200d5250 f i PrivilegeSet.obj
 0001:000d42a0       ?_Extract@?$_Tree_val@U?$_Tree_simple_types@PBVPrivilege@@@std@@@std@@QAEPAU?$_Tree_node@PBVPrivilege@@PAX@2@V?$_Tree_unchecked_const_iterator@V?$_Tree_val@U?$_Tree_simple_types@PBVPrivilege@@@std@@@std@@U_Iterator_base0@2@@2@@Z 200d52a0 f i PrivilegeSet.obj
 0001:000d4640       ?_Extract@?$_Tree_val@U?$_Tree_simple_types@U?$pair@$$CBV?$basic_string@DU?$char_traits@D@std@@V?$allocator@D@2@@std@@PBVPrivilege@@@std@@@std@@@std@@QAEPAU?$_Tree_node@U?$pair@$$CBV?$basic_string@DU?$char_traits@D@std@@V?$allocator@D@2@@std@@PBVPrivilege@@@std@@PAX@2@V?$_Tree_unchecked_const_iterator@V?$_Tree_val@U?$_Tree_simple_types@U?$pair@$$CBV?$basic_string@DU?$char_traits@D@std@@V?$allocator@D@2@@std@@PBVPrivilege@@@std@@@std@@@std@@U_Iterator_base0@2@@2@@Z 200d5640 f i PrivilegeSet.obj
 0001:000d49e0       ?_Insert_node@?$_Tree_val@U?$_Tree_simple_types@PBVPrivilege@@@std@@@std@@QAEPAU?$_Tree_node@PBVPrivilege@@PAX@2@U?$_Tree_id@PAU?$_Tree_node@PBVPrivilege@@PAX@std@@@2@QAU32@@Z 200d59e0 f i PrivilegeSet.obj
 0001:000d4c50       ?_Insert_node@?$_Tree_val@U?$_Tree_simple_types@U?$pair@$$CBV?$basic_string@DU?$char_traits@D@std@@V?$allocator@D@2@@std@@PBVPrivilege@@@std@@@std@@@std@@QAEPAU?$_Tree_node@U?$pair@$$CBV?$basic_string@DU?$char_traits@D@std@@V?$allocator@D@2@@std@@PBVPrivilege@@@std@@PAX@2@U?$_Tree_id@PAU?$_Tree_node@U?$pair@$$CBV?$basic_string@DU?$char_traits@D@std@@V?$allocator@D@2@@std@@PBVPrivilege@@@std@@PAX@std@@@2@QAU32@@Z 200d5c50 f i PrivilegeSet.obj
 0001:000d4ec0       ?_Lrotate@?$_Tree_val@U?$_Tree_simple_types@PBVPrivilege@@@std@@@std@@QAEXPAU?$_Tree_node@PBVPrivilege@@PAX@2@@Z 200d5ec0 f i PrivilegeSet.obj
 0001:000d4f30       ?_Lrotate@?$_Tree_val@U?$_Tree_simple_types@U?$pair@$$CBV?$basic_string@DU?$char_traits@D@std@@V?$allocator@D@2@@std@@PBVPrivilege@@@std@@@std@@@std@@QAEXPAU?$_Tree_node@U?$pair@$$CBV?$basic_string@DU?$char_traits@D@std@@V?$allocator@D@2@@std@@PBVPrivilege@@@std@@PAX@2@@Z 200d5f30 f i PrivilegeSet.obj
 0001:000d4fa0       ?_Rrotate@?$_Tree_val@U?$_Tree_simple_types@PBVPrivilege@@@std@@@std@@QAEXPAU?$_Tree_node@PBVPrivilege@@PAX@2@@Z 200d5fa0 f i PrivilegeSet.obj
 0001:000d5010       ?_Rrotate@?$_Tree_val@U?$_Tree_simple_types@U?$pair@$$CBV?$basic_string@DU?$char_traits@D@std@@V?$allocator@D@2@@std@@PBVPrivilege@@@std@@@std@@@std@@QAEXPAU?$_Tree_node@U?$pair@$$CBV?$basic_string@DU?$char_traits@D@std@@V?$allocator@D@2@@std@@PBVPrivilege@@@std@@PAX@2@@Z 200d6010 f i PrivilegeSet.obj
 0001:000d5080       ?_Xlength@?$vector@V?$basic_string@DU?$char_traits@D@std@@V?$allocator@D@2@@std@@V?$allocator@V?$basic_string@DU?$char_traits@D@std@@V?$allocator@D@2@@std@@@2@@std@@CAXXZ 200d6080 f i PrivilegeSet.obj
 0001:000d5090       ?canonicalize@PrivilegeSet@@SAXAAV1@0@Z 200d6090 f   PrivilegeSet.obj
 0001:000d5680       ?clear@?$_Tree@V?$_Tset_traits@PBVPrivilege@@U?$less@PBVPrivilege@@@std@@V?$allocator@PBVPrivilege@@@3@$0A@@std@@@std@@QAEXXZ 200d6680 f i PrivilegeSet.obj
 0001:000d56e0       ?clear@PrivilegeSet@@QAEXXZ 200d66e0 f   PrivilegeSet.obj
 0001:000d5720       ?contains@PrivilegeSet@@QBE_NABVPrivilege@@@Z 200d6720 f   PrivilegeSet.obj
 0001:000d6eb0       ?decode@PrivilegeSet@@SAXAAV1@0ABV?$basic_string@DU?$char_traits@D@std@@V?$allocator@D@2@@std@@1@Z 200d7eb0 f   PrivilegeSet.obj
 0001:000d73f0       ?empty@PrivilegeSet@@QBE_NXZ 200d83f0 f   PrivilegeSet.obj
 0001:000d7400       ?encode@PrivilegeSet@@SAXABV1@0AAV?$basic_ostream@DU?$char_traits@D@std@@@std@@@Z 200d8400 f   PrivilegeSet.obj
 0001:000d74f0       ?encode@PrivilegeSet@@SAXPBV1@0AAV?$basic_ostream@DU?$char_traits@D@std@@@std@@@Z 200d84f0 f   PrivilegeSet.obj
 0001:000d75c0       ?erase@?$_Tree@V?$_Tmap_traits@V?$basic_string@DU?$char_traits@D@std@@V?$allocator@D@2@@std@@PBVPrivilege@@U?$less@V?$basic_string@DU?$char_traits@D@std@@V?$allocator@D@2@@std@@@2@V?$allocator@U?$pair@$$CBV?$basic_string@DU?$char_traits@D@std@@V?$allocator@D@2@@std@@PBVPrivilege@@@std@@@2@$0A@@std@@@std@@QAEIABV?$basic_string@DU?$char_traits@D@std@@V?$allocator@D@2@@2@@Z 200d85c0 f i PrivilegeSet.obj
 0001:000d7780       ?erase@?$_Tree@V?$_Tset_traits@PBVPrivilege@@U?$less@PBVPrivilege@@@std@@V?$allocator@PBVPrivilege@@@3@$0A@@std@@@std@@QAEIABQBVPrivilege@@@Z 200d8780 f i PrivilegeSet.obj
 0001:000d78f0       ?erase@PrivilegeSet@@QAEXABV?$list@PBVPrivilege@@V?$allocator@PBVPrivilege@@@std@@@std@@@Z 200d88f0 f   PrivilegeSet.obj
 0001:000d7a30       ?erase@PrivilegeSet@@QAEXABVPrivilege@@@Z 200d8a30 f   PrivilegeSet.obj
 0001:000d7a70       ?insert@PrivilegeSet@@QAEXABVPrivilege@@@Z 200d8a70 f   PrivilegeSet.obj
 0001:000d7c20       ?push_back@?$list@V?$basic_string@DU?$char_traits@D@std@@V?$allocator@D@2@@std@@V?$allocator@V?$basic_string@DU?$char_traits@D@std@@V?$allocator@D@2@@std@@@2@@std@@QAEXABV?$basic_string@DU?$char_traits@D@std@@V?$allocator@D@2@@2@@Z 200d8c20 f i PrivilegeSet.obj
 0001:000d7cd0       ?push_back@?$vector@V?$basic_string@DU?$char_traits@D@std@@V?$allocator@D@2@@std@@V?$allocator@V?$basic_string@DU?$char_traits@D@std@@V?$allocator@D@2@@std@@@2@@std@@QAEX$$QAV?$basic_string@DU?$char_traits@D@std@@V?$allocator@D@2@@2@@Z 200d8cd0 f i PrivilegeSet.obj
 0001:000d7d40       ?dropClient@SEngine@@SAXHABVBuffer@text@@ABV?$basic_string@DU?$char_traits@D@std@@V?$allocator@D@2@@std@@H@Z 200d8d40 f   SEngine.obj
 0001:000d7e20       ??0SingleBulletVolume@@QAE@AAVAbstractBulletModel@@_N@Z 200d8e20 f   SingleBulletVolume.obj
 0001:000d7e60       ??1SingleBulletVolume@@UAE@XZ 200d8e60 f   SingleBulletVolume.obj
 0001:000d7e70       ??_ESingleBulletVolume@@UAEPAXI@Z 200d8e70 f i SingleBulletVolume.obj
 0001:000d7e70       ??_GSingleBulletVolume@@UAEPAXI@Z 200d8e70 f i SingleBulletVolume.obj
 0001:000d7ea0       ?doFire@SingleBulletVolume@@MAEXAAVTraceContext@@@Z 200d8ea0 f   SingleBulletVolume.obj
 0001:000d7fe0       ??0StandardHitModel@@QAE@AAVClient@@W4vitality_t@AbstractHitModel@@@Z 200d8fe0 f   StandardHitModel.obj
 0001:000d8020       ??1StandardHitModel@@UAE@XZ 200d9020 f   StandardHitModel.obj
 0001:000d8030       ??4StandardHitModel@@QAEAAV0@ABV0@@Z 200d9030 f   StandardHitModel.obj
 0001:000d8060       ??_EStandardHitModel@@UAEPAXI@Z 200d9060 f i StandardHitModel.obj
 0001:000d8060       ??_GStandardHitModel@@UAEPAXI@Z 200d9060 f i StandardHitModel.obj
 0001:000d80b0       ?doSnapshot@StandardHitModel@@MAEPAV1@XZ 200d90b0 f   StandardHitModel.obj
 0001:000d8140       ?doState@StandardHitModel@@MAEXXZ 200d9140 f   StandardHitModel.obj
 0001:000d81c0       ?doStateRun@StandardHitModel@@MAEXXZ 200d91c0 f   StandardHitModel.obj
 0001:000d85b0       ??$_Erase_tree@V?$allocator@U?$_Tree_node@U?$pair@$$CBV?$basic_string@DU?$char_traits@D@std@@V?$allocator@D@2@@std@@PAVAbstractCommand@cmd@@@std@@PAX@std@@@std@@@?$_Tree_val@U?$_Tree_simple_types@U?$pair@$$CBV?$basic_string@DU?$char_traits@D@std@@V?$allocator@D@2@@std@@PAVAbstractCommand@cmd@@@std@@@std@@@std@@QAEXAAV?$allocator@U?$_Tree_node@U?$pair@$$CBV?$basic_string@DU?$char_traits@D@std@@V?$allocator@D@2@@std@@PAVAbstractCommand@cmd@@@std@@PAX@std@@@1@PAU?$_Tree_node@U?$pair@$$CBV?$basic_string@DU?$char_traits@D@std@@V?$allocator@D@2@@std@@PAVAbstractCommand@cmd@@@std@@PAX@1@@Z 200d95b0 f i static.obj
 0001:000d8670       ??0TraceContext@@QAE@AAUgentity_s@@0HQBM1@Z 200d9670 f   TraceContext.obj
 0001:000d8790       ??0TraceContext@@QAE@ABV0@@Z 200d9790 f   TraceContext.obj
 0001:000d8870       ??1TraceContext@@QAE@XZ    200d9870 f   TraceContext.obj
 0001:000d8910       ?dump@TraceContext@@AAEXABV?$basic_string@DU?$char_traits@D@std@@V?$allocator@D@2@@std@@H@Z 200d9910 f   TraceContext.obj
 0001:000d97a0       ?resultIsPlayer@TraceContext@@QAE_NXZ 200da7a0 f   TraceContext.obj
 0001:000d97b0       ?trace@TraceContext@@QAE_NABV?$basic_string@DU?$char_traits@D@std@@V?$allocator@D@2@@std@@H@Z 200da7b0 f   TraceContext.obj
 0001:000d99a0       ?traceNoEnts@TraceContext@@QAE_NABV?$basic_string@DU?$char_traits@D@std@@V?$allocator@D@2@@std@@H@Z 200da9a0 f   TraceContext.obj
 0001:000d9b90       ??$_Common_extract_with_num_get@I@?$basic_istream@DU?$char_traits@D@std@@@std@@AAEAAV01@AAI@Z 200dab90 f i User.obj
 0001:000d9da0       ??$_Common_extract_with_num_get@_N@?$basic_istream@DU?$char_traits@D@std@@@std@@AAEAAV01@AA_N@Z 200dada0 f i User.obj
 0001:000d9fb0       ??$_Find_lower_bound@V?$basic_string@DU?$char_traits@D@std@@V?$allocator@D@2@@std@@@?$_Tree@V?$_Tmap_traits@V?$basic_string@DU?$char_traits@D@std@@V?$allocator@D@2@@std@@V12@U?$less@V?$basic_string@DU?$char_traits@D@std@@V?$allocator@D@2@@std@@@2@V?$allocator@U?$pair@$$CBV?$basic_string@DU?$char_traits@D@std@@V?$allocator@D@2@@std@@V12@@std@@@2@$0A@@std@@@std@@IBE?AU?$_Tree_find_result@PAU?$_Tree_node@U?$pair@$$CBV?$basic_string@DU?$char_traits@D@std@@V?$allocator@D@2@@std@@V12@@std@@PAX@std@@@1@ABV?$basic_string@DU?$char_traits@D@std@@V?$allocator@D@2@@1@@Z 200dafb0 f i User.obj
 0001:000da020       ??$_Uninitialized_copy_n@PAV?$basic_string@DU?$char_traits@D@std@@V?$allocator@D@2@@std@@V?$allocator@V?$basic_string@DU?$char_traits@D@std@@V?$allocator@D@2@@std@@@2@@std@@YAPAV?$basic_string@DU?$char_traits@D@std@@V?$allocator@D@2@@0@PAV10@I0AAV?$allocator@V?$basic_string@DU?$char_traits@D@std@@V?$allocator@D@2@@std@@@0@@Z 200db020 f i User.obj
 0001:000da0c0       ??0User@@QAE@ABV0@@Z       200db0c0 f   User.obj
 0001:000da3c0       ??0User@@QAE@XZ            200db3c0 f   User.obj
 0001:000da7f0       ??0User@@QAE@_N@Z          200db7f0 f   User.obj
 0001:000daef0       ??1?$_Uninitialized_backout_al@V?$allocator@V?$basic_string@DU?$char_traits@D@std@@V?$allocator@D@2@@std@@@std@@@std@@QAE@XZ 200dbef0 f i User.obj
 0001:000daf10       ??1User@@QAE@XZ            200dbf10 f   User.obj
 0001:000db5c0       ??4?$vector@V?$basic_string@DU?$char_traits@D@std@@V?$allocator@D@2@@std@@V?$allocator@V?$basic_string@DU?$char_traits@D@std@@V?$allocator@D@2@@std@@@2@@std@@QAEAAV01@ABV01@@Z 200dc5c0 f i User.obj
 0001:000db750       ??4User@@QAEAAV0@ABV0@@Z   200dc750 f   User.obj
 0001:000dbd30       ??5?$basic_istream@DU?$char_traits@D@std@@@std@@QAEAAV01@AAH@Z 200dcd30 f i User.obj
 0001:000dbd60       ??6?$basic_ostream@DU?$char_traits@D@std@@@std@@QAEAAV01@_N@Z 200dcd60 f i User.obj
 0001:000dbfd0       ??8User@@QBE_NABV0@@Z      200dcfd0 f   User.obj
 0001:000dbfe0       ??9User@@QBE_NABV0@@Z      200dcfe0 f   User.obj
 0001:000dbff0       ?_Clear_and_reserve_geometric@?$vector@V?$basic_string@DU?$char_traits@D@std@@V?$allocator@D@2@@std@@V?$allocator@V?$basic_string@DU?$char_traits@D@std@@V?$allocator@D@2@@std@@@2@@std@@AAEXI@Z 200dcff0 f i User.obj
 0001:000dc170       ?achievementsUnlocked@User@@QBEHXZ 200dd170 f   User.obj
 0001:000dc1e0       ?canonicalizePrivileges@User@@QAEXXZ 200dd1e0 f   User.obj
 0001:000dc3b0       ?clear@?$basic_ios@DU?$char_traits@D@std@@@std@@QAEXH_N@Z 200dd3b0 f i User.obj
 0001:000dc3e0       ?computeAccuracy@User@@QBEMXZ 200dd3e0 f   User.obj
 0001:000dc440       ?computeRank@User@@QBEHXZ  200dd440 f   User.obj
 0001:000dc460       ?computeSkillRating@User@@QBEHXZ 200dd460 f   User.obj
 0001:000dc5b0       ?computeXp@User@@QBEHXZ    200dd5b0 f   User.obj
 0001:000dc620       ?decode@User@@AAEXAAV?$map@V?$basic_string@DU?$char_traits@D@std@@V?$allocator@D@2@@std@@V12@U?$less@V?$basic_string@DU?$char_traits@D@std@@V?$allocator@D@2@@std@@@2@V?$allocator@U?$pair@$$CBV?$basic_string@DU?$char_traits@D@std@@V?$allocator@D@2@@std@@V12@@std@@@2@@std@@@Z 200dd620 f   User.obj
 0001:000df2f0       ?encode@User@@AAEXAAV?$basic_ostream@DU?$char_traits@D@std@@@std@@H@Z 200e02f0 f   User.obj
 0001:000dffa0       ?hasPrivilege@User@@QBE_NABVPrivilege@@@Z 200e0fa0 f   User.obj
 0001:000e0270       ?isNull@User@@QBE_NXZ      200e1270 f   User.obj
 0001:000e0280       ?rankForXp@User@@SAHH@Z    200e1280 f   User.obj
 0001:000e02c0       ?reset@User@@QAEXXZ        200e12c0 f   User.obj
 0001:000e0380       ?scramble@User@@CAXPADH@Z  200e1380 f   User.obj
 0001:000e03c0       ?xpForRank@User@@SAHH@Z    200e13c0 f   User.obj
 0001:000e03f0       ?xpReset@User@@QAEXXZ      200e13f0 f   User.obj
 0001:000e0420       ??$?HDU?$char_traits@D@std@@V?$allocator@D@1@@std@@YA?AV?$basic_string@DU?$char_traits@D@std@@V?$allocator@D@2@@0@QBDABV10@@Z 200e1420 f i UserDB.obj
 0001:000e0550       ??$_Erase_tree@V?$allocator@U?$_Tree_node@U?$pair@$$CBV?$basic_string@DU?$char_traits@D@std@@V?$allocator@D@2@@std@@PAVUser@@@std@@PAX@std@@@std@@@?$_Tree_val@U?$_Tree_simple_types@U?$pair@$$CBV?$basic_string@DU?$char_traits@D@std@@V?$allocator@D@2@@std@@PAVUser@@@std@@@std@@@std@@QAEXAAV?$allocator@U?$_Tree_node@U?$pair@$$CBV?$basic_string@DU?$char_traits@D@std@@V?$allocator@D@2@@std@@PAVUser@@@std@@PAX@std@@@1@PAU?$_Tree_node@U?$pair@$$CBV?$basic_string@DU?$char_traits@D@std@@V?$allocator@D@2@@std@@PAVUser@@@std@@PAX@1@@Z 200e1550 f i UserDB.obj
 0001:000e0610       ??$_Erase_tree@V?$allocator@U?$_Tree_node@U?$pair@$$CBV?$basic_string@DU?$char_traits@D@std@@V?$allocator@D@2@@std@@VUser@@@std@@PAX@std@@@std@@@?$_Tree_val@U?$_Tree_simple_types@U?$pair@$$CBV?$basic_string@DU?$char_traits@D@std@@V?$allocator@D@2@@std@@VUser@@@std@@@std@@@std@@QAEXAAV?$allocator@U?$_Tree_node@U?$pair@$$CBV?$basic_string@DU?$char_traits@D@std@@V?$allocator@D@2@@std@@VUser@@@std@@PAX@std@@@1@PAU?$_Tree_node@U?$pair@$$CBV?$basic_string@DU?$char_traits@D@std@@V?$allocator@D@2@@std@@VUser@@@std@@PAX@1@@Z 200e1610 f i UserDB.obj
 0001:000e0680       ??$_Erase_tree@V?$allocator@U?$_Tree_node@U?$pair@$$CB_JPAVUser@@@std@@PAX@std@@@std@@@?$_Tree_val@U?$_Tree_simple_types@U?$pair@$$CB_JPAVUser@@@std@@@std@@@std@@QAEXAAV?$allocator@U?$_Tree_node@U?$pair@$$CB_JPAVUser@@@std@@PAX@std@@@1@PAU?$_Tree_node@U?$pair@$$CB_JPAVUser@@@std@@PAX@1@@Z 200e1680 f i UserDB.obj
 0001:000e06d0       ??$_Find_end_vectorized@$$CBD$$CBD@std@@YAPBDQBD00I@Z 200e16d0 f i UserDB.obj
 0001:000e06f0       ??$_Find_lower_bound@V?$basic_string@DU?$char_traits@D@std@@V?$allocator@D@2@@std@@@?$_Tree@V?$_Tmap_traits@$$CBV?$basic_string@DU?$char_traits@D@std@@V?$allocator@D@2@@std@@VUser@@U?$less@$$CBV?$basic_string@DU?$char_traits@D@std@@V?$allocator@D@2@@std@@@2@V?$allocator@U?$pair@$$CBV?$basic_string@DU?$char_traits@D@std@@V?$allocator@D@2@@std@@VUser@@@std@@@2@$0A@@std@@@std@@IBE?AU?$_Tree_find_result@PAU?$_Tree_node@U?$pair@$$CBV?$basic_string@DU?$char_traits@D@std@@V?$allocator@D@2@@std@@VUser@@@std@@PAX@std@@@1@ABV?$basic_string@DU?$char_traits@D@std@@V?$allocator@D@2@@1@@Z 200e16f0 f i UserDB.obj
 0001:000e0760       ??$_Find_upper_bound@V?$basic_string@DU?$char_traits@D@std@@V?$allocator@D@2@@std@@@?$_Tree@V?$_Tmap_traits@$$CBV?$basic_string@DU?$char_traits@D@std@@V?$allocator@D@2@@std@@PAVUser@@U?$less@$$CBV?$basic_string@DU?$char_traits@D@std@@V?$allocator@D@2@@std@@@2@V?$allocator@U?$pair@$$CBV?$basic_string@DU?$char_traits@D@std@@V?$allocator@D@2@@std@@PAVUser@@@std@@@2@$00@std@@@std@@IBE?AU?$_Tree_find_result@PAU?$_Tree_node@U?$pair@$$CBV?$basic_string@DU?$char_traits@D@std@@V?$allocator@D@2@@std@@PAVUser@@@std@@PAX@std@@@1@ABV?$basic_string@DU?$char_traits@D@std@@V?$allocator@D@2@@1@@Z 200e1760 f i UserDB.obj
 0001:000e07d0       ??$_Find_upper_bound@_J@?$_Tree@V?$_Tmap_traits@_JPAVUser@@U?$less@_J@std@@V?$allocator@U?$pair@$$CB_JPAVUser@@@std@@@3@$00@std@@@std@@IBE?AU?$_Tree_find_result@PAU?$_Tree_node@U?$pair@$$CB_JPAVUser@@@std@@PAX@std@@@1@AB_J@Z 200e17d0 f i UserDB.obj
 0001:000e0840       ??$_Freenode@V?$allocator@U?$_Tree_node@U?$pair@$$CBV?$basic_string@DU?$char_traits@D@std@@V?$allocator@D@2@@std@@PAVUser@@@std@@PAX@std@@@std@@@?$_Tree_node@U?$pair@$$CBV?$basic_string@DU?$char_traits@D@std@@V?$allocator@D@2@@std@@PAVUser@@@std@@PAX@std@@SAXAAV?$allocator@U?$_Tree_node@U?$pair@$$CBV?$basic_string@DU?$char_traits@D@std@@V?$allocator@D@2@@std@@PAVUser@@@std@@PAX@std@@@1@PAU01@@Z 200e1840 f i UserDB.obj
 0001:000e08c0       ??$destroy@U?$pair@$$CBV?$basic_string@DU?$char_traits@D@std@@V?$allocator@D@2@@std@@PAVUser@@@std@@@?$_Default_allocator_traits@V?$allocator@U?$_Tree_node@U?$pair@$$CBV?$basic_string@DU?$char_traits@D@std@@V?$allocator@D@2@@std@@PAVUser@@@std@@PAX@std@@@std@@@std@@SAXAAV?$allocator@U?$_Tree_node@U?$pair@$$CBV?$basic_string@DU?$char_traits@D@std@@V?$allocator@D@2@@std@@PAVUser@@@std@@PAX@std@@@1@QAU?$pair@$$CBV?$basic_string@DU?$char_traits@D@std@@V?$allocator@D@2@@std@@PAVUser@@@1@@Z 200e18c0 f i UserDB.obj
 0001:000e0930       ??$insert@$00$0A@@?$_Tree@V?$_Tmap_traits@$$CBV?$basic_string@DU?$char_traits@D@std@@V?$allocator@D@2@@std@@PAVUser@@U?$less@$$CBV?$basic_string@DU?$char_traits@D@std@@V?$allocator@D@2@@std@@@2@V?$allocator@U?$pair@$$CBV?$basic_string@DU?$char_traits@D@std@@V?$allocator@D@2@@std@@PAVUser@@@std@@@2@$00@std@@@std@@QAE?AV?$_Tree_iterator@V?$_Tree_val@U?$_Tree_simple_types@U?$pair@$$CBV?$basic_string@DU?$char_traits@D@std@@V?$allocator@D@2@@std@@PAVUser@@@std@@@std@@@std@@@1@$$QAU?$pair@$$CBV?$basic_string@DU?$char_traits@D@std@@V?$allocator@D@2@@std@@PAVUser@@@1@@Z 200e1930 f i UserDB.obj
 0001:000e0a30       ??$insert@$00$0A@@?$_Tree@V?$_Tmap_traits@_JPAVUser@@U?$less@_J@std@@V?$allocator@U?$pair@$$CB_JPAVUser@@@std@@@3@$00@std@@@std@@QAE?AV?$_Tree_iterator@V?$_Tree_val@U?$_Tree_simple_types@U?$pair@$$CB_JPAVUser@@@std@@@std@@@std@@@1@$$QAU?$pair@$$CB_JPAVUser@@@1@@Z 200e1a30 f i UserDB.obj
 0001:000e0b10       ??0UserDB@@QAE@XZ          200e1b10 f   UserDB.obj
 0001:000e0e80       ??1?$_Alloc_construct_ptr@V?$allocator@U?$_List_node@PAVUser@@PAX@std@@@std@@@std@@QAE@XZ 200e1e80 f i UserDB.obj
 0001:000e0ea0       ??1?$_Alloc_construct_ptr@V?$allocator@U?$_Tree_node@U?$pair@$$CBV?$basic_string@DU?$char_traits@D@std@@V?$allocator@D@2@@std@@PAVUser@@@std@@PAX@std@@@std@@@std@@QAE@XZ 200e1ea0 f i UserDB.obj
 0001:000e0ec0       ??1?$_Alloc_construct_ptr@V?$allocator@U?$_Tree_node@U?$pair@$$CBV?$basic_string@DU?$char_traits@D@std@@V?$allocator@D@2@@std@@VUser@@@std@@PAX@std@@@std@@@std@@QAE@XZ 200e1ec0 f i UserDB.obj
 0001:000e0ee0       ??1?$_Alloc_construct_ptr@V?$allocator@U?$_Tree_node@U?$pair@$$CB_JPAVUser@@@std@@PAX@std@@@std@@@std@@QAE@XZ 200e1ee0 f i UserDB.obj
 0001:000e0f00       ??1?$_Tree@V?$_Tmap_traits@_JPAVUser@@U?$less@_J@std@@V?$allocator@U?$pair@$$CB_JPAVUser@@@std@@@3@$00@std@@@std@@QAE@XZ 200e1f00 f i UserDB.obj
 0001:000e0f50       ??1?$_Tree_temp_node@V?$allocator@U?$_Tree_node@U?$pair@$$CBV?$basic_string@DU?$char_traits@D@std@@V?$allocator@D@2@@std@@PAVUser@@@std@@PAX@std@@@std@@@std@@QAE@XZ 200e1f50 f i UserDB.obj
 0001:000e0f90       ??1?$_Tree_temp_node@V?$allocator@U?$_Tree_node@U?$pair@$$CB_JPAVUser@@@std@@PAX@std@@@std@@@std@@QAE@XZ 200e1f90 f i UserDB.obj
 0001:000e0fb0       ??1?$_Tree_temp_node_alloc@V?$allocator@U?$_Tree_node@U?$pair@$$CBV?$basic_string@DU?$char_traits@D@std@@V?$allocator@D@2@@std@@PAVUser@@@std@@PAX@std@@@std@@@std@@QAE@XZ 200e1fb0 f i UserDB.obj
 0001:000e0fd0       ??1?$_Tree_temp_node_alloc@V?$allocator@U?$_Tree_node@U?$pair@$$CBV?$basic_string@DU?$char_traits@D@std@@V?$allocator@D@2@@std@@VUser@@@std@@PAX@std@@@std@@@std@@QAE@XZ 200e1fd0 f i UserDB.obj
 0001:000e0ff0       ??1?$map@$$CBV?$basic_string@DU?$char_traits@D@std@@V?$allocator@D@2@@std@@VUser@@U?$less@$$CBV?$basic_string@DU?$char_traits@D@std@@V?$allocator@D@2@@std@@@2@V?$allocator@U?$pair@$$CBV?$basic_string@DU?$char_traits@D@std@@V?$allocator@D@2@@std@@VUser@@@std@@@2@@std@@QAE@XZ 200e1ff0 f i UserDB.obj
 0001:000e1020       ??1?$multimap@$$CBV?$basic_string@DU?$char_traits@D@std@@V?$allocator@D@2@@std@@PAVUser@@U?$less@$$CBV?$basic_string@DU?$char_traits@D@std@@V?$allocator@D@2@@std@@@2@V?$allocator@U?$pair@$$CBV?$basic_string@DU?$char_traits@D@std@@V?$allocator@D@2@@std@@PAVUser@@@std@@@2@@std@@QAE@XZ 200e2020 f i UserDB.obj
 0001:000e1050       ??1?$multimap@_JPAVUser@@U?$less@_J@std@@V?$allocator@U?$pair@$$CB_JPAVUser@@@std@@@3@@std@@QAE@XZ 200e2050 f i UserDB.obj
 0001:000e1060       ??1?$pair@$$CBV?$basic_string@DU?$char_traits@D@std@@V?$allocator@D@2@@std@@PAVUser@@@std@@QAE@XZ 200e2060 f i UserDB.obj
 0001:000e10c0       ??1?$pair@$$CBV?$basic_string@DU?$char_traits@D@std@@V?$allocator@D@2@@std@@VUser@@@std@@QAE@XZ 200e20c0 f i UserDB.obj
 0001:000e1130       ??1UserDB@@UAE@XZ          200e2130 f   UserDB.obj
 0001:000e1220       ??E?$_Tree_unchecked_const_iterator@V?$_Tree_val@U?$_Tree_simple_types@U?$pair@$$CBV?$basic_string@DU?$char_traits@D@std@@V?$allocator@D@2@@std@@PAVUser@@@std@@@std@@@std@@U_Iterator_base0@2@@std@@QAEAAV01@XZ 200e2220 f i UserDB.obj
 0001:000e1290       ??E?$_Tree_unchecked_const_iterator@V?$_Tree_val@U?$_Tree_simple_types@U?$pair@$$CBV?$basic_string@DU?$char_traits@D@std@@V?$allocator@D@2@@std@@VUser@@@std@@@std@@@std@@U_Iterator_base0@2@@std@@QAEAAV01@XZ 200e2290 f i UserDB.obj
 0001:000e1300       ??E?$_Tree_unchecked_const_iterator@V?$_Tree_val@U?$_Tree_simple_types@U?$pair@$$CB_JPAVUser@@@std@@@std@@@std@@U_Iterator_base0@2@@std@@QAEAAV01@XZ 200e2300 f i UserDB.obj
 0001:000e1370       ??F?$_Tree_iterator@V?$_Tree_val@U?$_Tree_simple_types@U?$pair@$$CB_JPAVUser@@@std@@@std@@@std@@@std@@QAEAAV01@XZ 200e2370 f i UserDB.obj
 0001:000e13f0       ??_EUserDB@@UAEPAXI@Z      200e23f0 f i UserDB.obj
 0001:000e13f0       ??_GUserDB@@UAEPAXI@Z      200e23f0 f i UserDB.obj
 0001:000e1420       ?_Extract@?$_Tree_val@U?$_Tree_simple_types@U?$pair@$$CBV?$basic_string@DU?$char_traits@D@std@@V?$allocator@D@2@@std@@PAVUser@@@std@@@std@@@std@@QAEPAU?$_Tree_node@U?$pair@$$CBV?$basic_string@DU?$char_traits@D@std@@V?$allocator@D@2@@std@@PAVUser@@@std@@PAX@2@V?$_Tree_unchecked_const_iterator@V?$_Tree_val@U?$_Tree_simple_types@U?$pair@$$CBV?$basic_string@DU?$char_traits@D@std@@V?$allocator@D@2@@std@@PAVUser@@@std@@@std@@@std@@U_Iterator_base0@2@@2@@Z 200e2420 f i UserDB.obj
 0001:000e17c0       ?_Extract@?$_Tree_val@U?$_Tree_simple_types@U?$pair@$$CBV?$basic_string@DU?$char_traits@D@std@@V?$allocator@D@2@@std@@VUser@@@std@@@std@@@std@@QAEPAU?$_Tree_node@U?$pair@$$CBV?$basic_string@DU?$char_traits@D@std@@V?$allocator@D@2@@std@@VUser@@@std@@PAX@2@V?$_Tree_unchecked_const_iterator@V?$_Tree_val@U?$_Tree_simple_types@U?$pair@$$CBV?$basic_string@DU?$char_traits@D@std@@V?$allocator@D@2@@std@@VUser@@@std@@@std@@@std@@U_Iterator_base0@2@@2@@Z 200e27c0 f i UserDB.obj
 0001:000e1b60       ?_Extract@?$_Tree_val@U?$_Tree_simple_types@U?$pair@$$CB_JPAVUser@@@std@@@std@@@std@@QAEPAU?$_Tree_node@U?$pair@$$CB_JPAVUser@@@std@@PAX@2@V?$_Tree_unchecked_const_iterator@V?$_Tree_val@U?$_Tree_simple_types@U?$pair@$$CB_JPAVUser@@@std@@@std@@@std@@U_Iterator_base0@2@@2@@Z 200e2b60 f i UserDB.obj
 0001:000e1f00       ?_Insert_node@?$_Tree_val@U?$_Tree_simple_types@U?$pair@$$CBV?$basic_string@DU?$char_traits@D@std@@V?$allocator@D@2@@std@@PAVUser@@@std@@@std@@@std@@QAEPAU?$_Tree_node@U?$pair@$$CBV?$basic_string@DU?$char_traits@D@std@@V?$allocator@D@2@@std@@PAVUser@@@std@@PAX@2@U?$_Tree_id@PAU?$_Tree_node@U?$pair@$$CBV?$basic_string@DU?$char_traits@D@std@@V?$allocator@D@2@@std@@PAVUser@@@std@@PAX@std@@@2@QAU32@@Z 200e2f00 f i UserDB.obj
 0001:000e2170       ?_Insert_node@?$_Tree_val@U?$_Tree_simple_types@U?$pair@$$CBV?$basic_string@DU?$char_traits@D@std@@V?$allocator@D@2@@std@@VUser@@@std@@@std@@@std@@QAEPAU?$_Tree_node@U?$pair@$$CBV?$basic_string@DU?$char_traits@D@std@@V?$allocator@D@2@@std@@VUser@@@std@@PAX@2@U?$_Tree_id@PAU?$_Tree_node@U?$pair@$$CBV?$basic_string@DU?$char_traits@D@std@@V?$allocator@D@2@@std@@VUser@@@std@@PAX@std@@@2@QAU32@@Z 200e3170 f i UserDB.obj
 0001:000e23e0       ?_Insert_node@?$_Tree_val@U?$_Tree_simple_types@U?$pair@$$CB_JPAVUser@@@std@@@std@@@std@@QAEPAU?$_Tree_node@U?$pair@$$CB_JPAVUser@@@std@@PAX@2@U?$_Tree_id@PAU?$_Tree_node@U?$pair@$$CB_JPAVUser@@@std@@PAX@std@@@2@QAU32@@Z 200e33e0 f i UserDB.obj
 0001:000e2650       ?_Lrotate@?$_Tree_val@U?$_Tree_simple_types@U?$pair@$$CBV?$basic_string@DU?$char_traits@D@std@@V?$allocator@D@2@@std@@PAVUser@@@std@@@std@@@std@@QAEXPAU?$_Tree_node@U?$pair@$$CBV?$basic_string@DU?$char_traits@D@std@@V?$allocator@D@2@@std@@PAVUser@@@std@@PAX@2@@Z 200e3650 f i UserDB.obj
 0001:000e26c0       ?_Lrotate@?$_Tree_val@U?$_Tree_simple_types@U?$pair@$$CBV?$basic_string@DU?$char_traits@D@std@@V?$allocator@D@2@@std@@VUser@@@std@@@std@@@std@@QAEXPAU?$_Tree_node@U?$pair@$$CBV?$basic_string@DU?$char_traits@D@std@@V?$allocator@D@2@@std@@VUser@@@std@@PAX@2@@Z 200e36c0 f i UserDB.obj
 0001:000e2730       ?_Lrotate@?$_Tree_val@U?$_Tree_simple_types@U?$pair@$$CB_JPAVUser@@@std@@@std@@@std@@QAEXPAU?$_Tree_node@U?$pair@$$CB_JPAVUser@@@std@@PAX@2@@Z 200e3730 f i UserDB.obj
 0001:000e27a0       ?_Rrotate@?$_Tree_val@U?$_Tree_simple_types@U?$pair@$$CBV?$basic_string@DU?$char_traits@D@std@@V?$allocator@D@2@@std@@PAVUser@@@std@@@std@@@std@@QAEXPAU?$_Tree_node@U?$pair@$$CBV?$basic_string@DU?$char_traits@D@std@@V?$allocator@D@2@@std@@PAVUser@@@std@@PAX@2@@Z 200e37a0 f i UserDB.obj
 0001:000e2810       ?_Rrotate@?$_Tree_val@U?$_Tree_simple_types@U?$pair@$$CBV?$basic_string@DU?$char_traits@D@std@@V?$allocator@D@2@@std@@VUser@@@std@@@std@@@std@@QAEXPAU?$_Tree_node@U?$pair@$$CBV?$basic_string@DU?$char_traits@D@std@@V?$allocator@D@2@@std@@VUser@@@std@@PAX@2@@Z 200e3810 f i UserDB.obj
 0001:000e2880       ?_Rrotate@?$_Tree_val@U?$_Tree_simple_types@U?$pair@$$CB_JPAVUser@@@std@@@std@@@std@@QAEXPAU?$_Tree_node@U?$pair@$$CB_JPAVUser@@@std@@PAX@2@@Z 200e3880 f i UserDB.obj
 0001:000e28f0       ?checkBan@UserDB@@QAE?AW4BanStatus@1@V?$basic_string@DU?$char_traits@D@std@@V?$allocator@D@2@@std@@00AAPAVUser@@AAV34@@Z 200e38f0 f   UserDB.obj
 0001:000e30f0       ?clear@?$_Tree@V?$_Tmap_traits@_JPAVUser@@U?$less@_J@std@@V?$allocator@U?$pair@$$CB_JPAVUser@@@std@@@3@$00@std@@@std@@QAEXXZ 200e40f0 f i UserDB.obj
 0001:000e3150       ?erase@?$_Tree@V?$_Tmap_traits@$$CBV?$basic_string@DU?$char_traits@D@std@@V?$allocator@D@2@@std@@VUser@@U?$less@$$CBV?$basic_string@DU?$char_traits@D@std@@V?$allocator@D@2@@std@@@2@V?$allocator@U?$pair@$$CBV?$basic_string@DU?$char_traits@D@std@@V?$allocator@D@2@@std@@VUser@@@std@@@2@$0A@@std@@@std@@QAEIABV?$basic_string@DU?$char_traits@D@std@@V?$allocator@D@2@@2@@Z 200e4150 f i UserDB.obj
 0001:000e3320       ?fetchByID@UserDB@@QAEAAVUser@@ABV?$basic_string@DU?$char_traits@D@std@@V?$allocator@D@2@@std@@AAV34@@Z 200e4320 f   UserDB.obj
 0001:000e3550       ?fetchByKey@UserDB@@QAEAAVUser@@ABV?$basic_string@DU?$char_traits@D@std@@V?$allocator@D@2@@std@@AAV34@_N@Z 200e4550 f   UserDB.obj
 0001:000e37c0       ?fetchByName@UserDB@@QAE_NABV?$basic_string@DU?$char_traits@D@std@@V?$allocator@D@2@@std@@AAV?$list@PAVUser@@V?$allocator@PAVUser@@@std@@@3@AAV23@@Z 200e47c0 f   UserDB.obj
 0001:000e3b40       ?index@UserDB@@QAEXAAVUser@@@Z 200e4b40 f   UserDB.obj
 0001:000e4000       ?load@UserDB@@QAEX_N@Z     200e5000 f   UserDB.obj
 0001:000e47d0       ?lower_bound@?$_Tree@V?$_Tmap_traits@$$CBV?$basic_string@DU?$char_traits@D@std@@V?$allocator@D@2@@std@@PAVUser@@U?$less@$$CBV?$basic_string@DU?$char_traits@D@std@@V?$allocator@D@2@@std@@@2@V?$allocator@U?$pair@$$CBV?$basic_string@DU?$char_traits@D@std@@V?$allocator@D@2@@std@@PAVUser@@@std@@@2@$00@std@@@std@@QAE?AV?$_Tree_iterator@V?$_Tree_val@U?$_Tree_simple_types@U?$pair@$$CBV?$basic_string@DU?$char_traits@D@std@@V?$allocator@D@2@@std@@PAVUser@@@std@@@std@@@std@@@2@ABV?$basic_string@DU?$char_traits@D@std@@V?$allocator@D@2@@2@@Z 200e57d0 f i UserDB.obj
 0001:000e4820       ?migrateAuth@UserDB@@QAEIHH@Z 200e5820 f   UserDB.obj
 0001:000e4880       ?purge@UserDB@@QAEXXZ      200e5880 f   UserDB.obj
 0001:000e4aa0       ?remove@UserDB@@QAEXAAVUser@@@Z 200e5aa0 f   UserDB.obj
 0001:000e4ad0       ?save@UserDB@@QAEXXZ       200e5ad0 f   UserDB.obj
 0001:000e4fd0       ?unindex@UserDB@@QAEXAAVUser@@@Z 200e5fd0 f   UserDB.obj
 0001:000e5340       ?xpResetAll@UserDB@@QAEXXZ 200e6340 f   UserDB.obj
 0001:000e5380       ??0About@cmd@@QAE@XZ       200e6380 f   About.obj
 0001:000e55d0       ??1About@cmd@@UAE@XZ       200e65d0 f   About.obj
 0001:000e55e0       ??_EAbout@cmd@@UAEPAXI@Z   200e65e0 f i About.obj
 0001:000e55e0       ??_GAbout@cmd@@UAEPAXI@Z   200e65e0 f i About.obj
 0001:000e5610       ?doExecute@About@cmd@@MAE?AW4PostAction@AbstractCommand@2@AAVContext@42@@Z 200e6610 f   About.obj
 0001:000e5a00       ??0AbstractBuiltin@cmd@@IAE@PBD_N@Z 200e6a00 f   AbstractBuiltin.obj
 0001:000e5a30       ??1AbstractBuiltin@cmd@@UAE@XZ 200e6a30 f   AbstractBuiltin.obj
 0001:000e5a40       ??_EAbstractBuiltin@cmd@@UAEPAXI@Z 200e6a40 f i AbstractBuiltin.obj
 0001:000e5a40       ??_GAbstractBuiltin@cmd@@UAEPAXI@Z 200e6a40 f i AbstractBuiltin.obj
 0001:000e5a70       ??$_Copy_memmove@PAPAVClient@@PAPAV1@@std@@YAPAPAVClient@@PAPAV1@00@Z 200e6a70 f i AbstractCommand.obj
 0001:000e5aa0       ??$_Copy_memmove_tail@PAPAVClient@@@std@@YAPAPAVClient@@QBDQAPAV1@II@Z 200e6aa0 f i AbstractCommand.obj
 0001:000e5ad0       ??$_Emplace_reallocate@PAVClient@@@?$vector@PAVClient@@V?$allocator@PAVClient@@@std@@@std@@AAEPAPAVClient@@QAPAV2@$$QAPAV2@@Z 200e6ad0 f i AbstractCommand.obj
 0001:000e5c70       ??0AbstractCommand@cmd@@IAE@W4Type@Privilege@@PBD_N@Z 200e6c70 f   AbstractCommand.obj
 0001:000e5f40       ??0Context@AbstractCommand@cmd@@QAE@PAVClient@@_N@Z 200e6f40 f   AbstractCommand.obj
 0001:000e5fb0       ??1?$_Alloc_construct_ptr@V?$allocator@U?$_Tree_node@U?$pair@$$CBV?$basic_string@DU?$char_traits@D@std@@V?$allocator@D@2@@std@@PAVAbstractCommand@cmd@@@std@@PAX@std@@@std@@@std@@QAE@XZ 200e6fb0 f i AbstractCommand.obj
 0001:000e5fd0       ??1AbstractCommand@cmd@@UAE@XZ 200e6fd0 f   AbstractCommand.obj
 0001:000e6070       ??1Context@AbstractCommand@cmd@@QAE@XZ 200e7070 f   AbstractCommand.obj
 0001:000e6090       ??_EAbstractCommand@cmd@@UAEPAXI@Z 200e7090 f i AbstractCommand.obj
 0001:000e6090       ??_GAbstractCommand@cmd@@UAEPAXI@Z 200e7090 f i AbstractCommand.obj
 0001:000e60c0       ?_Insert_node@?$_Tree_val@U?$_Tree_simple_types@U?$pair@$$CBV?$basic_string@DU?$char_traits@D@std@@V?$allocator@D@2@@std@@PAVAbstractCommand@cmd@@@std@@@std@@@std@@QAEPAU?$_Tree_node@U?$pair@$$CBV?$basic_string@DU?$char_traits@D@std@@V?$allocator@D@2@@std@@PAVAbstractCommand@cmd@@@std@@PAX@2@U?$_Tree_id@PAU?$_Tree_node@U?$pair@$$CBV?$basic_string@DU?$char_traits@D@std@@V?$allocator@D@2@@std@@PAVAbstractCommand@cmd@@@std@@PAX@std@@@2@QAU32@@Z 200e70c0 f i AbstractCommand.obj
 0001:000e6330       ?_Xlength@?$vector@PAVClient@@V?$allocator@PAVClient@@@std@@@std@@CAXXZ 200e7330 f i AbstractCommand.obj
 0001:000e6340       ?execute@AbstractCommand@cmd@@QAE_NAAVContext@12@@Z 200e7340 f   AbstractCommand.obj
 0001:000e6780       ?hasPermission@AbstractCommand@cmd@@QAE_NABVContext@12@@Z 200e7780 f   AbstractCommand.obj
 0001:000e67a0       ?isAlive@AbstractCommand@cmd@@KA_NABVClient@@@Z 200e77a0 f   AbstractCommand.obj
 0001:000e67c0       ?isAliveError@AbstractCommand@cmd@@KA_NABVClient@@AAVContext@12@@Z 200e77c0 f   AbstractCommand.obj
 0001:000e6840       ?isBot@AbstractCommand@cmd@@KA_NABVClient@@@Z 200e7840 f   AbstractCommand.obj
 0001:000e6860       ?isBotError@AbstractCommand@cmd@@KA_NABVClient@@AAVContext@12@@Z 200e7860 f   AbstractCommand.obj
 0001:000e68e0       ?isDead@AbstractCommand@cmd@@KA_NABVClient@@@Z 200e78e0 f   AbstractCommand.obj
 0001:000e6900       ?isDeadError@AbstractCommand@cmd@@KA_NABVClient@@AAVContext@12@@Z 200e7900 f   AbstractCommand.obj
 0001:000e6980       ?isHigherLevel@AbstractCommand@cmd@@KA_NABVClient@@PBV3@@Z 200e7980 f   AbstractCommand.obj
 0001:000e69d0       ?isHigherLevelError@AbstractCommand@cmd@@KA_NABVClient@@AAVContext@12@@Z 200e79d0 f   AbstractCommand.obj
 0001:000e6a00       ?isHigherLevelError@AbstractCommand@cmd@@KA_NABVUser@@AAVContext@12@@Z 200e7a00 f   AbstractCommand.obj
 0001:000e6a70       ?isNotOnTeam@AbstractCommand@cmd@@KA_NABVClient@@@Z 200e7a70 f   AbstractCommand.obj
 0001:000e6aa0       ?isNotOnTeamError@AbstractCommand@cmd@@KA_NABVClient@@AAVContext@12@@Z 200e7aa0 f   AbstractCommand.obj
 0001:000e6b20       ?isPlayingDead@AbstractCommand@cmd@@KA_NABVClient@@@Z 200e7b20 f   AbstractCommand.obj
 0001:000e6b40       ?isPlayingDeadError@AbstractCommand@cmd@@KA_NABVClient@@AAVContext@12@@Z 200e7b40 f   AbstractCommand.obj
 0001:000e6bc0       ?lookupLEVEL@AbstractCommand@cmd@@KAAAVLevel@@ABV?$basic_string@DU?$char_traits@D@std@@V?$allocator@D@2@@std@@AAVContext@12@V45@@Z 200e7bc0 f   AbstractCommand.obj
 0001:000e6d60       ?lookupPLAYER@AbstractCommand@cmd@@CA_NABV?$basic_string@DU?$char_traits@D@std@@V?$allocator@D@2@@std@@AAV?$vector@PAVClient@@V?$allocator@PAVClient@@@std@@@4@AAV34@@Z 200e7d60 f   AbstractCommand.obj
 0001:000e71e0       ?lookupPLAYER@AbstractCommand@cmd@@KA_NABV?$basic_string@DU?$char_traits@D@std@@V?$allocator@D@2@@std@@AAVContext@12@AAPAVClient@@V34@@Z 200e81e0 f   AbstractCommand.obj
 0001:000e7500       ?lookupPLAYER@AbstractCommand@cmd@@KA_NABV?$basic_string@DU?$char_traits@D@std@@V?$allocator@D@2@@std@@AAVContext@12@AAV?$vector@PAVClient@@V?$allocator@PAVClient@@@std@@@4@V34@@Z 200e8500 f   AbstractCommand.obj
 0001:000e7680       ?lookupUSER@AbstractCommand@cmd@@KAAAVUser@@ABV?$basic_string@DU?$char_traits@D@std@@V?$allocator@D@2@@std@@AAVContext@12@V45@@Z 200e8680 f   AbstractCommand.obj
 0001:000e7820       ??0Achievements@cmd@@QAE@XZ 200e8820 f   Achievements.obj
 0001:000e7a70       ??1?$list@PAVUser@@V?$allocator@PAVUser@@@std@@@std@@QAE@XZ 200e8a70 f i Achievements.obj
 0001:000e7ac0       ??1Achievements@cmd@@UAE@XZ 200e8ac0 f   Achievements.obj
 0001:000e7ad0       ??_EAchievements@cmd@@UAEPAXI@Z 200e8ad0 f i Achievements.obj
 0001:000e7ad0       ??_GAchievements@cmd@@UAEPAXI@Z 200e8ad0 f i Achievements.obj
 0001:000e7b00       ?doExecute@Achievements@cmd@@MAE?AW4PostAction@AbstractCommand@2@AAVContext@42@@Z 200e8b00 f   Achievements.obj
 0001:000e8360       ??0AdminTest@cmd@@QAE@XZ   200e9360 f   AdminTest.obj
 0001:000e85b0       ??1AdminTest@cmd@@UAE@XZ   200e95b0 f   AdminTest.obj
 0001:000e85c0       ??_EAdminTest@cmd@@UAEPAXI@Z 200e95c0 f i AdminTest.obj
 0001:000e85c0       ??_GAdminTest@cmd@@UAEPAXI@Z 200e95c0 f i AdminTest.obj
 0001:000e85f0       ?doExecute@AdminTest@cmd@@MAE?AW4PostAction@AbstractCommand@2@AAVContext@42@@Z 200e95f0 f   AdminTest.obj
 0001:000e89e0       ??0Ban@cmd@@QAE@XZ         200e99e0 f   Ban.obj
 0001:000e8cb0       ??1Ban@cmd@@UAE@XZ         200e9cb0 f   Ban.obj
 0001:000e8cc0       ??_EBan@cmd@@UAEPAXI@Z     200e9cc0 f i Ban.obj
 0001:000e8cc0       ??_GBan@cmd@@UAEPAXI@Z     200e9cc0 f i Ban.obj
 0001:000e8cf0       ?doBan@Ban@cmd@@SAXAAVUser@@0HABV?$basic_string@DU?$char_traits@D@std@@V?$allocator@D@2@@std@@AAVBuffer@text@@PBVClient@@@Z 200e9cf0 f   Ban.obj
 0001:000e92a0       ?doExecute@Ban@cmd@@MAE?AW4PostAction@AbstractCommand@2@AAVContext@42@@Z 200ea2a0 f   Ban.obj
 0001:000e97c0       ??0BanInfo@cmd@@QAE@XZ     200ea7c0 f   BanInfo.obj
 0001:000e9a10       ??1BanInfo@cmd@@UAE@XZ     200eaa10 f   BanInfo.obj
 0001:000e9a20       ??_EBanInfo@cmd@@UAEPAXI@Z 200eaa20 f i BanInfo.obj
 0001:000e9a20       ??_GBanInfo@cmd@@UAEPAXI@Z 200eaa20 f i BanInfo.obj
 0001:000e9a50       ?doExecute@BanInfo@cmd@@MAE?AW4PostAction@AbstractCommand@2@AAVContext@42@@Z 200eaa50 f   BanInfo.obj
 0001:000ea6b0       ??0BanList@cmd@@QAE@XZ     200eb6b0 f   BanList.obj
 0001:000eaa10       ??1BanList@cmd@@UAE@XZ     200eba10 f   BanList.obj
 0001:000eab30       ??F?$_Tree_const_iterator@V?$_Tree_val@U?$_Tree_simple_types@U?$pair@$$CB_JPAVUser@@@std@@@std@@@std@@@std@@QAEAAV01@XZ 200ebb30 f i BanList.obj
 0001:000eabb0       ??_EBanList@cmd@@UAEPAXI@Z 200ebbb0 f i BanList.obj
 0001:000eabb0       ??_GBanList@cmd@@UAEPAXI@Z 200ebbb0 f i BanList.obj
 0001:000eabe0       ?doExecute@BanList@cmd@@MAE?AW4PostAction@AbstractCommand@2@AAVContext@42@@Z 200ebbe0 f   BanList.obj
 0001:000ec5c0       ??0BanUser@cmd@@QAE@XZ     200ed5c0 f   BanUser.obj
 0001:000ec890       ??1BanUser@cmd@@UAE@XZ     200ed890 f   BanUser.obj
 0001:000ec8a0       ??_EBanUser@cmd@@UAEPAXI@Z 200ed8a0 f i BanUser.obj
 0001:000ec8a0       ??_GBanUser@cmd@@UAEPAXI@Z 200ed8a0 f i BanUser.obj
 0001:000ec8d0       ?doExecute@BanUser@cmd@@MAE?AW4PostAction@AbstractCommand@2@AAVContext@42@@Z 200ed8d0 f   BanUser.obj
 0001:000ece40       ??0CancelVote@cmd@@QAE@XZ  200ede40 f   CancelVote.obj
 0001:000ed040       ??1CancelVote@cmd@@UAE@XZ  200ee040 f   CancelVote.obj
 0001:000ed050       ??_ECancelVote@cmd@@UAEPAXI@Z 200ee050 f i CancelVote.obj
 0001:000ed050       ??_GCancelVote@cmd@@UAEPAXI@Z 200ee050 f i CancelVote.obj
 0001:000ed080       ?doExecute@CancelVote@cmd@@MAE?AW4PostAction@AbstractCommand@2@AAVContext@42@@Z 200ee080 f   CancelVote.obj
 0001:000ed2e0       ??0Card@cmd@@QAE@XZ        200ee2e0 f   Card.obj
 0001:000ed530       ??1Card@cmd@@UAE@XZ        200ee530 f   Card.obj
 0001:000ed540       ??Y?$basic_string@DU?$char_traits@D@std@@V?$allocator@D@2@@std@@QAEAAV01@ABV01@@Z 200ee540 f i Card.obj
 0001:000ed5d0       ??Y?$basic_string@DU?$char_traits@D@std@@V?$allocator@D@2@@std@@QAEAAV01@QBD@Z 200ee5d0 f i Card.obj
 0001:000ed660       ??_ECard@cmd@@UAEPAXI@Z    200ee660 f i Card.obj
 0001:000ed660       ??_GCard@cmd@@UAEPAXI@Z    200ee660 f i Card.obj
 0001:000ed690       ?doExecute@Card@cmd@@MAE?AW4PostAction@AbstractCommand@2@AAVContext@42@@Z 200ee690 f   Card.obj
 0001:000ee1e0       ??0Chicken@cmd@@QAE@XZ     200ef1e0 f   Chicken.obj
 0001:000ee430       ??1Chicken@cmd@@UAE@XZ     200ef430 f   Chicken.obj
 0001:000ee440       ??_EChicken@cmd@@UAEPAXI@Z 200ef440 f i Chicken.obj
 0001:000ee440       ??_GChicken@cmd@@UAEPAXI@Z 200ef440 f i Chicken.obj
 0001:000ee470       ?doExecute@Chicken@cmd@@MAE?AW4PostAction@AbstractCommand@2@AAVContext@42@@Z 200ef470 f   Chicken.obj
 0001:000ee720       ??0CrazyGravity@cmd@@QAE@XZ 200ef720 f   CrazyGravity.obj
 0001:000ee9c0       ??1CrazyGravity@cmd@@UAE@XZ 200ef9c0 f   CrazyGravity.obj
 0001:000ee9d0       ??_ECrazyGravity@cmd@@UAEPAXI@Z 200ef9d0 f i CrazyGravity.obj
 0001:000ee9d0       ??_GCrazyGravity@cmd@@UAEPAXI@Z 200ef9d0 f i CrazyGravity.obj
 0001:000eea00       ?doExecute@CrazyGravity@cmd@@MAE?AW4PostAction@AbstractCommand@2@AAVContext@42@@Z 200efa00 f   CrazyGravity.obj
 0001:000eeeb0       ?run@CrazyGravity@cmd@@SAXXZ 200efeb0 f   CrazyGravity.obj
 0001:000ef080       ??0CryBaby@cmd@@QAE@XZ     200f0080 f   CryBaby.obj
 0001:000ef2d0       ??1CryBaby@cmd@@UAE@XZ     200f02d0 f   CryBaby.obj
 0001:000ef2e0       ??_ECryBaby@cmd@@UAEPAXI@Z 200f02e0 f i CryBaby.obj
 0001:000ef2e0       ??_GCryBaby@cmd@@UAEPAXI@Z 200f02e0 f i CryBaby.obj
 0001:000ef310       ?doExecute@CryBaby@cmd@@MAE?AW4PostAction@AbstractCommand@2@AAVContext@42@@Z 200f0310 f   CryBaby.obj
 0001:000ef5c0       ??0DbLoad@cmd@@QAE@XZ      200f05c0 f   DbLoad.obj
 0001:000ef7c0       ??1DbLoad@cmd@@UAE@XZ      200f07c0 f   DbLoad.obj
 0001:000ef7d0       ??_EDbLoad@cmd@@UAEPAXI@Z  200f07d0 f i DbLoad.obj
 0001:000ef7d0       ??_GDbLoad@cmd@@UAEPAXI@Z  200f07d0 f i DbLoad.obj
 0001:000ef800       ?doExecute@DbLoad@cmd@@MAE?AW4PostAction@AbstractCommand@2@AAVContext@42@@Z 200f0800 f   DbLoad.obj
 0001:000efa60       ??0DbSave@cmd@@QAE@XZ      200f0a60 f   DbSave.obj
 0001:000efc60       ??1DbSave@cmd@@UAE@XZ      200f0c60 f   DbSave.obj
 0001:000efc70       ??_EDbSave@cmd@@UAEPAXI@Z  200f0c70 f i DbSave.obj
 0001:000efc70       ??_GDbSave@cmd@@UAEPAXI@Z  200f0c70 f i DbSave.obj
 0001:000efca0       ?doExecute@DbSave@cmd@@MAE?AW4PostAction@AbstractCommand@2@AAVContext@42@@Z 200f0ca0 f   DbSave.obj
 0001:000efe20       ??0Disorient@cmd@@QAE@XZ   200f0e20 f   Disorient.obj
 0001:000f0070       ??1Disorient@cmd@@UAE@XZ   200f1070 f   Disorient.obj
 0001:000f0080       ??_EDisorient@cmd@@UAEPAXI@Z 200f1080 f i Disorient.obj
 0001:000f0080       ??_GDisorient@cmd@@UAEPAXI@Z 200f1080 f i Disorient.obj
 0001:000f00b0       ?doExecute@Disorient@cmd@@MAE?AW4PostAction@AbstractCommand@2@AAVContext@42@@Z 200f10b0 f   Disorient.obj
 0001:000f02d0       ??0Finger@cmd@@QAE@XZ      200f12d0 f   Finger.obj
 0001:000f0520       ??1Finger@cmd@@UAE@XZ      200f1520 f   Finger.obj
 0001:000f0530       ??_EFinger@cmd@@UAEPAXI@Z  200f1530 f i Finger.obj
 0001:000f0530       ??_GFinger@cmd@@UAEPAXI@Z  200f1530 f i Finger.obj
 0001:000f0560       ?doExecute@Finger@cmd@@MAE?AW4PostAction@AbstractCommand@2@AAVContext@42@@Z 200f1560 f   Finger.obj
 0001:000f0a80       ??0Fling@cmd@@QAE@XZ       200f1a80 f   Fling.obj
 0001:000f0d10       ??1Fling@cmd@@UAE@XZ       200f1d10 f   Fling.obj
 0001:000f0d20       ??_EFling@cmd@@UAEPAXI@Z   200f1d20 f i Fling.obj
 0001:000f0d20       ??_GFling@cmd@@UAEPAXI@Z   200f1d20 f i Fling.obj
 0001:000f0d50       ?doExecute@Fling@cmd@@MAE?AW4PostAction@AbstractCommand@2@AAVContext@42@@Z 200f1d50 f   Fling.obj
 0001:000f11e0       ??0Flinga@cmd@@QAE@XZ      200f21e0 f   Flinga.obj
 0001:000f1430       ??1Flinga@cmd@@UAE@XZ      200f2430 f   Flinga.obj
 0001:000f1440       ??_EFlinga@cmd@@UAEPAXI@Z  200f2440 f i Flinga.obj
 0001:000f1440       ??_GFlinga@cmd@@UAEPAXI@Z  200f2440 f i Flinga.obj
 0001:000f1470       ?doExecute@Flinga@cmd@@MAE?AW4PostAction@AbstractCommand@2@AAVContext@42@@Z 200f2470 f   Flinga.obj
 0001:000f18d0       ??0FTime@cmd@@QAE@XZ       200f28d0 f   FTime.obj
 0001:000f1ad0       ??1FTime@cmd@@UAE@XZ       200f2ad0 f   FTime.obj
 0001:000f1ae0       ??_EFTime@cmd@@UAEPAXI@Z   200f2ae0 f i FTime.obj
 0001:000f1ae0       ??_GFTime@cmd@@UAEPAXI@Z   200f2ae0 f i FTime.obj
 0001:000f1b10       ?doExecute@FTime@cmd@@MAE?AW4PostAction@AbstractCommand@2@AAVContext@42@@Z 200f2b10 f   FTime.obj
 0001:000f1ee0       ??0Glow@cmd@@QAE@XZ        200f2ee0 f   Glow.obj
 0001:000f2180       ??1Glow@cmd@@UAE@XZ        200f3180 f   Glow.obj
 0001:000f2190       ??_EGlow@cmd@@UAEPAXI@Z    200f3190 f i Glow.obj
 0001:000f2190       ??_GGlow@cmd@@UAEPAXI@Z    200f3190 f i Glow.obj
 0001:000f21c0       ?doExecute@Glow@cmd@@MAE?AW4PostAction@AbstractCommand@2@AAVContext@42@@Z 200f31c0 f   Glow.obj
 0001:000f25d0       ??0Help@cmd@@QAE@XZ        200f35d0 f   Help.obj
 0001:000f2820       ??1Help@cmd@@UAE@XZ        200f3820 f   Help.obj
 0001:000f2830       ??_EHelp@cmd@@UAEPAXI@Z    200f3830 f i Help.obj
 0001:000f2830       ??_GHelp@cmd@@UAEPAXI@Z    200f3830 f i Help.obj
 0001:000f2860       ?doExecute@Help@cmd@@MAE?AW4PostAction@AbstractCommand@2@AAVContext@42@@Z 200f3860 f   Help.obj
 0001:000f2e80       ??0Kick@cmd@@QAE@XZ        200f3e80 f   Kick.obj
 0001:000f3110       ??1Kick@cmd@@UAE@XZ        200f4110 f   Kick.obj
 0001:000f3120       ??_EKick@cmd@@UAEPAXI@Z    200f4120 f i Kick.obj
 0001:000f3120       ??_GKick@cmd@@UAEPAXI@Z    200f4120 f i Kick.obj
 0001:000f3150       ?doExecute@Kick@cmd@@MAE?AW4PostAction@AbstractCommand@2@AAVContext@42@@Z 200f4150 f   Kick.obj
 0001:000f37c0       ??0Launch@cmd@@QAE@XZ      200f47c0 f   Launch.obj
 0001:000f3a50       ??1Launch@cmd@@UAE@XZ      200f4a50 f   Launch.obj
 0001:000f3a60       ??_ELaunch@cmd@@UAEPAXI@Z  200f4a60 f i Launch.obj
 0001:000f3a60       ??_GLaunch@cmd@@UAEPAXI@Z  200f4a60 f i Launch.obj
 0001:000f3a90       ?doExecute@Launch@cmd@@MAE?AW4PostAction@AbstractCommand@2@AAVContext@42@@Z 200f4a90 f   Launch.obj
 0001:000f3e20       ??0Launcha@cmd@@QAE@XZ     200f4e20 f   Launcha.obj
 0001:000f4070       ??1Launcha@cmd@@UAE@XZ     200f5070 f   Launcha.obj
 0001:000f4080       ??_ELauncha@cmd@@UAEPAXI@Z 200f5080 f i Launcha.obj
 0001:000f4080       ??_GLauncha@cmd@@UAEPAXI@Z 200f5080 f i Launcha.obj
 0001:000f40b0       ?doExecute@Launcha@cmd@@MAE?AW4PostAction@AbstractCommand@2@AAVContext@42@@Z 200f50b0 f   Launcha.obj
 0001:000f51c0       ??0Leaderboard@cmd@@QAE@XZ 200f61c0 f   Leaderboard.obj
 0001:000f5490       ??1Leaderboard@cmd@@UAE@XZ 200f6490 f   Leaderboard.obj
 0001:000f54a0       ??_ELeaderboard@cmd@@UAEPAXI@Z 200f64a0 f i Leaderboard.obj
 0001:000f54a0       ??_GLeaderboard@cmd@@UAEPAXI@Z 200f64a0 f i Leaderboard.obj
 0001:000f5580       ?doExecute@Leaderboard@cmd@@MAE?AW4PostAction@AbstractCommand@2@AAVContext@42@@Z 200f6580 f   Leaderboard.obj
 0001:000f6350       ??0LevAdd@cmd@@QAE@XZ      200f7350 f   LevAdd.obj
 0001:000f65a0       ??1LevAdd@cmd@@UAE@XZ      200f75a0 f   LevAdd.obj
 0001:000f65b0       ??_ELevAdd@cmd@@UAEPAXI@Z  200f75b0 f i LevAdd.obj
 0001:000f65b0       ??_GLevAdd@cmd@@UAEPAXI@Z  200f75b0 f i LevAdd.obj
 0001:000f65e0       ?doExecute@LevAdd@cmd@@MAE?AW4PostAction@AbstractCommand@2@AAVContext@42@@Z 200f75e0 f   LevAdd.obj
 0001:000f68c0       ??0LevDelete@cmd@@QAE@XZ   200f78c0 f   LevDelete.obj
 0001:000f6c50       ??1LevDelete@cmd@@UAE@XZ   200f7c50 f   LevDelete.obj
 0001:000f6c60       ??_ELevDelete@cmd@@UAEPAXI@Z 200f7c60 f i LevDelete.obj
 0001:000f6c60       ??_GLevDelete@cmd@@UAEPAXI@Z 200f7c60 f i LevDelete.obj
 0001:000f6c90       ?doExecute@LevDelete@cmd@@MAE?AW4PostAction@AbstractCommand@2@AAVContext@42@@Z 200f7c90 f   LevDelete.obj
 0001:000f7130       ??0LevEdit@cmd@@QAE@XZ     200f8130 f   LevEdit.obj
 0001:000f77a0       ??1LevEdit@cmd@@UAE@XZ     200f87a0 f   LevEdit.obj
 0001:000f77b0       ??_ELevEdit@cmd@@UAEPAXI@Z 200f87b0 f i LevEdit.obj
 0001:000f77b0       ??_GLevEdit@cmd@@UAEPAXI@Z 200f87b0 f i LevEdit.obj
 0001:000f77e0       ?doExecute@LevEdit@cmd@@MAE?AW4PostAction@AbstractCommand@2@AAVContext@42@@Z 200f87e0 f   LevEdit.obj
 0001:000f82b0       ??0LevInfo@cmd@@QAE@XZ     200f92b0 f   LevInfo.obj
 0001:000f8400       ??1LevInfo@cmd@@UAE@XZ     200f9400 f   LevInfo.obj
 0001:000f8410       ??_ELevInfo@cmd@@UAEPAXI@Z 200f9410 f i LevInfo.obj
 0001:000f8410       ??_GLevInfo@cmd@@UAEPAXI@Z 200f9410 f i LevInfo.obj
 0001:000f8440       ?doExecute@LevInfo@cmd@@MAE?AW4PostAction@AbstractCommand@2@AAVContext@42@@Z 200f9440 f   LevInfo.obj
 0001:000f89c0       ?doPrivileges@LevInfo@cmd@@SAXAAVBuffer@text@@ABVPrivilegeSet@@1AAVInlineText@4@2ABV?$basic_string@DU?$char_traits@D@std@@V?$allocator@D@2@@std@@@Z 200f99c0 f   LevInfo.obj
 0001:000f8f50       ??0LevList@cmd@@QAE@XZ     200f9f50 f   LevList.obj
 0001:000f9100       ??1LevList@cmd@@UAE@XZ     200fa100 f   LevList.obj
 0001:000f9110       ??_ELevList@cmd@@UAEPAXI@Z 200fa110 f i LevList.obj
 0001:000f9110       ??_GLevList@cmd@@UAEPAXI@Z 200fa110 f i LevList.obj
 0001:000f9140       ?doExecute@LevList@cmd@@MAE?AW4PostAction@AbstractCommand@2@AAVContext@42@@Z 200fa140 f   LevList.obj
 0001:000fa1e0       ??$_Erase_tree@V?$allocator@U?$_Tree_node@U?$pair@$$CBHPAVUser@@@std@@PAX@std@@@std@@@?$_Tree_val@U?$_Tree_simple_types@U?$pair@$$CBHPAVUser@@@std@@@std@@@std@@QAEXAAV?$allocator@U?$_Tree_node@U?$pair@$$CBHPAVUser@@@std@@PAX@std@@@1@PAU?$_Tree_node@U?$pair@$$CBHPAVUser@@@std@@PAX@1@@Z 200fb1e0 f i ListPlayers.obj
 0001:000fa230       ??0ListPlayers@cmd@@QAE@XZ 200fb230 f   ListPlayers.obj
 0001:000fa4f0       ??1?$_Alloc_construct_ptr@V?$allocator@U?$_Tree_node@U?$pair@$$CBHPAVUser@@@std@@PAX@std@@@std@@@std@@QAE@XZ 200fb4f0 f i ListPlayers.obj
 0001:000fa510       ??1?$_Tree@V?$_Tmap_traits@HPAVUser@@U?$less@H@std@@V?$allocator@U?$pair@$$CBHPAVUser@@@std@@@3@$0A@@std@@@std@@QAE@XZ 200fb510 f i ListPlayers.obj
 0001:000fa560       ??1ListPlayers@cmd@@UAE@XZ 200fb560 f   ListPlayers.obj
 0001:000fa5b0       ??E?$_Tree_unchecked_const_iterator@V?$_Tree_val@U?$_Tree_simple_types@U?$pair@$$CBHPAVUser@@@std@@@std@@@std@@U_Iterator_base0@2@@std@@QAEAAV01@XZ 200fb5b0 f i ListPlayers.obj
 0001:000fa620       ??_EListPlayers@cmd@@UAEPAXI@Z 200fb620 f i ListPlayers.obj
 0001:000fa620       ??_GListPlayers@cmd@@UAEPAXI@Z 200fb620 f i ListPlayers.obj
 0001:000fa650       ?_Extract@?$_Tree_val@U?$_Tree_simple_types@U?$pair@$$CBHPAVUser@@@std@@@std@@@std@@QAEPAU?$_Tree_node@U?$pair@$$CBHPAVUser@@@std@@PAX@2@V?$_Tree_unchecked_const_iterator@V?$_Tree_val@U?$_Tree_simple_types@U?$pair@$$CBHPAVUser@@@std@@@std@@@std@@U_Iterator_base0@2@@2@@Z 200fb650 f i ListPlayers.obj
 0001:000fa9f0       ?_Insert_node@?$_Tree_val@U?$_Tree_simple_types@U?$pair@$$CBHPAVUser@@@std@@@std@@@std@@QAEPAU?$_Tree_node@U?$pair@$$CBHPAVUser@@@std@@PAX@2@U?$_Tree_id@PAU?$_Tree_node@U?$pair@$$CBHPAVUser@@@std@@PAX@std@@@2@QAU32@@Z 200fb9f0 f i ListPlayers.obj
 0001:000fac60       ?_Lrotate@?$_Tree_val@U?$_Tree_simple_types@U?$pair@$$CBHPAVUser@@@std@@@std@@@std@@QAEXPAU?$_Tree_node@U?$pair@$$CBHPAVUser@@@std@@PAX@2@@Z 200fbc60 f i ListPlayers.obj
 0001:000facd0       ?_Rrotate@?$_Tree_val@U?$_Tree_simple_types@U?$pair@$$CBHPAVUser@@@std@@@std@@@std@@QAEXPAU?$_Tree_node@U?$pair@$$CBHPAVUser@@@std@@PAX@2@@Z 200fbcd0 f i ListPlayers.obj
 0001:000fad40       ?doExecute@ListPlayers@cmd@@MAE?AW4PostAction@AbstractCommand@2@AAVContext@42@@Z 200fbd40 f   ListPlayers.obj
 0001:000fc5c0       ??0Lock@cmd@@QAE@XZ        200fd5c0 f   Lock.obj
 0001:000fc8f0       ??1Lock@cmd@@UAE@XZ        200fd8f0 f   Lock.obj
 0001:000fc900       ??_ELock@cmd@@UAEPAXI@Z    200fd900 f i Lock.obj
 0001:000fc900       ??_GLock@cmd@@UAEPAXI@Z    200fd900 f i Lock.obj
 0001:000fc930       ?doExecute@Lock@cmd@@MAE?AW4PostAction@AbstractCommand@2@AAVContext@42@@Z 200fd930 f   Lock.obj
 0001:000fc960       ??0Lol@cmd@@QAE@XZ         200fd960 f   Lol.obj
 0001:000fcbf0       ??1Lol@cmd@@UAE@XZ         200fdbf0 f   Lol.obj
 0001:000fcc00       ??_ELol@cmd@@UAEPAXI@Z     200fdc00 f i Lol.obj
 0001:000fcc00       ??_GLol@cmd@@UAEPAXI@Z     200fdc00 f i Lol.obj
 0001:000fcc30       ?doExecute@Lol@cmd@@MAE?AW4PostAction@AbstractCommand@2@AAVContext@42@@Z 200fdc30 f   Lol.obj
 0001:000fd190       ?run@Lol@cmd@@AAEXAAVClient@@H@Z 200fe190 f   Lol.obj
 0001:000fd340       ??0LsPlayers@cmd@@QAE@XZ   200fe340 f   LsPlayers.obj
 0001:000fd540       ??1LsPlayers@cmd@@UAE@XZ   200fe540 f   LsPlayers.obj
 0001:000fd550       ??_ELsPlayers@cmd@@UAEPAXI@Z 200fe550 f i LsPlayers.obj
 0001:000fd550       ??_GLsPlayers@cmd@@UAEPAXI@Z 200fe550 f i LsPlayers.obj
 0001:000fd580       ?doExecute@LsPlayers@cmd@@MAE?AW4PostAction@AbstractCommand@2@AAVContext@42@@Z 200fe580 f   LsPlayers.obj
 0001:000fe110       ??0Mute@cmd@@QAE@XZ        200ff110 f   Mute.obj
 0001:000fe3a0       ??1Mute@cmd@@UAE@XZ        200ff3a0 f   Mute.obj
 0001:000fe3b0       ??_EMute@cmd@@UAEPAXI@Z    200ff3b0 f i Mute.obj
 0001:000fe3b0       ??_GMute@cmd@@UAEPAXI@Z    200ff3b0 f i Mute.obj
 0001:000fe3e0       ?doExecute@Mute@cmd@@MAE?AW4PostAction@AbstractCommand@2@AAVContext@42@@Z 200ff3e0 f   Mute.obj
 0001:000fe7f0       ??0News@cmd@@QAE@XZ        200ff7f0 f   News.obj
 0001:000fea40       ??1News@cmd@@UAE@XZ        200ffa40 f   News.obj
 0001:000fea50       ??_ENews@cmd@@UAEPAXI@Z    200ffa50 f i News.obj
 0001:000fea50       ??_GNews@cmd@@UAEPAXI@Z    200ffa50 f i News.obj
 0001:000fea80       ?doExecute@News@cmd@@MAE?AW4PostAction@AbstractCommand@2@AAVContext@42@@Z 200ffa80 f   News.obj
 0001:000fef50       ??0NextMap@cmd@@QAE@XZ     200fff50 f   NextMap.obj
 0001:000ff150       ??1NextMap@cmd@@UAE@XZ     20100150 f   NextMap.obj
 0001:000ff160       ??_ENextMap@cmd@@UAEPAXI@Z 20100160 f i NextMap.obj
 0001:000ff160       ??_GNextMap@cmd@@UAEPAXI@Z 20100160 f i NextMap.obj
 0001:000ff190       ?doExecute@NextMap@cmd@@MAE?AW4PostAction@AbstractCommand@2@AAVContext@42@@Z 20100190 f   NextMap.obj
 0001:000ff230       ??0Orient@cmd@@QAE@XZ      20100230 f   Orient.obj
 0001:000ff480       ??1Orient@cmd@@UAE@XZ      20100480 f   Orient.obj
 0001:000ff490       ??_EOrient@cmd@@UAEPAXI@Z  20100490 f i Orient.obj
 0001:000ff490       ??_GOrient@cmd@@UAEPAXI@Z  20100490 f i Orient.obj
 0001:000ff4c0       ?doExecute@Orient@cmd@@MAE?AW4PostAction@AbstractCommand@2@AAVContext@42@@Z 201004c0 f   Orient.obj
 0001:000ff7e0       ??0Page@cmd@@QAE@XZ        201007e0 f   Page.obj
 0001:000ffa30       ??0Report@Page@cmd@@QAE@XZ 20100a30 f   Page.obj
 0001:000ffa60       ??1?$vector@PAVBuffer@text@@V?$allocator@PAVBuffer@text@@@std@@@std@@QAE@XZ 20100a60 f i Page.obj
 0001:000ffae0       ??1Page@cmd@@UAE@XZ        20100ae0 f   Page.obj
 0001:000ffaf0       ??1Report@Page@cmd@@QAE@XZ 20100af0 f   Page.obj
 0001:000ffb50       ??_EPage@cmd@@UAEPAXI@Z    20100b50 f i Page.obj
 0001:000ffb50       ??_GPage@cmd@@UAEPAXI@Z    20100b50 f i Page.obj
 0001:000ffb80       ?clear@Report@Page@cmd@@QAEXXZ 20100b80 f   Page.obj
 0001:000ffbf0       ?doExecute@Page@cmd@@MAE?AW4PostAction@AbstractCommand@2@AAVContext@42@@Z 20100bf0 f   Page.obj
 0001:000fffe0       ?report@Page@cmd@@SAXPAVClient@@ABVBuffer@text@@@Z 20100fe0 f   Page.obj
 0001:00100170       ??0Pants@cmd@@QAE@XZ       20101170 f   Pants.obj
 0001:001003c0       ??1Pants@cmd@@UAE@XZ       201013c0 f   Pants.obj
 0001:001003d0       ??_EPants@cmd@@UAEPAXI@Z   201013d0 f i Pants.obj
 0001:001003d0       ??_GPants@cmd@@UAEPAXI@Z   201013d0 f i Pants.obj
 0001:00100400       ?doExecute@Pants@cmd@@MAE?AW4PostAction@AbstractCommand@2@AAVContext@42@@Z 20101400 f   Pants.obj
 0001:00100730       ??0PanzerWar@cmd@@QAE@XZ   20101730 f   PanzerWar.obj
 0001:001009d0       ??1PanzerWar@cmd@@UAE@XZ   201019d0 f   PanzerWar.obj
 0001:001009e0       ??_EPanzerWar@cmd@@UAEPAXI@Z 201019e0 f i PanzerWar.obj
 0001:001009e0       ??_GPanzerWar@cmd@@UAEPAXI@Z 201019e0 f i PanzerWar.obj
 0001:00100a10       ?doExecute@PanzerWar@cmd@@MAE?AW4PostAction@AbstractCommand@2@AAVContext@42@@Z 20101a10 f   PanzerWar.obj
 0001:00100fc0       ??0Pause@cmd@@QAE@XZ       20101fc0 f   Pause.obj
 0001:001011c0       ??1Pause@cmd@@UAE@XZ       201021c0 f   Pause.obj
 0001:001011d0       ??_EPause@cmd@@UAEPAXI@Z   201021d0 f i Pause.obj
 0001:001011d0       ??_GPause@cmd@@UAEPAXI@Z   201021d0 f i Pause.obj
 0001:00101200       ?doExecute@Pause@cmd@@MAE?AW4PostAction@AbstractCommand@2@AAVContext@42@@Z 20102200 f   Pause.obj
 0001:00101290       ??0Pip@cmd@@QAE@XZ         20102290 f   Pip.obj
 0001:001014e0       ??1Pip@cmd@@UAE@XZ         201024e0 f   Pip.obj
 0001:001014f0       ??_EPip@cmd@@UAEPAXI@Z     201024f0 f i Pip.obj
 0001:001014f0       ??_GPip@cmd@@UAEPAXI@Z     201024f0 f i Pip.obj
 0001:00101520       ?doExecute@Pip@cmd@@MAE?AW4PostAction@AbstractCommand@2@AAVContext@42@@Z 20102520 f   Pip.obj
 0001:001019e0       ?run@Pip@cmd@@AAEXAAVClient@@@Z 201029e0 f   Pip.obj
 0001:00101ab0       ??0Pop@cmd@@QAE@XZ         20102ab0 f   Pop.obj
 0001:00101d00       ??1Pop@cmd@@UAE@XZ         20102d00 f   Pop.obj
 0001:00101d10       ??_EPop@cmd@@UAEPAXI@Z     20102d10 f i Pop.obj
 0001:00101d10       ??_GPop@cmd@@UAEPAXI@Z     20102d10 f i Pop.obj
 0001:00101d40       ?doExecute@Pop@cmd@@MAE?AW4PostAction@AbstractCommand@2@AAVContext@42@@Z 20102d40 f   Pop.obj
 0001:001022c0       ??0Profile@cmd@@QAE@XZ     201032c0 f   Profile.obj
 0001:00102510       ??1Profile@cmd@@UAE@XZ     20103510 f   Profile.obj
 0001:00102520       ??_EProfile@cmd@@UAEPAXI@Z 20103520 f i Profile.obj
 0001:00102520       ??_GProfile@cmd@@UAEPAXI@Z 20103520 f i Profile.obj
 0001:00102550       ?doExecute@Profile@cmd@@MAE?AW4PostAction@AbstractCommand@2@AAVContext@42@@Z 20103550 f   Profile.obj
 0001:00103c80       ??0PutTeam@cmd@@QAE@XZ     20104c80 f   PutTeam.obj
 0001:00103fb0       ??1PutTeam@cmd@@UAE@XZ     20104fb0 f   PutTeam.obj
 0001:00103fc0       ??_EPutTeam@cmd@@UAEPAXI@Z 20104fc0 f i PutTeam.obj
 0001:00103fc0       ??_GPutTeam@cmd@@UAEPAXI@Z 20104fc0 f i PutTeam.obj
 0001:00103ff0       ?doExecute@PutTeam@cmd@@MAE?AW4PostAction@AbstractCommand@2@AAVContext@42@@Z 20104ff0 f   PutTeam.obj
 0001:00104460       ??0Rep@cmd@@QAE@XZ         20105460 f   Rep.obj
 0001:001046f0       ??1Rep@cmd@@UAE@XZ         201056f0 f   Rep.obj
 0001:00104700       ??_ERep@cmd@@UAEPAXI@Z     20105700 f i Rep.obj
 0001:00104700       ??_GRep@cmd@@UAEPAXI@Z     20105700 f i Rep.obj
 0001:00104730       ?doExecute@Rep@cmd@@MAE?AW4PostAction@AbstractCommand@2@AAVContext@42@@Z 20105730 f   Rep.obj
 0001:00104f20       ??0Rename@cmd@@QAE@XZ      20105f20 f   Rename.obj
 0001:001051b0       ??1Rename@cmd@@UAE@XZ      201061b0 f   Rename.obj
 0001:001051c0       ??_ERename@cmd@@UAEPAXI@Z  201061c0 f i Rename.obj
 0001:001051c0       ??_GRename@cmd@@UAEPAXI@Z  201061c0 f i Rename.obj
 0001:001051f0       ?doExecute@Rename@cmd@@MAE?AW4PostAction@AbstractCommand@2@AAVContext@42@@Z 201061f0 f   Rename.obj
 0001:001055d0       ??0Reset@cmd@@QAE@XZ       201065d0 f   Reset.obj
 0001:001057d0       ??1Reset@cmd@@UAE@XZ       201067d0 f   Reset.obj
 0001:001057e0       ??_EReset@cmd@@UAEPAXI@Z   201067e0 f i Reset.obj
 0001:001057e0       ??_GReset@cmd@@UAEPAXI@Z   201067e0 f i Reset.obj
 0001:00105810       ?doExecute@Reset@cmd@@MAE?AW4PostAction@AbstractCommand@2@AAVContext@42@@Z 20106810 f   Reset.obj
 0001:00105860       ??0ResetmyXp@cmd@@QAE@XZ   20106860 f   ResetmyXp.obj
 0001:00105a60       ??1ResetmyXp@cmd@@UAE@XZ   20106a60 f   ResetmyXp.obj
 0001:00105a70       ??_EResetmyXp@cmd@@UAEPAXI@Z 20106a70 f i ResetmyXp.obj
 0001:00105a70       ??_GResetmyXp@cmd@@UAEPAXI@Z 20106a70 f i ResetmyXp.obj
 0001:00105aa0       ?doExecute@ResetmyXp@cmd@@MAE?AW4PostAction@AbstractCommand@2@AAVContext@42@@Z 20106aa0 f   ResetmyXp.obj
 0001:00105d00       ??0ResetXp@cmd@@QAE@XZ     20106d00 f   ResetXp.obj
 0001:00105f50       ??1ResetXp@cmd@@UAE@XZ     20106f50 f   ResetXp.obj
 0001:00105f60       ??_EResetXp@cmd@@UAEPAXI@Z 20106f60 f i ResetXp.obj
 0001:00105f60       ??_GResetXp@cmd@@UAEPAXI@Z 20106f60 f i ResetXp.obj
 0001:00105f90       ?doExecute@ResetXp@cmd@@MAE?AW4PostAction@AbstractCommand@2@AAVContext@42@@Z 20106f90 f   ResetXp.obj
 0001:00106240       ??0Restart@cmd@@QAE@XZ     20107240 f   Restart.obj
 0001:00106440       ??1Restart@cmd@@UAE@XZ     20107440 f   Restart.obj
 0001:00106450       ??_ERestart@cmd@@UAEPAXI@Z 20107450 f i Restart.obj
 0001:00106450       ??_GRestart@cmd@@UAEPAXI@Z 20107450 f i Restart.obj
 0001:00106480       ?doExecute@Restart@cmd@@MAE?AW4PostAction@AbstractCommand@2@AAVContext@42@@Z 20107480 f   Restart.obj
 0001:001064c0       ??0Revive@cmd@@QAE@XZ      201074c0 f   Revive.obj
 0001:00106710       ??1Revive@cmd@@UAE@XZ      20107710 f   Revive.obj
 0001:00106720       ??_ERevive@cmd@@UAEPAXI@Z  20107720 f i Revive.obj
 0001:00106720       ??_GRevive@cmd@@UAEPAXI@Z  20107720 f i Revive.obj
 0001:00106750       ?doExecute@Revive@cmd@@MAE?AW4PostAction@AbstractCommand@2@AAVContext@42@@Z 20107750 f   Revive.obj
 0001:001068b0       ??$_Erase_tree@V?$allocator@U?$_Tree_node@PBVUser@@PAX@std@@@std@@@?$_Tree_val@U?$_Tree_simple_types@PBVUser@@@std@@@std@@QAEXAAV?$allocator@U?$_Tree_node@PBVUser@@PAX@std@@@1@PAU?$_Tree_node@PBVUser@@PAX@1@@Z 201078b0 f i Seen.obj
 0001:00106900       ??$_Find_lower_bound@PBVUser@@@?$_Tree@V?$_Tset_traits@PBVUser@@U?$less@PBVUser@@@std@@V?$allocator@PBVUser@@@3@$0A@@std@@@std@@IBE?AU?$_Tree_find_result@PAU?$_Tree_node@PBVUser@@PAX@std@@@1@ABQBVUser@@@Z 20107900 f i Seen.obj
 0001:00106960       ??0Seen@cmd@@QAE@XZ        20107960 f   Seen.obj
 0001:00106bb0       ??1?$_Alloc_construct_ptr@V?$allocator@U?$_Tree_node@PBVUser@@PAX@std@@@std@@@std@@QAE@XZ 20107bb0 f i Seen.obj
 0001:00106bd0       ??1?$_Tree@V?$_Tset_traits@PBVUser@@U?$less@PBVUser@@@std@@V?$allocator@PBVUser@@@3@$0A@@std@@@std@@QAE@XZ 20107bd0 f i Seen.obj
 0001:00106c20       ??1?$set@PBVUser@@U?$less@PBVUser@@@std@@V?$allocator@PBVUser@@@3@@std@@QAE@XZ 20107c20 f i Seen.obj
 0001:00106c30       ??1Seen@cmd@@UAE@XZ        20107c30 f   Seen.obj
 0001:00106c40       ??_ESeen@cmd@@UAEPAXI@Z    20107c40 f i Seen.obj
 0001:00106c40       ??_GSeen@cmd@@UAEPAXI@Z    20107c40 f i Seen.obj
 0001:00106c70       ?_Insert_node@?$_Tree_val@U?$_Tree_simple_types@PBVUser@@@std@@@std@@QAEPAU?$_Tree_node@PBVUser@@PAX@2@U?$_Tree_id@PAU?$_Tree_node@PBVUser@@PAX@std@@@2@QAU32@@Z 20107c70 f i Seen.obj
 0001:00106ee0       ?doExecute@Seen@cmd@@MAE?AW4PostAction@AbstractCommand@2@AAVContext@42@@Z 20107ee0 f   Seen.obj
 0001:00107710       ??0SetProfile@cmd@@QAE@XZ  20108710 f   SetProfile.obj
 0001:001079b0       ??1SetProfile@cmd@@UAE@XZ  201089b0 f   SetProfile.obj
 0001:001079c0       ??_ESetProfile@cmd@@UAEPAXI@Z 201089c0 f i SetProfile.obj
 0001:001079c0       ??_GSetProfile@cmd@@UAEPAXI@Z 201089c0 f i SetProfile.obj
 0001:00107af0       ?doExecute@SetProfile@cmd@@MAE?AW4PostAction@AbstractCommand@2@AAVContext@42@@Z 20108af0 f   SetProfile.obj
 0001:00108520       ??0SetLevel@cmd@@QAE@XZ    20109520 f   SetLevel.obj
 0001:001087b0       ??1SetLevel@cmd@@UAE@XZ    201097b0 f   SetLevel.obj
 0001:001087c0       ??_ESetLevel@cmd@@UAEPAXI@Z 201097c0 f i SetLevel.obj
 0001:001087c0       ??_GSetLevel@cmd@@UAEPAXI@Z 201097c0 f i SetLevel.obj
 0001:001087f0       ?doExecute@SetLevel@cmd@@MAE?AW4PostAction@AbstractCommand@2@AAVContext@42@@Z 201097f0 f   SetLevel.obj
 0001:00108b60       ??0Shake@cmd@@QAE@XZ       20109b60 f   Shake.obj
 0001:00108df0       ??1Shake@cmd@@UAE@XZ       20109df0 f   Shake.obj
 0001:00108e00       ??_EShake@cmd@@UAEPAXI@Z   20109e00 f i Shake.obj
 0001:00108e00       ??_GShake@cmd@@UAEPAXI@Z   20109e00 f i Shake.obj
 0001:00108e30       ?doExecute@Shake@cmd@@MAE?AW4PostAction@AbstractCommand@2@AAVContext@42@@Z 20109e30 f   Shake.obj
 0001:00109390       ??0Shuffle@cmd@@QAE@XZ     2010a390 f   Shuffle.obj
 0001:00109590       ??1Shuffle@cmd@@UAE@XZ     2010a590 f   Shuffle.obj
 0001:001095a0       ??_EShuffle@cmd@@UAEPAXI@Z 2010a5a0 f i Shuffle.obj
 0001:001095a0       ??_GShuffle@cmd@@UAEPAXI@Z 2010a5a0 f i Shuffle.obj
 0001:001095d0       ?doExecute@Shuffle@cmd@@MAE?AW4PostAction@AbstractCommand@2@AAVContext@42@@Z 2010a5d0 f   Shuffle.obj
 0001:00109610       ??0Slap@cmd@@QAE@XZ        2010a610 f   Slap.obj
 0001:001098a0       ??1Slap@cmd@@UAE@XZ        2010a8a0 f   Slap.obj
 0001:001098b0       ??_ESlap@cmd@@UAEPAXI@Z    2010a8b0 f i Slap.obj
 0001:001098b0       ??_GSlap@cmd@@UAEPAXI@Z    2010a8b0 f i Slap.obj
 0001:001098e0       ?doExecute@Slap@cmd@@MAE?AW4PostAction@AbstractCommand@2@AAVContext@42@@Z 2010a8e0 f   Slap.obj
 0001:00109ec0       ??0Smite@cmd@@QAE@XZ       2010aec0 f   Smite.obj
 0001:0010a110       ??1Smite@cmd@@UAE@XZ       2010b110 f   Smite.obj
 0001:0010a120       ??_ESmite@cmd@@UAEPAXI@Z   2010b120 f i Smite.obj
 0001:0010a120       ??_GSmite@cmd@@UAEPAXI@Z   2010b120 f i Smite.obj
 0001:0010a150       ?doExecute@Smite@cmd@@MAE?AW4PostAction@AbstractCommand@2@AAVContext@42@@Z 2010b150 f   Smite.obj
 0001:0010a640       ??0SniperWar@cmd@@QAE@XZ   2010b640 f   SniperWar.obj
 0001:0010a8e0       ??1SniperWar@cmd@@UAE@XZ   2010b8e0 f   SniperWar.obj
 0001:0010a8f0       ??_ESniperWar@cmd@@UAEPAXI@Z 2010b8f0 f i SniperWar.obj
 0001:0010a8f0       ??_GSniperWar@cmd@@UAEPAXI@Z 2010b8f0 f i SniperWar.obj
 0001:0010a920       ?doExecute@SniperWar@cmd@@MAE?AW4PostAction@AbstractCommand@2@AAVContext@42@@Z 2010b920 f   SniperWar.obj
 0001:0010aed0       ??0Spec@cmd@@QAE@XZ        2010bed0 f   Spec.obj
 0001:0010b120       ??1Spec@cmd@@UAE@XZ        2010c120 f   Spec.obj
 0001:0010b130       ??_ESpec@cmd@@UAEPAXI@Z    2010c130 f i Spec.obj
 0001:0010b130       ??_GSpec@cmd@@UAEPAXI@Z    2010c130 f i Spec.obj
 0001:0010b160       ?doExecute@Spec@cmd@@MAE?AW4PostAction@AbstractCommand@2@AAVContext@42@@Z 2010c160 f   Spec.obj
 0001:0010b4d0       ??0Spec999@cmd@@QAE@XZ     2010c4d0 f   Spec999.obj
 0001:0010b6d0       ??1Spec999@cmd@@UAE@XZ     2010c6d0 f   Spec999.obj
 0001:0010b6e0       ??_ESpec999@cmd@@UAEPAXI@Z 2010c6e0 f i Spec999.obj
 0001:0010b6e0       ??_GSpec999@cmd@@UAEPAXI@Z 2010c6e0 f i Spec999.obj
 0001:0010b710       ?doExecute@Spec999@cmd@@MAE?AW4PostAction@AbstractCommand@2@AAVContext@42@@Z 2010c710 f   Spec999.obj
 0001:0010b9f0       ??0Splat@cmd@@QAE@XZ       2010c9f0 f   Splat.obj
 0001:0010bc40       ??1Splat@cmd@@UAE@XZ       2010cc40 f   Splat.obj
 0001:0010bc50       ??_ESplat@cmd@@UAEPAXI@Z   2010cc50 f i Splat.obj
 0001:0010bc50       ??_GSplat@cmd@@UAEPAXI@Z   2010cc50 f i Splat.obj
 0001:0010bc80       ?doExecute@Splat@cmd@@MAE?AW4PostAction@AbstractCommand@2@AAVContext@42@@Z 2010cc80 f   Splat.obj
 0001:0010bf70       ??0Splata@cmd@@QAE@XZ      2010cf70 f   Splata.obj
 0001:0010c170       ??1Splata@cmd@@UAE@XZ      2010d170 f   Splata.obj
 0001:0010c180       ??_ESplata@cmd@@UAEPAXI@Z  2010d180 f i Splata.obj
 0001:0010c180       ??_GSplata@cmd@@UAEPAXI@Z  2010d180 f i Splata.obj
 0001:0010c1b0       ?doExecute@Splata@cmd@@MAE?AW4PostAction@AbstractCommand@2@AAVContext@42@@Z 2010d1b0 f   Splata.obj
 0001:0010c470       ??0Status@cmd@@QAE@XZ      2010d470 f   Status.obj
 0001:0010c6c0       ??1Status@cmd@@UAE@XZ      2010d6c0 f   Status.obj
 0001:0010c6d0       ??_EStatus@cmd@@UAEPAXI@Z  2010d6d0 f i Status.obj
 0001:0010c6d0       ??_GStatus@cmd@@UAEPAXI@Z  2010d6d0 f i Status.obj
 0001:0010c700       ?doExecute@Status@cmd@@MAE?AW4PostAction@AbstractCommand@2@AAVContext@42@@Z 2010d700 f   Status.obj
 0001:0010e2a0       ??0Swap@cmd@@QAE@XZ        2010f2a0 f   Swap.obj
 0001:0010e4a0       ??1Swap@cmd@@UAE@XZ        2010f4a0 f   Swap.obj
 0001:0010e4b0       ??_ESwap@cmd@@UAEPAXI@Z    2010f4b0 f i Swap.obj
 0001:0010e4b0       ??_GSwap@cmd@@UAEPAXI@Z    2010f4b0 f i Swap.obj
 0001:0010e4e0       ?doExecute@Swap@cmd@@MAE?AW4PostAction@AbstractCommand@2@AAVContext@42@@Z 2010f4e0 f   Swap.obj
 0001:0010e530       ??0Throw@cmd@@QAE@XZ       2010f530 f   Throw.obj
 0001:0010e7c0       ??1Throw@cmd@@UAE@XZ       2010f7c0 f   Throw.obj
 0001:0010e7d0       ??_EThrow@cmd@@UAEPAXI@Z   2010f7d0 f i Throw.obj
 0001:0010e7d0       ??_GThrow@cmd@@UAEPAXI@Z   2010f7d0 f i Throw.obj
 0001:0010e800       ?doExecute@Throw@cmd@@MAE?AW4PostAction@AbstractCommand@2@AAVContext@42@@Z 2010f800 f   Throw.obj
 0001:0010ec10       ??0Throwa@cmd@@QAE@XZ      2010fc10 f   Throwa.obj
 0001:0010ee60       ??1Throwa@cmd@@UAE@XZ      2010fe60 f   Throwa.obj
 0001:0010ee70       ??_EThrowa@cmd@@UAEPAXI@Z  2010fe70 f i Throwa.obj
 0001:0010ee70       ??_GThrowa@cmd@@UAEPAXI@Z  2010fe70 f i Throwa.obj
 0001:0010eea0       ?doExecute@Throwa@cmd@@MAE?AW4PostAction@AbstractCommand@2@AAVContext@42@@Z 2010fea0 f   Throwa.obj
 0001:0010f280       ??0Time@cmd@@QAE@XZ        20110280 f   Time.obj
 0001:0010f480       ??1Time@cmd@@UAE@XZ        20110480 f   Time.obj
 0001:0010f490       ??_ETime@cmd@@UAEPAXI@Z    20110490 f i Time.obj
 0001:0010f490       ??_GTime@cmd@@UAEPAXI@Z    20110490 f i Time.obj
 0001:0010f4c0       ?doExecute@Time@cmd@@MAE?AW4PostAction@AbstractCommand@2@AAVContext@42@@Z 201104c0 f   Time.obj
 0001:0010f730       ??0Unban@cmd@@QAE@XZ       20110730 f   Unban.obj
 0001:0010f980       ??1Unban@cmd@@UAE@XZ       20110980 f   Unban.obj
 0001:0010f990       ??_EUnban@cmd@@UAEPAXI@Z   20110990 f i Unban.obj
 0001:0010f990       ??_GUnban@cmd@@UAEPAXI@Z   20110990 f i Unban.obj
 0001:0010f9c0       ?doExecute@Unban@cmd@@MAE?AW4PostAction@AbstractCommand@2@AAVContext@42@@Z 201109c0 f   Unban.obj
 0001:0010fcb0       ??0Unlock@cmd@@QAE@XZ      20110cb0 f   Unlock.obj
 0001:0010ffe0       ??1Unlock@cmd@@UAE@XZ      20110fe0 f   Unlock.obj
 0001:0010fff0       ??_EUnlock@cmd@@UAEPAXI@Z  20110ff0 f i Unlock.obj
 0001:0010fff0       ??_GUnlock@cmd@@UAEPAXI@Z  20110ff0 f i Unlock.obj
 0001:00110020       ?doExecute@Unlock@cmd@@MAE?AW4PostAction@AbstractCommand@2@AAVContext@42@@Z 20111020 f   Unlock.obj
 0001:00110050       ??0Unmute@cmd@@QAE@XZ      20111050 f   Unmute.obj
 0001:001102a0       ??1Unmute@cmd@@UAE@XZ      201112a0 f   Unmute.obj
 0001:001102b0       ??_EUnmute@cmd@@UAEPAXI@Z  201112b0 f i Unmute.obj
 0001:001102b0       ??_GUnmute@cmd@@UAEPAXI@Z  201112b0 f i Unmute.obj
 0001:001102e0       ?doExecute@Unmute@cmd@@MAE?AW4PostAction@AbstractCommand@2@AAVContext@42@@Z 201112e0 f   Unmute.obj
 0001:001105b0       ??0Unpause@cmd@@QAE@XZ     201115b0 f   Unpause.obj
 0001:001107b0       ??1Unpause@cmd@@UAE@XZ     201117b0 f   Unpause.obj
 0001:001107c0       ??_EUnpause@cmd@@UAEPAXI@Z 201117c0 f i Unpause.obj
 0001:001107c0       ??_GUnpause@cmd@@UAEPAXI@Z 201117c0 f i Unpause.obj
 0001:001107f0       ?doExecute@Unpause@cmd@@MAE?AW4PostAction@AbstractCommand@2@AAVContext@42@@Z 201117f0 f   Unpause.obj
 0001:00110880       ??0Uptime@cmd@@QAE@XZ      20111880 f   Uptime.obj
 0001:00110a80       ??1Uptime@cmd@@UAE@XZ      20111a80 f   Uptime.obj
 0001:00110a90       ??_EUptime@cmd@@UAEPAXI@Z  20111a90 f i Uptime.obj
 0001:00110a90       ??_GUptime@cmd@@UAEPAXI@Z  20111a90 f i Uptime.obj
 0001:00110ac0       ?doExecute@Uptime@cmd@@MAE?AW4PostAction@AbstractCommand@2@AAVContext@42@@Z 20111ac0 f   Uptime.obj
 0001:00110d40       ??0UserDelete@cmd@@QAE@XZ  20111d40 f   UserDelete.obj
 0001:00110fc0       ??1UserDelete@cmd@@UAE@XZ  20111fc0 f   UserDelete.obj
 0001:00110fd0       ??_EUserDelete@cmd@@UAEPAXI@Z 20111fd0 f i UserDelete.obj
 0001:00110fd0       ??_GUserDelete@cmd@@UAEPAXI@Z 20111fd0 f i UserDelete.obj
 0001:00111000       ?doExecute@UserDelete@cmd@@MAE?AW4PostAction@AbstractCommand@2@AAVContext@42@@Z 20112000 f   UserDelete.obj
 0001:00111360       ??$_Emplace_reallocate@ABV?$basic_string@DU?$char_traits@D@std@@V?$allocator@D@2@@std@@@?$vector@V?$basic_string@DU?$char_traits@D@std@@V?$allocator@D@2@@std@@V?$allocator@V?$basic_string@DU?$char_traits@D@std@@V?$allocator@D@2@@std@@@2@@std@@AAEPAV?$basic_string@DU?$char_traits@D@std@@V?$allocator@D@2@@1@QAV21@ABV21@@Z 20112360 f i UserEdit.obj
 0001:001115b0       ??0UserEdit@cmd@@QAE@XZ    201125b0 f   UserEdit.obj
 0001:001121d0       ??1UserEdit@cmd@@UAE@XZ    201131d0 f   UserEdit.obj
 0001:001121e0       ??1_Reallocation_guard@?$vector@V?$basic_string@DU?$char_traits@D@std@@V?$allocator@D@2@@std@@V?$allocator@V?$basic_string@DU?$char_traits@D@std@@V?$allocator@D@2@@std@@@2@@std@@QAE@XZ 201131e0 f i UserEdit.obj
 0001:00112250       ??_EUserEdit@cmd@@UAEPAXI@Z 20113250 f i UserEdit.obj
 0001:00112250       ??_GUserEdit@cmd@@UAEPAXI@Z 20113250 f i UserEdit.obj
 0001:00112280       ?doExecute@UserEdit@cmd@@MAE?AW4PostAction@AbstractCommand@2@AAVContext@42@@Z 20113280 f   UserEdit.obj
 0001:001133b0       ?insert@?$vector@V?$basic_string@DU?$char_traits@D@std@@V?$allocator@D@2@@std@@V?$allocator@V?$basic_string@DU?$char_traits@D@std@@V?$allocator@D@2@@std@@@2@@std@@QAE?AV?$_Vector_iterator@V?$_Vector_val@U?$_Simple_types@V?$basic_string@DU?$char_traits@D@std@@V?$allocator@D@2@@std@@@std@@@std@@@2@V?$_Vector_const_iterator@V?$_Vector_val@U?$_Simple_types@V?$basic_string@DU?$char_traits@D@std@@V?$allocator@D@2@@std@@@std@@@std@@@2@ABV?$basic_string@DU?$char_traits@D@std@@V?$allocator@D@2@@2@@Z 201143b0 f i UserEdit.obj
 0001:00113570       ??0UserInfo@cmd@@QAE@XZ    20114570 f   UserInfo.obj
 0001:001137c0       ??1UserInfo@cmd@@UAE@XZ    201147c0 f   UserInfo.obj
 0001:001137d0       ??_EUserInfo@cmd@@UAEPAXI@Z 201147d0 f i UserInfo.obj
 0001:001137d0       ??_GUserInfo@cmd@@UAEPAXI@Z 201147d0 f i UserInfo.obj
 0001:00113800       ?doExecute@UserInfo@cmd@@MAE?AW4PostAction@AbstractCommand@2@AAVContext@42@@Z 20114800 f   UserInfo.obj
 0001:001139f0       ?doUser@UserInfo@cmd@@SAXAAVBuffer@text@@ABVUser@@AAVInlineText@4@2@Z 201149f0 f   UserInfo.obj
 0001:00114d10       ??0UserList@cmd@@QAE@XZ    20115d10 f   UserList.obj
 0001:001150f0       ??1UserList@cmd@@UAE@XZ    201160f0 f   UserList.obj
 0001:00115100       ??_EUserList@cmd@@UAEPAXI@Z 20116100 f i UserList.obj
 0001:00115100       ??_GUserList@cmd@@UAEPAXI@Z 20116100 f i UserList.obj
 0001:00115130       ?doExecute@UserList@cmd@@MAE?AW4PostAction@AbstractCommand@2@AAVContext@42@@Z 20116130 f   UserList.obj
 0001:00116550       ?BG_AnimParseAnimScript@@YAXPAUanimModelInfo_t@@PAUanimScriptData_t@@PBDPAD@Z 20117550 f   bg_animation.obj
 0001:00116e20       ?BG_AnimParseError@@YAXPBDZZ 20117e20 f   bg_animation.obj
 0001:00116eb0       ?BG_AnimScriptAnimation@@YAHPAUplayerState_s@@PAUanimModelInfo_t@@W4scriptAnimMoveTypes_t@@W4qboolean@@@Z 20117eb0 f   bg_animation.obj
 0001:00116fb0       ?BG_AnimScriptCannedAnimation@@YAHPAUplayerState_s@@PAUanimModelInfo_t@@@Z 20117fb0 f   bg_animation.obj
 0001:00117070       ?BG_AnimScriptEvent@@YAHPAUplayerState_s@@PAUanimModelInfo_t@@W4scriptAnimEventTypes_t@@W4qboolean@@3@Z 20118070 f   bg_animation.obj
 0001:00117120       ?BG_AnimUpdatePlayerStateConditions@@YAXPAUpmove_t@@@Z 20118120 f   bg_animation.obj
 0001:001172a0       ?BG_AnimationForString@@YAPAUanimation_s@@PADPAUanimModelInfo_t@@@Z 201182a0 f   bg_animation.obj
 0001:001173c0       ?BG_ClearAnimTimer@@YAXPAUplayerState_s@@W4animBodyPart_t@@@Z 201183c0 f   bg_animation.obj
 0001:00117400       ?BG_ClearConditionBitFlag@@YAXHHH@Z 20118400 f   bg_animation.obj
 0001:00117430       ?BG_CopyStringIntoBuffer@@YAPADPAD0IPAI@Z 20118430 f   bg_animation.obj
 0001:001174b0       ?BG_EvaluateConditions@@YA?AW4qboolean@@HPAUanimScriptItem_t@@@Z 201184b0 f   bg_animation.obj
 0001:00117550       ?BG_ExecuteCommand@@YAHPAUplayerState_s@@PAUanimModelInfo_t@@PAUanimScriptCommand_t@@W4qboolean@@33@Z 20118550 f   bg_animation.obj
 0001:001176a0       ?BG_FirstValidItem@@YAPAUanimScriptItem_t@@HPAUanimScript_t@@@Z 201186a0 f   bg_animation.obj
 0001:001176f0       ?BG_GetAnimScriptAnimation@@YAHHPAUanimModelInfo_t@@W4aistateEnum_t@@W4scriptAnimMoveTypes_t@@@Z 201186f0 f   bg_animation.obj
 0001:00117790       ?BG_GetAnimScriptEvent@@YAHPAUplayerState_s@@W4scriptAnimEventTypes_t@@@Z 20118790 f   bg_animation.obj
 0001:00117830       ?BG_GetAnimString@@YAPADPAUanimModelInfo_t@@H@Z 20118830 f   bg_animation.obj
 0001:00117870       ?BG_GetAnimationForIndex@@YAPAUanimation_s@@PAUanimModelInfo_t@@H@Z 20118870 f   bg_animation.obj
 0001:001178b0       ?BG_GetConditionBitFlag@@YA?AW4qboolean@@HHH@Z 201188b0 f   bg_animation.obj
 0001:00117910       ?BG_GetConditionValue@@YAHHHW4qboolean@@@Z 20118910 f   bg_animation.obj
 0001:001179a0       ?BG_IndexForString@@YAHPADPAUanimStringItem_t@@W4qboolean@@@Z 201189a0 f   bg_animation.obj
 0001:00117a40       ?BG_InitWeaponStrings@@YAXXZ 20118a40 f   bg_animation.obj
 0001:00117ea0       ?BG_ParseConditionBits@@YAXPAPADPAUanimStringItem_t@@HQAH@Z 20118ea0 f   bg_animation.obj
 0001:001181f0       ?BG_ParseConditions@@YA?AW4qboolean@@PAPADPAUanimScriptItem_t@@@Z 201191f0 f   bg_animation.obj
 0001:001183a0       ?BG_PlayAnim@@YAHPAUplayerState_s@@PAUanimModelInfo_t@@HW4animBodyPart_t@@HW4qboolean@@33@Z 201193a0 f   bg_animation.obj
 0001:001184e0       ?BG_PlayAnimName@@YAHPAUplayerState_s@@PAUanimModelInfo_t@@PADW4animBodyPart_t@@W4qboolean@@44@Z 201194e0 f   bg_animation.obj
 0001:00118520       ?BG_SetConditionBitFlag@@YAXHHH@Z 20119520 f   bg_animation.obj
 0001:00118550       ?BG_StringHashValue@@YAJPBD@Z 20119550 f   bg_animation.obj
 0001:001185d0       ?BG_StringHashValue_Lwr@@YAJPBD@Z 201195d0 f   bg_animation.obj
 0001:00118620       ?BG_UpdateConditionValue@@YAXHHHW4qboolean@@@Z 20119620 f   bg_animation.obj
 0001:001186a0       ?BG_ClearAnimationPool@@YAXXZ 201196a0 f   bg_animgroup.obj
 0001:00118bf0       ?BG_R_RegisterAnimationGroup@@YA?AW4qboolean@@PBDPAUanimModelInfo_t@@@Z 20119bf0 f   bg_animgroup.obj
 0001:00118de0       ?BG_LoadCampaignSave@@YA?AW4qboolean@@PBDPAUcpsFile_t@@0@Z 20119de0 f   bg_campaign.obj
 0001:00118fe0       ?BG_StoreCampaignSave@@YA?AW4qboolean@@PBDPAUcpsFile_t@@0@Z 20119fe0 f   bg_campaign.obj
 0001:00119190       ?BG_ClearCharacterPool@@YAXXZ 2011a190 f   bg_character.obj
 0001:001191c0       ?BG_FindCharacter@@YAPAUbg_character_s@@PBD@Z 2011a1c0 f   bg_character.obj
 0001:00119220       ?BG_FindFreeCharacter@@YAPAUbg_character_s@@PBD@Z 2011a220 f   bg_character.obj
 0001:001192d0       ?BG_GetCharacter@@YAPAUbg_character_s@@HH@Z 2011a2d0 f   bg_character.obj
 0001:00119310       ?BG_GetCharacterForPlayerstate@@YAPAUbg_character_s@@PAUplayerState_s@@@Z 2011a310 f   bg_character.obj
 0001:001193f0       ?BG_ParseCharacterFile@@YA?AW4qboolean@@PBDPAUbg_characterDef_s@@@Z 2011a3f0 f   bg_character.obj
 0001:00119890       ?BG_ClassHasWeapon@@YA?AW4qboolean@@PAUbg_playerclass_t@@W4weapon_t@@@Z 2011a890 f   bg_classes.obj
 0001:001198c0       ?BG_ClassLetterForNumber@@YAPBDH@Z 2011a8c0 f   bg_classes.obj
 0001:00119930       ?BG_ClassSkillForClass@@YA?AW4skillType_t@@H@Z 2011a930 f   bg_classes.obj
 0001:00119970       ?BG_ClassTextToClass@@YAHPAD@Z 2011a970 f   bg_classes.obj
 0001:00119a30       ?BG_ClassnameForNumber@@YAPBDH@Z 2011aa30 f   bg_classes.obj
 0001:00119aa0       ?BG_GetPlayerClassInfo@@YAPAUbg_playerclass_t@@HH@Z 2011aaa0 f   bg_classes.obj
 0001:00119ae0       ?BG_PlayerClassForPlayerState@@YAPAUbg_playerclass_t@@PAUplayerState_s@@@Z 2011aae0 f   bg_classes.obj
 0001:00119b10       ?BG_ShortClassnameForNumber@@YAPBDH@Z 2011ab10 f   bg_classes.obj
 0001:00119b80       ?BG_WeaponIsPrimaryForClassAndTeam@@YA?AW4qboolean@@HW4team_t@@W4weapon_t@@@Z 2011ab80 f   bg_classes.obj
 0001:00119bf0       ?BG_IsPercent@@YA_NPBD@Z   2011abf0 f   bg_jaymod.obj
 0001:00119c30       ?BG_updateAmmoTable@@YAXXZ 2011ac30 f   bg_jaymod.obj
 0001:00119e10       ?BG_AddMagicAmmo@@YA?AW4qboolean@@PAUplayerState_s@@PAHHH@Z 2011ae10 f   bg_misc.obj
 0001:0011a1c0       ?BG_AddPathCorner@@YAXPBDQAM@Z 2011b1c0 f   bg_misc.obj
 0001:0011a240       ?BG_AddPredictableEventToPlayerstate@@YAXHHPAUplayerState_s@@@Z 2011b240 f   bg_misc.obj
 0001:0011a280       ?BG_AddSplineControl@@YAXPAUsplinePath_s@@PBD@Z 2011b280 f   bg_misc.obj
 0001:0011a2e0       ?BG_AddSplinePath@@YAPAUsplinePath_s@@PBD0QAM@Z 2011b2e0 f   bg_misc.obj
 0001:0011a3a0       ?BG_AdjustAAGunMuzzleForBarrel@@YAXPAM000H@Z 2011b3a0 f   bg_misc.obj
 0001:0011a700       ?BG_AkimboFireSequence@@YA?AW4qboolean@@HHH@Z 2011b700 f   bg_misc.obj
 0001:0011a750       ?BG_AkimboSidearm@@YAHH@Z  2011b750 f   bg_misc.obj
 0001:0011a7b0       ?BG_BBoxCollision@@YA?AW4qboolean@@QAM000@Z 2011b7b0 f   bg_misc.obj
 0001:0011a800       ?BG_BuildSplinePaths@@YAXXZ 2011b800 f   bg_misc.obj
 0001:0011a980       ?BG_CalculateSpline_r@@YAXPAUsplinePath_s@@QAM1M@Z 2011b980 f   bg_misc.obj
 0001:0011abb0       ?BG_CanItemBeGrabbed@@YA?AW4qboolean@@PBUentityState_s@@PBUplayerState_s@@PAHH@Z 2011bbb0 f   bg_misc.obj
 0001:0011ada0       ?BG_CanUseWeapon@@YA?AW4qboolean@@HHW4weapon_t@@@Z 2011bda0 f   bg_misc.obj
 0001:0011b060       ?BG_ComputeSegments@@YAXPAUsplinePath_s@@@Z 2011c060 f   bg_misc.obj
 0001:0011b270       ?BG_CreateRotationMatrix@@YAXQBMQAY02M@Z 2011c270 f   bg_misc.obj
 0001:0011b2a0       ?BG_DuplicateWeapon@@YA?AW4weapon_t@@W41@@Z 2011c2a0 f   bg_misc.obj
 0001:0011b330       ?BG_EvaluateTrajectory@@YAXPBUtrajectory_t@@HQAMW4qboolean@@H@Z 2011c330 f   bg_misc.obj
 0001:0011c1e0       ?BG_EvaluateTrajectoryDelta@@YAXPBUtrajectory_t@@HQAMW4qboolean@@H@Z 2011d1e0 f   bg_misc.obj
 0001:0011c530       ?BG_FindAmmoForWeapon@@YA?AW4weapon_t@@W41@@Z 2011d530 f   bg_misc.obj
 0001:0011c570       ?BG_FindClipForWeapon@@YA?AW4weapon_t@@W41@@Z 2011d570 f   bg_misc.obj
 0001:0011c5b0       ?BG_FindItem@@YAPAUgitem_s@@PBD@Z 2011d5b0 f   bg_misc.obj
 0001:0011c600       ?BG_FindItemForAmmo@@YAPAUgitem_s@@H@Z 2011d600 f   bg_misc.obj
 0001:0011c670       ?BG_FindItemForClassName@@YAPAUgitem_s@@PBD@Z 2011d670 f   bg_misc.obj
 0001:0011c6c0       ?BG_FindItemForWeapon@@YAPAUgitem_s@@W4weapon_t@@@Z 2011d6c0 f   bg_misc.obj
 0001:0011c710       ?BG_Find_PathCorner@@YAPAUpathCorner_t@@PBD@Z 2011d710 f   bg_misc.obj
 0001:0011c770       ?BG_Find_Spline@@YAPAUsplinePath_s@@PBD@Z 2011d770 f   bg_misc.obj
 0001:0011c7d0       ?BG_FootstepForSurface@@YAHH@Z 2011d7d0 f   bg_misc.obj
 0001:0011c880       ?BG_GetLocationString@@YAPADPAM@Z 2011d880 f   bg_misc.obj
 0001:0011c910       ?BG_GetMarkDir@@YAXQBM0QAM@Z 2011d910 f   bg_misc.obj
 0001:0011cbc0       ?BG_GetSplineData@@YAPAUsplinePath_s@@HPAW4qboolean@@@Z 2011dbc0 f   bg_misc.obj
 0001:0011cc00       ?BG_GrenadeTypeForTeam@@YA?AW4weapon_t@@W4team_t@@@Z 2011dc00 f   bg_misc.obj
 0001:0011cc30       ?BG_GrenadesForClass@@YAHHPAH@Z 2011dc30 f   bg_misc.obj
 0001:0011cd40       ?BG_InitLocations@@YAXQAM0@Z 2011dd40 f   bg_misc.obj
 0001:0011ce70       ?BG_IsAkimboSideArm@@YA?AW4qboolean@@HPAUplayerState_s@@@Z 2011de70 f   bg_misc.obj
 0001:0011ced0       ?BG_IsAkimboWeapon@@YA?AW4qboolean@@H@Z 2011ded0 f   bg_misc.obj
 0001:0011cf00       ?BG_IsScopedWeapon@@YA?AW4qboolean@@H@Z 2011df00 f   bg_misc.obj
 0001:0011cf30       ?BG_LinearPathOrigin2@@YAXMPAPAUsplinePath_s@@PAMQAMW4qboolean@@@Z 2011df30 f   bg_misc.obj
 0001:0011d250       ?BG_MaxAmmoForWeapon@@YAHW4weapon_t@@PAH@Z 2011e250 f   bg_misc.obj
 0001:0011d3d0       ?BG_PlayerStateToEntityState@@YAXPAUplayerState_s@@PAUentityState_s@@HW4qboolean@@@Z 2011e3d0 f   bg_misc.obj
 0001:0011d880       ?BG_PlayerStateToEntityStateExtraPolate@@YAXPAUplayerState_s@@PAUentityState_s@@HW4qboolean@@@Z 2011e880 f   bg_misc.obj
 0001:0011dd30       ?BG_PlayerTouchesItem@@YA?AW4qboolean@@PAUplayerState_s@@PAUentityState_s@@H@Z 2011ed30 f   bg_misc.obj
 0001:0011ddd0       ?BG_RaySphereIntersection@@YA?AW4qboolean@@MQAMPAUsplineSegment_t@@PAM2@Z 2011edd0 f   bg_misc.obj
 0001:0011df10       ?BG_RotatePoint@@YAXQAMQAY02$$CBM@Z 2011ef10 f   bg_misc.obj
 0001:0011dfb0       ?BG_SplineLength@@YAMPAUsplinePath_s@@@Z 2011efb0 f   bg_misc.obj
 0001:0011e120       ?BG_TransposeMatrix@@YAXQAY02$$CBMQAY02M@Z 2011f120 f   bg_misc.obj
 0001:0011e170       ?BG_TraverseSpline@@YA?AW4qboolean@@PAMPAPAUsplinePath_s@@@Z 2011f170 f   bg_misc.obj
 0001:0011e280       ?BG_ValidStatWeapon@@YAPAUgitem_s@@W4weapon_t@@@Z 2011f280 f   bg_misc.obj
 0001:0011e320       ?BG_WeaponForMOD@@YA?AW4weapon_t@@H@Z 2011f320 f   bg_misc.obj
 0001:0011e350       ?BG_WeaponInWolfMP@@YA?AW4qboolean@@H@Z 2011f350 f   bg_misc.obj
 0001:0011e3e0       ?BG_cleanName@@YAHPBDPADHW4qboolean@@@Z 2011f3e0 f   bg_misc.obj
 0001:0011e460       ?BG_colorstrncpyz@@YAHPAD0HH@Z 2011f460 f   bg_misc.obj
 0001:0011e500       ?BG_drawStrlen@@YAHPBD@Z   2011f500 f   bg_misc.obj
 0001:0011e550       ?BG_isLightWeaponSupportingFastReload@@YA?AW4qboolean@@H@Z 2011f550 f   bg_misc.obj
 0001:0011e5a0       ?BG_setCrosshair@@YAXPADPAMM0@Z 2011f5a0 f   bg_misc.obj
 0001:0011e910       ?BG_simpleHintsCollapse@@YAHHH@Z 2011f910 f   bg_misc.obj
 0001:0011e9d0       ?BG_simpleHintsExpand@@YAHHH@Z 2011f9d0 f   bg_misc.obj
 0001:0011ea50       ?BG_simpleWeaponState@@YAHH@Z 2011fa50 f   bg_misc.obj
 0001:0011eac0       ?BG_strRelPos@@YAHPADH@Z   2011fac0 f   bg_misc.obj
 0001:0011eb20       ?PC_Color_Parse@@YA?AW4qboolean@@HPAY03M@Z 2011fb20 f   bg_misc.obj
 0001:0011eb80       ?PC_Float_Parse@@YA?AW4qboolean@@HPAM@Z 2011fb80 f   bg_misc.obj
 0001:0011ec40       ?PC_Int_Parse@@YA?AW4qboolean@@HPAH@Z 2011fc40 f   bg_misc.obj
 0001:0011ecf0       ?PC_SourceError@@YAXHPADZZ 2011fcf0 f   bg_misc.obj
 0001:0011ed70       ?PC_SourceWarning@@YAXHPADZZ 2011fd70 f   bg_misc.obj
 0001:0011edf0       ?PC_String_Parse@@YAPBDH@Z 2011fdf0 f   bg_misc.obj
 0001:0011ee50       ?PC_String_ParseNoAlloc@@YA?AW4qboolean@@HPADI@Z 2011fe50 f   bg_misc.obj
 0001:0011eeb0       ?PC_Vec_Parse@@YA?AW4qboolean@@HPAY02M@Z 2011feb0 f   bg_misc.obj
 0001:0011ef10       ?Q_vsnprintf@@YAHPADHPBD0@Z 2011ff10 f   bg_misc.obj
 0001:0011ef70       ?Com_GetFlamethrowerRange@@YAMXZ 2011ff70 f   bg_pmove.obj
 0001:0011f090       ?PM_AddEvent@@YAXH@Z       20120090 f   bg_pmove.obj
 0001:0011f0b0       ?PM_AddEventExt@@YAXHH@Z   201200b0 f   bg_pmove.obj
 0001:0011f0d0       ?PM_AddTouchEnt@@YAXH@Z    201200d0 f   bg_pmove.obj
 0001:0011f120       ?PM_AdjustAimSpreadScale@@YAXXZ 20120120 f   bg_pmove.obj
 0001:0011f7f0       ?PM_AltSwitchFromForWeapon@@YAHH@Z 201207f0 f   bg_pmove.obj
 0001:0011f800       ?PM_AltSwitchToForWeapon@@YAHH@Z 20120800 f   bg_pmove.obj
 0001:0011f850       ?PM_AttackAnimForWeapon@@YAHH@Z 20120850 f   bg_pmove.obj
 0001:0011f8b0       ?PM_BeginM97Reload@@YAXXZ  201208b0 f   bg_pmove.obj
 0001:0011f9c0       ?PM_BeginWeaponChange@@YAXHHW4qboolean@@@Z 201209c0 f   bg_pmove.obj
 0001:00120520       ?PM_CheckForReload@@YAXH@Z 20121520 f   bg_pmove.obj
 0001:00120940       ?PM_CheckLadderMove@@YAXXZ 20121940 f   bg_pmove.obj
 0001:00121ab0       ?PM_ClipVelocity@@YAXQAM00M@Z 20122ab0 f   bg_pmove.obj
 0001:00121d50       ?PM_ContinueWeaponAnim@@YAXH@Z 20122d50 f   bg_pmove.obj
 0001:00121da0       ?PM_CoolWeapons@@YAXXZ     20122da0 f   bg_pmove.obj
 0001:00122560       ?PM_DropAnimForWeapon@@YAHH@Z 20123560 f   bg_pmove.obj
 0001:00123a60       ?PM_IdleAnimForWeapon@@YAHH@Z 20124a60 f   bg_pmove.obj
 0001:00123ac0       ?PM_LadderMove@@YAXXZ      20124ac0 f   bg_pmove.obj
 0001:00123f10       ?PM_LastAttackAnimForWeapon@@YAHH@Z 20124f10 f   bg_pmove.obj
 0001:00123f70       ?PM_M97Reload@@YAXXZ       20124f70 f   bg_pmove.obj
 0001:00124430       ?PM_RaiseAnimForWeapon@@YAHH@Z 20125430 f   bg_pmove.obj
 0001:001244b0       ?PM_ReloadAnimForWeapon@@YAHH@Z 201254b0 f   bg_pmove.obj
 0001:001249a0       ?PM_Sprint@@YAXXZ          201259a0 f   bg_pmove.obj
 0001:00124d30       ?PM_TraceAll@@YAXPAUtrace_t@@QAM1@Z 20125d30 f   bg_pmove.obj
 0001:00124d50       ?PM_TraceAllLegs@@YAXPAUtrace_t@@PAMQAM2@Z 20125d50 f   bg_pmove.obj
 0001:00124eb0       ?PM_TraceLegs@@YAXPAUtrace_t@@PAMQAM202P6AX0QBM333HH@ZHH_N@Z 20125eb0 f   bg_pmove.obj
 0001:001251e0       ?PM_UpdateLean@@YAXPAUplayerState_s@@PAUusercmd_s@@PAUpmove_t@@@Z 201261e0 f   bg_pmove.obj
 0001:00125570       ?PM_UpdateViewAngles@@YAXPAUplayerState_s@@PAUpmoveExt_t@@PAUusercmd_s@@P6AXPAUtrace_t@@QBM444HH@ZH@Z 20126570 f   bg_pmove.obj
 0001:00128eb0       ?PM_WeaponAmmoAvailable@@YAHH@Z 20129eb0 f   bg_pmove.obj
 0001:00128f90       ?PM_WeaponClipEmpty@@YAHH@Z 20129f90 f   bg_pmove.obj
 0001:00129000       ?PM_WeaponUseAmmo@@YAXHH@Z 2012a000 f   bg_pmove.obj
 0001:00129870       ?Pmove@@YAHPAUpmove_t@@@Z  2012a870 f   bg_pmove.obj
 0001:001299c0       ?PmoveSingle@@YAXPAUpmove_t@@@Z 2012a9c0 f   bg_pmove.obj
 0001:0012a380       ?PM_SlideMove@@YA?AW4qboolean@@W41@@Z 2012b380 f   bg_slidemove.obj
 0001:0012ae30       ?PM_StepSlideMove@@YAXW4qboolean@@@Z 2012be30 f   bg_slidemove.obj
 0001:0012b4a0       ?BG_ClearScriptSpeakerPool@@YAXXZ 2012c4a0 f   bg_sscript.obj
 0001:0012b4b0       ?BG_GetIndexForSpeaker@@YAHPAUbg_speaker_s@@@Z 2012c4b0 f   bg_sscript.obj
 0001:0012b4e0       ?BG_GetScriptSpeaker@@YAPAUbg_speaker_s@@H@Z 2012c4e0 f   bg_sscript.obj
 0001:0012b510       ?BG_LoadSpeakerScript@@YA?AW4qboolean@@PBD@Z 2012c510 f   bg_sscript.obj
 0001:0012b6a0       ?BG_NumScriptSpeakers@@YAHXZ 2012c6a0 f   bg_sscript.obj
 0001:0012b6b0       ?BG_SS_DeleteSpeaker@@YA?AW4qboolean@@H@Z 2012c6b0 f   bg_sscript.obj
 0001:0012be00       ?BG_SS_StoreSpeaker@@YA?AW4qboolean@@PAUbg_speaker_s@@@Z 2012ce00 f   bg_sscript.obj
 0001:0012be50       ?BG_WeapStatForWeapon@@YA?AW4extWeaponStats_s@@W4weapon_t@@@Z 2012ce50 f   bg_stats.obj
 0001:0012bf00       ?BG_GetGroundHeightAtPoint@@YAMQAM@Z 2012cf00 f   bg_tracemap.obj
 0001:0012bfc0       ?BG_GetSkyGroundHeightAtPoint@@YAMQAM@Z 2012cfc0 f   bg_tracemap.obj
 0001:0012c080       ?BG_GetSkyHeightAtPoint@@YAMQAM@Z 2012d080 f   bg_tracemap.obj
 0001:0012c140       ?BG_GetTracemapGroundCeil@@YAHXZ 2012d140 f   bg_tracemap.obj
 0001:0012c160       ?BG_GetTracemapGroundFloor@@YAHXZ 2012d160 f   bg_tracemap.obj
 0001:0012c180       ?BG_LoadTraceMap@@YA?AW4qboolean@@PADQAM1@Z 2012d180 f   bg_tracemap.obj
 0001:0012c7e0       ?etpro_FinalizeTracemapClamp@@YAXPAH0@Z 2012d7e0 f   bg_tracemap.obj
 0001:0012c840       ??$_Find_not_ch_vectorized@D@std@@YAPBDQBD0D@Z 2012d840 f i Engine.obj
 0001:0012c860       ?args@Engine@@SAIAAV?$vector@V?$basic_string@DU?$char_traits@D@std@@V?$allocator@D@2@@std@@V?$allocator@V?$basic_string@DU?$char_traits@D@std@@V?$allocator@D@2@@std@@@2@@std@@ABV?$basic_string@DU?$char_traits@D@std@@V?$allocator@D@2@@3@@Z 2012d860 f   Engine.obj
 0001:0012cb50       ??$?HDU?$char_traits@D@std@@V?$allocator@D@1@@std@@YA?AV?$basic_string@DU?$char_traits@D@std@@V?$allocator@D@2@@0@ABV10@QBD@Z 2012db50 f i Logger.obj
 0001:0012cc90       ??$flush@DU?$char_traits@D@std@@@std@@YAAAV?$basic_ostream@DU?$char_traits@D@std@@@0@AAV10@@Z 2012dc90 f i Logger.obj
 0001:0012ccb0       ??0Logger@@QAE@ABV?$basic_string@DU?$char_traits@D@std@@V?$allocator@D@2@@std@@@Z 2012dcb0 f   Logger.obj
 0001:0012cdb0       ??0Logger@@QAE@ABV?$basic_string@DU?$char_traits@D@std@@V?$allocator@D@2@@std@@AAV?$basic_ostream@DU?$char_traits@D@std@@@2@@Z 2012ddb0 f   Logger.obj
 0001:0012cec0       ??1Logger@@UAE@XZ          2012dec0 f   Logger.obj
 0001:0012cf22       ??_ELogger@@$4PPPPPPPM@A@AEPAXI@Z 2012df22 f i Logger.obj
 0001:0012cf30       ??_ELogger@@UAEPAXI@Z      2012df30 f i Logger.obj
 0001:0012cf30       ??_GLogger@@UAEPAXI@Z      2012df30 f i Logger.obj
 0001:0012d5e0       ??0Process@@QAE@XZ         2012e5e0 f   Process.obj
 0001:0012d600       ??1Process@@QAE@XZ         2012e600 f   Process.obj
 0001:0012d610       ?init@Process@@QAEXXZ      2012e610 f   Process.obj
 0001:0012d620       ?setPendingReload@Process@@QAEX_N@Z 2012e620 f   Process.obj
 0001:0012d630       ?setPendingShutdown@Process@@QAEX_N@Z 2012e630 f   Process.obj
 0001:0012d640       ?shutdown@Process@@QAEXXZ  2012e640 f   Process.obj
 0001:0012d650       ?AddPointToBounds@@YAXQBMQAM1@Z 2012e650 f   q_math.obj
 0001:0012d6f0       ?AngleDelta@@YAMMM@Z       2012e6f0 f   q_math.obj
 0001:0012d720       ?AngleMod@@YAMM@Z          2012e720 f   q_math.obj
 0001:0012d770       ?AngleNormalize180@@YAMM@Z 2012e770 f   q_math.obj
 0001:0012d7c0       ?AngleNormalize2Pi@@YAMM@Z 2012e7c0 f   q_math.obj
 0001:0012d810       ?AngleNormalize360@@YAMM@Z 2012e810 f   q_math.obj
 0001:0012d860       ?AngleSubtract@@YAMMM@Z    2012e860 f   q_math.obj
 0001:0012d8d0       ?AngleVectors@@YAXQBMQAM11@Z 2012e8d0 f   q_math.obj
 0001:0012db20       ?AnglesSubtract@@YAXQAM00@Z 2012eb20 f   q_math.obj
 0001:0012dbb0       ?AnglesToAxis@@YAXQBMQAY02M@Z 2012ebb0 f   q_math.obj
 0001:0012dc10       ?AxisClear@@YAXQAY02M@Z    2012ec10 f   q_math.obj
 0001:0012dc70       ?AxisCopy@@YAXQAY02$$CBMQAY02M@Z 2012ec70 f   q_math.obj
 0001:0012dcc0       ?AxisToAngles@@YAXQAY02MQAM@Z 2012ecc0 f   q_math.obj
 0001:0012de30       ?BoxOnPlaneSide@@YAHQAM0PAUcplane_s@@@Z 2012ee30 f   q_math.obj
 0001:0012de90       ?BoxOnPlaneSide_fast@@YAHQAM0PAUcplane_s@@@Z 2012ee90 f i q_math.obj
 0001:0012e160       ?ByteToDir@@YAXHQAM@Z      2012f160 f   q_math.obj
 0001:0012e1c0       ?ClampChar@@YACH@Z         2012f1c0 f   q_math.obj
 0001:0012e1f0       ?ClampShort@@YAFH@Z        2012f1f0 f   q_math.obj
 0001:0012e220       ?ClearBounds@@YAXQAM0@Z    2012f220 f   q_math.obj
 0001:0012e260       ?ColorBytes3@@YAIMMM@Z     2012f260 f   q_math.obj
 0001:0012e2b0       ?ColorBytes4@@YAIMMMM@Z    2012f2b0 f   q_math.obj
 0001:0012e320       ?CrossProduct@@YAXQBM0QAM@Z 2012f320 f   q_math.obj
 0001:0012e3a0       ?DirToByte@@YAHQAM@Z       2012f3a0 f   q_math.obj
 0001:0012e440       ?Distance@@YAMQBM0@Z       2012f440 f   q_math.obj
 0001:0012e4a0       ?DistanceFromLineSquared@@YAMQAM00@Z 2012f4a0 f   q_math.obj
 0001:0012e620       ?DistanceFromVectorSquared@@YAMQAM00@Z 2012f620 f   q_math.obj
 0001:0012e690       ?DistanceSquared@@YAMQBM0@Z 2012f690 f   q_math.obj
 0001:0012e6f0       ?GetPerpendicularViewVector@@YAXQBM00QAM@Z 2012f6f0 f   q_math.obj
 0001:0012e7c0       ?LerpAngle@@YAMMMM@Z       2012f7c0 f   q_math.obj
 0001:0012e830       ?LerpPosition@@YAXQAM0M0@Z 2012f830 f   q_math.obj
 0001:0012e8a0       ?MakeNormalVectors@@YAXQBMQAM1@Z 2012f8a0 f   q_math.obj
 0001:0012e960       ?MatrixMultiply@@YAXQAY02M00@Z 2012f960 f   q_math.obj
 0001:0012eb50       ?NormalizeColor@@YAMQBMQAM@Z 2012fb50 f   q_math.obj
 0001:0012ebe0       ?PerpendicularVector@@YAXQAMQBM@Z 2012fbe0 f   q_math.obj
 0001:0012ecb0       ?PlaneFromPoints@@YA?AW4qboolean@@QAMQBM11@Z 2012fcb0 f   q_math.obj
 0001:0012edc0       ?PointInBounds@@YA?AW4qboolean@@QBM00@Z 2012fdc0 f   q_math.obj
 0001:0012ee30       ?ProjectPointOnPlane@@YAXQAMQBM1@Z 2012fe30 f   q_math.obj
 0001:0012ef10       ?ProjectPointOntoVector@@YAXQAM000@Z 2012ff10 f   q_math.obj
 0001:0012f000       ?ProjectPointOntoVectorBounded@@YAXQAM000@Z 20130000 f   q_math.obj
 0001:0012f1c0       ?Q_crandom@@YAMPAH@Z       201301c0 f   q_math.obj
 0001:0012f1f0       ?Q_fabs@@YAMM@Z            201301f0 f   q_math.obj
 0001:0012f210       ?Q_log2@@YAHH@Z            20130210 f   q_math.obj
 0001:0012f230       ?Q_rand@@YAHPAH@Z          20130230 f   q_math.obj
 0001:0012f250       ?Q_random@@YAMPAH@Z        20130250 f   q_math.obj
 0001:0012f290       ?Q_rsqrt@@YAMM@Z           20130290 f   q_math.obj
 0001:0012f2f0       ?RadiusFromBounds@@YAMQBM0@Z 201302f0 f   q_math.obj
 0001:0012f370       ?RotateAroundDirection@@YAXQAY02MM@Z 20130370 f   q_math.obj
 0001:0012f400       ?RotateAroundPitch@@YAXQAY02MM@Z 20130400 f   q_math.obj
 0001:0012f490       ?RotatePointAroundVector@@YAXQAMQBM1M@Z 20130490 f   q_math.obj
 0001:0012f730       ?RotatePointAroundVertex@@YAXQAMMMMQBM@Z 20130730 f   q_math.obj
 0001:0012f900       ?SetPlaneSignbits@@YAXPAUcplane_s@@@Z 20130900 f   q_math.obj
 0001:0012f940       ?Vector4Scale@@YAXQBMMQAM@Z 20130940 f   q_math.obj
 0001:0012f990       ?VectorCompare@@YAHQBM0@Z  20130990 f   q_math.obj
 0001:0012f9e0       ?VectorDistance@@YAMQAM0@Z 201309e0 f   q_math.obj
 0001:0012fa40       ?VectorDistanceSquared@@YAMQAM0@Z 20130a40 f   q_math.obj
 0001:0012faa0       ?VectorInverse@@YAXQAM@Z   20130aa0 f   q_math.obj
 0001:0012faf0       ?VectorLength@@YAMQBM@Z    20130af0 f   q_math.obj
 0001:0012fb70       ?VectorLengthSquared@@YAMQBM@Z 20130b70 f   q_math.obj
 0001:0012fbb0       ?VectorNormalize2@@YAMQBMQAM@Z 20130bb0 f   q_math.obj
 0001:0012fca0       ?VectorNormalize@@YAMQAM@Z 20130ca0 f   q_math.obj
 0001:0012fd90       ?VectorNormalizeFast@@YAXQAM@Z 20130d90 f   q_math.obj
 0001:0012fe40       ?VectorRotate@@YAXQAMQAY02M0@Z 20130e40 f   q_math.obj
 0001:0012fef0       ?_DotProduct@@YAMQBM0@Z    20130ef0 f   q_math.obj
 0001:0012ff20       ?_VectorAdd@@YAXQBM0QAM@Z  20130f20 f   q_math.obj
 0001:0012ff70       ?_VectorCopy@@YAXQBMQAM@Z  20130f70 f   q_math.obj
 0001:0012ffa0       ?_VectorMA@@YAXQBMM0QAM@Z  20130fa0 f   q_math.obj
 0001:00130000       ?_VectorScale@@YAXQBMMQAM@Z 20131000 f   q_math.obj
 0001:00130040       ?_VectorSubtract@@YAXQBM0QAM@Z 20131040 f   q_math.obj
 0001:00130090       ?myftol@@YAJM@Z            20131090 f   q_math.obj
 0001:001300b0       ?vectoangles@@YAXQBMQAM@Z  201310b0 f   q_math.obj
 0001:001302a0       ?vectoyaw@@YAMQBM@Z        201312a0 f   q_math.obj
 0001:00130390       ??$_Try_emplace@ABV?$basic_string@DU?$char_traits@D@std@@V?$allocator@D@2@@std@@$$V@?$map@V?$basic_string@DU?$char_traits@D@std@@V?$allocator@D@2@@std@@V12@U?$less@V?$basic_string@DU?$char_traits@D@std@@V?$allocator@D@2@@std@@@2@V?$allocator@U?$pair@$$CBV?$basic_string@DU?$char_traits@D@std@@V?$allocator@D@2@@std@@V12@@std@@@2@@std@@AAE?AU?$pair@PAU?$_Tree_node@U?$pair@$$CBV?$basic_string@DU?$char_traits@D@std@@V?$allocator@D@2@@std@@V12@@std@@PAX@std@@_N@1@ABV?$basic_string@DU?$char_traits@D@std@@V?$allocator@D@2@@1@@Z 20131390 f i q_shared.obj
 0001:001305b0       ?BigFloat@@YAMM@Z          201315b0 f   q_shared.obj
 0001:001305d0       ?BigLong64@@YA?AUqint64@@U1@@Z 201315d0 f   q_shared.obj
 0001:001305f0       ?BigLong@@YAHH@Z           201315f0 f   q_shared.obj
 0001:00130600       ?BigShort@@YAFF@Z          20131600 f   q_shared.obj
 0001:00130610       ?COM_BackupParseSession@@YAXPAPAD@Z 20131610 f   q_shared.obj
 0001:00130630       ?COM_BeginParseSession@@YAXPBD@Z 20131630 f   q_shared.obj
 0001:00130670       ?COM_BitCheck@@YA?AW4qboolean@@QBHH@Z 20131670 f   q_shared.obj
 0001:001306c0       ?COM_BitClear@@YAXQAHH@Z   201316c0 f   q_shared.obj
 0001:00130700       ?COM_BitSet@@YAXQAHH@Z     20131700 f   q_shared.obj
 0001:00130740       ?COM_Compress@@YAHPAD@Z    20131740 f   q_shared.obj
 0001:001307f0       ?COM_DefaultExtension@@YAXPADHPBD@Z 201317f0 f   q_shared.obj
 0001:00130870       ?COM_FixPath@@YAXPAD@Z     20131870 f   q_shared.obj
 0001:001308a0       ?COM_GetCurrentParseLine@@YAHXZ 201318a0 f   q_shared.obj
 0001:001308b0       ?COM_MatchToken@@YAXPAPADPAD@Z 201318b0 f   q_shared.obj
 0001:00130920       ?COM_Parse@@YAPADPAPAD@Z   20131920 f   q_shared.obj
 0001:00130940       ?COM_ParseError@@YAXPADZZ  20131940 f   q_shared.obj
 0001:00130990       ?COM_ParseExt@@YAPADPAPADW4qboolean@@@Z 20131990 f   q_shared.obj
 0001:00130bc0       ?COM_ParseWarning@@YAXPADZZ 20131bc0 f   q_shared.obj
 0001:00130c10       ?COM_RestoreParseSession@@YAXPAPAD@Z 20131c10 f   q_shared.obj
 0001:00130c30       ?COM_SetCurrentParseLine@@YAXH@Z 20131c30 f   q_shared.obj
 0001:00130c40       ?COM_SkipPath@@YAPADPAD@Z  20131c40 f   q_shared.obj
 0001:00130c70       ?COM_StripExtension@@YAXPBDPAD@Z 20131c70 f   q_shared.obj
 0001:00130cb0       ?COM_StripFilename@@YAXPAD0@Z 20131cb0 f   q_shared.obj
 0001:00130d00       ?Com_Clamp@@YAMMMM@Z       20131d00 f   q_shared.obj
 0001:00130d30       ?Com_ParseInfos@@YAHPADHQAY0EAA@D@Z 20131d30 f   q_shared.obj
 0001:00130ee0       ?Com_sprintf@@YAXPADHPBDZZ 20131ee0 f   q_shared.obj
 0001:00130f20       ?FloatNoSwap@@YAMM@Z       20131f20 f   q_shared.obj
 0001:00130f30       ?FloatSwap@@YAMM@Z         20131f30 f   q_shared.obj
 0001:00130f70       ?Info_NextPair@@YAXPAPBDPAD1@Z 20131f70 f   q_shared.obj
 0001:00130ff0       ?Info_RemoveKey@@YAXPADPBD@Z 20131ff0 f   q_shared.obj
 0001:00131110       ?Info_RemoveKey_Big@@YAXPADPBD@Z 20132110 f   q_shared.obj
 0001:00131220       ?Info_SetValueForKey@@YAXPADPBD1@Z 20132220 f   q_shared.obj
 0001:00131440       ?Info_SetValueForKey_Big@@YAXPADPBD1@Z 20132440 f   q_shared.obj
 0001:00131660       ?Info_Validate@@YA?AW4qboolean@@PBD@Z 20132660 f   q_shared.obj
 0001:00131a20       ?Info_ValueForKey@@YAPADPBD0@Z 20132a20 f   q_shared.obj
 0001:00131b50       ?LittleFloat@@YAMM@Z       20132b50 f   q_shared.obj
 0001:00131b70       ?LittleLong64@@YA?AUqint64@@U1@@Z 20132b70 f   q_shared.obj
 0001:00131b90       ?LittleLong@@YAHH@Z        20132b90 f   q_shared.obj
 0001:00131ba0       ?LittleShort@@YAFF@Z       20132ba0 f   q_shared.obj
 0001:00131bb0       ?Long64NoSwap@@YA?AUqint64@@U1@@Z 20132bb0 f   q_shared.obj
 0001:00131bc0       ?Long64Swap@@YA?AUqint64@@U1@@Z 20132bc0 f   q_shared.obj
 0001:00131c20       ?LongNoSwap@@YAHH@Z        20132c20 f   q_shared.obj
 0001:00131c30       ?LongSwap@@YAHH@Z          20132c30 f   q_shared.obj
 0001:00131c70       ?Parse1DMatrix@@YAXPAPADHPAM@Z 20132c70 f   q_shared.obj
 0001:00131cd0       ?Parse2DMatrix@@YAXPAPADHHPAM@Z 20132cd0 f   q_shared.obj
 0001:00131d40       ?Parse3DMatrix@@YAXPAPADHHHPAM@Z 20132d40 f   q_shared.obj
 0001:00131dc0       ?Q_CleanDirName@@YAPADPAD@Z 20132dc0 f   q_shared.obj
 0001:00131e20       ?Q_CleanStr@@YAPADPAD@Z    20132e20 f   q_shared.obj
 0001:00131ea0       ?Q_PrintStrlen@@YAHPBD@Z   20132ea0 f   q_shared.obj
 0001:00132040       ?Q_isBadDirChar@@YA?AW4qboolean@@D@Z 20133040 f   q_shared.obj
 0001:00132090       ?Q_isalpha@@YAHH@Z         20133090 f   q_shared.obj
 0001:001320c0       ?Q_isalphanumeric@@YAHH@Z  201330c0 f   q_shared.obj
 0001:00132100       ?Q_isforfilename@@YAHH@Z   20133100 f   q_shared.obj
 0001:00132130       ?Q_islower@@YAHH@Z         20133130 f   q_shared.obj
 0001:00132150       ?Q_isnumeric@@YAHH@Z       20133150 f   q_shared.obj
 0001:00132170       ?Q_isprint@@YAHH@Z         20133170 f   q_shared.obj
 0001:00132190       ?Q_isupper@@YAHH@Z         20133190 f   q_shared.obj
 0001:001321b0       ?Q_strcat@@YAXPADHPBD@Z    201331b0 f   q_shared.obj
 0001:00132210       ?Q_stricmp@@YAHPBD0@Z      20133210 f   q_shared.obj
 0001:00132240       ?Q_stricmpn@@YAHPBD0H@Z    20133240 f   q_shared.obj
 0001:001322d0       ?Q_strlwr@@YAPADPAD@Z      201332d0 f   q_shared.obj
 0001:00132310       ?Q_strncmp@@YAHPBD0H@Z     20133310 f   q_shared.obj
 0001:00132370       ?Q_strncpyz@@YAXPADPBDH@Z  20133370 f   q_shared.obj
 0001:001323d0       ?Q_strrchr@@YAPADPBDH@Z    201333d0 f   q_shared.obj
 0001:00132410       ?Q_strupr@@YAPADPAD@Z      20133410 f   q_shared.obj
 0001:00132450       ?ShortNoSwap@@YAFF@Z       20133450 f   q_shared.obj
 0001:00132460       ?ShortSwap@@YAFF@Z         20133460 f   q_shared.obj
 0001:00132490       ?SkipBracedSection@@YAXPAPAD@Z 20133490 f   q_shared.obj
 0001:001324e0       ?SkipBracedSection_Depth@@YAXPAPADH@Z 201334e0 f   q_shared.obj
 0001:00132530       ?SkipRestOfLine@@YAXPAPAD@Z 20133530 f   q_shared.obj
 0001:001325d0       ?Swap_Init@@YAXXZ          201335d0 f   q_shared.obj
 0001:00132640       ?tv@@YAPAMMMM@Z            20133640 f   q_shared.obj
 0001:00132690       ?va@@YAPADPBDZZ            20133690 f   q_shared.obj
 0001:00132750       ??0SampledStat@@QAE@_K@Z   20133750 f   SampledStat.obj
 0001:001327e0       ??1?$_Alloc_construct_ptr@V?$allocator@U?$_List_node@PAUsample_s@SampledStat@@PAX@std@@@std@@@std@@QAE@XZ 201337e0 f i SampledStat.obj
 0001:00132800       ??1SampledStat@@QAE@XZ     20133800 f   SampledStat.obj
 0001:00132880       ?avg@SampledStat@@QAEMXZ   20133880 f   SampledStat.obj
 0001:001328c0       ?sample@SampledStat@@QAEXH@Z 201338c0 f   SampledStat.obj
 0001:001328e0       ?sample@SampledStat@@QAEXM@Z 201338e0 f   SampledStat.obj
 0001:00132af0       ?BG_cpuUpdate@@YAXXZ       20133af0 f   bg_cpu.obj
 0001:00132be0       ??$_Erase_tree@V?$allocator@U?$_Tree_node@U?$pair@$$CBV?$basic_string@DU?$char_traits@D@std@@V?$allocator@D@2@@std@@PBUData@PairDump@str@@@std@@PAX@std@@@std@@@?$_Tree_val@U?$_Tree_simple_types@U?$pair@$$CBV?$basic_string@DU?$char_traits@D@std@@V?$allocator@D@2@@std@@PBUData@PairDump@str@@@std@@@std@@@std@@QAEXAAV?$allocator@U?$_Tree_node@U?$pair@$$CBV?$basic_string@DU?$char_traits@D@std@@V?$allocator@D@2@@std@@PBUData@PairDump@str@@@std@@PAX@std@@@1@PAU?$_Tree_node@U?$pair@$$CBV?$basic_string@DU?$char_traits@D@std@@V?$allocator@D@2@@std@@PBUData@PairDump@str@@@std@@PAX@1@@Z 20133be0 f i PairDump.obj
 0001:00132ca0       ??$_Find_lower_bound@V?$basic_string@DU?$char_traits@D@std@@V?$allocator@D@2@@std@@@?$_Tree@V?$_Tmap_traits@V?$basic_string@DU?$char_traits@D@std@@V?$allocator@D@2@@std@@PBUData@PairDump@str@@U?$less@V?$basic_string@DU?$char_traits@D@std@@V?$allocator@D@2@@std@@@2@V?$allocator@U?$pair@$$CBV?$basic_string@DU?$char_traits@D@std@@V?$allocator@D@2@@std@@PBUData@PairDump@str@@@std@@@2@$0A@@std@@@std@@IBE?AU?$_Tree_find_result@PAU?$_Tree_node@U?$pair@$$CBV?$basic_string@DU?$char_traits@D@std@@V?$allocator@D@2@@std@@PBUData@PairDump@str@@@std@@PAX@std@@@1@ABV?$basic_string@DU?$char_traits@D@std@@V?$allocator@D@2@@1@@Z 20133ca0 f i PairDump.obj
 0001:00132d10       ??$_Free_non_head@V?$allocator@U?$_List_node@USection@PairDump@str@@PAX@std@@@std@@@?$_List_node@USection@PairDump@str@@PAX@std@@SAXAAV?$allocator@U?$_List_node@USection@PairDump@str@@PAX@std@@@1@PAU01@@Z 20133d10 f i PairDump.obj
 0001:00132d60       ??0?$list@UData@PairDump@str@@V?$allocator@UData@PairDump@str@@@std@@@std@@QAE@ABV01@@Z 20133d60 f i PairDump.obj
 0001:00132f20       ??0PairDump@str@@QAE@V?$basic_string@DU?$char_traits@D@std@@V?$allocator@D@2@@std@@@Z 20133f20 f   PairDump.obj
 0001:00133000       ??1?$_Alloc_construct_ptr@V?$allocator@U?$_List_node@UData@PairDump@str@@PAX@std@@@std@@@std@@QAE@XZ 20134000 f i PairDump.obj
 0001:00133020       ??1?$_Alloc_construct_ptr@V?$allocator@U?$_List_node@USection@PairDump@str@@PAX@std@@@std@@@std@@QAE@XZ 20134020 f i PairDump.obj
 0001:00133040       ??1?$_Alloc_construct_ptr@V?$allocator@U?$_Tree_node@U?$pair@$$CBV?$basic_string@DU?$char_traits@D@std@@V?$allocator@D@2@@std@@PBUData@PairDump@str@@@std@@PAX@std@@@std@@@std@@QAE@XZ 20134040 f i PairDump.obj
 0001:00133060       ??1?$_List_node_insert_op2@V?$allocator@U?$_List_node@UData@PairDump@str@@PAX@std@@@std@@@std@@QAE@XZ 20134060 f i PairDump.obj
 0001:001330b0       ??1?$list@UData@PairDump@str@@V?$allocator@UData@PairDump@str@@@std@@@std@@QAE@XZ 201340b0 f i PairDump.obj
 0001:00133110       ??1?$list@USection@PairDump@str@@V?$allocator@USection@PairDump@str@@@std@@@std@@QAE@XZ 20134110 f i PairDump.obj
 0001:00133130       ??1?$map@V?$basic_string@DU?$char_traits@D@std@@V?$allocator@D@2@@std@@PBUData@PairDump@str@@U?$less@V?$basic_string@DU?$char_traits@D@std@@V?$allocator@D@2@@std@@@2@V?$allocator@U?$pair@$$CBV?$basic_string@DU?$char_traits@D@std@@V?$allocator@D@2@@std@@PBUData@PairDump@str@@@std@@@2@@std@@QAE@XZ 20134130 f i PairDump.obj
 0001:00133160       ??1Data@PairDump@str@@QAE@XZ 20134160 f i PairDump.obj
 0001:00133220       ??1PairDump@str@@QAE@XZ    20134220 f   PairDump.obj
 0001:001332a0       ??1Section@PairDump@str@@QAE@XZ 201342a0 f i PairDump.obj
 0001:00133310       ??6?$basic_ostream@DU?$char_traits@D@std@@@std@@QAEAAV01@M@Z 20134310 f i PairDump.obj
 0001:00133590       ??6?$basic_ostream@DU?$char_traits@D@std@@@std@@QAEAAV01@N@Z 20134590 f i PairDump.obj
 0001:00133810       ?_Insert_node@?$_Tree_val@U?$_Tree_simple_types@U?$pair@$$CBV?$basic_string@DU?$char_traits@D@std@@V?$allocator@D@2@@std@@PBUData@PairDump@str@@@std@@@std@@@std@@QAEPAU?$_Tree_node@U?$pair@$$CBV?$basic_string@DU?$char_traits@D@std@@V?$allocator@D@2@@std@@PBUData@PairDump@str@@@std@@PAX@2@U?$_Tree_id@PAU?$_Tree_node@U?$pair@$$CBV?$basic_string@DU?$char_traits@D@std@@V?$allocator@D@2@@std@@PBUData@PairDump@str@@@std@@PAX@std@@@2@QAU32@@Z 20134810 f i PairDump.obj
 0001:00133a80       ?addEntry@PairDump@str@@QAEXV?$basic_string@DU?$char_traits@D@std@@V?$allocator@D@2@@std@@0@Z 20134a80 f   PairDump.obj
 0001:00133ba0       ?addEntry@PairDump@str@@QAEXV?$basic_string@DU?$char_traits@D@std@@V?$allocator@D@2@@std@@AAY02$$CBM@Z 20134ba0 f   PairDump.obj
 0001:00133c70       ?addEntry@PairDump@str@@QAEXV?$basic_string@DU?$char_traits@D@std@@V?$allocator@D@2@@std@@H@Z 20134c70 f   PairDump.obj
 0001:00133e10       ?addEntry@PairDump@str@@QAEXV?$basic_string@DU?$char_traits@D@std@@V?$allocator@D@2@@std@@I@Z 20134e10 f   PairDump.obj
 0001:00133fb0       ?addEntry@PairDump@str@@QAEXV?$basic_string@DU?$char_traits@D@std@@V?$allocator@D@2@@std@@M@Z 20134fb0 f   PairDump.obj
 0001:00134150       ?addEntry@PairDump@str@@QAEXV?$basic_string@DU?$char_traits@D@std@@V?$allocator@D@2@@std@@N@Z 20135150 f   PairDump.obj
 0001:00134300       ?addEntry@PairDump@str@@QAEXV?$basic_string@DU?$char_traits@D@std@@V?$allocator@D@2@@std@@_N@Z 20135300 f   PairDump.obj
 0001:00134410       ?addSection@PairDump@str@@QAEXV?$basic_string@DU?$char_traits@D@std@@V?$allocator@D@2@@std@@@Z 20135410 f   PairDump.obj
 0001:00134610       ?clear@PairDump@str@@QAEXXZ 20135610 f   PairDump.obj
 0001:00134820       ?dump@PairDump@str@@QAEXAAV?$basic_ostream@DU?$char_traits@D@std@@@std@@@Z 20135820 f   PairDump.obj
 0001:00134a30       ?dump@PairDump@str@@QAEXABV12@AAV?$basic_ostream@DU?$char_traits@D@std@@@std@@@Z 20135a30 f   PairDump.obj
 0001:001353b0       ?left@std@@YAAAVios_base@1@AAV21@@Z 201363b0 f i PairDump.obj
 0001:001353d0       ?push_back@?$list@UData@PairDump@str@@V?$allocator@UData@PairDump@str@@@std@@@std@@QAEXABUData@PairDump@str@@@Z 201363d0 f i PairDump.obj
 0001:001354a0       ?append@?$basic_string@DU?$char_traits@D@std@@V?$allocator@D@2@@std@@QAEAAV12@ID@Z 201364a0 f i util.obj
 0001:00135520       ?etAlignLeft@str@@YAAAV?$basic_string@DU?$char_traits@D@std@@V?$allocator@D@2@@std@@ABV23@IAAV23@@Z 20136520 f   util.obj
 0001:001355a0       ?etAlignRight@str@@YAAAV?$basic_string@DU?$char_traits@D@std@@V?$allocator@D@2@@std@@ABV23@IAAV23@@Z 201365a0 f   util.obj
 0001:00135670       ?etDecolorize@str@@YAAAV?$basic_string@DU?$char_traits@D@std@@V?$allocator@D@2@@std@@AAV23@@Z 20136670 f   util.obj
 0001:001357e0       ?etLength@str@@YAIABV?$basic_string@DU?$char_traits@D@std@@V?$allocator@D@2@@std@@@Z 201367e0 f   util.obj
 0001:001358a0       ?etTruncate@str@@YA?AV?$basic_string@DU?$char_traits@D@std@@V?$allocator@D@2@@std@@ABV23@I@Z 201368a0 f   util.obj
 0001:00135950       ?etTruncate@str@@YAAAV?$basic_string@DU?$char_traits@D@std@@V?$allocator@D@2@@std@@AAV23@I@Z 20136950 f   util.obj
 0001:00135ac0       ?toHexString@str@@YA?AV?$basic_string@DU?$char_traits@D@std@@V?$allocator@D@2@@std@@I@Z 20136ac0 f   util.obj
 0001:00135b90       ?toHexString@str@@YAAAV?$basic_string@DU?$char_traits@D@std@@V?$allocator@D@2@@std@@IAAV23@@Z 20136b90 f   util.obj
 0001:00135da0       ?toSeconds@str@@YAHABV?$basic_string@DU?$char_traits@D@std@@V?$allocator@D@2@@std@@_N@Z 20136da0 f   util.obj
 0001:00136260       ?toString@str@@YA?AV?$basic_string@DU?$char_traits@D@std@@V?$allocator@D@2@@std@@AAY02$$CBM@Z 20137260 f   util.obj
 0001:00136330       ?toString@str@@YA?AV?$basic_string@DU?$char_traits@D@std@@V?$allocator@D@2@@std@@PBX@Z 20137330 f   util.obj
 0001:00136400       ?toString@str@@YA?AV?$basic_string@DU?$char_traits@D@std@@V?$allocator@D@2@@std@@W4entityType_t@@@Z 20137400 f   util.obj
 0001:001364d0       ?toString@str@@YA?AV?$basic_string@DU?$char_traits@D@std@@V?$allocator@D@2@@std@@W4gamestate_t@@@Z 201374d0 f   util.obj
 0001:001365a0       ?toString@str@@YA?AV?$basic_string@DU?$char_traits@D@std@@V?$allocator@D@2@@std@@W4gametype_t@@@Z 201375a0 f   util.obj
 0001:00136670       ?toString@str@@YA?AV?$basic_string@DU?$char_traits@D@std@@V?$allocator@D@2@@std@@W4team_t@@@Z 20137670 f   util.obj
 0001:00136740       ?toString@str@@YA?AV?$basic_string@DU?$char_traits@D@std@@V?$allocator@D@2@@std@@W4trType_t@@@Z 20137740 f   util.obj
 0001:00136810       ?toString@str@@YA?AV?$basic_string@DU?$char_traits@D@std@@V?$allocator@D@2@@std@@W4weapon_t@@@Z 20137810 f   util.obj
 0001:001368e0       ?toString@str@@YAAAV?$basic_string@DU?$char_traits@D@std@@V?$allocator@D@2@@std@@AAY02$$CBMAAV23@@Z 201378e0 f   util.obj
 0001:00136bd0       ?toString@str@@YAAAV?$basic_string@DU?$char_traits@D@std@@V?$allocator@D@2@@std@@PBXAAV23@@Z 20137bd0 f   util.obj
 0001:00136be0       ?toString@str@@YAAAV?$basic_string@DU?$char_traits@D@std@@V?$allocator@D@2@@std@@W4entityType_t@@AAV23@@Z 20137be0 f   util.obj
 0001:00138120       ?toString@str@@YAAAV?$basic_string@DU?$char_traits@D@std@@V?$allocator@D@2@@std@@W4gamestate_t@@AAV23@@Z 20139120 f   util.obj
 0001:001383b0       ?toString@str@@YAAAV?$basic_string@DU?$char_traits@D@std@@V?$allocator@D@2@@std@@W4gametype_t@@AAV23@@Z 201393b0 f   util.obj
 0001:001385c0       ?toString@str@@YAAAV?$basic_string@DU?$char_traits@D@std@@V?$allocator@D@2@@std@@W4team_t@@AAV23@@Z 201395c0 f   util.obj
 0001:001387d0       ?toString@str@@YAAAV?$basic_string@DU?$char_traits@D@std@@V?$allocator@D@2@@std@@W4trType_t@@AAV23@@Z 201397d0 f   util.obj
 0001:001394f0       ?toString@str@@YAAAV?$basic_string@DU?$char_traits@D@std@@V?$allocator@D@2@@std@@W4weapon_t@@AAV23@@Z 2013a4f0 f   util.obj
 0001:0013a870       ?toStringSecondsRemaining@str@@YA?AV?$basic_string@DU?$char_traits@D@std@@V?$allocator@D@2@@std@@H_N@Z 2013b870 f   util.obj
 0001:0013a940       ?toStringSecondsRemaining@str@@YAAAV?$basic_string@DU?$char_traits@D@std@@V?$allocator@D@2@@std@@HAAV23@_N@Z 2013b940 f   util.obj
 0001:0013acf0       ??0Cvar@cvar@@QAE@ABV?$basic_string@DU?$char_traits@D@std@@V?$allocator@D@2@@std@@0HP6AXAAV01@@Z_N@Z 2013bcf0 f   Cvar.obj
 0001:0013ae00       ??1?$_Alloc_construct_ptr@V?$allocator@U?$_List_node@PAVCvar@cvar@@PAX@std@@@std@@@std@@QAE@XZ 2013be00 f i Cvar.obj
 0001:0013ae20       ??1Cvar@cvar@@QAE@XZ       2013be20 f   Cvar.obj
 0001:0013af00       ?getUpdateList@Cvar@cvar@@SAABV?$list@PAVCvar@cvar@@V?$allocator@PAVCvar@cvar@@@std@@@std@@XZ 2013bf00 f   Cvar.obj
 0001:0013af10       ?init@Cvar@cvar@@SAXXZ     2013bf10 f   Cvar.obj
 0001:0013af60       ?push_back@?$list@PAVCvar@cvar@@V?$allocator@PAVCvar@cvar@@@std@@@std@@QAEX$$QAPAVCvar@cvar@@@Z 2013bf60 f i Cvar.obj
 0001:0013b000       ?set@Cvar@cvar@@QAEXABV?$basic_string@DU?$char_traits@D@std@@V?$allocator@D@2@@std@@@Z 2013c000 f   Cvar.obj
 0001:0013b050       ?set@Cvar@cvar@@QAEXH@Z    2013c050 f   Cvar.obj
 0001:0013b1f0       ?set@Cvar@cvar@@QAEXM@Z    2013c1f0 f   Cvar.obj
 0001:0013b390       ?trapRegister@Cvar@cvar@@AAEXXZ 2013c390 f   Cvar.obj
 0001:0013b3e0       ?trapUpdate@Cvar@cvar@@AAEXXZ 2013c3e0 f   Cvar.obj
 0001:0013b440       ??1?$list@PAV?$basic_string@DU?$char_traits@D@std@@V?$allocator@D@2@@std@@V?$allocator@PAV?$basic_string@DU?$char_traits@D@std@@V?$allocator@D@2@@std@@@2@@std@@QAE@XZ 2013c440 f i loader.obj
 0001:0013b490       ??1?$set@V?$basic_string@DU?$char_traits@D@std@@V?$allocator@D@2@@std@@U?$less@V?$basic_string@DU?$char_traits@D@std@@V?$allocator@D@2@@std@@@2@V?$allocator@V?$basic_string@DU?$char_traits@D@std@@V?$allocator@D@2@@std@@@2@@std@@QAE@XZ 2013c490 f i loader.obj
 0001:0013b4c0       ??_H@YGXPAXIIP6EPAX0@Z@Z   2013c4c0 f i loader.obj
 0001:0013b4f0       ?Omnibot_FreeLibrary@@YAXXZ 2013c4f0 f   loader.obj
 0001:0013b560       ?Omnibot_LoadLibrary@@YA?AW4eomnibot_error@@HPBD0@Z 2013c560 f   loader.obj
 0001:0013c120       ??0KeyVals@@QAE@XZ         2013d120 f   BotLoadLibrary.obj
 0001:0013c150       ??0obUserData_t@@QAE@XZ    2013d150 f i BotLoadLibrary.obj
 0001:0013c160       ?GetEntity@KeyVals@@QBE_NPBDAAVGameEntity@@@Z 2013d160 f   BotLoadLibrary.obj
 0001:0013c1a0       ?GetFloat@KeyVals@@QBE_NPBDAAM@Z 2013d1a0 f   BotLoadLibrary.obj
 0001:0013c1e0       ?GetInt@KeyVals@@QBE_NPBDAAH@Z 2013d1e0 f   BotLoadLibrary.obj
 0001:0013c220       ?GetKV@KeyVals@@QBEXHAAPBDAAUobUserData_t@@@Z 2013d220 f   BotLoadLibrary.obj
 0001:0013c260       ?GetKeyVal@KeyVals@@ABE_NPBDAAUobUserData_t@@@Z 2013d260 f   BotLoadLibrary.obj
 0001:0013c2d0       ?GetString@KeyVals@@QBE_NPBDAAPBD@Z 2013d2d0 f   BotLoadLibrary.obj
 0001:0013c310       ?GetVector@KeyVals@@QBE_NPBDAAM11@Z 2013d310 f   BotLoadLibrary.obj
 0001:0013c370       ?GetVector@KeyVals@@QBE_NPBDPAM@Z 2013d370 f   BotLoadLibrary.obj
 0001:0013c3d0       ?IsOmnibotLoaded@@YA_NXZ   2013d3d0 f   BotLoadLibrary.obj
 0001:0013c3e0       ?Omnibot_ErrorString@@YAPBDW4eomnibot_error@@@Z 2013d3e0 f   BotLoadLibrary.obj
 0001:0013c410       ?Omnibot_FixPath@@YAPBDPBD@Z 2013d410 f   BotLoadLibrary.obj
 0001:0013c470       ?Omnibot_GetLibraryPath@@YAPBDXZ 2013d470 f   BotLoadLibrary.obj
 0001:0013c490       ?Omnibot_strncpy@@YAXPADPBDH@Z 2013d490 f   BotLoadLibrary.obj
 0001:0013c4e0       ?Reset@KeyVals@@QAEXXZ     2013d4e0 f   BotLoadLibrary.obj
 0001:0013c530       ?Set@KeyVals@@QAE_NPBDABUobUserData_t@@@Z 2013d530 f   BotLoadLibrary.obj
 0001:0013c540       ?SetEntity@KeyVals@@QAE_NPBDVGameEntity@@@Z 2013d540 f   BotLoadLibrary.obj
 0001:0013c570       ?SetFloat@KeyVals@@QAE_NPBDM@Z 2013d570 f   BotLoadLibrary.obj
 0001:0013c5b0       ?SetInt@KeyVals@@QAE_NPBDH@Z 2013d5b0 f   BotLoadLibrary.obj
 0001:0013c5e0       ?SetKeyVal@KeyVals@@AAE_NPBDABUobUserData_t@@@Z 2013d5e0 f   BotLoadLibrary.obj
 0001:0013c6b0       ?SetString@KeyVals@@QAE_NPBD0@Z 2013d6b0 f   BotLoadLibrary.obj
 0001:0013c740       ?SetVector@KeyVals@@QAE_NPBDMMM@Z 2013d740 f   BotLoadLibrary.obj
 0001:0013c790       ?SetVector@KeyVals@@QAE_NPBDPBM@Z 2013d790 f   BotLoadLibrary.obj
 0001:0013c7f0       ??0GameEntity@@QAE@XZ      2013d7f0 f i g_etbot_interface.obj
 0001:0013c810       ??0MapGoalDef_t@@QAE@XZ    2013d810 f i g_etbot_interface.obj
 0001:0013c830       ??1IEngineInterface@@UAE@XZ 2013d830 f i g_etbot_interface.obj
 0001:0013c840       ??_EETInterface@@UAEPAXI@Z 2013d840 f i g_etbot_interface.obj
 0001:0013c840       ??_GETInterface@@UAEPAXI@Z 2013d840 f i g_etbot_interface.obj
 0001:0013c870       ??_EIEngineInterface@@UAEPAXI@Z 2013d870 f i g_etbot_interface.obj
 0001:0013c870       ??_GIEngineInterface@@UAEPAXI@Z 2013d870 f i g_etbot_interface.obj
 0001:0013c8a0       ?AddBot@ETInterface@@UAEHABVMessageHelper@@@Z 2013d8a0 f i g_etbot_interface.obj
 0001:0013ce60       ?AddDeferredGoal@@YAXPAUgentity_s@@@Z 2013de60 f   g_etbot_interface.obj
 0001:0013cfc0       ?BotCommand@ETInterface@@UAEXHPBD@Z 2013dfc0 f i g_etbot_interface.obj
 0001:0013cfe0       ?Bot_AddDynamiteGoal@@YAXPAUgentity_s@@HPBD@Z 2013dfe0 f   g_etbot_interface.obj
 0001:0013d020       ?Bot_AddFallenTeammateGoals@@YAXPAUgentity_s@@H@Z 2013e020 f   g_etbot_interface.obj
 0001:0013d090       ?Bot_EntInvisibleBySmokeBomb@@YAPAUgentity_s@@QAM0@Z 2013e090 f   g_etbot_interface.obj
 0001:0013d1c0       ?Bot_Event_AddWeapon@@YAXHH@Z 2013e1c0 f   g_etbot_interface.obj
 0001:0013d400       ?Bot_Event_ChatMessage@@YAXHPAUgentity_s@@HPBD@Z 2013e400 f   g_etbot_interface.obj
 0001:0013d510       ?Bot_Event_ClientConnected@@YAXHW4qboolean@@@Z 2013e510 f   g_etbot_interface.obj
 0001:0013d580       ?Bot_Event_ClientDisConnected@@YAXH@Z 2013e580 f   g_etbot_interface.obj
 0001:0013d5d0       ?Bot_Event_Death@@YAXHPAUgentity_s@@PBD@Z 2013e5d0 f   g_etbot_interface.obj
 0001:0013d680       ?Bot_Event_EntityCreated@@YAXPAUgentity_s@@@Z 2013e680 f   g_etbot_interface.obj
 0001:0013d7b0       ?Bot_Event_EntityDeleted@@YAXPAUgentity_s@@@Z 2013e7b0 f   g_etbot_interface.obj
 0001:0013d890       ?Bot_Event_FireTeamCreated@@YAXHH@Z 2013e890 f   g_etbot_interface.obj
 0001:0013d900       ?Bot_Event_FireTeamDestroyed@@YAXH@Z 2013e900 f   g_etbot_interface.obj
 0001:0013d970       ?Bot_Event_FireTeam_Proposal@@YAXHH@Z 2013e970 f   g_etbot_interface.obj
 0001:0013da00       ?Bot_Event_FireTeam_Warn@@YAXHH@Z 2013ea00 f   g_etbot_interface.obj
 0001:0013da80       ?Bot_Event_FireWeapon@@YAXHHPAUgentity_s@@@Z 2013ea80 f   g_etbot_interface.obj
 0001:0013db10       ?Bot_Event_Healed@@YAXHPAUgentity_s@@@Z 2013eb10 f   g_etbot_interface.obj
 0001:0013db90       ?Bot_Event_InviteFireTeam@@YAXHH@Z 2013eb90 f   g_etbot_interface.obj
 0001:0013dc20       ?Bot_Event_JoinedFireTeam@@YAXHPAUgentity_s@@@Z 2013ec20 f   g_etbot_interface.obj
 0001:0013dca0       ?Bot_Event_KilledSomeone@@YAXHPAUgentity_s@@PBD@Z 2013eca0 f   g_etbot_interface.obj
 0001:0013dd50       ?Bot_Event_LeftFireTeam@@YAXH@Z 2013ed50 f   g_etbot_interface.obj
 0001:0013ddc0       ?Bot_Event_MortarImpact@@YAXHQAM@Z 2013edc0 f   g_etbot_interface.obj
 0001:0013de40       ?Bot_Event_PostTriggerMine@@YAXHPAUgentity_s@@@Z 2013ee40 f   g_etbot_interface.obj
 0001:0013dec0       ?Bot_Event_PreTriggerMine@@YAXHPAUgentity_s@@@Z 2013eec0 f   g_etbot_interface.obj
 0001:0013df40       ?Bot_Event_RecievedAmmo@@YAXHPAUgentity_s@@@Z 2013ef40 f   g_etbot_interface.obj
 0001:0013dfc0       ?Bot_Event_RemoveWeapon@@YAXHH@Z 2013efc0 f   g_etbot_interface.obj
 0001:0013e030       ?Bot_Event_ResetWeapons@@YAXH@Z 2013f030 f   g_etbot_interface.obj
 0001:0013e0a0       ?Bot_Event_Revived@@YAXHPAUgentity_s@@@Z 2013f0a0 f   g_etbot_interface.obj
 0001:0013e120       ?Bot_Event_Sound@@YAXPAUgentity_s@@HPBD@Z 2013f120 f   g_etbot_interface.obj
 0001:0013e200       ?Bot_Event_Spectated@@YAXHH@Z 2013f200 f   g_etbot_interface.obj
 0001:0013e270       ?Bot_Event_TakeDamage@@YAXHPAUgentity_s@@@Z 2013f270 f   g_etbot_interface.obj
 0001:0013e2f0       ?Bot_Event_VoiceMacro@@YAXHPAUgentity_s@@HPBD@Z 2013f2f0 f   g_etbot_interface.obj
 0001:0013e680       ?Bot_Interface_ConsoleCommand@@YAXXZ 2013f680 f   g_etbot_interface.obj
 0001:0013e810       ?Bot_Interface_Init@@YAHXZ 2013f810 f   g_etbot_interface.obj
 0001:0013e8b0       ?Bot_Interface_InitHandles@@YAXXZ 2013f8b0 f   g_etbot_interface.obj
 0001:0013e920       ?Bot_Interface_Shutdown@@YAHXZ 2013f920 f   g_etbot_interface.obj
 0001:0013e940       ?Bot_Interface_Update@@YAXXZ 2013f940 f   g_etbot_interface.obj
 0001:0013ed10       ?Bot_PlayerClassGameToBot@@YAHH@Z 2013fd10 f   g_etbot_interface.obj
 0001:0013ed80       ?Bot_Queue_EntityCreated@@YAXPAUgentity_s@@@Z 2013fd80 f   g_etbot_interface.obj
 0001:0013edc0       ?Bot_TeamGameToBot@@YAHH@Z 2013fdc0 f   g_etbot_interface.obj
 0001:0013ee00       ?Bot_Util_AddGoal@@YAXPBDPAUgentity_s@@H00PAUobUserData_t@@@Z 2013fe00 f   g_etbot_interface.obj
 0001:0013ef00       ?Bot_Util_AllowPush@@YA?AW4qboolean@@H@Z 2013ff00 f   g_etbot_interface.obj
 0001:0013ef20       ?Bot_Util_CheckForGoalEntity@@YAXVGameEntity@@@Z 2013ff20 f   g_etbot_interface.obj
 0001:0013f0f0       ?Bot_Util_CheckForSuicide@@YA?AW4qboolean@@PAUgentity_s@@@Z 201400f0 f   g_etbot_interface.obj
 0001:0013f1b0       ?Bot_Util_SendTrigger@@YAXPAUgentity_s@@0PBD1@Z 201401b0 f   g_etbot_interface.obj
 0001:0013f260       ?Bot_WeaponGameToBot@@YAHH@Z 20140260 f   g_etbot_interface.obj
 0001:0013f540       ?ChangeClass@ETInterface@@UAE?AW4eobResult@@HHPBVMessageHelper@@@Z 20140540 f i g_etbot_interface.obj
 0001:0013f900       ?ChangeTeam@ETInterface@@UAE?AW4eobResult@@HHPBVMessageHelper@@@Z 20140900 f i g_etbot_interface.obj
 0001:0013fb40       ?CheckForMG42@@YAXPAUgentity_s@@PBD@Z 20140b40 f   g_etbot_interface.obj
 0001:0013fcb0       ?DebugArrow@IEngineInterface@@UAE_NQBM0ABVobColor@@M@Z 20140cb0 f i g_etbot_interface.obj
 0001:0013fce0       ?DebugBox@IEngineInterface@@UAE_NQBM0ABVobColor@@M@Z 20140ce0 f i g_etbot_interface.obj
 0001:0013fcf0       ?DebugLine@ETInterface@@UAE_NQBM0ABVobColor@@M@Z 20140cf0 f i g_etbot_interface.obj
 0001:0013fd00       ?DebugLine@IEngineInterface@@UAE_NQBM0ABVobColor@@M@Z 20140d00 f i g_etbot_interface.obj
 0001:0013fd10       ?DebugPolygon@IEngineInterface@@UAE_NPBUobVec3@@HABVobColor@@MH@Z 20140d10 f i g_etbot_interface.obj
 0001:0013fd20       ?DebugRadius@ETInterface@@UAE_NQBMMABVobColor@@M@Z 20140d20 f i g_etbot_interface.obj
 0001:0013fd30       ?DebugRadius@IEngineInterface@@UAE_NQBMMABVobColor@@M@Z 20140d30 f i g_etbot_interface.obj
 0001:0013fd40       ?DeleteMapGoal@@YAXPAD@Z   20140d40 f   g_etbot_interface.obj
 0001:0013fd50       ?DoesEntityStillExist@ETInterface@@UAE_NABVGameEntity@@@Z 20140d50 f i g_etbot_interface.obj
 0001:0013fd80       ?ENTINDEX@@YAHPAUgentity_s@@@Z 20140d80 f   g_etbot_interface.obj
 0001:0013fdb0       ?EntityByName@ETInterface@@UAE?AVGameEntity@@PBD@Z 20140db0 f i g_etbot_interface.obj
 0001:0013fde0       ?EntityFromHandle@@YAPAUgentity_s@@VGameEntity@@@Z 20140de0 f   g_etbot_interface.obj
 0001:0013fe40       ?EntityFromID@ETInterface@@UAE?AVGameEntity@@H@Z 20140e40 f i g_etbot_interface.obj
 0001:0013fea0       ?FindEntityInSphere@ETInterface@@UAE?AVGameEntity@@QBMMV2@H@Z 20140ea0 f i g_etbot_interface.obj
 0001:00140190       ?GetAutoNavFeatures@ETInterface@@UAEHPAUAutoNavFeature_t@@H@Z 20141190 f i g_etbot_interface.obj
 0001:00140520       ?GetBotPath@ETInterface@@UAEPBDXZ 20141520 f i g_etbot_interface.obj
 0001:00140530       ?GetCurrentAmmo@ETInterface@@UAE?AW4eobResult@@VGameEntity@@HW4eFireMode@@AAH2@Z 20141530 f i g_etbot_interface.obj
 0001:00140670       ?GetCurrentWeaponClip@ETInterface@@UAE?AW4eobResult@@VGameEntity@@W4eFireMode@@AAH2@Z 20141670 f i g_etbot_interface.obj
 0001:00140770       ?GetEntityBonePosition@ETInterface@@UAE?AW4eobResult@@VGameEntity@@HQAM@Z 20141770 f i g_etbot_interface.obj
 0001:00140790       ?GetEntityCategory@ETInterface@@UAE?AW4eobResult@@VGameEntity@@AAVBitFlag32@@@Z 20141790 f i g_etbot_interface.obj
 0001:00140d30       ?GetEntityCenter@@YAXPAUgentity_s@@QAM@Z 20141d30 f   g_etbot_interface.obj
 0001:00140dd0       ?GetEntityClass@ETInterface@@UAEHVGameEntity@@@Z 20141dd0 f i g_etbot_interface.obj
 0001:00140e10       ?GetEntityEyePosition@ETInterface@@UAE?AW4eobResult@@VGameEntity@@QAM@Z 20141e10 f i g_etbot_interface.obj
 0001:00140e80       ?GetEntityFlags@ETInterface@@UAE?AW4eobResult@@VGameEntity@@AAVBitFlag64@@@Z 20141e80 f i g_etbot_interface.obj
 0001:001414a0       ?GetEntityGroundEntity@ETInterface@@UAE?AW4eobResult@@VGameEntity@@AAV3@@Z 201424a0 f i g_etbot_interface.obj
 0001:00141510       ?GetEntityLocalAABB@ETInterface@@UAE?AW4eobResult@@VGameEntity@@AAUAABB_t@@@Z 20142510 f i g_etbot_interface.obj
 0001:00141650       ?GetEntityName@ETInterface@@UAEPBDVGameEntity@@@Z 20142650 f i g_etbot_interface.obj
 0001:00141680       ?GetEntityOrientation@ETInterface@@UAE?AW4eobResult@@VGameEntity@@QAM11@Z 20142680 f i g_etbot_interface.obj
 0001:001416f0       ?GetEntityOwner@ETInterface@@UAE?AVGameEntity@@V2@@Z 201426f0 f i g_etbot_interface.obj
 0001:00141900       ?GetEntityPosition@ETInterface@@UAE?AW4eobResult@@VGameEntity@@QAM@Z 20142900 f i g_etbot_interface.obj
 0001:00141aa0       ?GetEntityPowerups@ETInterface@@UAE?AW4eobResult@@VGameEntity@@AAVBitFlag64@@@Z 20142aa0 f i g_etbot_interface.obj
 0001:00141ab0       ?GetEntityTeam@ETInterface@@UAEHVGameEntity@@@Z 20142ab0 f i g_etbot_interface.obj
 0001:00141af0       ?GetEntityVelocity@ETInterface@@UAE?AW4eobResult@@VGameEntity@@QAM@Z 20142af0 f i g_etbot_interface.obj
 0001:00141bf0       ?GetEntityWorldAABB@ETInterface@@UAE?AW4eobResult@@VGameEntity@@AAUAABB_t@@@Z 20142bf0 f i g_etbot_interface.obj
 0001:00141e20       ?GetEntityWorldOBB@ETInterface@@UAE?AW4eobResult@@VGameEntity@@PAM1111@Z 20142e20 f i g_etbot_interface.obj
 0001:00142060       ?GetGameName@ETInterface@@UAEPBDXZ 20143060 f i g_etbot_interface.obj
 0001:00142070       ?GetGameTime@ETInterface@@UAEHXZ 20143070 f i g_etbot_interface.obj
 0001:00142080       ?GetGoals@ETInterface@@UAEXXZ 20143080 f i g_etbot_interface.obj
 0001:00142a20       ?GetLocalGameEntity@ETInterface@@UAE?AVGameEntity@@XZ 20143a20 f i g_etbot_interface.obj
 0001:00142a40       ?GetLogPath@ETInterface@@UAEPBDXZ 20143a40 f i g_etbot_interface.obj
 0001:00142a70       ?GetMG42s@@YAXXZ           20143a70 f   g_etbot_interface.obj
 0001:00142b70       ?GetMapExtents@ETInterface@@UAEXAAUAABB_t@@@Z 20143b70 f i g_etbot_interface.obj
 0001:00142c40       ?GetMapName@ETInterface@@UAEPBDXZ 20143c40 f i g_etbot_interface.obj
 0001:00142c50       ?GetModName@ETInterface@@UAEPBDXZ 20143c50 f i g_etbot_interface.obj
 0001:00142c60       ?GetModVers@ETInterface@@UAEPBDXZ 20143c60 f i g_etbot_interface.obj
 0001:00142c70       ?GetPlayerInfo@ETInterface@@UAEXAAVobPlayerInfo@@@Z 20143c70 f i g_etbot_interface.obj
 0001:00142d60       ?GetPointContents@ETInterface@@UAEHQBM@Z 20143d60 f i g_etbot_interface.obj
 0001:00142da0       ?HandleFromEntity@@YA?AVGameEntity@@PAUgentity_s@@@Z 20143da0 f   g_etbot_interface.obj
 0001:00142e00       ?IDFromEntity@ETInterface@@UAEHVGameEntity@@@Z 20143e00 f i g_etbot_interface.obj
 0001:00142e60       ?INDEXENT@@YAPAUgentity_s@@H@Z 20143e60 f   g_etbot_interface.obj
 0001:00142eb0       ?InFieldOfVision@@YA?AW4qboolean@@QAMM0@Z 20143eb0 f   g_etbot_interface.obj
 0001:00142fd0       ?InterfaceSendMessage@ETInterface@@UAE?AW4eobResult@@ABVMessageHelper@@VGameEntity@@@Z 20143fd0 f i g_etbot_interface.obj
 0001:00145070       ?IsBot@@YA_NPAUgentity_s@@@Z 20146070 f   g_etbot_interface.obj
 0001:00145090       ?IsInPVS@ETInterface@@UAE?AW4eobBool@@QBM0@Z 20146090 f i g_etbot_interface.obj
 0001:001450c0       ?IsZero@AABB_t@@QBE_NXZ    201460c0 f i g_etbot_interface.obj
 0001:00145100       ?Omnibot_Load_PrintErr@@YAXPBD@Z 20146100 f   g_etbot_interface.obj
 0001:00145120       ?Omnibot_Load_PrintMsg@@YAXPBD@Z 20146120 f   g_etbot_interface.obj
 0001:00145140       ?PrintError@ETInterface@@UAEXPBD@Z 20146140 f i g_etbot_interface.obj
 0001:00145170       ?PrintMessage@ETInterface@@UAEXPBD@Z 20146170 f i g_etbot_interface.obj
 0001:00145210       ?PrintScreenText@IEngineInterface@@UAE_NQBMMABVobColor@@PBD@Z 20146210 f i g_etbot_interface.obj
 0001:001452b0       ?RemoveBot@ETInterface@@UAEXABVMessageHelper@@@Z 201462b0 f i g_etbot_interface.obj
 0001:001453f0       ?SendDeferredGoals@@YAXXZ  201463f0 f   g_etbot_interface.obj
 0001:00145440       ?Simple_EmplacedGunIsRepairable@@YA?AW4qboolean@@PAUgentity_s@@@Z 20146440 f   g_etbot_interface.obj
 0001:00145480       ?TraceLine@ETInterface@@UAE?AW4eobResult@@AAVobTraceResult@@QBM1PBUAABB_t@@HHW4eobBool@@@Z 20146480 f i g_etbot_interface.obj
 0001:00145700       ?UpdateBotInput@ETInterface@@UAEXHABUClientInput@@@Z 20146700 f i g_etbot_interface.obj
 0001:00145cf0       ?UpdateGoalEntity@@YAXPAUgentity_s@@0@Z 20146cf0 f   g_etbot_interface.obj
 0001:00145d40       ?UpdateMG42@@YAXPAUgentity_s@@@Z 20146d40 f   g_etbot_interface.obj
 0001:00145ed0       ?_EmplacedGunIsMountable@@YA?AW4qboolean@@PAUgentity_s@@@Z 20146ed0 f   g_etbot_interface.obj
 0001:00146430       ?_GetEntityName@@YAPBDPAUgentity_s@@@Z 20147430 f   g_etbot_interface.obj
 0001:001466f0       ?_TankIsMountable@@YA?AW4qboolean@@PAUgentity_s@@@Z 201476f0 f   g_etbot_interface.obj
 0001:00146d40       ?obUtilBotContentsFromGameContents@@YAHH@Z 20147d40 f   g_etbot_interface.obj
 0001:00146de0       ?obUtilBotSurfaceFromGameSurface@@YAHH@Z 20147de0 f   g_etbot_interface.obj
 0001:00147360       ??$_Resize_reallocate@U_Value_init_tag@std@@@?$vector@V?$basic_string@DU?$char_traits@D@std@@V?$allocator@D@2@@std@@V?$allocator@V?$basic_string@DU?$char_traits@D@std@@V?$allocator@D@2@@std@@@2@@std@@AAEXIABU_Value_init_tag@1@@Z 20148360 f i Engine1.obj
 0001:00147570       ??$_Uninitialized_value_construct_n@V?$allocator@V?$basic_string@DU?$char_traits@D@std@@V?$allocator@D@2@@std@@@std@@@std@@YAPAV?$basic_string@DU?$char_traits@D@std@@V?$allocator@D@2@@0@PAV10@IAAV?$allocator@V?$basic_string@DU?$char_traits@D@std@@V?$allocator@D@2@@std@@@0@@Z 20148570 f i Engine1.obj
 0001:001475d0       ?argc@Engine@@SAIXZ        201485d0 f   Engine1.obj
 0001:001475e0       ?argl@Engine@@SAIAAV?$basic_string@DU?$char_traits@D@std@@V?$allocator@D@2@@std@@@Z 201485e0 f   Engine1.obj
 0001:00147aa0       ?args@Engine@@SAIAAV?$vector@V?$basic_string@DU?$char_traits@D@std@@V?$allocator@D@2@@std@@V?$allocator@V?$basic_string@DU?$char_traits@D@std@@V?$allocator@D@2@@std@@@2@@std@@@Z 20148aa0 f   Engine1.obj
 0001:00147bd0       ?argv@Engine@@SAIIAAV?$basic_string@DU?$char_traits@D@std@@V?$allocator@D@2@@std@@@Z 20148bd0 f   Engine1.obj
 0001:00148060       ?commandForName@cmd@@YAPAVAbstractCommand@1@ABV?$basic_string@DU?$char_traits@D@std@@V?$allocator@D@2@@std@@@Z 20149060 f   util3.obj
 0001:00148280       ?entityHasPermission@cmd@@YA_NPBUgentity_s@@ABVPrivilege@@@Z 20149280 f   util3.obj
 0001:001482d0       ?erase@?$vector@V?$basic_string@DU?$char_traits@D@std@@V?$allocator@D@2@@std@@V?$allocator@V?$basic_string@DU?$char_traits@D@std@@V?$allocator@D@2@@std@@@2@@std@@QAE?AV?$_Vector_iterator@V?$_Vector_val@U?$_Simple_types@V?$basic_string@DU?$char_traits@D@std@@V?$allocator@D@2@@std@@@std@@@std@@@2@V?$_Vector_const_iterator@V?$_Vector_val@U?$_Simple_types@V?$basic_string@DU?$char_traits@D@std@@V?$allocator@D@2@@std@@@std@@@std@@@2@@Z 201492d0 f i util3.obj
 0001:001483c0       ?levelForEntity@cmd@@YAHPBUgentity_s@@@Z 201493c0 f   util3.obj
 0001:00148410       ?lockTeams@cmd@@YA?AW4PostAction@AbstractCommand@1@PAVClient@@ABV?$vector@V?$basic_string@DU?$char_traits@D@std@@V?$allocator@D@2@@std@@V?$allocator@V?$basic_string@DU?$char_traits@D@std@@V?$allocator@D@2@@std@@@2@@std@@AAVBuffer@text@@_N@Z 20149410 f   util3.obj
 0001:001488f0       ?matchClient@cmd@@YA_NABV?$basic_string@DU?$char_traits@D@std@@V?$allocator@D@2@@std@@AAPAVClient@@AAVBuffer@text@@@Z 201498f0 f   util3.obj
 0001:00148a50       ?matchClients@cmd@@YA_NABV?$basic_string@DU?$char_traits@D@std@@V?$allocator@D@2@@std@@AAV?$vector@PAVClient@@V?$allocator@PAVClient@@@std@@@3@AAVBuffer@text@@@Z 20149a50 f   util3.obj
 0001:00148a90       ?print@cmd@@YAXPAVClient@@ABVBuffer@text@@_N@Z 20149a90 f   util3.obj
 0001:00148e50       ?printChat@cmd@@YAXPAVClient@@ABVBuffer@text@@_N@Z 20149e50 f   util3.obj
 0001:00149210       ?printCpm@cmd@@YAXPAVClient@@ABVBuffer@text@@_N@Z 2014a210 f   util3.obj
 0001:001495d0       ?printPm@cmd@@YAXPAVClient@@ABVBuffer@text@@_N@Z 2014a5d0 f   util3.obj
 0001:00149690       ?process@cmd@@YA_NPAVClient@@_NPAV?$basic_string@DU?$char_traits@D@std@@V?$allocator@D@2@@std@@@Z 2014a690 f   util3.obj
 0001:00149930       ?toDropMessage@str@@YA?AV?$basic_string@DU?$char_traits@D@std@@V?$allocator@D@2@@std@@_NABVBuffer@text@@ABV23@@Z 2014a930 f   util4.obj
 0001:00149a00       ?toDropMessage@str@@YAAAV?$basic_string@DU?$char_traits@D@std@@V?$allocator@D@2@@std@@AAV23@_NABVBuffer@text@@ABV23@@Z 2014aa00 f   util4.obj
 0001:00149ed0       ?update@Cvar@cvar@@SAXXZ   2014aed0 f   Cvar1.obj
 0001:00149f00       ??$_Reallocate_grow_by@V<lambda_85517ab703ea785b5b4017903d7ebe1a>@@IIPBDI@?$basic_string@DU?$char_traits@D@std@@V?$allocator@D@2@@std@@AAEAAV01@IV<lambda_85517ab703ea785b5b4017903d7ebe1a>@@IIPBDI@Z 2014af00 f i util6.obj
 0001:0014a0c0       ??$_Replace@D@?$basic_string@DU?$char_traits@D@std@@V?$allocator@D@2@@std@@AAEAAV01@IIQBDI@Z 2014b0c0 f i util6.obj
 0001:0014a280       ?cb_g_kickTime@cvar@@YAXAAVCvar@1@@Z 2014b280 f   util6.obj
 0001:0014a5a0       ?cb_g_warmup@cvar@@YAXAAVCvar@1@@Z 2014b5a0 f   util6.obj
 0001:0014a5f0       ?beginCriticalSection@Process@@QAEXXZ 2014b5f0 f   cgameProcess.obj
 0001:0014a600       ?endCriticalSection@Process@@QAEXXZ 2014b600 f   cgameProcess.obj
 0001:0014a610       ?mstime@Process@@QAE_KXZ   2014b610 f   cgameProcess.obj
 0001:0014a6a0       ?signalInit@Process@@AAEXXZ 2014b6a0 f   cgameProcess.obj
 0001:0014a6b0       ?signalShutdown@Process@@AAEXXZ 2014b6b0 f   cgameProcess.obj
 0001:0014a6c0       ??$?6U?$char_traits@D@std@@@std@@YAAAV?$basic_ostream@DU?$char_traits@D@std@@@0@AAV10@E@Z 2014b6c0 f i base:InlineText.obj
 0001:0014a6d0       ??0InlineText@text@@QAE@ABV01@@Z 2014b6d0 f   base:InlineText.obj
 0001:0014a880       ??0InlineText@text@@QAE@ABV?$basic_string@DU?$char_traits@D@std@@V?$allocator@D@2@@std@@@Z 2014b880 f   base:InlineText.obj
 0001:0014aa30       ??0InlineText@text@@QAE@ABVColorManipulator@1@@Z 2014ba30 f   base:InlineText.obj
 0001:0014ab90       ??0InlineText@text@@QAE@D@Z 2014bb90 f   base:InlineText.obj
 0001:0014ad40       ??0InlineText@text@@QAE@E@Z 2014bd40 f   base:InlineText.obj
 0001:0014aef0       ??0InlineText@text@@QAE@F@Z 2014bef0 f   base:InlineText.obj
 0001:0014b0a0       ??0InlineText@text@@QAE@G@Z 2014c0a0 f   base:InlineText.obj
 0001:0014b250       ??0InlineText@text@@QAE@H@Z 2014c250 f   base:InlineText.obj
 0001:0014b400       ??0InlineText@text@@QAE@I@Z 2014c400 f   base:InlineText.obj
 0001:0014b5b0       ??0InlineText@text@@QAE@M@Z 2014c5b0 f   base:InlineText.obj
 0001:0014b770       ??0InlineText@text@@QAE@N@Z 2014c770 f   base:InlineText.obj
 0001:0014b930       ??0InlineText@text@@QAE@PBD@Z 2014c930 f   base:InlineText.obj
 0001:0014bae0       ??0InlineText@text@@QAE@PBX@Z 2014cae0 f   base:InlineText.obj
 0001:0014bc90       ??0InlineText@text@@QAE@XZ 2014cc90 f   base:InlineText.obj
 0001:0014bdf0       ??0InlineText@text@@QAE@_J@Z 2014cdf0 f   base:InlineText.obj
 0001:0014bfa0       ??0InlineText@text@@QAE@_K@Z 2014cfa0 f   base:InlineText.obj
 0001:0014c150       ??0InlineText@text@@QAE@_N@Z 2014d150 f   base:InlineText.obj
 0001:0014c300       ??0InlineVec3@text@@QAE@ABV01@@Z 2014d300 f   base:InlineText.obj
 0001:0014c370       ??0InlineVec3@text@@QAE@PBM@Z 2014d370 f   base:InlineText.obj
 0001:0014c440       ??0InlineVec3@text@@QAE@XZ 2014d440 f   base:InlineText.obj
 0001:0014c500       ??1InlineText@text@@QAE@XZ 2014d500 f   base:InlineText.obj
 0001:0014c740       ??1InlineVec3@text@@QAE@XZ 2014d740 f   base:InlineText.obj
 0001:0014c750       ??4InlineText@text@@QAEAAV01@ABV01@@Z 2014d750 f   base:InlineText.obj
 0001:0014c8b0       ??6?$basic_ostream@DU?$char_traits@D@std@@@std@@QAEAAV01@F@Z 2014d8b0 f i base:InlineText.obj
 0001:0014cb00       ??6?$basic_ostream@DU?$char_traits@D@std@@@std@@QAEAAV01@G@Z 2014db00 f i base:InlineText.obj
 0001:0014cd30       ??RInlineText@text@@QAEAAV01@ABV?$basic_string@DU?$char_traits@D@std@@V?$allocator@D@2@@std@@@Z 2014dd30 f   base:InlineText.obj
 0001:0014cd50       ??RInlineText@text@@QAEAAV01@D@Z 2014dd50 f   base:InlineText.obj
 0001:0014ce60       ??RInlineText@text@@QAEAAV01@E@Z 2014de60 f   base:InlineText.obj
 0001:0014cf70       ??RInlineText@text@@QAEAAV01@F@Z 2014df70 f   base:InlineText.obj
 0001:0014d070       ??RInlineText@text@@QAEAAV01@G@Z 2014e070 f   base:InlineText.obj
 0001:0014d170       ??RInlineText@text@@QAEAAV01@H@Z 2014e170 f   base:InlineText.obj
 0001:0014d270       ??RInlineText@text@@QAEAAV01@I@Z 2014e270 f   base:InlineText.obj
 0001:0014d370       ??RInlineText@text@@QAEAAV01@M@Z 2014e370 f   base:InlineText.obj
 0001:0014d4d0       ??RInlineText@text@@QAEAAV01@N@Z 2014e4d0 f   base:InlineText.obj
 0001:0014d630       ??RInlineText@text@@QAEAAV01@PBD@Z 2014e630 f   base:InlineText.obj
 0001:0014d730       ??RInlineText@text@@QAEAAV01@PBX@Z 2014e730 f   base:InlineText.obj
 0001:0014d840       ??RInlineText@text@@QAEAAV01@_J@Z 2014e840 f   base:InlineText.obj
 0001:0014d950       ??RInlineText@text@@QAEAAV01@_K@Z 2014e950 f   base:InlineText.obj
 0001:0014da60       ??RInlineText@text@@QAEAAV01@_N@Z 2014ea60 f   base:InlineText.obj
 0001:0014db60       ??RInlineVec3@text@@QAEAAV01@PBM@Z 2014eb60 f   base:InlineText.obj
 0001:0014dde0       ??_EColorManipulator@text@@UAEPAXI@Z 2014ede0 f i base:InlineText.obj
 0001:0014dde0       ??_GColorManipulator@text@@UAEPAXI@Z 2014ede0 f i base:InlineText.obj
 0001:0014de10       ??_EManipulator@text@@UAEPAXI@Z 2014ee10 f i base:InlineText.obj
 0001:0014de10       ??_GManipulator@text@@UAEPAXI@Z 2014ee10 f i base:InlineText.obj
 0001:0014de40       ?_Makestr@_System_error@std@@CA?AV?$basic_string@DU?$char_traits@D@std@@V?$allocator@D@2@@2@Verror_code@2@V32@@Z 2014ee40 f i base:InlineText.obj
 0001:0014e000       ?compute@InlineText@text@@AAEXABV?$basic_string@DU?$char_traits@D@std@@V?$allocator@D@2@@std@@@Z 2014f000 f   base:InlineText.obj
 0001:0014e310       ??$_Copy_memmove@PAPAVBuffer@text@@PAPAV12@@std@@YAPAPAVBuffer@text@@PAPAV12@00@Z 2014f310 f i base:Buffer.obj
 0001:0014e340       ??$_Copy_memmove_tail@PAPAVBuffer@text@@@std@@YAPAPAVBuffer@text@@QBDQAPAV12@II@Z 2014f340 f i base:Buffer.obj
 0001:0014e370       ??$_Emplace_reallocate@PAVBuffer@text@@@?$vector@PAVBuffer@text@@V?$allocator@PAVBuffer@text@@@std@@@std@@AAEPAPAVBuffer@text@@QAPAV23@$$QAPAV23@@Z 2014f370 f i base:Buffer.obj
 0001:0014e510       ??0Buffer@text@@QAE@ABVColorManipulator@1@@Z 2014f510 f   base:Buffer.obj
 0001:0014e580       ??0Buffer@text@@QAE@PBEIABVColorManipulator@1@@Z 2014f580 f   base:Buffer.obj
 0001:0014e5f0       ??1Buffer@text@@QAE@XZ     2014f5f0 f   base:Buffer.obj
 0001:0014e600       ??6Buffer@text@@QAEAAV01@ABV01@@Z 2014f600 f   base:Buffer.obj
 0001:0014e6b0       ??6Buffer@text@@QAEAAV01@ABVManipulator@1@@Z 2014f6b0 f   base:Buffer.obj
 0001:0014e6d0       ??6Buffer@text@@QAEAAV01@D@Z 2014f6d0 f   base:Buffer.obj
 0001:0014e7c0       ??6Buffer@text@@QAEAAV01@H@Z 2014f7c0 f   base:Buffer.obj
 0001:0014e950       ??6Buffer@text@@QAEAAV01@PBD@Z 2014f950 f   base:Buffer.obj
 0001:0014ea50       ??6Buffer@text@@QAEAAV01@V?$basic_string@DU?$char_traits@D@std@@V?$allocator@D@2@@std@@@Z 2014fa50 f   base:Buffer.obj
 0001:0014eaf0       ??6Buffer@text@@QAEAAV01@VInlineText@1@@Z 2014faf0 f   base:Buffer.obj
 0001:0014ebd0       ?_Xlength@?$vector@PAVBuffer@text@@V?$allocator@PAVBuffer@text@@@std@@@std@@CAXXZ 2014fbd0 f i base:Buffer.obj
 0001:0014ebe0       ?append@Buffer@text@@AAEXABV?$basic_string@DU?$char_traits@D@std@@V?$allocator@D@2@@std@@@Z 2014fbe0 f   base:Buffer.obj
 0001:0014edb0       ?append@Buffer@text@@AAEXE@Z 2014fdb0 f   base:Buffer.obj
 0001:0014ee40       ?dump@Buffer@text@@QAEXXZ  2014fe40 f   base:Buffer.obj
 0001:0014f0e0       ?noshowbase@std@@YAAAVios_base@1@AAV21@@Z 201500e0 f i base:Buffer.obj
 0001:0014f0f0       ?reset@Buffer@text@@QAEXABVColorManipulator@2@@Z 201500f0 f   base:Buffer.obj
 0001:0014f110       ?toCommands@Buffer@text@@QBEXABV?$basic_string@DU?$char_traits@D@std@@V?$allocator@D@2@@std@@AAV?$list@V?$basic_string@DU?$char_traits@D@std@@V?$allocator@D@2@@std@@V?$allocator@V?$basic_string@DU?$char_traits@D@std@@V?$allocator@D@2@@std@@@2@@4@H@Z 20150110 f   base:Buffer.obj
 0001:0014f4c0       ?toReport@Buffer@text@@QBE_NAAV?$vector@PAVBuffer@text@@V?$allocator@PAVBuffer@text@@@std@@@std@@II@Z 201504c0 f   base:Buffer.obj
 0001:0014f760       ?concatArgs@str@@YAXABV?$vector@V?$basic_string@DU?$char_traits@D@std@@V?$allocator@D@2@@std@@V?$allocator@V?$basic_string@DU?$char_traits@D@std@@V?$allocator@D@2@@std@@@2@@std@@AAV?$basic_string@DU?$char_traits@D@std@@V?$allocator@D@2@@3@I@Z 20150760 f   base:strUtil.obj
 0001:0014f8a0       ?iFind@str@@YAIV?$basic_string@DU?$char_traits@D@std@@V?$allocator@D@2@@std@@0I@Z 201508a0 f   base:strUtil.obj
 0001:0014f9d0       ?isIndex@str@@YA_NABV?$basic_string@DU?$char_traits@D@std@@V?$allocator@D@2@@std@@@Z 201509d0 f   base:strUtil.obj
 0001:0014fa20       ?toLower@str@@YAAAV?$basic_string@DU?$char_traits@D@std@@V?$allocator@D@2@@std@@AAV23@@Z 20150a20 f   base:strUtil.obj
 0001:0014fa80       ?toLowerCopy@str@@YA?AV?$basic_string@DU?$char_traits@D@std@@V?$allocator@D@2@@std@@ABV23@@Z 20150a80 f   base:strUtil.obj
 0001:0014fb60       ?toUpper@str@@YAAAV?$basic_string@DU?$char_traits@D@std@@V?$allocator@D@2@@std@@AAV23@@Z 20150b60 f   base:strUtil.obj
 0001:0014fbc0       ?toUpperCopy@str@@YA?AV?$basic_string@DU?$char_traits@D@std@@V?$allocator@D@2@@std@@ABV23@@Z 20150bc0 f   base:strUtil.obj
 0001:0014fca0       ??0ColorManipulator@text@@QAE@E@Z 20150ca0 f   base:Manipulator.obj
 0001:0014fcd0       ??0Manipulator@text@@QAE@E@Z 20150cd0 f   base:Manipulator.obj
 0001:0014fcf0       ??1ColorManipulator@text@@UAE@XZ 20150cf0 f   base:Manipulator.obj
 0001:0014fd00       ??1Manipulator@text@@UAE@XZ 20150d00 f   base:Manipulator.obj
 0001:0014fd10       ??4ColorManipulator@text@@QAEAAV01@ABV01@@Z 20150d10 f   base:Manipulator.obj
 0001:0014fd30       ?crc32@base64@@YAIPBDH@Z   20150d30 f   base:cksum.obj
 0001:0014fd70       ?decode@base64@@YAHPBEPAEI@Z 20150d70 f   base:baseUtil.obj
 0001:0014ffa0       ?encode@base64@@YAHPBEIPADI@Z 20150fa0 f   base:baseUtil.obj
 0001:00150160       ??0AbstractDevice@text@@IAE@III@Z 20151160 f   base:AbstractDevice.obj
 0001:00150190       ??1AbstractDevice@text@@UAE@XZ 20151190 f   base:AbstractDevice.obj
 0001:001501a0       ??_EAbstractDevice@text@@UAEPAXI@Z 201511a0 f i base:AbstractDevice.obj
 0001:001501a0       ??_GAbstractDevice@text@@UAEPAXI@Z 201511a0 f i base:AbstractDevice.obj
 0001:001501d0       ?format@AbstractDevice@text@@QAEIABVBuffer@2@AAV?$list@V?$basic_string@DU?$char_traits@D@std@@V?$allocator@D@2@@std@@V?$allocator@V?$basic_string@DU?$char_traits@D@std@@V?$allocator@D@2@@std@@@2@@std@@@Z 201511d0 f   base:AbstractDevice.obj
 0001:001502a0       ??$_Construct_in_place_by_deref@PAIPAPAI@std@@YAXAAPAIAAPAPAI@Z 201512a0 f i base:TerminalDevice.obj
 0001:001502c0       ??$_Copy_memmove@PAPAIPAPAI@std@@YAPAPAIPAPAI00@Z 201512c0 f i base:TerminalDevice.obj
 0001:001502f0       ??$_Copy_memmove_tail@PAPAI@std@@YAPAPAIQBDQAPAIII@Z 201512f0 f i base:TerminalDevice.obj
 0001:00150320       ??$_Uninitialized_copy_unchecked@PAPAIPAPAI@std@@YAPAPAIPAPAIQAPAI0@Z 20151320 f i base:TerminalDevice.obj
 0001:00150330       ??$_Uninitialized_value_construct_n_unchecked1@PAPAII@std@@YAPAPAIPAPAII@Z 20151330 f i base:TerminalDevice.obj
 0001:00150350       ??$_Zero_range@PAPAI@std@@YAPAPAIQAPAI0@Z 20151350 f i base:TerminalDevice.obj
 0001:00150380       ??$uninitialized_copy@PAPAIPAPAI@std@@YAPAPAIQAPAI0PAPAI@Z 20151380 f i base:TerminalDevice.obj
 0001:00150390       ??0TerminalDevice@text@@QAE@III@Z 20151390 f   base:TerminalDevice.obj
 0001:001503c0       ??1?$deque@IV?$allocator@I@std@@@std@@QAE@XZ 201513c0 f i base:TerminalDevice.obj
 0001:00150490       ??1?$stack@IV?$deque@IV?$allocator@I@std@@@std@@@std@@QAE@XZ 20151490 f i base:TerminalDevice.obj
 0001:001504a0       ??1TerminalDevice@text@@UAE@XZ 201514a0 f   base:TerminalDevice.obj
 0001:001504b0       ??_ETerminalDevice@text@@UAEPAXI@Z 201514b0 f i base:TerminalDevice.obj
 0001:001504b0       ??_GTerminalDevice@text@@UAEPAXI@Z 201514b0 f i base:TerminalDevice.obj
 0001:001504e0       ?_Growmap@?$deque@IV?$allocator@I@std@@@std@@AAEXI@Z 201514e0 f i base:TerminalDevice.obj
 0001:001506a0       ?_Xlen@?$deque@IV?$allocator@I@std@@@std@@CAXXZ 201516a0 f i base:TerminalDevice.obj
 0001:001506b0       ?doFormat@TerminalDevice@text@@MAEXABVBuffer@2@AAV?$list@V?$basic_string@DU?$char_traits@D@std@@V?$allocator@D@2@@std@@V?$allocator@V?$basic_string@DU?$char_traits@D@std@@V?$allocator@D@2@@std@@@2@@std@@@Z 201516b0 f   base:TerminalDevice.obj
 0001:00150f40       ?push@?$stack@IV?$deque@IV?$allocator@I@std@@@std@@@std@@QAEXABI@Z 20151f40 f i base:TerminalDevice.obj
 0001:00151000       ??$_Construct_in_place_by_deref@PADPAPAD@std@@YAXAAPADAAPAPAD@Z 20152000 f i base:ETDevice.obj
 0001:00151020       ??$_Copy_memmove@PAPADPAPAD@std@@YAPAPADPAPAD00@Z 20152020 f i base:ETDevice.obj
 0001:00151050       ??$_Copy_memmove_tail@PAPAD@std@@YAPAPADQBDQAPADII@Z 20152050 f i base:ETDevice.obj
 0001:00151080       ??$_Uninitialized_copy_unchecked@PAPADPAPAD@std@@YAPAPADPAPADQAPAD0@Z 20152080 f i base:ETDevice.obj
 0001:00151090       ??$_Uninitialized_value_construct_n_unchecked1@PAPADI@std@@YAPAPADPAPADI@Z 20152090 f i base:ETDevice.obj
 0001:001510b0       ??$_Zero_range@PAPAD@std@@YAPAPADQAPAD0@Z 201520b0 f i base:ETDevice.obj
 0001:001510e0       ??$uninitialized_copy@PAPADPAPAD@std@@YAPAPADQAPAD0PAPAD@Z 201520e0 f i base:ETDevice.obj
 0001:001510f0       ??0ETDevice@text@@QAE@III@Z 201520f0 f   base:ETDevice.obj
 0001:00151150       ??1?$deque@DV?$allocator@D@std@@@std@@QAE@XZ 20152150 f i base:ETDevice.obj
 0001:00151220       ??1?$stack@DV?$deque@DV?$allocator@D@std@@@std@@@std@@QAE@XZ 20152220 f i base:ETDevice.obj
 0001:00151230       ??1ETDevice@text@@UAE@XZ   20152230 f   base:ETDevice.obj
 0001:00151240       ??_EETDevice@text@@UAEPAXI@Z 20152240 f i base:ETDevice.obj
 0001:00151240       ??_GETDevice@text@@UAEPAXI@Z 20152240 f i base:ETDevice.obj
 0001:00151270       ?_Growmap@?$deque@DV?$allocator@D@std@@@std@@AAEXI@Z 20152270 f i base:ETDevice.obj
 0001:00151430       ?_Xlen@?$deque@DV?$allocator@D@std@@@std@@CAXXZ 20152430 f i base:ETDevice.obj
 0001:00151440       ?doFormat@ETDevice@text@@MAEXABVBuffer@2@AAV?$list@V?$basic_string@DU?$char_traits@D@std@@V?$allocator@D@2@@std@@V?$allocator@V?$basic_string@DU?$char_traits@D@std@@V?$allocator@D@2@@std@@@2@@std@@@Z 20152440 f   base:ETDevice.obj
 0001:00152a37       _GetSystemInfo@4           20153a37 f   kernel32:KERNEL32.dll
 0001:00152a3d       _FreeLibrary@4             20153a3d f   kernel32:KERNEL32.dll
 0001:00152a43       _GetProcAddress@8          20153a43 f   kernel32:KERNEL32.dll
 0001:00152a49       _LoadLibraryA@4            20153a49 f   kernel32:KERNEL32.dll
 0001:00152a4f       _GetSystemTimeAsFileTime@4 20153a4f f   kernel32:KERNEL32.dll
 0001:00152a55       ??0_Init_locks@std@@QAE@XZ 20153a55 f   libcpmt:xlock.obj
 0001:00152a8d       ??0_Lockit@std@@QAE@H@Z    20153a8d f   libcpmt:xlock.obj
 0001:00152aca       ??0_Lockit@std@@QAE@XZ     20153aca f   libcpmt:xlock.obj
 0001:00152ae0       ??1_Init_locks@std@@QAE@XZ 20153ae0 f   libcpmt:xlock.obj
 0001:00152b10       ??1_Lockit@std@@QAE@XZ     20153b10 f   libcpmt:xlock.obj
 0001:00152b36       ?_Init_locks_ctor@_Init_locks@std@@CAXPAV12@@Z 20153b36 f   libcpmt:xlock.obj
 0001:00152b66       ?_Init_locks_dtor@_Init_locks@std@@CAXPAV12@@Z 20153b66 f   libcpmt:xlock.obj
 0001:00152b96       ?_Lockit_ctor@_Lockit@std@@CAXPAV12@@Z 20153b96 f   libcpmt:xlock.obj
 0001:00152ba5       ?_Lockit_ctor@_Lockit@std@@CAXPAV12@H@Z 20153ba5 f   libcpmt:xlock.obj
 0001:00152bd8       ?_Lockit_ctor@_Lockit@std@@SAXH@Z 20153bd8 f   libcpmt:xlock.obj
 0001:00152c05       ?_Lockit_dtor@_Lockit@std@@CAXPAV12@@Z 20153c05 f   libcpmt:xlock.obj
 0001:00152c21       ?_Lockit_dtor@_Lockit@std@@SAXH@Z 20153c21 f   libcpmt:xlock.obj
 0001:00152c4e       ??0bad_alloc@std@@QAE@XZ   20153c4e f i libcpmt:xthrow.obj
 0001:00152c73       ??0bad_function_call@std@@QAE@ABV01@@Z 20153c73 f i libcpmt:xthrow.obj
 0001:00152c94       ??0bad_function_call@std@@QAE@XZ 20153c94 f i libcpmt:xthrow.obj
 0001:00152cb0       ??0exception@std@@QAE@QBD@Z 20153cb0 f i libcpmt:xthrow.obj
 0001:00152cf9       ??0exception@std@@QAE@QBDH@Z 20153cf9 f i libcpmt:xthrow.obj
 0001:00152d24       ??0exception@std@@QAE@XZ   20153d24 f i libcpmt:xthrow.obj
 0001:00152d40       ??0invalid_argument@std@@QAE@ABV01@@Z 20153d40 f i libcpmt:xthrow.obj
 0001:00152d61       ??0invalid_argument@std@@QAE@PBD@Z 20153d61 f i libcpmt:xthrow.obj
 0001:00152d87       ??0length_error@std@@QAE@ABV01@@Z 20153d87 f i libcpmt:xthrow.obj
 0001:00152da8       ??0length_error@std@@QAE@PBD@Z 20153da8 f i libcpmt:xthrow.obj
 0001:00152dce       ??0logic_error@std@@QAE@ABV01@@Z 20153dce f i libcpmt:xthrow.obj
 0001:00152def       ??0logic_error@std@@QAE@PBD@Z 20153def f i libcpmt:xthrow.obj
 0001:00152e15       ??0out_of_range@std@@QAE@ABV01@@Z 20153e15 f i libcpmt:xthrow.obj
 0001:00152e36       ??0out_of_range@std@@QAE@PBD@Z 20153e36 f i libcpmt:xthrow.obj
 0001:00152e5c       ??0overflow_error@std@@QAE@ABV01@@Z 20153e5c f i libcpmt:xthrow.obj
 0001:00152e7d       ??0overflow_error@std@@QAE@PBD@Z 20153e7d f i libcpmt:xthrow.obj
 0001:00152ea3       ??0regex_error@std@@QAE@ABV01@@Z 20153ea3 f i libcpmt:xthrow.obj
 0001:00152ed0       ??0regex_error@std@@QAE@W4error_type@regex_constants@1@@Z 20153ed0 f i libcpmt:xthrow.obj
 0001:00152f09       ??0runtime_error@std@@QAE@PBD@Z 20153f09 f i libcpmt:xthrow.obj
 0001:00152f2f       ??1bad_alloc@std@@UAE@XZ   20153f2f f i libcpmt:xthrow.obj
 0001:00152f44       ??1bad_function_call@std@@UAE@XZ 20153f44 f i libcpmt:xthrow.obj
 0001:00152f59       ??1invalid_argument@std@@UAE@XZ 20153f59 f i libcpmt:xthrow.obj
 0001:00152f6e       ??1length_error@std@@UAE@XZ 20153f6e f i libcpmt:xthrow.obj
 0001:00152f83       ??1logic_error@std@@UAE@XZ 20153f83 f i libcpmt:xthrow.obj
 0001:00152f98       ??1out_of_range@std@@UAE@XZ 20153f98 f i libcpmt:xthrow.obj
 0001:00152fad       ??1overflow_error@std@@UAE@XZ 20153fad f i libcpmt:xthrow.obj
 0001:00152fc2       ??1regex_error@std@@UAE@XZ 20153fc2 f i libcpmt:xthrow.obj
 0001:00152fd7       ??1runtime_error@std@@UAE@XZ 20153fd7 f i libcpmt:xthrow.obj
 0001:00152fec       ??_Ebad_function_call@std@@UAEPAXI@Z 20153fec f i libcpmt:xthrow.obj
 0001:00152fec       ??_Gbad_function_call@std@@UAEPAXI@Z 20153fec f i libcpmt:xthrow.obj
 0001:00153024       ??_Einvalid_argument@std@@UAEPAXI@Z 20154024 f i libcpmt:xthrow.obj
 0001:00153024       ??_Ginvalid_argument@std@@UAEPAXI@Z 20154024 f i libcpmt:xthrow.obj
 0001:0015305c       ??_Elength_error@std@@UAEPAXI@Z 2015405c f i libcpmt:xthrow.obj
 0001:0015305c       ??_Glength_error@std@@UAEPAXI@Z 2015405c f i libcpmt:xthrow.obj
 0001:00153094       ??_Elogic_error@std@@UAEPAXI@Z 20154094 f i libcpmt:xthrow.obj
 0001:00153094       ??_Glogic_error@std@@UAEPAXI@Z 20154094 f i libcpmt:xthrow.obj
 0001:001530cc       ??_Eout_of_range@std@@UAEPAXI@Z 201540cc f i libcpmt:xthrow.obj
 0001:001530cc       ??_Gout_of_range@std@@UAEPAXI@Z 201540cc f i libcpmt:xthrow.obj
 0001:00153104       ??_Eoverflow_error@std@@UAEPAXI@Z 20154104 f i libcpmt:xthrow.obj
 0001:00153104       ??_Goverflow_error@std@@UAEPAXI@Z 20154104 f i libcpmt:xthrow.obj
 0001:0015313c       ??_Eregex_error@std@@UAEPAXI@Z 2015413c f i libcpmt:xthrow.obj
 0001:0015313c       ??_Gregex_error@std@@UAEPAXI@Z 2015413c f i libcpmt:xthrow.obj
 0001:00153174       ?_Stringify@regex_error@std@@CAPBDW4error_type@regex_constants@2@@Z 20154174 f i libcpmt:xthrow.obj
 0001:00153264       ?_Xbad_alloc@std@@YAXXZ    20154264 f   libcpmt:xthrow.obj
 0001:00153288       ?_Xbad_function_call@std@@YAXXZ 20154288 f   libcpmt:xthrow.obj
 0001:001532ac       ?_Xinvalid_argument@std@@YAXPBD@Z 201542ac f   libcpmt:xthrow.obj
 0001:001532d4       ?_Xlength_error@std@@YAXPBD@Z 201542d4 f   libcpmt:xthrow.obj
 0001:001532fc       ?_Xout_of_range@std@@YAXPBD@Z 201542fc f   libcpmt:xthrow.obj
 0001:00153324       ?_Xoverflow_error@std@@YAXPBD@Z 20154324 f   libcpmt:xthrow.obj
 0001:0015334c       ?_Xregex_error@std@@YAXW4error_type@regex_constants@1@@Z 2015434c f   libcpmt:xthrow.obj
 0001:00153374       ?_Xruntime_error@std@@YAXPBD@Z 20154374 f   libcpmt:xthrow.obj
 0001:0015339c       ?what@bad_function_call@std@@UBEPBDXZ 2015439c f i libcpmt:xthrow.obj
 0001:001533a2       ?uncaught_exception@std@@YA_NXZ 201543a2 f   libcpmt:uncaught_exception.obj
 0001:001533a7       ?_Syserror_map@std@@YAPBDH@Z 201543a7 f   libcpmt:syserror.obj
 0001:001533d5       ?_Winerror_map@std@@YAHH@Z 201543d5 f   libcpmt:syserror.obj
 0001:001533ff       ?_Winerror_message@std@@YAKKPADK@Z 201543ff f   libcpmt:syserror.obj
 0001:0015342f       ??0?$_Yarn@D@std@@QAE@PBD@Z 2015442f f i libcpmt:locale0.obj
 0001:00153455       ??0_Fac_node@std@@QAE@PAU01@PAV_Facet_base@1@@Z 20154455 f i libcpmt:locale0.obj
 0001:0015346e       ??0_Facet_base@std@@QAE@XZ 2015446e f i libcpmt:locale0.obj
 0001:00153479       ??0_Locimp@locale@std@@AAE@ABV012@@Z 20154479 f i libcpmt:locale0.obj
 0001:001534fd       ??0_Locimp@locale@std@@AAE@_N@Z 201544fd f i libcpmt:locale0.obj
 0001:0015354e       ??0facet@locale@std@@IAE@I@Z 2015454e f i libcpmt:locale0.obj
 0001:00153568       ??0id@locale@std@@QAE@I@Z  20154568 f i libcpmt:locale0.obj
 0001:00153579       ??0locale@std@@AAE@U_Secret_locale_construct_tag@01@PAV_Locimp@01@@Z 20154579 f i libcpmt:locale0.obj
 0001:0015358b       ??0locale@std@@QAE@W4_Uninitialized@1@@Z 2015458b f i libcpmt:locale0.obj
 0001:00153590       ??1_Fac_node@std@@QAE@XZ   20154590 f i libcpmt:locale0.obj
 0001:001535cd       ??1_Fac_tidy_reg_t@std@@QAE@XZ 201545cd f i libcpmt:locale0.obj
 0001:001535fa       ??1_Locimp@locale@std@@MAE@XZ 201545fa f i libcpmt:locale0.obj
 0001:00153622       ??2@YAPAXIPAX@Z            20154622 f i libcpmt:locale0.obj
 0001:0015362c       ??2_Fac_node@std@@SAPAXI@Z 2015462c f i libcpmt:locale0.obj
 0001:00153652       ??3_Fac_node@std@@SAXPAX@Z 20154652 f i libcpmt:locale0.obj
 0001:00153657       ??4?$_Yarn@D@std@@QAEAAV01@PBD@Z 20154657 f i libcpmt:locale0.obj
 0001:001536b2       ??_G_Fac_node@std@@QAEPAXI@Z 201546b2 f i libcpmt:locale0.obj
 0001:001536ee       ??_E_Locimp@locale@std@@MAEPAXI@Z 201546ee f i libcpmt:locale0.obj
 0001:001536ee       ??_G_Locimp@locale@std@@MAEPAXI@Z 201546ee f i libcpmt:locale0.obj
 0001:00153718       ?_C_str@?$_Yarn@D@std@@QBEPBDXZ 20154718 f i libcpmt:locale0.obj
 0001:00153724       ?_Empty@?$_Yarn@D@std@@QBE_NXZ 20154724 f i libcpmt:locale0.obj
 0001:0015372b       ?_Facet_Register@std@@YAXPAV_Facet_base@1@@Z 2015472b f   libcpmt:locale0.obj
 0001:00153763       ?_Getgloballocale@locale@std@@CAPAV_Locimp@12@XZ 20154763 f   libcpmt:locale0.obj
 0001:00153769       ?_Init@locale@std@@CAPAV_Locimp@12@_N@Z 20154769 f   libcpmt:locale0.obj
 0001:00153819       ?_Locimp_dtor@_Locimp@locale@std@@CAXPAV123@@Z 20154819 f   libcpmt:locale0.obj
 0001:001538a6       ?_Locinfo_ctor@_Locinfo@std@@SAXPAV12@PBD@Z 201548a6 f   libcpmt:locale0.obj
 0001:00153905       ?_Locinfo_dtor@_Locinfo@std@@SAXPAV12@@Z 20154905 f   libcpmt:locale0.obj
 0001:00153925       ?_New_Locimp@_Locimp@locale@std@@CAPAV123@ABV123@@Z 20154925 f   libcpmt:locale0.obj
 0001:00153961       ?_New_Locimp@_Locimp@locale@std@@CAPAV123@_N@Z 20154961 f   libcpmt:locale0.obj
 0001:0015398c       ?_Setgloballocale@locale@std@@CAXPAX@Z 2015498c f   libcpmt:locale0.obj
 0001:001539be       ?_Tidy@?$_Yarn@D@std@@AAEXXZ 201549be f i libcpmt:locale0.obj
 0001:001539dc       ?__empty_global_delete@@YAXPAXIW4align_val_t@std@@@Z 201549dc f i libcpmt:locale0.obj
 0001:001539df       ?__empty_global_delete@@YAXPAXW4align_val_t@std@@@Z 201549df f i libcpmt:locale0.obj
 0001:001539e2       ?c_str@?$_Yarn@D@std@@QBEPBDXZ 201549e2 f i libcpmt:locale0.obj
 0001:001539ee       ?classic@locale@std@@SAABV12@XZ 201549ee f   libcpmt:locale0.obj
 0001:00153a0a       ?empty@locale@std@@SA?AV12@XZ 20154a0a f   libcpmt:locale0.obj
 0001:00153a2f       __Deletegloballocale       20154a2f f   libcpmt:locale0.obj
 0001:00153ab0       __Getctype                 20154ab0 f   libcpmt:_tolower.obj
 0001:00153b39       __Tolower                  20154b39 f   libcpmt:_tolower.obj
 0001:00153c60       __Toupper                  20154c60 f   libcpmt:_toupper.obj
 0001:00153d87       ??_Glocale@std@@QAEPAXI@Z  20154d87 f i libcpmt:ios.obj
 0001:00153db1       ?_Addstd@ios_base@std@@SAXPAV12@@Z 20154db1 f   libcpmt:ios.obj
 0001:00153e10       ?_Callfns@ios_base@std@@AAEXW4event@12@@Z 20154e10 f i libcpmt:ios.obj
 0001:00153e4f       ?_Ios_base_dtor@ios_base@std@@CAXPAV12@@Z 20154e4f f   libcpmt:ios.obj
 0001:00153e9f       ?_Tidy@ios_base@std@@AAEXXZ 20154e9f f i libcpmt:ios.obj
 0001:00153f40       __Getcvt                   20154f40 f   libcpmt:xwctomb.obj
 0001:00153fcf       __Wcrtomb                  20154fcf f   libcpmt:xwctomb.obj
 0001:00154042       ___Wcrtomb_lk              20155042 f   libcpmt:xwctomb.obj
 0001:0015404d       ??0?$_Smanip@H@std@@QAE@P6AXAAVios_base@1@H@ZH@Z 2015504d f i libcpmt:iomanip.obj
 0001:00154066       ??0?$_Smanip@_J@std@@QAE@P6AXAAVios_base@1@_J@Z1@Z 20155066 f i libcpmt:iomanip.obj
 0001:00154086       ?precision@ios_base@std@@QAE_J_J@Z 20155086 f i libcpmt:iomanip.obj
 0001:001540aa       ?resetiosflags@std@@YA?AU?$_Smanip@H@1@H@Z 201550aa f   libcpmt:iomanip.obj
 0001:00154120       ?setbase@std@@YA?AU?$_Smanip@H@1@H@Z 20155120 f   libcpmt:iomanip.obj
 0001:00154139       ?setf@ios_base@std@@QAEHHH@Z 20155139 f i libcpmt:iomanip.obj
 0001:00154167       ?setiosflags@std@@YA?AU?$_Smanip@H@1@H@Z 20155167 f   libcpmt:iomanip.obj
 0001:00154180       ?setprecision@std@@YA?AU?$_Smanip@_J@1@_J@Z 20155180 f   libcpmt:iomanip.obj
 0001:001541a0       ?setw@std@@YA?AU?$_Smanip@_J@1@_J@Z 201551a0 f   libcpmt:iomanip.obj
 0001:00154212       ?width@ios_base@std@@QAE_J_J@Z 20155212 f i libcpmt:iomanip.obj
 0001:00154382       ?_Fiopen@std@@YAPAU_iobuf@@PBDHH@Z 20155382 f   libcpmt:fiopen.obj
 0001:0015438d       ?_Fiopen@std@@YAPAU_iobuf@@PBGHH@Z 2015538d f   libcpmt:fiopen.obj
 0001:00154398       ?_Fiopen@std@@YAPAU_iobuf@@PB_WHH@Z 20155398 f   libcpmt:fiopen.obj
 0001:001862b0       ___std_adjacent_find_1@8   201872b0 f   libcpmt:vector_algorithms.obj
 0001:001862c0       ___std_adjacent_find_2@8   201872c0 f   libcpmt:vector_algorithms.obj
 0001:001862d0       ___std_adjacent_find_4@8   201872d0 f   libcpmt:vector_algorithms.obj
 0001:001862e0       ___std_adjacent_find_8@8   201872e0 f   libcpmt:vector_algorithms.obj
 0001:001862f0       ___std_bitset_from_string_1@28 201872f0 f   libcpmt:vector_algorithms.obj
 0001:00186430       ___std_bitset_from_string_2@28 20187430 f   libcpmt:vector_algorithms.obj
 0001:00186580       ___std_bitset_to_string_1@20 20187580 f   libcpmt:vector_algorithms.obj
 0001:00186590       ___std_bitset_to_string_2@20 20187590 f   libcpmt:vector_algorithms.obj
 0001:001865a0       ___std_count_trivial_1@12  201875a0 f   libcpmt:vector_algorithms.obj
 0001:001865b0       ___std_count_trivial_2@12  201875b0 f   libcpmt:vector_algorithms.obj
 0001:001865c0       ___std_count_trivial_4@12  201875c0 f   libcpmt:vector_algorithms.obj
 0001:001865d0       ___std_count_trivial_8@16  201875d0 f   libcpmt:vector_algorithms.obj
 0001:001865f0       ___std_find_end_1@16       201875f0 f   libcpmt:vector_algorithms.obj
 0001:00186600       ___std_find_end_2@16       20187600 f   libcpmt:vector_algorithms.obj
 0001:00186610       ___std_find_end_4@16       20187610 f   libcpmt:vector_algorithms.obj
 0001:00186730       ___std_find_end_8@16       20187730 f   libcpmt:vector_algorithms.obj
 0001:00186870       ___std_find_first_not_of_trivial_pos_1@16 20187870 f   libcpmt:vector_algorithms.obj
 0001:00186930       ___std_find_first_not_of_trivial_pos_2@16 20187930 f   libcpmt:vector_algorithms.obj
 0001:00186940       ___std_find_first_of_trivial_1@16 20187940 f   libcpmt:vector_algorithms.obj
 0001:001869c0       ___std_find_first_of_trivial_2@16 201879c0 f   libcpmt:vector_algorithms.obj
 0001:00186a50       ___std_find_first_of_trivial_4@16 20187a50 f   libcpmt:vector_algorithms.obj
 0001:00186ae0       ___std_find_first_of_trivial_8@16 20187ae0 f   libcpmt:vector_algorithms.obj
 0001:00186b40       ___std_find_first_of_trivial_pos_1@16 20187b40 f   libcpmt:vector_algorithms.obj
 0001:00186c00       ___std_find_first_of_trivial_pos_2@16 20187c00 f   libcpmt:vector_algorithms.obj
 0001:00186c10       ___std_find_first_of_trivial_pos_4@16 20187c10 f   libcpmt:vector_algorithms.obj
 0001:00186c20       ___std_find_first_of_trivial_pos_8@16 20187c20 f   libcpmt:vector_algorithms.obj
 0001:00186d70       ___std_find_last_not_ch_pos_1@12 20187d70 f   libcpmt:vector_algorithms.obj
 0001:00186da0       ___std_find_last_not_ch_pos_2@12 20187da0 f   libcpmt:vector_algorithms.obj
 0001:00186dd0       ___std_find_last_not_ch_pos_4@12 20187dd0 f   libcpmt:vector_algorithms.obj
 0001:00186e00       ___std_find_last_not_ch_pos_8@16 20187e00 f   libcpmt:vector_algorithms.obj
 0001:00186e40       ___std_find_last_not_of_trivial_pos_1@16 20187e40 f   libcpmt:vector_algorithms.obj
 0001:00186e50       ___std_find_last_not_of_trivial_pos_2@16 20187e50 f   libcpmt:vector_algorithms.obj
 0001:00186e60       ___std_find_last_of_trivial_pos_1@16 20187e60 f   libcpmt:vector_algorithms.obj
 0001:00186e70       ___std_find_last_of_trivial_pos_2@16 20187e70 f   libcpmt:vector_algorithms.obj
 0001:00186e80       ___std_find_last_trivial_1@12 20187e80 f   libcpmt:vector_algorithms.obj
 0001:00186e90       ___std_find_last_trivial_2@12 20187e90 f   libcpmt:vector_algorithms.obj
 0001:00186ea0       ___std_find_last_trivial_4@12 20187ea0 f   libcpmt:vector_algorithms.obj
 0001:00186eb0       ___std_find_last_trivial_8@16 20187eb0 f   libcpmt:vector_algorithms.obj
 0001:00186ed0       ___std_find_not_ch_1@12    20187ed0 f   libcpmt:vector_algorithms.obj
 0001:00186ee0       ___std_find_not_ch_2@12    20187ee0 f   libcpmt:vector_algorithms.obj
 0001:00186ef0       ___std_find_not_ch_4@12    20187ef0 f   libcpmt:vector_algorithms.obj
 0001:00186f00       ___std_find_not_ch_8@16    20187f00 f   libcpmt:vector_algorithms.obj
 0001:00186f20       ___std_find_trivial_1@12   20187f20 f   libcpmt:vector_algorithms.obj
 0001:00186f30       ___std_find_trivial_2@12   20187f30 f   libcpmt:vector_algorithms.obj
 0001:00186f40       ___std_find_trivial_4@12   20187f40 f   libcpmt:vector_algorithms.obj
 0001:00186f50       ___std_find_trivial_8@16   20187f50 f   libcpmt:vector_algorithms.obj
 0001:00186f70       ___std_find_trivial_unsized_1@8 20187f70 f   libcpmt:vector_algorithms.obj
 0001:00186f90       ___std_find_trivial_unsized_2@8 20187f90 f   libcpmt:vector_algorithms.obj
 0001:00186fc0       ___std_find_trivial_unsized_4@8 20187fc0 f   libcpmt:vector_algorithms.obj
 0001:00186ff0       ___std_find_trivial_unsized_8@12 20187ff0 f   libcpmt:vector_algorithms.obj
 0001:00187020       ___std_is_sorted_until_1i@12 20188020 f   libcpmt:vector_algorithms.obj
 0001:00187030       ___std_is_sorted_until_1u@12 20188030 f   libcpmt:vector_algorithms.obj
 0001:00187150       ___std_is_sorted_until_2i@12 20188150 f   libcpmt:vector_algorithms.obj
 0001:00187160       ___std_is_sorted_until_2u@12 20188160 f   libcpmt:vector_algorithms.obj
 0001:00187170       ___std_is_sorted_until_4i@12 20188170 f   libcpmt:vector_algorithms.obj
 0001:00187180       ___std_is_sorted_until_4u@12 20188180 f   libcpmt:vector_algorithms.obj
 0001:00187190       ___std_is_sorted_until_8i@12 20188190 f   libcpmt:vector_algorithms.obj
 0001:001871a0       ___std_is_sorted_until_8u@12 201881a0 f   libcpmt:vector_algorithms.obj
 0001:001871b0       ___std_is_sorted_until_d@12 201881b0 f   libcpmt:vector_algorithms.obj
 0001:001871c0       ___std_is_sorted_until_f@12 201881c0 f   libcpmt:vector_algorithms.obj
 0001:001871d0       ___std_max_1i@8            201881d0 f   libcpmt:vector_algorithms.obj
 0001:00187340       ___std_max_1u@8            20188340 f   libcpmt:vector_algorithms.obj
 0001:00187350       ___std_max_2i@8            20188350 f   libcpmt:vector_algorithms.obj
 0001:001874a0       ___std_max_2u@8            201884a0 f   libcpmt:vector_algorithms.obj
 0001:001874b0       ___std_max_4i@8            201884b0 f   libcpmt:vector_algorithms.obj
 0001:001874c0       ___std_max_4u@8            201884c0 f   libcpmt:vector_algorithms.obj
 0001:001874d0       ___std_max_8i@8            201884d0 f   libcpmt:vector_algorithms.obj
 0001:001874e0       ___std_max_8u@8            201884e0 f   libcpmt:vector_algorithms.obj
 0001:00187630       ___std_max_d@8             20188630 f   libcpmt:vector_algorithms.obj
 0001:00187640       ___std_max_element_1@12    20188640 f   libcpmt:vector_algorithms.obj
 0001:001876e0       ___std_max_element_2@12    201886e0 f   libcpmt:vector_algorithms.obj
 0001:00187780       ___std_max_element_4@12    20188780 f   libcpmt:vector_algorithms.obj
 0001:00187860       ___std_max_element_8@12    20188860 f   libcpmt:vector_algorithms.obj
 0001:00187910       ___std_max_element_d@12    20188910 f   libcpmt:vector_algorithms.obj
 0001:001879b0       ___std_max_element_f@12    201889b0 f   libcpmt:vector_algorithms.obj
 0001:00187a50       ___std_max_f@8             20188a50 f   libcpmt:vector_algorithms.obj
 0001:00187a60       ___std_min_1i@8            20188a60 f   libcpmt:vector_algorithms.obj
 0001:00187bd0       ___std_min_1u@8            20188bd0 f   libcpmt:vector_algorithms.obj
 0001:00187be0       ___std_min_2i@8            20188be0 f   libcpmt:vector_algorithms.obj
 0001:00187d30       ___std_min_2u@8            20188d30 f   libcpmt:vector_algorithms.obj
 0001:00187d40       ___std_min_4i@8            20188d40 f   libcpmt:vector_algorithms.obj
 0001:00187d50       ___std_min_4u@8            20188d50 f   libcpmt:vector_algorithms.obj
 0001:00187d60       ___std_min_8i@8            20188d60 f   libcpmt:vector_algorithms.obj
 0001:00187d70       ___std_min_8u@8            20188d70 f   libcpmt:vector_algorithms.obj
 0001:00187ec0       ___std_min_d@8             20188ec0 f   libcpmt:vector_algorithms.obj
 0001:00187ed0       ___std_min_element_1@12    20188ed0 f   libcpmt:vector_algorithms.obj
 0001:00187f70       ___std_min_element_2@12    20188f70 f   libcpmt:vector_algorithms.obj
 0001:00188020       ___std_min_element_4@12    20189020 f   libcpmt:vector_algorithms.obj
 0001:00188100       ___std_min_element_8@12    20189100 f   libcpmt:vector_algorithms.obj
 0001:001881b0       ___std_min_element_d@12    201891b0 f   libcpmt:vector_algorithms.obj
 0001:00188250       ___std_min_element_f@12    20189250 f   libcpmt:vector_algorithms.obj
 0001:001882f0       ___std_min_f@8             201892f0 f   libcpmt:vector_algorithms.obj
 0001:00188300       ___std_minmax_1i@8         20189300 f   libcpmt:vector_algorithms.obj
 0001:00188310       ___std_minmax_1u@8         20189310 f   libcpmt:vector_algorithms.obj
 0001:00188320       ___std_minmax_2i@8         20189320 f   libcpmt:vector_algorithms.obj
 0001:00188330       ___std_minmax_2u@8         20189330 f   libcpmt:vector_algorithms.obj
 0001:00188340       ___std_minmax_4i@8         20189340 f   libcpmt:vector_algorithms.obj
 0001:00188350       ___std_minmax_4u@8         20189350 f   libcpmt:vector_algorithms.obj
 0001:00188360       ___std_minmax_8i@8         20189360 f   libcpmt:vector_algorithms.obj
 0001:00188390       ___std_minmax_8u@8         20189390 f   libcpmt:vector_algorithms.obj
 0001:001883c0       ___std_minmax_d@8          201893c0 f   libcpmt:vector_algorithms.obj
 0001:001883f0       ___std_minmax_element_1@12 201893f0 f   libcpmt:vector_algorithms.obj
 0001:00188520       ___std_minmax_element_2@12 20189520 f   libcpmt:vector_algorithms.obj
 0001:001885f0       ___std_minmax_element_4@12 201895f0 f   libcpmt:vector_algorithms.obj
 0001:001886c0       ___std_minmax_element_8@12 201896c0 f   libcpmt:vector_algorithms.obj
 0001:00188790       ___std_minmax_element_d@12 20189790 f   libcpmt:vector_algorithms.obj
 0001:00188860       ___std_minmax_element_f@12 20189860 f   libcpmt:vector_algorithms.obj
 0001:00188920       ___std_minmax_f@8          20189920 f   libcpmt:vector_algorithms.obj
 0001:00188930       ___std_mismatch_1@12       20189930 f   libcpmt:vector_algorithms.obj
 0001:00188940       ___std_mismatch_2@12       20189940 f   libcpmt:vector_algorithms.obj
 0001:00188950       ___std_mismatch_4@12       20189950 f   libcpmt:vector_algorithms.obj
 0001:00188960       ___std_mismatch_8@12       20189960 f   libcpmt:vector_algorithms.obj
 0001:00188970       ___std_remove_1@12         20189970 f   libcpmt:vector_algorithms.obj
 0001:00188a30       ___std_remove_2@12         20189a30 f   libcpmt:vector_algorithms.obj
 0001:00188b00       ___std_remove_4@12         20189b00 f   libcpmt:vector_algorithms.obj
 0001:00188c30       ___std_remove_8@16         20189c30 f   libcpmt:vector_algorithms.obj
 0001:00188d70       ___std_remove_copy_1@16    20189d70 f   libcpmt:vector_algorithms.obj
 0001:00188f10       ___std_remove_copy_2@16    20189f10 f   libcpmt:vector_algorithms.obj
 0001:001890c0       ___std_remove_copy_4@16    2018a0c0 f   libcpmt:vector_algorithms.obj
 0001:00189350       ___std_remove_copy_8@20    2018a350 f   libcpmt:vector_algorithms.obj
 0001:00189620       ___std_replace_4@16        2018a620 f   libcpmt:vector_algorithms.obj
 0001:001896e0       ___std_replace_8@24        2018a6e0 f   libcpmt:vector_algorithms.obj
 0001:001897c0       ___std_reverse_copy_trivially_copyable_1 2018a7c0 f   libcpmt:vector_algorithms.obj
 0001:001897d0       ___std_reverse_copy_trivially_copyable_2 2018a7d0 f   libcpmt:vector_algorithms.obj
 0001:001897e0       ___std_reverse_copy_trivially_copyable_4 2018a7e0 f   libcpmt:vector_algorithms.obj
 0001:001898e0       ___std_reverse_copy_trivially_copyable_8 2018a8e0 f   libcpmt:vector_algorithms.obj
 0001:001899e0       ___std_reverse_trivially_swappable_1 2018a9e0 f   libcpmt:vector_algorithms.obj
 0001:001899f0       ___std_reverse_trivially_swappable_2 2018a9f0 f   libcpmt:vector_algorithms.obj
 0001:00189a00       ___std_reverse_trivially_swappable_4 2018aa00 f   libcpmt:vector_algorithms.obj
 0001:00189ae0       ___std_reverse_trivially_swappable_8 2018aae0 f   libcpmt:vector_algorithms.obj
 0001:00189bf0       ___std_rotate@12           2018abf0 f   libcpmt:vector_algorithms.obj
 0001:00189f30       ___std_search_1@16         2018af30 f   libcpmt:vector_algorithms.obj
 0001:00189f40       ___std_search_2@16         2018af40 f   libcpmt:vector_algorithms.obj
 0001:00189f50       ___std_search_4@16         2018af50 f   libcpmt:vector_algorithms.obj
 0001:0018a090       ___std_search_8@16         2018b090 f   libcpmt:vector_algorithms.obj
 0001:0018a1f0       ___std_search_n_1@16       2018b1f0 f   libcpmt:vector_algorithms.obj
 0001:0018a200       ___std_search_n_2@16       2018b200 f   libcpmt:vector_algorithms.obj
 0001:0018a210       ___std_search_n_4@16       2018b210 f   libcpmt:vector_algorithms.obj
 0001:0018a220       ___std_search_n_8@20       2018b220 f   libcpmt:vector_algorithms.obj
 0001:0018a250       ___std_swap_ranges_trivially_swappable 2018b250 f   libcpmt:vector_algorithms.obj
 0001:0018a280       ___std_swap_ranges_trivially_swappable_noalias 2018b280 f   libcpmt:vector_algorithms.obj
 0001:0018a380       ___std_unique_1@8          2018b380 f   libcpmt:vector_algorithms.obj
 0001:0018a440       ___std_unique_2@8          2018b440 f   libcpmt:vector_algorithms.obj
 0001:0018a520       ___std_unique_4@8          2018b520 f   libcpmt:vector_algorithms.obj
 0001:0018a650       ___std_unique_8@8          2018b650 f   libcpmt:vector_algorithms.obj
 0001:0018a7a0       ___std_unique_copy_1@12    2018b7a0 f   libcpmt:vector_algorithms.obj
 0001:0018a930       ___std_unique_copy_2@12    2018b930 f   libcpmt:vector_algorithms.obj
 0001:0018aac0       ___std_unique_copy_4@12    2018bac0 f   libcpmt:vector_algorithms.obj
 0001:0018ad20       ___std_unique_copy_8@12    2018bd20 f   libcpmt:vector_algorithms.obj
 0001:0018afa2       __Stolx                    2018bfa2 f   libcpmt:xstol.obj
 0001:0018b081       __Stoul                    2018c081 f   libcpmt:xstoul.obj
 0001:0018b09f       __Stoulx                   2018c09f f   libcpmt:xstoul.obj
 0001:0018b270       __Stoll                    2018c270 f   libcpmt:xstoll.obj
 0001:0018b28e       __Stollx                   2018c28e f   libcpmt:xstoll.obj
 0001:0018b3a6       __Stoull                   2018c3a6 f   libcpmt:xstoull.obj
 0001:0018b3c4       __Stoullx                  2018c3c4 f   libcpmt:xstoull.obj
 0001:0018b646       ??$?0$$V@?$_Compressed_pair@V?$allocator@D@std@@V?$_String_val@U?$_Simple_types@D@std@@@2@$00@std@@QAE@U_Zero_then_variadic_args_t@1@@Z 2018c646 f i libcpmt:cout.obj
 0001:0018b66a       ??$?0AAPAV_Facet_base@std@@@?$_Compressed_pair@U?$default_delete@V_Facet_base@std@@@std@@PAV_Facet_base@2@$00@std@@QAE@U_Zero_then_variadic_args_t@1@AAPAV_Facet_base@1@@Z 2018c66a f i libcpmt:cout.obj
 0001:0018b67e       ??$?0U?$default_delete@V_Facet_base@std@@@std@@$0A@@?$unique_ptr@V_Facet_base@std@@U?$default_delete@V_Facet_base@std@@@2@@std@@QAE@PAV_Facet_base@1@@Z 2018c67e f i libcpmt:cout.obj
 0001:0018b68f       ??$?0V?$allocator@D@std@@$$V@?$_Compressed_pair@V?$allocator@D@std@@V?$_String_val@U?$_Simple_types@D@std@@@2@$00@std@@QAE@U_One_then_variadic_args_t@1@$$QAV?$allocator@D@1@@Z 2018c68f f i libcpmt:cout.obj
 0001:0018b6b3       ??$_Adl_verify_range@PADPBD@std@@YAXABQADABQBD@Z 2018c6b3 f i libcpmt:cout.obj
 0001:0018b6b6       ??$_Adl_verify_range@PBDPBD@std@@YAXABQBD0@Z 2018c6b6 f i libcpmt:cout.obj
 0001:0018b6b9       ??$_Allocate@$07U_Default_allocate_traits@std@@@std@@YAPAXI@Z 2018c6b9 f i libcpmt:cout.obj
 0001:0018b6e4       ??$_Allocate_at_least_helper@V?$allocator@D@std@@@std@@YAPADAAV?$allocator@D@0@AAI@Z 2018c6e4 f i libcpmt:cout.obj
 0001:0018b6f8       ??$_Allocate_for_capacity@$0A@@?$basic_string@DU?$char_traits@D@std@@V?$allocator@D@2@@std@@CAPADAAV?$allocator@D@1@AAI@Z 2018c6f8 f i libcpmt:cout.obj
 0001:0018b713       ??$_Append@D@?$basic_string@DU?$char_traits@D@std@@V?$allocator@D@2@@std@@AAEAAV01@QBDI@Z 2018c713 f i libcpmt:cout.obj
 0001:0018b790       ??$_Bit_cast@IT_Addr_storage@error_category@std@@$0A@@std@@YAIABT_Addr_storage@error_category@0@@Z 2018c790 f i libcpmt:cout.obj
 0001:0018b79c       ??$_Construct@$01PBD@?$basic_string@DU?$char_traits@D@std@@V?$allocator@D@2@@std@@AAEXQBDI@Z 2018c79c f i libcpmt:cout.obj
 0001:0018b82a       ??$_Construct_in_place@PADAAPAD@std@@YAXAAPAD0@Z 2018c82a f i libcpmt:cout.obj
 0001:0018b83c       ??$_Construct_in_place@PADABQAD@std@@YAXAAPADABQAD@Z 2018c83c f i libcpmt:cout.obj
 0001:0018b84e       ??$_Convert_size@II@std@@YAII@Z 2018c84e f i libcpmt:cout.obj
 0001:0018b858       ??$_Deallocate@$07@std@@YAXPAXI@Z 2018c858 f i libcpmt:cout.obj
 0001:0018b88f       ??$_Destroy_in_place@PAD@std@@YAXAAPAD@Z 2018c88f f i libcpmt:cout.obj
 0001:0018b892       ??$_Fgetc@D@std@@YA_NAADPAU_iobuf@@@Z 2018c892 f i libcpmt:cout.obj
 0001:0018b8ba       ??$_Get_index@$0A@@id@locale@std@@QAEIXZ 2018c8ba f i libcpmt:cout.obj
 0001:0018b8fc       ??$_Get_proxy_allocator@V?$allocator@D@std@@@std@@YA?AU_Fake_allocator@0@ABV?$allocator@D@0@@Z 2018c8fc f i libcpmt:cout.obj
 0001:0018b8ff       ??$_Get_size_of_n@$00@std@@YAII@Z 2018c8ff f i libcpmt:cout.obj
 0001:0018b909       ??$_Max_limit@H@std@@YAHXZ 2018c909 f i libcpmt:cout.obj
 0001:0018b90f       ??$_Reallocate_grow_by@V<lambda_1>@?1???$_Append@D@?$basic_string@DU?$char_traits@D@std@@V?$allocator@D@2@@std@@AAEAAV23@QBDI@Z@PBDI@?$basic_string@DU?$char_traits@D@std@@V?$allocator@D@2@@std@@AAEAAV01@IV<lambda_1>@?1???$_Append@D@01@AAEAAV01@QBDI@Z@PBDI@Z 2018c90f f i libcpmt:cout.obj
 0001:0018b9d3       ??$_Reallocate_grow_by@V<lambda_1>@?1??push_back@?$basic_string@DU?$char_traits@D@std@@V?$allocator@D@2@@std@@QAEXD@Z@D@?$basic_string@DU?$char_traits@D@std@@V?$allocator@D@2@@std@@AAEAAV01@IV<lambda_1>@?1??push_back@01@QAEXD@Z@D@Z 2018c9d3 f i libcpmt:cout.obj
 0001:0018babb       ??$_Traits_copy_batch@U?$char_traits@D@std@@D@std@@YAXQADQBDI@Z 2018cabb f i libcpmt:cout.obj
 0001:0018bac0       ??$_Traits_move_batch@U?$char_traits@D@std@@D@std@@YAXQADQBDI@Z 2018cac0 f i libcpmt:cout.obj
 0001:0018bac5       ??$_Unfancy@D@std@@YAPADPAD@Z 2018cac5 f i libcpmt:cout.obj
 0001:0018bacf       ??$_Ungetc@D@std@@YA_NABDPAU_iobuf@@@Z 2018cacf f i libcpmt:cout.obj
 0001:0018baf2       ??$addressof@$$CBV?$codecvt@DDU_Mbstatet@@@std@@@std@@YAPBV?$codecvt@DDU_Mbstatet@@@0@ABV10@@Z 2018caf2 f i libcpmt:cout.obj
 0001:0018bafc       ??$addressof@PAD@std@@YAPAPADAAPAD@Z 2018cafc f i libcpmt:cout.obj
 0001:0018bb06       ??$construct_at@D$$V@std@@YAPADQAD@Z 2018cb06 f i libcpmt:cout.obj
 0001:0018bb13       ??$construct_at@PADAAPAD@std@@YAPAPADQAPADAAPAD@Z 2018cb13 f i libcpmt:cout.obj
 0001:0018bb25       ??$construct_at@PADABQAD@std@@YAPAPADQAPADABQAD@Z 2018cb25 f i libcpmt:cout.obj
 0001:0018bb37       ??$exchange@PAV_Facet_base@std@@$$T@std@@YAPAV_Facet_base@0@AAPAV10@$$QA$$T@Z 2018cb37 f i libcpmt:cout.obj
 0001:0018bb4c       ??$forward@AAPAD@std@@YAAAPADAAPAD@Z 2018cb4c f i libcpmt:cout.obj
 0001:0018bb56       ??$forward@AAPAV_Facet_base@std@@@std@@YAAAPAV_Facet_base@0@AAPAV10@@Z 2018cb56 f i libcpmt:cout.obj
 0001:0018bb60       ??$forward@ABQAD@std@@YAABQADABQAD@Z 2018cb60 f i libcpmt:cout.obj
 0001:0018bb6a       ??$forward@V?$allocator@D@std@@@std@@YA$$QAV?$allocator@D@0@AAV10@@Z 2018cb6a f i libcpmt:cout.obj
 0001:0018bb74       ??$max@I@std@@YAABIABI0@Z  2018cb74 f i libcpmt:cout.obj
 0001:0018bb8a       ??$min@H@std@@YAABHABH0@Z  2018cb8a f i libcpmt:cout.obj
 0001:0018bba0       ??$min@I@std@@YAABIABI0@Z  2018cba0 f i libcpmt:cout.obj
 0001:0018bbb6       ??$move@AAV?$allocator@D@std@@@std@@YA$$QAV?$allocator@D@0@AAV10@@Z 2018cbb6 f i libcpmt:cout.obj
 0001:0018bbc0       ??0?$_String_val@U?$_Simple_types@D@std@@@std@@QAE@XZ 2018cbc0 f i libcpmt:cout.obj
 0001:0018bbe1       ??0?$_Yarn@D@std@@QAE@XZ   2018cbe1 f i libcpmt:cout.obj
 0001:0018bbf1       ??0?$_Yarn@_W@std@@QAE@XZ  2018cbf1 f i libcpmt:cout.obj
 0001:0018bc03       ??0?$allocator@D@std@@QAE@XZ 2018cc03 f i libcpmt:cout.obj
 0001:0018bc06       ??0?$basic_filebuf@DU?$char_traits@D@std@@@std@@QAE@QAU_iobuf@@@Z 2018cc06 f i libcpmt:cout.obj
 0001:0018bc38       ??0?$basic_string@DU?$char_traits@D@std@@V?$allocator@D@2@@std@@QAE@QBDI@Z 2018cc38 f i libcpmt:cout.obj
 0001:0018bc74       ??0?$basic_string@DU?$char_traits@D@std@@V?$allocator@D@2@@std@@QAE@XZ 2018cc74 f i libcpmt:cout.obj
 0001:0018bc99       ??0?$codecvt@DDU_Mbstatet@@@std@@QAE@ABV_Locinfo@1@I@Z 2018cc99 f i libcpmt:cout.obj
 0001:0018bcb8       ??0?$ctype@D@std@@QAE@ABV_Locinfo@1@I@Z 2018ccb8 f i libcpmt:cout.obj
 0001:0018bcfb       ??0?$fpos@U_Mbstatet@@@std@@QAE@U_Mbstatet@@_J@Z 2018ccfb f i libcpmt:cout.obj
 0001:0018bd39       ??0_Bxty@?$_String_val@U?$_Simple_types@D@std@@@std@@QAE@XZ 2018cd39 f i libcpmt:cout.obj
 0001:0018bd49       ??0_Fake_proxy_ptr_impl@std@@QAE@ABU_Fake_allocator@1@ABU_Container_base0@1@@Z 2018cd49 f i libcpmt:cout.obj
 0001:0018bd4e       ??0_Init_cout@std@@QAE@XZ  2018cd4e f i libcpmt:cout.obj
 0001:0018bd9e       ??0bad_alloc@std@@AAE@QBD@Z 2018cd9e f i libcpmt:cout.obj
 0001:0018bdc9       ??0codecvt_base@std@@QAE@I@Z 2018cdc9 f i libcpmt:cout.obj
 0001:0018bde3       ??0ctype_base@std@@QAE@I@Z 2018cde3 f i libcpmt:cout.obj
 0001:0018bdfd       ??0error_code@std@@QAE@HABVerror_category@1@@Z 2018cdfd f i libcpmt:cout.obj
 0001:0018be16       ??0error_condition@std@@QAE@HABVerror_category@1@@Z 2018ce16 f i libcpmt:cout.obj
 0001:0018be2f       ??0ios_base@std@@IAE@XZ    2018ce2f f i libcpmt:cout.obj
 0001:0018be66       ??0locale@std@@QAE@ABV01@@Z 2018ce66 f i libcpmt:cout.obj
 0001:0018be9b       ??0locale@std@@QAE@XZ      2018ce9b f i libcpmt:cout.obj
 0001:0018bef1       ??0runtime_error@std@@QAE@ABV?$basic_string@DU?$char_traits@D@std@@V?$allocator@D@2@@1@@Z 2018cef1 f i libcpmt:cout.obj
 0001:0018bf23       ??0system_error@std@@QAE@Verror_code@1@PBD@Z 2018cf23 f i libcpmt:cout.obj
 0001:0018bf87       ??1?$_Compressed_pair@V?$allocator@D@std@@V?$_String_val@U?$_Simple_types@D@std@@@2@$00@std@@QAE@XZ 2018cf87 f i libcpmt:cout.obj
 0001:0018bf8a       ??1?$_String_val@U?$_Simple_types@D@std@@@std@@QAE@XZ 2018cf8a f i libcpmt:cout.obj
 0001:0018bf8d       ??1_Bxty@?$_String_val@U?$_Simple_types@D@std@@@std@@QAE@XZ 2018cf8d f i libcpmt:cout.obj
 0001:0018bf90       ??1_Iostream_error_category2@std@@UAE@XZ 2018cf90 f i libcpmt:cout.obj
 0001:0018bf93       ??1_System_error@std@@UAE@XZ 2018cf93 f i libcpmt:cout.obj
 0001:0018bfa8       ??1codecvt_base@std@@UAE@XZ 2018cfa8 f i libcpmt:cout.obj
 0001:0018bfaf       ??8error_category@std@@QBE_NABV01@@Z 2018cfaf f i libcpmt:cout.obj
 0001:0018bfc6       ??8std@@YA_NABVerror_condition@0@0@Z 2018cfc6 f i libcpmt:cout.obj
 0001:0018bff6       ??B?$fpos@U_Mbstatet@@@std@@QBE_JXZ 2018cff6 f i libcpmt:cout.obj
 0001:0018c005       ??R<lambda_1>@?1???$_Append@D@?$basic_string@DU?$char_traits@D@std@@V?$allocator@D@2@@std@@AAEAAV12@QBDI@Z@SA@QAD0I0I@Z 2018d005 f i libcpmt:cout.obj
 0001:0018c03f       ??R<lambda_1>@?1??push_back@?$basic_string@DU?$char_traits@D@std@@V?$allocator@D@2@@std@@QAEXD@Z@SA@QADQBDID@Z 2018d03f f i libcpmt:cout.obj
 0001:0018c06f       ??R?$default_delete@V_Facet_base@std@@@std@@QBEXPAV_Facet_base@1@@Z 2018d06f f i libcpmt:cout.obj
 0001:0018c09c       ?_Activate_SSO_buffer@?$_String_val@U?$_Simple_types@D@std@@@std@@QAEXXZ 2018d09c f i libcpmt:cout.obj
 0001:0018c09f       ?_Adjust_manually_vector_aligned@std@@YAXAAPAXAAI@Z 2018d09f f i libcpmt:cout.obj
 0001:0018c0cc       ?_Alloc_proxy@_Container_base0@std@@QAEXABU_Fake_allocator@2@@Z 2018d0cc f i libcpmt:cout.obj
 0001:0018c0cf       ?_Allocate@_Default_allocate_traits@std@@SAPAXI@Z 2018d0cf f i libcpmt:cout.obj
 0001:0018c0da       ?_Apply_annotation@?$basic_string@DU?$char_traits@D@std@@V?$allocator@D@2@@std@@CAXQBDIII@Z 2018d0da f i libcpmt:cout.obj
 0001:0018c135       ?_C_str@locale@std@@QBEPBDXZ 2018d135 f i libcpmt:cout.obj
 0001:0018c153       ?_Calculate_growth@?$basic_string@DU?$char_traits@D@std@@V?$allocator@D@2@@std@@ABEII@Z 2018d153 f i libcpmt:cout.obj
 0001:0018c173       ?_Calculate_growth@?$basic_string@DU?$char_traits@D@std@@V?$allocator@D@2@@std@@CAIIII@Z 2018d173 f i libcpmt:cout.obj
 0001:0018c1b0       ?_Check_offset@?$_String_val@U?$_Simple_types@D@std@@@std@@QBEXI@Z 2018d1b0 f i libcpmt:cout.obj
 0001:0018c1ca       ?_Clamp_suffix_size@?$_String_val@U?$_Simple_types@D@std@@@std@@QBEIII@Z 2018d1ca f i libcpmt:cout.obj
 0001:0018c1e4       ?_Clamp_to_end@_Asan_aligned_pointers@std@@QBEPBXPBX@Z 2018d1e4 f i libcpmt:cout.obj
 0001:0018c1f9       ?_Construct_empty@?$basic_string@DU?$char_traits@D@std@@V?$allocator@D@2@@std@@AAEXXZ 2018d1f9 f i libcpmt:cout.obj
 0001:0018c20f       ?_Create_annotation@?$basic_string@DU?$char_traits@D@std@@V?$allocator@D@2@@std@@ABEXXZ 2018d20f f i libcpmt:cout.obj
 0001:0018c22f       ?_Erase_noexcept@?$basic_string@DU?$char_traits@D@std@@V?$allocator@D@2@@std@@AAEAAV12@II@Z 2018d22f f i libcpmt:cout.obj
 0001:0018c29d       ?_Get_asan_aligned_after@std@@YAPBXQBX@Z 2018d29d f i libcpmt:cout.obj
 0001:0018c2ae       ?_Get_first@?$_Compressed_pair@U?$default_delete@V_Facet_base@std@@@std@@PAV_Facet_base@2@$00@std@@QAEAAU?$default_delete@V_Facet_base@std@@@2@XZ 2018d2ae f i libcpmt:cout.obj
 0001:0018c2b1       ?_Get_first@?$_Compressed_pair@V?$allocator@D@std@@V?$_String_val@U?$_Simple_types@D@std@@@2@$00@std@@QAEAAV?$allocator@D@2@XZ 2018d2b1 f i libcpmt:cout.obj
 0001:0018c2b4       ?_Get_first@?$_Compressed_pair@V?$allocator@D@std@@V?$_String_val@U?$_Simple_types@D@std@@@2@$00@std@@QBEABV?$allocator@D@2@XZ 2018d2b4 f i libcpmt:cout.obj
 0001:0018c2b7       ?_Getal@?$basic_string@DU?$char_traits@D@std@@V?$allocator@D@2@@std@@AAEAAV?$allocator@D@2@XZ 2018d2b7 f i libcpmt:cout.obj
 0001:0018c2ba       ?_Getal@?$basic_string@DU?$char_traits@D@std@@V?$allocator@D@2@@std@@ABEABV?$allocator@D@2@XZ 2018d2ba f i libcpmt:cout.obj
 0001:0018c2bd       ?_Getcat@?$codecvt@DDU_Mbstatet@@@std@@SAIPAPBVfacet@locale@2@PBV42@@Z 2018d2bd f i libcpmt:cout.obj
 0001:0018c342       ?_Getctype@_Locinfo@std@@QBE?AU_Ctypevec@@XZ 2018d342 f i libcpmt:cout.obj
 0001:0018c36d       ?_Getfacet@locale@std@@QBEPBVfacet@12@I@Z 2018d36d f i libcpmt:cout.obj
 0001:0018c3be       ?_Gnavail@?$basic_streambuf@DU?$char_traits@D@std@@@std@@IBE_JXZ 2018d3be f i libcpmt:cout.obj
 0001:0018c3d4       ?_Gndec@?$basic_streambuf@DU?$char_traits@D@std@@@std@@IAEPADXZ 2018d3d4 f i libcpmt:cout.obj
 0001:0018c3e5       ?_Gninc@?$basic_streambuf@DU?$char_traits@D@std@@@std@@IAEPADXZ 2018d3e5 f i libcpmt:cout.obj
 0001:0018c3f9       ?_Init@?$basic_streambuf@DU?$char_traits@D@std@@@std@@IAEXPAPAD0PAH001@Z 2018d3f9 f i libcpmt:cout.obj
 0001:0018c42e       ?_Init@?$codecvt@DDU_Mbstatet@@@std@@IAEXABV_Locinfo@2@@Z 2018d42e f i libcpmt:cout.obj
 0001:0018c431       ?_Init@?$ctype@D@std@@IAEXABV_Locinfo@2@@Z 2018d431 f i libcpmt:cout.obj
 0001:0018c45c       ?_Init@ios_base@std@@IAEXXZ 2018d45c f i libcpmt:cout.obj
 0001:0018c4e1       ?_Large_mode_engaged@?$_String_val@U?$_Simple_types@D@std@@@std@@QBE_NXZ 2018d4e1 f i libcpmt:cout.obj
 0001:0018c4eb       ?_Modify_annotation@?$basic_string@DU?$char_traits@D@std@@V?$allocator@D@2@@std@@ABEXII@Z 2018d4eb f i libcpmt:cout.obj
 0001:0018c51b       ?_Myptr@?$_String_val@U?$_Simple_types@D@std@@@std@@QAEPADXZ 2018d51b f i libcpmt:cout.obj
 0001:0018c528       ?_Myptr@?$_String_val@U?$_Simple_types@D@std@@@std@@QBEPBDXZ 2018d528 f i libcpmt:cout.obj
 0001:0018c535       ?_Orphan_all@_Container_base0@std@@QAEXXZ 2018d535 f i libcpmt:cout.obj
 0001:0018c538       ?_Pnavail@?$basic_streambuf@DU?$char_traits@D@std@@@std@@IBE_JXZ 2018d538 f i libcpmt:cout.obj
 0001:0018c54e       ?_Pninc@?$basic_streambuf@DU?$char_traits@D@std@@@std@@IAEPADXZ 2018d54e f i libcpmt:cout.obj
 0001:0018c562       ?_Release@_Fake_proxy_ptr_impl@std@@QAEXXZ 2018d562 f i libcpmt:cout.obj
 0001:0018c565       ?_Remove_annotation@?$basic_string@DU?$char_traits@D@std@@V?$allocator@D@2@@std@@ABEXXZ 2018d565 f i libcpmt:cout.obj
 0001:0018c585       ?_Set_back@?$basic_filebuf@DU?$char_traits@D@std@@@std@@AAEXXZ 2018d585 f i libcpmt:cout.obj
 0001:0018c5d1       ?_Swap_proxy_and_iterators@?$basic_string@DU?$char_traits@D@std@@V?$allocator@D@2@@std@@AAEXAAV12@@Z 2018d5d1 f i libcpmt:cout.obj
 0001:0018c5d4       ?_Swap_proxy_and_iterators@_Container_base0@std@@QAEXAAU12@@Z 2018d5d4 f i libcpmt:cout.obj
 0001:0018c5d7       ?_Switch_to_buf@_Bxty@?$_String_val@U?$_Simple_types@D@std@@@std@@QAEXXZ 2018d5d7 f i libcpmt:cout.obj
 0001:0018c5da       ?_Take_contents@?$basic_string@DU?$char_traits@D@std@@V?$allocator@D@2@@std@@AAEXAAV12@@Z 2018d5da f i libcpmt:cout.obj
 0001:0018c634       ?_Tidy@?$_Yarn@_W@std@@AAEXXZ 2018d634 f i libcpmt:cout.obj
 0001:0018c652       ?_Tidy@?$ctype@D@std@@IAEXXZ 2018d652 f i libcpmt:cout.obj
 0001:0018c686       ?allocate@?$allocator@D@std@@QAEPADI@Z 2018d686 f i libcpmt:cout.obj
 0001:0018c69a       ?always_noconv@codecvt_base@std@@QBE_NXZ 2018d69a f i libcpmt:cout.obj
 0001:0018c6b8       ?assign@?$_Narrow_char_traits@DH@std@@SAXAADABD@Z 2018d6b8 f i libcpmt:cout.obj
 0001:0018c6ca       ?c_str@?$basic_string@DU?$char_traits@D@std@@V?$allocator@D@2@@std@@QBEPBDXZ 2018d6ca f i libcpmt:cout.obj
 0001:0018c6d7       ?category@error_code@std@@QBEABVerror_category@2@XZ 2018d6d7 f i libcpmt:cout.obj
 0001:0018c6db       ?category@error_condition@std@@QBEABVerror_category@2@XZ 2018d6db f i libcpmt:cout.obj
 0001:0018c6df       ?clear@ios_base@std@@QAEXH@Z 2018d6df f i libcpmt:cout.obj
 0001:0018c6f4       ?copy@?$_Char_traits@DH@std@@SAPADQADQBDI@Z 2018d6f4 f i libcpmt:cout.obj
 0001:0018c713       ?data@?$basic_string@DU?$char_traits@D@std@@V?$allocator@D@2@@std@@QAEPADXZ 2018d713 f i libcpmt:cout.obj
 0001:0018c720       ?eback@?$basic_streambuf@DU?$char_traits@D@std@@@std@@IBEPADXZ 2018d720 f i libcpmt:cout.obj
 0001:0018c726       ?egptr@?$basic_streambuf@DU?$char_traits@D@std@@@std@@IBEPADXZ 2018d726 f i libcpmt:cout.obj
 0001:0018c733       ?empty@?$basic_string@DU?$char_traits@D@std@@V?$allocator@D@2@@std@@QBE_NXZ 2018d733 f i libcpmt:cout.obj
 0001:0018c73d       ?eof@?$_Narrow_char_traits@DH@std@@SAHXZ 2018d73d f i libcpmt:cout.obj
 0001:0018c741       ?epptr@?$basic_streambuf@DU?$char_traits@D@std@@@std@@IBEPADXZ 2018d741 f i libcpmt:cout.obj
 0001:0018c74e       ?eq_int_type@?$_Narrow_char_traits@DH@std@@SA_NHH@Z 2018d74e f i libcpmt:cout.obj
 0001:0018c75f       ?erase@?$basic_string@DU?$char_traits@D@std@@V?$allocator@D@2@@std@@QAEAAV12@II@Z 2018d75f f i libcpmt:cout.obj
 0001:0018c784       ?front@?$basic_string@DU?$char_traits@D@std@@V?$allocator@D@2@@std@@QAEAADXZ 2018d784 f i libcpmt:cout.obj
 0001:0018c791       ?gbump@?$basic_streambuf@DU?$char_traits@D@std@@@std@@IAEXH@Z 2018d791 f i libcpmt:cout.obj
 0001:0018c7aa       ?getloc@ios_base@std@@QBE?AVlocale@2@XZ 2018d7aa f i libcpmt:cout.obj
 0001:0018c7c4       ?gptr@?$basic_streambuf@DU?$char_traits@D@std@@@std@@IBEPADXZ 2018d7c4 f i libcpmt:cout.obj
 0001:0018c7ca       ?in@?$codecvt@DDU_Mbstatet@@@std@@QBEHAAU_Mbstatet@@PBD1AAPBDPAD3AAPAD@Z 2018d7ca f i libcpmt:cout.obj
 0001:0018c809       ?iostream_category@std@@YAABVerror_category@1@XZ 2018d809 f i libcpmt:cout.obj
 0001:0018c80f       ?is_constant_evaluated@std@@YA_NXZ 2018d80f f i libcpmt:cout.obj
 0001:0018c812       ?length@?$_Narrow_char_traits@DH@std@@SAIQBD@Z 2018d812 f i libcpmt:cout.obj
 0001:0018c82b       ?max_size@?$_Default_allocator_traits@V?$allocator@D@std@@@std@@SAIABV?$allocator@D@2@@Z 2018d82b f i libcpmt:cout.obj
 0001:0018c82f       ?max_size@?$basic_string@DU?$char_traits@D@std@@V?$allocator@D@2@@std@@QBEIXZ 2018d82f f i libcpmt:cout.obj
 0001:0018c835       ?message@error_code@std@@QBE?AV?$basic_string@DU?$char_traits@D@std@@V?$allocator@D@2@@2@XZ 2018d835 f i libcpmt:cout.obj
 0001:0018c867       ?move@?$_Char_traits@DH@std@@SAPADQADQBDI@Z 2018d867 f i libcpmt:cout.obj
 0001:0018c886       ?not_eof@?$_Narrow_char_traits@DH@std@@SAHH@Z 2018d886 f i libcpmt:cout.obj
 0001:0018c89a       ?out@?$codecvt@DDU_Mbstatet@@@std@@QBEHAAU_Mbstatet@@PBD1AAPBDPAD3AAPAD@Z 2018d89a f i libcpmt:cout.obj
 0001:0018c8d9       ?pbump@?$basic_streambuf@DU?$char_traits@D@std@@@std@@IAEXH@Z 2018d8d9 f i libcpmt:cout.obj
 0001:0018c8f2       ?pptr@?$basic_streambuf@DU?$char_traits@D@std@@@std@@IBEPADXZ 2018d8f2 f i libcpmt:cout.obj
 0001:0018c8f8       ?push_back@?$basic_string@DU?$char_traits@D@std@@V?$allocator@D@2@@std@@QAEXD@Z 2018d8f8 f i libcpmt:cout.obj
 0001:0018c950       ?rdstate@ios_base@std@@QBEHXZ 2018d950 f i libcpmt:cout.obj
 0001:0018c954       ?release@?$unique_ptr@V_Facet_base@std@@U?$default_delete@V_Facet_base@std@@@2@@std@@QAEPAV_Facet_base@2@XZ 2018d954 f i libcpmt:cout.obj
 0001:0018c95f       ?select_on_container_copy_construction@?$_Default_allocator_traits@V?$allocator@D@std@@@std@@SA?AV?$allocator@D@2@ABV32@@Z 2018d95f f i libcpmt:cout.obj
 0001:0018c969       ?setg@?$basic_streambuf@DU?$char_traits@D@std@@@std@@IAEXPAD00@Z 2018d969 f i libcpmt:cout.obj
 0001:0018c994       ?setp@?$basic_streambuf@DU?$char_traits@D@std@@@std@@IAEXPAD0@Z 2018d994 f i libcpmt:cout.obj
 0001:0018c9bc       ?size@?$basic_string@DU?$char_traits@D@std@@V?$allocator@D@2@@std@@QBEIXZ 2018d9bc f i libcpmt:cout.obj
 0001:0018c9c0       ?state@?$fpos@U_Mbstatet@@@std@@QBE?AU_Mbstatet@@XZ 2018d9c0 f i libcpmt:cout.obj
 0001:0018c9da       ?tie@?$basic_ios@DU?$char_traits@D@std@@@std@@QAEPAV?$basic_ostream@DU?$char_traits@D@std@@@2@PAV32@@Z 2018d9da f i libcpmt:cout.obj
 0001:0018c9ee       ?to_char_type@?$_Narrow_char_traits@DH@std@@SADH@Z 2018d9ee f i libcpmt:cout.obj
 0001:0018c9f8       ?to_int_type@?$_Narrow_char_traits@DH@std@@SAHD@Z 2018d9f8 f i libcpmt:cout.obj
 0001:0018ca03       ?unshift@?$codecvt@DDU_Mbstatet@@@std@@QBEHAAU_Mbstatet@@PAD1AAPAD@Z 2018da03 f i libcpmt:cout.obj
 0001:0018ca37       ?value@error_code@std@@QBEHXZ 2018da37 f i libcpmt:cout.obj
 0001:0018ca3a       ?value@error_condition@std@@QBEHXZ 2018da3a f i libcpmt:cout.obj
 0001:0018ca3d       ?widen@?$basic_ios@DU?$char_traits@D@std@@@std@@QBEDD@Z 2018da3d f i libcpmt:cout.obj
 0001:0018caa3       ?widen@?$ctype@D@std@@QBEDD@Z 2018daa3 f i libcpmt:cout.obj
 0001:0018cacc       __Mtxdst                   2018dacc f   libcpmt:xmtx.obj
 0001:0018cadd       __Mtxinit                  2018dadd f   libcpmt:xmtx.obj
 0001:0018caf7       __Mtxlock                  2018daf7 f   libcpmt:xmtx.obj
 0001:0018cb08       __Mtxunlock                2018db08 f   libcpmt:xmtx.obj
 0001:0018cb2a       ___std_get_string_size_without_trailing_whitespace@8 2018db2a f   libcpmt:syserror_import_lib.obj
 0001:0018cb57       ___std_system_error_allocate_message@8 2018db57 f   libcpmt:syserror_import_lib.obj
 0001:0018cbef       ___std_system_error_deallocate_message@4 2018dbef f   libcpmt:syserror_import_lib.obj
 0001:0018cbf5       ??$_Adl_verify_range@PADPAD@std@@YAXABQAD0@Z 2018dbf5 f i libcpmt:locale.obj
 0001:0018cbf8       ??$_Adl_verify_range@V?$istreambuf_iterator@DU?$char_traits@D@std@@@std@@V12@@std@@YAXABV?$istreambuf_iterator@DU?$char_traits@D@std@@@0@0@Z 2018dbf8 f i libcpmt:locale.obj
 0001:0018cbfb       ??$_Construct@$0A@D@?$basic_string@DU?$char_traits@D@std@@V?$allocator@D@2@@std@@AAEXDI@Z 2018dbfb f i libcpmt:locale.obj
 0001:0018cca2       ??$_Could_compare_equal_to_value_type@PBDD@std@@YA_NABD@Z 2018dca2 f i libcpmt:locale.obj
 0001:0018cca5       ??$_Find_unchecked@PBDD@std@@YAPBDPBDQBDABD@Z 2018dca5 f i libcpmt:locale.obj
 0001:0018ccc8       ??$_Get_unwrapped@ABQAD@std@@YA?A_TABQAD@Z 2018dcc8 f i libcpmt:locale.obj
 0001:0018ccd4       ??$_Pocma@V?$allocator@D@std@@@std@@YAXAAV?$allocator@D@0@0@Z 2018dcd4 f i libcpmt:locale.obj
 0001:0018ccd7       ??$_Reallocate_grow_by@V<lambda_1>@?1??append@?$basic_string@DU?$char_traits@D@std@@V?$allocator@D@2@@std@@QAEAAV34@ID@Z@ID@?$basic_string@DU?$char_traits@D@std@@V?$allocator@D@2@@std@@AAEAAV01@IV<lambda_1>@?1??append@01@QAEAAV01@ID@Z@ID@Z 2018dcd7 f i libcpmt:locale.obj
 0001:0018cd9b       ??$_Reallocate_grow_by@V<lambda_1>@?1??insert@?$basic_string@DU?$char_traits@D@std@@V?$allocator@D@2@@std@@QAEAAV34@IID@Z@IID@?$basic_string@DU?$char_traits@D@std@@V?$allocator@D@2@@std@@AAEAAV01@IV<lambda_1>@?1??insert@01@QAEAAV01@IID@Z@IID@Z 2018dd9b f i libcpmt:locale.obj
 0001:0018ce63       ??$_To_address@PAD@std@@YA?A_PABQAD@Z 2018de63 f i libcpmt:locale.obj
 0001:0018ce6f       ??$_To_address@PBD@std@@YA?A_PABQBD@Z 2018de6f f i libcpmt:locale.obj
 0001:0018ce7b       ??$addressof@V?$basic_string@DU?$char_traits@D@std@@V?$allocator@D@2@@std@@@std@@YAPAV?$basic_string@DU?$char_traits@D@std@@V?$allocator@D@2@@0@AAV10@@Z 2018de7b f i libcpmt:locale.obj
 0001:0018ce85       ??$begin@$$CBD$0BL@@std@@YAPBDAAY0BL@$$CBD@Z 2018de85 f i libcpmt:locale.obj
 0001:0018ce8f       ??$begin@$$CBD$0BN@@std@@YAPBDAAY0BN@$$CBD@Z 2018de8f f i libcpmt:locale.obj
 0001:0018ce99       ??$end@$$CBD$0BL@@std@@YAPBDAAY0BL@$$CBD@Z 2018de99 f i libcpmt:locale.obj
 0001:0018cea6       ??$end@$$CBD$0BN@@std@@YAPBDAAY0BN@$$CBD@Z 2018dea6 f i libcpmt:locale.obj
 0001:0018ceb3       ??$isfinite@N@@YA_NN@Z     2018deb3 f i libcpmt:locale.obj
 0001:0018ced3       ??$isfinite@O@@YA_NO@Z     2018ded3 f i libcpmt:locale.obj
 0001:0018cef3       ??$move@AAD@std@@YA$$QADAAD@Z 2018def3 f i libcpmt:locale.obj
 0001:0018cefd       ??$move@AAV?$basic_string@DU?$char_traits@D@std@@V?$allocator@D@2@@std@@@std@@YA$$QAV?$basic_string@DU?$char_traits@D@std@@V?$allocator@D@2@@0@AAV10@@Z 2018defd f i libcpmt:locale.obj
 0001:0018cf07       ??$reverse@PAD@std@@YAXQAD0@Z 2018df07 f i libcpmt:locale.obj
 0001:0018cf0c       ??$swap@D$0A@@std@@YAXAAD0@Z 2018df0c f i libcpmt:locale.obj
 0001:0018cf26       ??$to_address@$$CBD@std@@YAPBDQBD@Z 2018df26 f i libcpmt:locale.obj
 0001:0018cf30       ??$to_address@D@std@@YAPADQAD@Z 2018df30 f i libcpmt:locale.obj
 0001:0018cf3a       ??0?$num_get@DV?$istreambuf_iterator@DU?$char_traits@D@std@@@std@@@std@@QAE@ABV_Locinfo@1@I@Z 2018df3a f i libcpmt:locale.obj
 0001:0018cf59       ??0?$num_put@DV?$ostreambuf_iterator@DU?$char_traits@D@std@@@std@@@std@@QAE@ABV_Locinfo@1@I@Z 2018df59 f i libcpmt:locale.obj
 0001:0018cf78       ??0?$numpunct@D@std@@QAE@ABV_Locinfo@1@I_N@Z 2018df78 f i libcpmt:locale.obj
 0001:0018cfbf       ??4?$ostreambuf_iterator@DU?$char_traits@D@std@@@std@@QAEAAV01@D@Z 2018dfbf f i libcpmt:locale.obj
 0001:0018cfec       ??A?$basic_string@DU?$char_traits@D@std@@V?$allocator@D@2@@std@@QAEAADI@Z 2018dfec f i libcpmt:locale.obj
 0001:0018d005       ??A?$basic_string@DU?$char_traits@D@std@@V?$allocator@D@2@@std@@QBEABDI@Z 2018e005 f i libcpmt:locale.obj
 0001:0018d01e       ??D?$istreambuf_iterator@DU?$char_traits@D@std@@@std@@QBEDXZ 2018e01e f i libcpmt:locale.obj
 0001:0018d035       ??D?$ostreambuf_iterator@DU?$char_traits@D@std@@@std@@QAEAAV01@XZ 2018e035 f i libcpmt:locale.obj
 0001:0018d038       ??E?$istreambuf_iterator@DU?$char_traits@D@std@@@std@@QAEAAV01@XZ 2018e038 f i libcpmt:locale.obj
 0001:0018d047       ??E?$ostreambuf_iterator@DU?$char_traits@D@std@@@std@@QAEAAV01@XZ 2018e047 f i libcpmt:locale.obj
 0001:0018d04a       ??R<lambda_1>@?1??append@?$basic_string@DU?$char_traits@D@std@@V?$allocator@D@2@@std@@QAEAAV23@ID@Z@SA@QADQBDIID@Z 2018e04a f i libcpmt:locale.obj
 0001:0018d087       ??R<lambda_1>@?1??insert@?$basic_string@DU?$char_traits@D@std@@V?$allocator@D@2@@std@@QAEAAV23@IID@Z@SA@QADQBDIIID@Z 2018e087 f i libcpmt:locale.obj
 0001:0018d0df       ?_Addfac@_Locimp@locale@std@@AAEXPAVfacet@23@I@Z 2018e0df f i libcpmt:locale.obj
 0001:0018d0fa       ?_Eos@?$basic_string@DU?$char_traits@D@std@@V?$allocator@D@2@@std@@AAEXI@Z 2018e0fa f i libcpmt:locale.obj
 0001:0018d12c       ?_Getcat@?$num_get@DV?$istreambuf_iterator@DU?$char_traits@D@std@@@std@@@std@@SAIPAPBVfacet@locale@2@PBV42@@Z 2018e12c f i libcpmt:locale.obj
 0001:0018d1b1       ?_Getcat@?$num_put@DV?$ostreambuf_iterator@DU?$char_traits@D@std@@@std@@@std@@SAIPAPBVfacet@locale@2@PBV42@@Z 2018e1b1 f i libcpmt:locale.obj
 0001:0018d236       ?_Getcat@?$numpunct@D@std@@SAIPAPBVfacet@locale@2@PBV42@@Z 2018e236 f i libcpmt:locale.obj
 0001:0018d2be       ?_Getcvt@_Locinfo@std@@QBE?AU_Cvtvec@@XZ 2018e2be f i libcpmt:locale.obj
 0001:0018d2eb       ?_Getfalse@_Locinfo@std@@QBEPBDXZ 2018e2eb f i libcpmt:locale.obj
 0001:0018d2f1       ?_Getlconv@_Locinfo@std@@QBEPBUlconv@@XZ 2018e2f1 f i libcpmt:locale.obj
 0001:0018d2f6       ?_Getname@_Locinfo@std@@QBEPBDXZ 2018e2f6 f i libcpmt:locale.obj
 0001:0018d303       ?_Gettrue@_Locinfo@std@@QBEPBDXZ 2018e303 f i libcpmt:locale.obj
 0001:0018d309       ?_Ifmt@?$num_put@DV?$ostreambuf_iterator@DU?$char_traits@D@std@@@std@@@std@@ABAPADPADPBDH@Z 2018e309 f i libcpmt:locale.obj
 0001:0018d39b       ?_Inc@?$istreambuf_iterator@DU?$char_traits@D@std@@@std@@AAEXXZ 2018e39b f i libcpmt:locale.obj
 0001:0018d3c8       ?_Init@?$num_get@DV?$istreambuf_iterator@DU?$char_traits@D@std@@@std@@@std@@IAEXABV_Locinfo@2@@Z 2018e3c8 f i libcpmt:locale.obj
 0001:0018d3cb       ?_Init@?$num_put@DV?$ostreambuf_iterator@DU?$char_traits@D@std@@@std@@@std@@IAEXABV_Locinfo@2@@Z 2018e3cb f i libcpmt:locale.obj
 0001:0018d3ce       ?_Init@?$numpunct@D@std@@IAEXABV_Locinfo@2@_N@Z 2018e3ce f i libcpmt:locale.obj
 0001:0018d496       ?_Locimp_Addfac@_Locimp@locale@std@@CAXPAV123@PAVfacet@23@I@Z 2018e496 f   libcpmt:locale.obj
 0001:0018d59d       ?_Locimp_ctor@_Locimp@locale@std@@CAXPAV123@ABV123@@Z 2018e59d f   libcpmt:locale.obj
 0001:0018d685       ?_Locinfo_Addcats@_Locinfo@std@@SAAAV12@PAV12@HPBD@Z 2018e685 f   libcpmt:locale.obj
 0001:0018d740       ?_Locinfo_ctor@_Locinfo@std@@SAXPAV12@HPBD@Z 2018e740 f   libcpmt:locale.obj
 0001:0018d784       ?_Makeloc@_Locimp@locale@std@@CAPAV123@ABV_Locinfo@3@HPAV123@PBV23@@Z 2018e784 f   libcpmt:locale.obj
 0001:0018d9fa       ?_Peek@?$istreambuf_iterator@DU?$char_traits@D@std@@@std@@ABEDXZ 2018e9fa f i libcpmt:locale.obj
 0001:0018da2a       ?_Stodx_v3@std@@YANPBDPAPADPAH@Z 2018ea2a f i libcpmt:locale.obj
 0001:0018da63       ?_Stofx_v3@std@@YAMPBDPAPADPAH@Z 2018ea63 f i libcpmt:locale.obj
 0001:0018daa5       ?_Tidy@?$numpunct@D@std@@AAEXXZ 2018eaa5 f i libcpmt:locale.obj
 0001:0018dacd       ?assign@?$_Char_traits@DH@std@@SAPADQADID@Z 2018eacd f i libcpmt:locale.obj
 0001:0018dafc       ?assign@?$_Narrow_char_traits@DH@std@@SAPADQADID@Z 2018eafc f i libcpmt:locale.obj
 0001:0018db1a       ?assign@?$basic_string@DU?$char_traits@D@std@@V?$allocator@D@2@@std@@QAEAAV12@$$QAV12@@Z 2018eb1a f i libcpmt:locale.obj
 0001:0018db34       ?data@?$basic_string@DU?$char_traits@D@std@@V?$allocator@D@2@@std@@QBEPBDXZ 2018eb34 f i libcpmt:locale.obj
 0001:0018db41       ?decimal_point@?$numpunct@D@std@@QBEDXZ 2018eb41 f i libcpmt:locale.obj
 0001:0018db5f       ?equal@?$istreambuf_iterator@DU?$char_traits@D@std@@@std@@QBE_NABV12@@Z 2018eb5f f i libcpmt:locale.obj
 0001:0018dba7       ?falsename@?$numpunct@D@std@@QBE?AV?$basic_string@DU?$char_traits@D@std@@V?$allocator@D@2@@2@XZ 2018eba7 f i libcpmt:locale.obj
 0001:0018dbd5       ?flags@ios_base@std@@QBEHXZ 2018ebd5 f i libcpmt:locale.obj
 0001:0018dbd9       ?fpclassify@@YAHN@Z        2018ebd9 f i libcpmt:locale.obj
 0001:0018dbf3       ?fpclassify@@YAHO@Z        2018ebf3 f i libcpmt:locale.obj
 0001:0018dc0d       ?global@locale@std@@SA?AV12@ABV12@@Z 2018ec0d f   libcpmt:locale.obj
 0001:0018dd2f       ?grouping@?$numpunct@D@std@@QBE?AV?$basic_string@DU?$char_traits@D@std@@V?$allocator@D@2@@2@XZ 2018ed2f f i libcpmt:locale.obj
 0001:0018dd5d       ?insert@?$basic_string@DU?$char_traits@D@std@@V?$allocator@D@2@@std@@QAEAAV12@IID@Z 2018ed5d f i libcpmt:locale.obj
 0001:0018ddfd       ?precision@ios_base@std@@QBE_JXZ 2018edfd f i libcpmt:locale.obj
 0001:0018de04       ?sbumpc@?$basic_streambuf@DU?$char_traits@D@std@@@std@@QAEHXZ 2018ee04 f i libcpmt:locale.obj
 0001:0018de4b       ?sgetc@?$basic_streambuf@DU?$char_traits@D@std@@@std@@QAEHXZ 2018ee4b f i libcpmt:locale.obj
 0001:0018de84       ?sputc@?$basic_streambuf@DU?$char_traits@D@std@@@std@@QAEHD@Z 2018ee84 f i libcpmt:locale.obj
 0001:0018dee9       ?thousands_sep@?$numpunct@D@std@@QBEDXZ 2018eee9 f i libcpmt:locale.obj
 0001:0018df07       ?tolower@?$ctype@D@std@@QBEDD@Z 2018ef07 f i libcpmt:locale.obj
 0001:0018df30       ?truename@?$numpunct@D@std@@QBE?AV?$basic_string@DU?$char_traits@D@std@@V?$allocator@D@2@@2@XZ 2018ef30 f i libcpmt:locale.obj
 0001:0018df5e       ?widen@?$ctype@D@std@@QBEPBDPBD0PAD@Z 2018ef5e f i libcpmt:locale.obj
 0001:0018df8e       ?width@ios_base@std@@QBE_JXZ 2018ef8e f i libcpmt:locale.obj
 0001:0018df95       __vsprintf_s_l             2018ef95 f i libcpmt:locale.obj
 0001:0018dfce       _fabsl                     2018efce f i libcpmt:locale.obj
 0001:0018dfef       _frexpl                    2018efef f i libcpmt:locale.obj
 0001:0018e012       ??1_Init_atexit@@QAE@XZ    2018f012 f i libcpmt:iosptrs.obj
 0001:0018e094       ?_Atexit@@YAXP6AXXZ@Z      2018f094 f   libcpmt:iosptrs.obj
 0001:0018e0ce       ??0?$__crt_scoped_stack_ptr@_W@@QAE@U?$__crt_scoped_stack_ptr_tag@_W@@@Z 2018f0ce f i libcpmt:StlLCMapStringA.obj
 0001:0018e0df       ??0?$__crt_scoped_stack_ptr_tag@_W@@QAE@QA_W@Z 2018f0df f i libcpmt:StlLCMapStringA.obj
 0001:0018e0f0       ??1?$__crt_scoped_stack_ptr@_W@@QAE@XZ 2018f0f0 f i libcpmt:StlLCMapStringA.obj
 0001:0018e10f       ??B?$__crt_scoped_stack_ptr@_W@@QBE_NXZ 2018f10f f i libcpmt:StlLCMapStringA.obj
 0001:0018e116       ?get@?$__crt_scoped_stack_ptr@_W@@QBEPA_WXZ 2018f116 f i libcpmt:StlLCMapStringA.obj
 0001:0018e119       __MallocaComputeSize       2018f119 f i libcpmt:StlLCMapStringA.obj
 0001:0018e12e       __MarkAllocaS              2018f12e f i libcpmt:StlLCMapStringA.obj
 0001:0018e147       ___crtLCMapStringA         2018f147 f   libcpmt:StlLCMapStringA.obj
 0001:0018e38b       __freea_crt                2018f38b f i libcpmt:StlLCMapStringA.obj
 0001:0018e3b0       ??$?0$$V@?$_Compressed_pair@V?$allocator@G@std@@V?$_String_val@U?$_Simple_types@G@std@@@2@$00@std@@QAE@U_Zero_then_variadic_args_t@1@@Z 2018f3b0 f i libcpmt:wlocale.obj
 0001:0018e3d4       ??$?0$$V@?$_Compressed_pair@V?$allocator@_W@std@@V?$_String_val@U?$_Simple_types@_W@std@@@2@$00@std@@QAE@U_Zero_then_variadic_args_t@1@@Z 2018f3d4 f i libcpmt:wlocale.obj
 0001:0018e3f8       ??$?0V?$allocator@G@std@@$$V@?$_Compressed_pair@V?$allocator@G@std@@V?$_String_val@U?$_Simple_types@G@std@@@2@$00@std@@QAE@U_One_then_variadic_args_t@1@$$QAV?$allocator@G@1@@Z 2018f3f8 f i libcpmt:wlocale.obj
 0001:0018e41c       ??$?0V?$allocator@_W@std@@$$V@?$_Compressed_pair@V?$allocator@_W@std@@V?$_String_val@U?$_Simple_types@_W@std@@@2@$00@std@@QAE@U_One_then_variadic_args_t@1@$$QAV?$allocator@_W@1@@Z 2018f41c f i libcpmt:wlocale.obj
 0001:0018e440       ??$?8GU?$char_traits@G@std@@@std@@YA_NABV?$istreambuf_iterator@GU?$char_traits@G@std@@@0@0@Z 2018f440 f i libcpmt:wlocale.obj
 0001:0018e454       ??$?8_WU?$char_traits@_W@std@@@std@@YA_NABV?$istreambuf_iterator@_WU?$char_traits@_W@std@@@0@0@Z 2018f454 f i libcpmt:wlocale.obj
 0001:0018e468       ??$_Adl_verify_range@PAGPAG@std@@YAXABQAG0@Z 2018f468 f i libcpmt:wlocale.obj
 0001:0018e46b       ??$_Adl_verify_range@PAGPBG@std@@YAXABQAGABQBG@Z 2018f46b f i libcpmt:wlocale.obj
 0001:0018e46e       ??$_Adl_verify_range@PA_WPA_W@std@@YAXABQA_W0@Z 2018f46e f i libcpmt:wlocale.obj
 0001:0018e471       ??$_Adl_verify_range@PA_WPB_W@std@@YAXABQA_WABQB_W@Z 2018f471 f i libcpmt:wlocale.obj
 0001:0018e474       ??$_Adl_verify_range@PBGPBG@std@@YAXABQBG0@Z 2018f474 f i libcpmt:wlocale.obj
 0001:0018e477       ??$_Adl_verify_range@PB_WPB_W@std@@YAXABQB_W0@Z 2018f477 f i libcpmt:wlocale.obj
 0001:0018e47a       ??$_Adl_verify_range@V?$istreambuf_iterator@GU?$char_traits@G@std@@@std@@V12@@std@@YAXABV?$istreambuf_iterator@GU?$char_traits@G@std@@@0@0@Z 2018f47a f i libcpmt:wlocale.obj
 0001:0018e47d       ??$_Adl_verify_range@V?$istreambuf_iterator@_WU?$char_traits@_W@std@@@std@@V12@@std@@YAXABV?$istreambuf_iterator@_WU?$char_traits@_W@std@@@0@0@Z 2018f47d f i libcpmt:wlocale.obj
 0001:0018e480       ??$_Allocate_at_least_helper@V?$allocator@G@std@@@std@@YAPAGAAV?$allocator@G@0@AAI@Z 2018f480 f i libcpmt:wlocale.obj
 0001:0018e496       ??$_Allocate_at_least_helper@V?$allocator@_W@std@@@std@@YAPA_WAAV?$allocator@_W@0@AAI@Z 2018f496 f i libcpmt:wlocale.obj
 0001:0018e4ac       ??$_Allocate_for_capacity@$0A@@?$basic_string@GU?$char_traits@G@std@@V?$allocator@G@2@@std@@CAPAGAAV?$allocator@G@1@AAI@Z 2018f4ac f i libcpmt:wlocale.obj
 0001:0018e4ca       ??$_Allocate_for_capacity@$0A@@?$basic_string@_WU?$char_traits@_W@std@@V?$allocator@_W@2@@std@@CAPA_WAAV?$allocator@_W@1@AAI@Z 2018f4ca f i libcpmt:wlocale.obj
 0001:0018e4e8       ??$_Append@G@?$basic_string@GU?$char_traits@G@std@@V?$allocator@G@2@@std@@AAEAAV01@QBGI@Z 2018f4e8 f i libcpmt:wlocale.obj
 0001:0018e572       ??$_Append@_W@?$basic_string@_WU?$char_traits@_W@std@@V?$allocator@_W@2@@std@@AAEAAV01@QB_WI@Z 2018f572 f i libcpmt:wlocale.obj
 0001:0018e5fc       ??$_Construct@$00PBG@?$basic_string@GU?$char_traits@G@std@@V?$allocator@G@2@@std@@AAEXQBGI@Z 2018f5fc f i libcpmt:wlocale.obj
 0001:0018e6a6       ??$_Construct@$00PB_W@?$basic_string@_WU?$char_traits@_W@std@@V?$allocator@_W@2@@std@@AAEXQB_WI@Z 2018f6a6 f i libcpmt:wlocale.obj
 0001:0018e750       ??$_Construct@$01PBG@?$basic_string@GU?$char_traits@G@std@@V?$allocator@G@2@@std@@AAEXQBGI@Z 2018f750 f i libcpmt:wlocale.obj
 0001:0018e7ee       ??$_Construct@$01PB_W@?$basic_string@_WU?$char_traits@_W@std@@V?$allocator@_W@2@@std@@AAEXQB_WI@Z 2018f7ee f i libcpmt:wlocale.obj
 0001:0018e88c       ??$_Construct@$0A@G@?$basic_string@GU?$char_traits@G@std@@V?$allocator@G@2@@std@@AAEXGI@Z 2018f88c f i libcpmt:wlocale.obj
 0001:0018e934       ??$_Construct@$0A@_W@?$basic_string@_WU?$char_traits@_W@std@@V?$allocator@_W@2@@std@@AAEX_WI@Z 2018f934 f i libcpmt:wlocale.obj
 0001:0018e9dc       ??$_Construct_in_place@PAGAAPAG@std@@YAXAAPAG0@Z 2018f9dc f i libcpmt:wlocale.obj
 0001:0018e9ee       ??$_Construct_in_place@PAGABQAG@std@@YAXAAPAGABQAG@Z 2018f9ee f i libcpmt:wlocale.obj
 0001:0018ea00       ??$_Construct_in_place@PA_WAAPA_W@std@@YAXAAPA_W0@Z 2018fa00 f i libcpmt:wlocale.obj
 0001:0018ea12       ??$_Construct_in_place@PA_WABQA_W@std@@YAXAAPA_WABQA_W@Z 2018fa12 f i libcpmt:wlocale.obj
 0001:0018ea24       ??$_Copy_unchecked@PA_WPA_WV?$ostreambuf_iterator@GU?$char_traits@G@std@@@std@@@std@@YA?AV?$ostreambuf_iterator@GU?$char_traits@G@std@@@0@PA_W0V10@@Z 2018fa24 f i libcpmt:wlocale.obj
 0001:0018ea5d       ??$_Copy_unchecked@PA_WPA_WV?$ostreambuf_iterator@_WU?$char_traits@_W@std@@@std@@@std@@YA?AV?$ostreambuf_iterator@_WU?$char_traits@_W@std@@@0@PA_W0V10@@Z 2018fa5d f i libcpmt:wlocale.obj
 0001:0018ea96       ??$_Could_compare_equal_to_value_type@PBGG@std@@YA_NABG@Z 2018fa96 f i libcpmt:wlocale.obj
 0001:0018ea99       ??$_Could_compare_equal_to_value_type@PB_W_W@std@@YA_NAB_W@Z 2018fa99 f i libcpmt:wlocale.obj
 0001:0018ea9c       ??$_Destroy_in_place@PAG@std@@YAXAAPAG@Z 2018fa9c f i libcpmt:wlocale.obj
 0001:0018ea9f       ??$_Destroy_in_place@PA_W@std@@YAXAAPA_W@Z 2018fa9f f i libcpmt:wlocale.obj
 0001:0018eaa2       ??$_Find_elem@G$0BL@@std@@YAIAAY0BL@$$CBGG@Z 2018faa2 f i libcpmt:wlocale.obj
 0001:0018eac3       ??$_Find_elem@G$0BN@@std@@YAIAAY0BN@$$CBGG@Z 2018fac3 f i libcpmt:wlocale.obj
 0001:0018eae4       ??$_Find_elem@G$0M@@std@@YAIAAY0M@$$CBGG@Z 2018fae4 f i libcpmt:wlocale.obj
 0001:0018eb05       ??$_Find_elem@_W$0BL@@std@@YAIAAY0BL@$$CB_W_W@Z 2018fb05 f i libcpmt:wlocale.obj
 0001:0018eb26       ??$_Find_elem@_W$0BN@@std@@YAIAAY0BN@$$CB_W_W@Z 2018fb26 f i libcpmt:wlocale.obj
 0001:0018eb47       ??$_Find_elem@_W$0M@@std@@YAIAAY0M@$$CB_W_W@Z 2018fb47 f i libcpmt:wlocale.obj
 0001:0018eb68       ??$_Find_unchecked@PBGG@std@@YAPBGPBGQBGABG@Z 2018fb68 f i libcpmt:wlocale.obj
 0001:0018eb84       ??$_Find_unchecked@PB_W_W@std@@YAPB_WPB_WQB_WAB_W@Z 2018fb84 f i libcpmt:wlocale.obj
 0001:0018eba0       ??$_Find_vectorized@$$CBGG@std@@YAPBGQBG0G@Z 2018fba0 f i libcpmt:wlocale.obj
 0001:0018ebb7       ??$_Find_vectorized@$$CB_W_W@std@@YAPB_WQB_W0_W@Z 2018fbb7 f i libcpmt:wlocale.obj
 0001:0018ebce       ??$_Fput_v3@$0A@@?$num_put@GV?$ostreambuf_iterator@GU?$char_traits@G@std@@@std@@@std@@ABE?AV?$ostreambuf_iterator@GU?$char_traits@G@std@@@1@V21@AAVios_base@1@GPBDI_N@Z 2018fbce f i libcpmt:wlocale.obj
 0001:0018efaf       ??$_Fput_v3@$0A@@?$num_put@_WV?$ostreambuf_iterator@_WU?$char_traits@_W@std@@@std@@@std@@ABE?AV?$ostreambuf_iterator@_WU?$char_traits@_W@std@@@1@V21@AAVios_base@1@_WPBDI_N@Z 2018ffaf f i libcpmt:wlocale.obj
 0001:0018f390       ??$_Get_proxy_allocator@V?$allocator@G@std@@@std@@YA?AU_Fake_allocator@0@ABV?$allocator@G@0@@Z 20190390 f i libcpmt:wlocale.obj
 0001:0018f393       ??$_Get_proxy_allocator@V?$allocator@_W@std@@@std@@YA?AU_Fake_allocator@0@ABV?$allocator@_W@0@@Z 20190393 f i libcpmt:wlocale.obj
 0001:0018f396       ??$_Get_size_of_n@$01@std@@YAII@Z 20190396 f i libcpmt:wlocale.obj
 0001:0018f3b0       ??$_Get_unwrapped@AAPA_W@std@@YA?A_TAAPA_W@Z 201903b0 f i libcpmt:wlocale.obj
 0001:0018f3bc       ??$_Get_unwrapped_n@V?$ostreambuf_iterator@GU?$char_traits@G@std@@@std@@H@std@@YA?A_T$$QAV?$ostreambuf_iterator@GU?$char_traits@G@std@@@0@H@Z 201903bc f i libcpmt:wlocale.obj
 0001:0018f3c6       ??$_Get_unwrapped_n@V?$ostreambuf_iterator@_WU?$char_traits@_W@std@@@std@@H@std@@YA?A_T$$QAV?$ostreambuf_iterator@_WU?$char_traits@_W@std@@@0@H@Z 201903c6 f i libcpmt:wlocale.obj
 0001:0018f3d0       ??$_Getint_v2@V?$istreambuf_iterator@GU?$char_traits@G@std@@@std@@G@std@@YAHAAV?$istreambuf_iterator@GU?$char_traits@G@std@@@0@0HHAAH1ABV?$ctype@G@0@@Z 201903d0 f i libcpmt:wlocale.obj
 0001:0018f697       ??$_Getint_v2@V?$istreambuf_iterator@_WU?$char_traits@_W@std@@@std@@_W@std@@YAHAAV?$istreambuf_iterator@_WU?$char_traits@_W@std@@@0@0HHAAH1ABV?$ctype@_W@0@@Z 20190697 f i libcpmt:wlocale.obj
 0001:0018f95e       ??$_Getloctxt@V?$istreambuf_iterator@GU?$char_traits@G@std@@@std@@D@std@@YAHAAV?$istreambuf_iterator@GU?$char_traits@G@std@@@0@0IPBDW4_Case_sensitive@0@@Z 2019095e f i libcpmt:wlocale.obj
 0001:0018fc1a       ??$_Getloctxt@V?$istreambuf_iterator@GU?$char_traits@G@std@@@std@@G@std@@YAHAAV?$istreambuf_iterator@GU?$char_traits@G@std@@@0@0IPBGW4_Case_sensitive@0@@Z 20190c1a f i libcpmt:wlocale.obj
 0001:0018feec       ??$_Getloctxt@V?$istreambuf_iterator@_WU?$char_traits@_W@std@@@std@@D@std@@YAHAAV?$istreambuf_iterator@_WU?$char_traits@_W@std@@@0@0IPBDW4_Case_sensitive@0@@Z 20190eec f i libcpmt:wlocale.obj
 0001:001901a8       ??$_Getloctxt@V?$istreambuf_iterator@_WU?$char_traits@_W@std@@@std@@_W@std@@YAHAAV?$istreambuf_iterator@_WU?$char_traits@_W@std@@@0@0IPB_WW4_Case_sensitive@0@@Z 201911a8 f i libcpmt:wlocale.obj
 0001:0019047a       ??$_Getvals@G@?$time_get@GV?$istreambuf_iterator@GU?$char_traits@G@std@@@std@@@std@@IAEXGABV_Locinfo@1@@Z 2019147a f i libcpmt:wlocale.obj
 0001:001904ff       ??$_Getvals@_W@?$time_get@_WV?$istreambuf_iterator@_WU?$char_traits@_W@std@@@std@@@std@@IAEX_WABV_Locinfo@1@@Z 201914ff f i libcpmt:wlocale.obj
 0001:0019056e       ??$_Hash_array_representation@G@std@@YAIQBGI@Z 2019156e f i libcpmt:wlocale.obj
 0001:0019058f       ??$_Hash_array_representation@_W@std@@YAIQB_WI@Z 2019158f f i libcpmt:wlocale.obj
 0001:001905b0       ??$_Idl_distance@PA_WPA_W@std@@YA?A_PABQA_W0@Z 201915b0 f i libcpmt:wlocale.obj
 0001:001905c5       ??$_LStrcoll@G@std@@YAHPBG000PBU_Collvec@@@Z 201915c5 f i libcpmt:wlocale.obj
 0001:001905d0       ??$_LStrcoll@_W@std@@YAHPB_W000PBU_Collvec@@@Z 201915d0 f i libcpmt:wlocale.obj
 0001:001905db       ??$_LStrxfrm@G@std@@YAIPAG0PBG1PBU_Collvec@@@Z 201915db f i libcpmt:wlocale.obj
 0001:001905e6       ??$_LStrxfrm@_W@std@@YAIPA_W0PB_W1PBU_Collvec@@@Z 201915e6 f i libcpmt:wlocale.obj
 0001:001905f1       ??$_Maklocchr@G@std@@YAGDPAGABU_Cvtvec@@@Z 201915f1 f i libcpmt:wlocale.obj
 0001:00190630       ??$_Maklocchr@_W@std@@YA_WDPA_WABU_Cvtvec@@@Z 20191630 f i libcpmt:wlocale.obj
 0001:0019066f       ??$_Maklocstr@G@std@@YAPAGPBDPAGABU_Cvtvec@@@Z 2019166f f i libcpmt:wlocale.obj
 0001:00190741       ??$_Maklocstr@_W@std@@YAPA_WPBDPA_WABU_Cvtvec@@@Z 20191741 f i libcpmt:wlocale.obj
 0001:00190813       ??$_Parse_fp_with_locale@$0A@@?$num_get@GV?$istreambuf_iterator@GU?$char_traits@G@std@@@std@@@std@@CA?AU_Num_get_parse_result@1@QADHAAV?$istreambuf_iterator@GU?$char_traits@G@std@@@1@1ABVlocale@1@@Z 20191813 f i libcpmt:wlocale.obj
 0001:00191461       ??$_Parse_fp_with_locale@$0A@@?$num_get@_WV?$istreambuf_iterator@_WU?$char_traits@_W@std@@@std@@@std@@CA?AU_Num_get_parse_result@1@QADHAAV?$istreambuf_iterator@_WU?$char_traits@_W@std@@@1@1ABVlocale@1@@Z 20192461 f i libcpmt:wlocale.obj
 0001:001920af       ??$_Parse_int_with_locale@$0A@@?$num_get@GV?$istreambuf_iterator@GU?$char_traits@G@std@@@std@@@std@@CA?AU_Num_get_parse_result@1@QADAAV?$istreambuf_iterator@GU?$char_traits@G@std@@@1@1HABVlocale@1@@Z 201930af f i libcpmt:wlocale.obj
 0001:001926cc       ??$_Parse_int_with_locale@$0A@@?$num_get@_WV?$istreambuf_iterator@_WU?$char_traits@_W@std@@@std@@@std@@CA?AU_Num_get_parse_result@1@QADAAV?$istreambuf_iterator@_WU?$char_traits@_W@std@@@1@1HABVlocale@1@@Z 201936cc f i libcpmt:wlocale.obj
 0001:00192ce9       ??$_Pocma@V?$allocator@G@std@@@std@@YAXAAV?$allocator@G@0@0@Z 20193ce9 f i libcpmt:wlocale.obj
 0001:00192cec       ??$_Pocma@V?$allocator@_W@std@@@std@@YAXAAV?$allocator@_W@0@0@Z 20193cec f i libcpmt:wlocale.obj
 0001:00192cef       ??$_Reallocate_grow_by@V<lambda_1>@?1???$_Append@G@?$basic_string@GU?$char_traits@G@std@@V?$allocator@G@2@@std@@AAEAAV23@QBGI@Z@PBGI@?$basic_string@GU?$char_traits@G@std@@V?$allocator@G@2@@std@@AAEAAV01@IV<lambda_1>@?1???$_Append@G@01@AAEAAV01@QBGI@Z@PBGI@Z 20193cef f i libcpmt:wlocale.obj
 0001:00192dbd       ??$_Reallocate_grow_by@V<lambda_1>@?1???$_Append@_W@?$basic_string@_WU?$char_traits@_W@std@@V?$allocator@_W@2@@std@@AAEAAV23@QB_WI@Z@PB_WI@?$basic_string@_WU?$char_traits@_W@std@@V?$allocator@_W@2@@std@@AAEAAV01@IV<lambda_1>@?1???$_Append@_W@01@AAEAAV01@QB_WI@Z@PB_WI@Z 20193dbd f i libcpmt:wlocale.obj
 0001:00192e8b       ??$_Reallocate_grow_by@V<lambda_1>@?1??append@?$basic_string@GU?$char_traits@G@std@@V?$allocator@G@2@@std@@QAEAAV34@IG@Z@IG@?$basic_string@GU?$char_traits@G@std@@V?$allocator@G@2@@std@@AAEAAV01@IV<lambda_1>@?1??append@01@QAEAAV01@IG@Z@IG@Z 20193e8b f i libcpmt:wlocale.obj
 0001:00192f59       ??$_Reallocate_grow_by@V<lambda_1>@?1??append@?$basic_string@_WU?$char_traits@_W@std@@V?$allocator@_W@2@@std@@QAEAAV34@I_W@Z@I_W@?$basic_string@_WU?$char_traits@_W@std@@V?$allocator@_W@2@@std@@AAEAAV01@IV<lambda_1>@?1??append@01@QAEAAV01@I_W@Z@I_W@Z 20193f59 f i libcpmt:wlocale.obj
 0001:00193027       ??$_Reallocate_grow_by@V<lambda_1>@?1??insert@?$basic_string@GU?$char_traits@G@std@@V?$allocator@G@2@@std@@QAEAAV34@IIG@Z@IIG@?$basic_string@GU?$char_traits@G@std@@V?$allocator@G@2@@std@@AAEAAV01@IV<lambda_1>@?1??insert@01@QAEAAV01@IIG@Z@IIG@Z 20194027 f i libcpmt:wlocale.obj
 0001:001930fe       ??$_Reallocate_grow_by@V<lambda_1>@?1??insert@?$basic_string@_WU?$char_traits@_W@std@@V?$allocator@_W@2@@std@@QAEAAV34@II_W@Z@II_W@?$basic_string@_WU?$char_traits@_W@std@@V?$allocator@_W@2@@std@@AAEAAV01@IV<lambda_1>@?1??insert@01@QAEAAV01@II_W@Z@II_W@Z 201940fe f i libcpmt:wlocale.obj
 0001:001931d5       ??$_Reallocate_grow_by@V<lambda_1>@?1??push_back@?$basic_string@GU?$char_traits@G@std@@V?$allocator@G@2@@std@@QAEXG@Z@G@?$basic_string@GU?$char_traits@G@std@@V?$allocator@G@2@@std@@AAEAAV01@IV<lambda_1>@?1??push_back@01@QAEXG@Z@G@Z 201941d5 f i libcpmt:wlocale.obj
 0001:001932d7       ??$_Reallocate_grow_by@V<lambda_1>@?1??push_back@?$basic_string@_WU?$char_traits@_W@std@@V?$allocator@_W@2@@std@@QAEX_W@Z@_W@?$basic_string@_WU?$char_traits@_W@std@@V?$allocator@_W@2@@std@@AAEAAV01@IV<lambda_1>@?1??push_back@01@QAEX_W@Z@_W@Z 201942d7 f i libcpmt:wlocale.obj
 0001:001933d9       ??$_Refancy@PAG$0A@@std@@YAPAGPAG@Z 201943d9 f i libcpmt:wlocale.obj
 0001:001933e3       ??$_Refancy@PA_W$0A@@std@@YAPA_WPA_W@Z 201943e3 f i libcpmt:wlocale.obj
 0001:001933ed       ??$_Seek_wrapped@V?$ostreambuf_iterator@GU?$char_traits@G@std@@@std@@V12@@std@@YAXAAV?$ostreambuf_iterator@GU?$char_traits@G@std@@@0@$$QAV10@@Z 201943ed f i libcpmt:wlocale.obj
 0001:00193407       ??$_Seek_wrapped@V?$ostreambuf_iterator@_WU?$char_traits@_W@std@@@std@@V12@@std@@YAXAAV?$ostreambuf_iterator@_WU?$char_traits@_W@std@@@0@$$QAV10@@Z 20194407 f i libcpmt:wlocale.obj
 0001:00193421       ??$_To_address@PBG@std@@YA?A_PABQBG@Z 20194421 f i libcpmt:wlocale.obj
 0001:0019342d       ??$_To_address@PB_W@std@@YA?A_PABQB_W@Z 2019442d f i libcpmt:wlocale.obj
 0001:00193439       ??$_Traits_copy_batch@U?$char_traits@G@std@@G@std@@YAXQAGQBGI@Z 20194439 f i libcpmt:wlocale.obj
 0001:00193458       ??$_Traits_copy_batch@U?$char_traits@_W@std@@_W@std@@YAXQA_WQB_WI@Z 20194458 f i libcpmt:wlocale.obj
 0001:00193477       ??$_Traits_move_batch@U?$char_traits@G@std@@G@std@@YAXQAGQBGI@Z 20194477 f i libcpmt:wlocale.obj
 0001:00193496       ??$_Traits_move_batch@U?$char_traits@_W@std@@_W@std@@YAXQA_WQB_WI@Z 20194496 f i libcpmt:wlocale.obj
 0001:001934b5       ??$_Unfancy@G@std@@YAPAGPAG@Z 201944b5 f i libcpmt:wlocale.obj
 0001:001934bf       ??$_Unfancy@_W@std@@YAPA_WPA_W@Z 201944bf f i libcpmt:wlocale.obj
 0001:001934c9       ??$addressof@$$CBV?$moneypunct@G$00@std@@@std@@YAPBV?$moneypunct@G$00@0@ABV10@@Z 201944c9 f i libcpmt:wlocale.obj
 0001:001934d3       ??$addressof@$$CBV?$moneypunct@G$0A@@std@@@std@@YAPBV?$moneypunct@G$0A@@0@ABV10@@Z 201944d3 f i libcpmt:wlocale.obj
 0001:001934dd       ??$addressof@$$CBV?$moneypunct@_W$00@std@@@std@@YAPBV?$moneypunct@_W$00@0@ABV10@@Z 201944dd f i libcpmt:wlocale.obj
 0001:001934e7       ??$addressof@$$CBV?$moneypunct@_W$0A@@std@@@std@@YAPBV?$moneypunct@_W$0A@@0@ABV10@@Z 201944e7 f i libcpmt:wlocale.obj
 0001:001934f1       ??$addressof@PAG@std@@YAPAPAGAAPAG@Z 201944f1 f i libcpmt:wlocale.obj
 0001:001934fb       ??$addressof@PA_W@std@@YAPAPA_WAAPA_W@Z 201944fb f i libcpmt:wlocale.obj
 0001:00193505       ??$addressof@V?$_String_val@U?$_Simple_types@G@std@@@std@@@std@@YAPAV?$_String_val@U?$_Simple_types@G@std@@@0@AAV10@@Z 20194505 f i libcpmt:wlocale.obj
 0001:0019350f       ??$addressof@V?$_String_val@U?$_Simple_types@_W@std@@@std@@@std@@YAPAV?$_String_val@U?$_Simple_types@_W@std@@@0@AAV10@@Z 2019450f f i libcpmt:wlocale.obj
 0001:00193519       ??$addressof@V?$basic_string@GU?$char_traits@G@std@@V?$allocator@G@2@@std@@@std@@YAPAV?$basic_string@GU?$char_traits@G@std@@V?$allocator@G@2@@0@AAV10@@Z 20194519 f i libcpmt:wlocale.obj
 0001:00193523       ??$addressof@V?$basic_string@_WU?$char_traits@_W@std@@V?$allocator@_W@2@@std@@@std@@YAPAV?$basic_string@_WU?$char_traits@_W@std@@V?$allocator@_W@2@@0@AAV10@@Z 20194523 f i libcpmt:wlocale.obj
 0001:0019352d       ??$begin@$$CBD$0M@@std@@YAPBDAAY0M@$$CBD@Z 2019452d f i libcpmt:wlocale.obj
 0001:00193537       ??$construct_at@G$$V@std@@YAPAGQAG@Z 20194537 f i libcpmt:wlocale.obj
 0001:00193547       ??$construct_at@PAGAAPAG@std@@YAPAPAGQAPAGAAPAG@Z 20194547 f i libcpmt:wlocale.obj
 0001:00193559       ??$construct_at@PAGABQAG@std@@YAPAPAGQAPAGABQAG@Z 20194559 f i libcpmt:wlocale.obj
 0001:0019356b       ??$construct_at@PA_WAAPA_W@std@@YAPAPA_WQAPA_WAAPA_W@Z 2019456b f i libcpmt:wlocale.obj
 0001:0019357d       ??$construct_at@PA_WABQA_W@std@@YAPAPA_WQAPA_WABQA_W@Z 2019457d f i libcpmt:wlocale.obj
 0001:0019358f       ??$construct_at@_W$$V@std@@YAPA_WQA_W@Z 2019458f f i libcpmt:wlocale.obj
 0001:0019359f       ??$copy@PA_WV?$ostreambuf_iterator@GU?$char_traits@G@std@@@std@@@std@@YA?AV?$ostreambuf_iterator@GU?$char_traits@G@std@@@0@PA_W0V10@@Z 2019459f f i libcpmt:wlocale.obj
 0001:001935d6       ??$copy@PA_WV?$ostreambuf_iterator@_WU?$char_traits@_W@std@@@std@@@std@@YA?AV?$ostreambuf_iterator@_WU?$char_traits@_W@std@@@0@PA_W0V10@@Z 201945d6 f i libcpmt:wlocale.obj
 0001:0019360d       ??$end@$$CBD$0M@@std@@YAPBDAAY0M@$$CBD@Z 2019460d f i libcpmt:wlocale.obj
 0001:0019361a       ??$forward@AAPAG@std@@YAAAPAGAAPAG@Z 2019461a f i libcpmt:wlocale.obj
 0001:00193624       ??$forward@AAPA_W@std@@YAAAPA_WAAPA_W@Z 20194624 f i libcpmt:wlocale.obj
 0001:0019362e       ??$forward@ABQAG@std@@YAABQAGABQAG@Z 2019462e f i libcpmt:wlocale.obj
 0001:00193638       ??$forward@ABQA_W@std@@YAABQA_WABQA_W@Z 20194638 f i libcpmt:wlocale.obj
 0001:00193642       ??$forward@V?$allocator@G@std@@@std@@YA$$QAV?$allocator@G@0@AAV10@@Z 20194642 f i libcpmt:wlocale.obj
 0001:0019364c       ??$forward@V?$allocator@_W@std@@@std@@YA$$QAV?$allocator@_W@0@AAV10@@Z 2019464c f i libcpmt:wlocale.obj
 0001:00193656       ??$forward@V?$ostreambuf_iterator@GU?$char_traits@G@std@@@std@@@std@@YA$$QAV?$ostreambuf_iterator@GU?$char_traits@G@std@@@0@AAV10@@Z 20194656 f i libcpmt:wlocale.obj
 0001:00193660       ??$forward@V?$ostreambuf_iterator@_WU?$char_traits@_W@std@@@std@@@std@@YA$$QAV?$ostreambuf_iterator@_WU?$char_traits@_W@std@@@0@AAV10@@Z 20194660 f i libcpmt:wlocale.obj
 0001:0019366a       ??$move@AAV?$allocator@G@std@@@std@@YA$$QAV?$allocator@G@0@AAV10@@Z 2019466a f i libcpmt:wlocale.obj
 0001:00193674       ??$move@AAV?$allocator@_W@std@@@std@@YA$$QAV?$allocator@_W@0@AAV10@@Z 20194674 f i libcpmt:wlocale.obj
 0001:0019367e       ??$move@AAV?$basic_string@GU?$char_traits@G@std@@V?$allocator@G@2@@std@@@std@@YA$$QAV?$basic_string@GU?$char_traits@G@std@@V?$allocator@G@2@@0@AAV10@@Z 2019467e f i libcpmt:wlocale.obj
 0001:00193688       ??$move@AAV?$basic_string@_WU?$char_traits@_W@std@@V?$allocator@_W@2@@std@@@std@@YA$$QAV?$basic_string@_WU?$char_traits@_W@std@@V?$allocator@_W@2@@0@AAV10@@Z 20194688 f i libcpmt:wlocale.obj
 0001:00193692       ??$move@AAV?$ostreambuf_iterator@GU?$char_traits@G@std@@@std@@@std@@YA$$QAV?$ostreambuf_iterator@GU?$char_traits@G@std@@@0@AAV10@@Z 20194692 f i libcpmt:wlocale.obj
 0001:0019369c       ??$move@AAV?$ostreambuf_iterator@_WU?$char_traits@_W@std@@@std@@@std@@YA$$QAV?$ostreambuf_iterator@_WU?$char_traits@_W@std@@@0@AAV10@@Z 2019469c f i libcpmt:wlocale.obj
 0001:001936a6       ??$to_address@$$CBG@std@@YAPBGQBG@Z 201946a6 f i libcpmt:wlocale.obj
 0001:001936b0       ??$to_address@$$CB_W@std@@YAPB_WQB_W@Z 201946b0 f i libcpmt:wlocale.obj
 0001:001936ba       ??$use_facet@V?$codecvt@GDU_Mbstatet@@@std@@@std@@YAABV?$codecvt@GDU_Mbstatet@@@0@ABVlocale@0@@Z 201946ba f i libcpmt:wlocale.obj
 0001:00193778       ??$use_facet@V?$codecvt@_WDU_Mbstatet@@@std@@@std@@YAABV?$codecvt@_WDU_Mbstatet@@@0@ABVlocale@0@@Z 20194778 f i libcpmt:wlocale.obj
 0001:00193836       ??$use_facet@V?$collate@G@std@@@std@@YAABV?$collate@G@0@ABVlocale@0@@Z 20194836 f i libcpmt:wlocale.obj
 0001:001938f4       ??$use_facet@V?$collate@_W@std@@@std@@YAABV?$collate@_W@0@ABVlocale@0@@Z 201948f4 f i libcpmt:wlocale.obj
 0001:001939b2       ??$use_facet@V?$ctype@G@std@@@std@@YAABV?$ctype@G@0@ABVlocale@0@@Z 201949b2 f i libcpmt:wlocale.obj
 0001:00193a70       ??$use_facet@V?$ctype@_W@std@@@std@@YAABV?$ctype@_W@0@ABVlocale@0@@Z 20194a70 f i libcpmt:wlocale.obj
 0001:00193b2e       ??$use_facet@V?$messages@G@std@@@std@@YAABV?$messages@G@0@ABVlocale@0@@Z 20194b2e f i libcpmt:wlocale.obj
 0001:00193bec       ??$use_facet@V?$messages@_W@std@@@std@@YAABV?$messages@_W@0@ABVlocale@0@@Z 20194bec f i libcpmt:wlocale.obj
 0001:00193caa       ??$use_facet@V?$money_get@GV?$istreambuf_iterator@GU?$char_traits@G@std@@@std@@@std@@@std@@YAABV?$money_get@GV?$istreambuf_iterator@GU?$char_traits@G@std@@@std@@@0@ABVlocale@0@@Z 20194caa f i libcpmt:wlocale.obj
 0001:00193d68       ??$use_facet@V?$money_get@_WV?$istreambuf_iterator@_WU?$char_traits@_W@std@@@std@@@std@@@std@@YAABV?$money_get@_WV?$istreambuf_iterator@_WU?$char_traits@_W@std@@@std@@@0@ABVlocale@0@@Z 20194d68 f i libcpmt:wlocale.obj
 0001:00193e26       ??$use_facet@V?$money_put@GV?$ostreambuf_iterator@GU?$char_traits@G@std@@@std@@@std@@@std@@YAABV?$money_put@GV?$ostreambuf_iterator@GU?$char_traits@G@std@@@std@@@0@ABVlocale@0@@Z 20194e26 f i libcpmt:wlocale.obj
 0001:00193ee4       ??$use_facet@V?$money_put@_WV?$ostreambuf_iterator@_WU?$char_traits@_W@std@@@std@@@std@@@std@@YAABV?$money_put@_WV?$ostreambuf_iterator@_WU?$char_traits@_W@std@@@std@@@0@ABVlocale@0@@Z 20194ee4 f i libcpmt:wlocale.obj
 0001:00193fa2       ??$use_facet@V?$moneypunct@G$00@std@@@std@@YAABV?$moneypunct@G$00@0@ABVlocale@0@@Z 20194fa2 f i libcpmt:wlocale.obj
 0001:00194060       ??$use_facet@V?$moneypunct@G$0A@@std@@@std@@YAABV?$moneypunct@G$0A@@0@ABVlocale@0@@Z 20195060 f i libcpmt:wlocale.obj
 0001:0019411e       ??$use_facet@V?$moneypunct@_W$00@std@@@std@@YAABV?$moneypunct@_W$00@0@ABVlocale@0@@Z 2019511e f i libcpmt:wlocale.obj
 0001:001941dc       ??$use_facet@V?$moneypunct@_W$0A@@std@@@std@@YAABV?$moneypunct@_W$0A@@0@ABVlocale@0@@Z 201951dc f i libcpmt:wlocale.obj
 0001:0019429a       ??$use_facet@V?$num_get@GV?$istreambuf_iterator@GU?$char_traits@G@std@@@std@@@std@@@std@@YAABV?$num_get@GV?$istreambuf_iterator@GU?$char_traits@G@std@@@std@@@0@ABVlocale@0@@Z 2019529a f i libcpmt:wlocale.obj
 0001:00194358       ??$use_facet@V?$num_get@_WV?$istreambuf_iterator@_WU?$char_traits@_W@std@@@std@@@std@@@std@@YAABV?$num_get@_WV?$istreambuf_iterator@_WU?$char_traits@_W@std@@@std@@@0@ABVlocale@0@@Z 20195358 f i libcpmt:wlocale.obj
 0001:00194416       ??$use_facet@V?$num_put@GV?$ostreambuf_iterator@GU?$char_traits@G@std@@@std@@@std@@@std@@YAABV?$num_put@GV?$ostreambuf_iterator@GU?$char_traits@G@std@@@std@@@0@ABVlocale@0@@Z 20195416 f i libcpmt:wlocale.obj
 0001:001944d4       ??$use_facet@V?$num_put@_WV?$ostreambuf_iterator@_WU?$char_traits@_W@std@@@std@@@std@@@std@@YAABV?$num_put@_WV?$ostreambuf_iterator@_WU?$char_traits@_W@std@@@std@@@0@ABVlocale@0@@Z 201954d4 f i libcpmt:wlocale.obj
 0001:00194592       ??$use_facet@V?$numpunct@G@std@@@std@@YAABV?$numpunct@G@0@ABVlocale@0@@Z 20195592 f i libcpmt:wlocale.obj
 0001:00194650       ??$use_facet@V?$numpunct@_W@std@@@std@@YAABV?$numpunct@_W@0@ABVlocale@0@@Z 20195650 f i libcpmt:wlocale.obj
 0001:0019470e       ??$use_facet@V?$time_get@GV?$istreambuf_iterator@GU?$char_traits@G@std@@@std@@@std@@@std@@YAABV?$time_get@GV?$istreambuf_iterator@GU?$char_traits@G@std@@@std@@@0@ABVlocale@0@@Z 2019570e f i libcpmt:wlocale.obj
 0001:001947cc       ??$use_facet@V?$time_get@_WV?$istreambuf_iterator@_WU?$char_traits@_W@std@@@std@@@std@@@std@@YAABV?$time_get@_WV?$istreambuf_iterator@_WU?$char_traits@_W@std@@@std@@@0@ABVlocale@0@@Z 201957cc f i libcpmt:wlocale.obj
 0001:0019488a       ??$use_facet@V?$time_put@GV?$ostreambuf_iterator@GU?$char_traits@G@std@@@std@@@std@@@std@@YAABV?$time_put@GV?$ostreambuf_iterator@GU?$char_traits@G@std@@@std@@@0@ABVlocale@0@@Z 2019588a f i libcpmt:wlocale.obj
 0001:00194948       ??$use_facet@V?$time_put@_WV?$ostreambuf_iterator@_WU?$char_traits@_W@std@@@std@@@std@@@std@@YAABV?$time_put@_WV?$ostreambuf_iterator@_WU?$char_traits@_W@std@@@std@@@0@ABVlocale@0@@Z 20195948 f i libcpmt:wlocale.obj
 0001:00194a06       ??0?$_Mpunct@G@std@@QAE@ABV_Locinfo@1@I_N1@Z 20195a06 f i libcpmt:wlocale.obj
 0001:00194a54       ??0?$_Mpunct@_W@std@@QAE@ABV_Locinfo@1@I_N1@Z 20195a54 f i libcpmt:wlocale.obj
 0001:00194aa2       ??0?$_String_const_iterator@V?$_String_val@U?$_Simple_types@G@std@@@std@@@std@@QAE@PBGPBU_Container_base0@1@@Z 20195aa2 f i libcpmt:wlocale.obj
 0001:00194ab3       ??0?$_String_const_iterator@V?$_String_val@U?$_Simple_types@G@std@@@std@@@std@@QAE@XZ 20195ab3 f i libcpmt:wlocale.obj
 0001:00194abe       ??0?$_String_const_iterator@V?$_String_val@U?$_Simple_types@_W@std@@@std@@@std@@QAE@PB_WPBU_Container_base0@1@@Z 20195abe f i libcpmt:wlocale.obj
 0001:00194acf       ??0?$_String_const_iterator@V?$_String_val@U?$_Simple_types@_W@std@@@std@@@std@@QAE@XZ 20195acf f i libcpmt:wlocale.obj
 0001:00194ada       ??0?$_String_iterator@V?$_String_val@U?$_Simple_types@G@std@@@std@@@std@@QAE@PBGPBU_Container_base0@1@@Z 20195ada f i libcpmt:wlocale.obj
 0001:00194aeb       ??0?$_String_iterator@V?$_String_val@U?$_Simple_types@_W@std@@@std@@@std@@QAE@PB_WPBU_Container_base0@1@@Z 20195aeb f i libcpmt:wlocale.obj
 0001:00194afc       ??0?$_String_val@U?$_Simple_types@G@std@@@std@@QAE@XZ 20195afc f i libcpmt:wlocale.obj
 0001:00194b1d       ??0?$_String_val@U?$_Simple_types@_W@std@@@std@@QAE@XZ 20195b1d f i libcpmt:wlocale.obj
 0001:00194b3e       ??0?$allocator@G@std@@QAE@XZ 20195b3e f i libcpmt:wlocale.obj
 0001:00194b41       ??0?$allocator@_W@std@@QAE@XZ 20195b41 f i libcpmt:wlocale.obj
 0001:00194b44       ??0?$basic_string@GU?$char_traits@G@std@@V?$allocator@G@2@@std@@QAE@$$QAV01@@Z 20195b44 f i libcpmt:wlocale.obj
 0001:00194b7c       ??0?$basic_string@GU?$char_traits@G@std@@V?$allocator@G@2@@std@@QAE@ABV01@@Z 20195b7c f i libcpmt:wlocale.obj
 0001:00194bc7       ??0?$basic_string@GU?$char_traits@G@std@@V?$allocator@G@2@@std@@QAE@IG@Z 20195bc7 f i libcpmt:wlocale.obj
 0001:00194c03       ??0?$basic_string@GU?$char_traits@G@std@@V?$allocator@G@2@@std@@QAE@QBG@Z 20195c03 f i libcpmt:wlocale.obj
 0001:00194c51       ??0?$basic_string@GU?$char_traits@G@std@@V?$allocator@G@2@@std@@QAE@QBGI@Z 20195c51 f i libcpmt:wlocale.obj
 0001:00194c8d       ??0?$basic_string@GU?$char_traits@G@std@@V?$allocator@G@2@@std@@QAE@XZ 20195c8d f i libcpmt:wlocale.obj
 0001:00194cb5       ??0?$basic_string@_WU?$char_traits@_W@std@@V?$allocator@_W@2@@std@@QAE@$$QAV01@@Z 20195cb5 f i libcpmt:wlocale.obj
 0001:00194ced       ??0?$basic_string@_WU?$char_traits@_W@std@@V?$allocator@_W@2@@std@@QAE@ABV01@@Z 20195ced f i libcpmt:wlocale.obj
 0001:00194d38       ??0?$basic_string@_WU?$char_traits@_W@std@@V?$allocator@_W@2@@std@@QAE@I_W@Z 20195d38 f i libcpmt:wlocale.obj
 0001:00194d74       ??0?$basic_string@_WU?$char_traits@_W@std@@V?$allocator@_W@2@@std@@QAE@QB_W@Z 20195d74 f i libcpmt:wlocale.obj
 0001:00194dc2       ??0?$basic_string@_WU?$char_traits@_W@std@@V?$allocator@_W@2@@std@@QAE@QB_WI@Z 20195dc2 f i libcpmt:wlocale.obj
 0001:00194dfe       ??0?$basic_string@_WU?$char_traits@_W@std@@V?$allocator@_W@2@@std@@QAE@XZ 20195dfe f i libcpmt:wlocale.obj
 0001:00194e26       ??0?$codecvt@GDU_Mbstatet@@@std@@QAE@ABV_Locinfo@1@I@Z 20195e26 f i libcpmt:wlocale.obj
 0001:00194e6a       ??0?$codecvt@_WDU_Mbstatet@@@std@@QAE@ABV_Locinfo@1@I@Z 20195e6a f i libcpmt:wlocale.obj
 0001:00194eae       ??0?$collate@G@std@@QAE@ABV_Locinfo@1@I@Z 20195eae f i libcpmt:wlocale.obj
 0001:00194ee0       ??0?$collate@_W@std@@QAE@ABV_Locinfo@1@I@Z 20195ee0 f i libcpmt:wlocale.obj
 0001:00194f12       ??0?$ctype@G@std@@QAE@ABV_Locinfo@1@I@Z 20195f12 f i libcpmt:wlocale.obj
 0001:00194f40       ??0?$ctype@_W@std@@QAE@ABV_Locinfo@1@I@Z 20195f40 f i libcpmt:wlocale.obj
 0001:00194f6e       ??0?$messages@G@std@@QAE@ABV_Locinfo@1@I@Z 20195f6e f i libcpmt:wlocale.obj
 0001:00194f8d       ??0?$messages@_W@std@@QAE@ABV_Locinfo@1@I@Z 20195f8d f i libcpmt:wlocale.obj
 0001:00194fac       ??0?$money_get@GV?$istreambuf_iterator@GU?$char_traits@G@std@@@std@@@std@@QAE@ABV_Locinfo@1@I@Z 20195fac f i libcpmt:wlocale.obj
 0001:00194fcb       ??0?$money_get@_WV?$istreambuf_iterator@_WU?$char_traits@_W@std@@@std@@@std@@QAE@ABV_Locinfo@1@I@Z 20195fcb f i libcpmt:wlocale.obj
 0001:00194fea       ??0?$money_put@GV?$ostreambuf_iterator@GU?$char_traits@G@std@@@std@@@std@@QAE@ABV_Locinfo@1@I@Z 20195fea f i libcpmt:wlocale.obj
 0001:00195009       ??0?$money_put@_WV?$ostreambuf_iterator@_WU?$char_traits@_W@std@@@std@@@std@@QAE@ABV_Locinfo@1@I@Z 20196009 f i libcpmt:wlocale.obj
 0001:00195028       ??0?$moneypunct@G$00@std@@QAE@ABV_Locinfo@1@I_N@Z 20196028 f i libcpmt:wlocale.obj
 0001:00195058       ??0?$moneypunct@G$0A@@std@@QAE@ABV_Locinfo@1@I_N@Z 20196058 f i libcpmt:wlocale.obj
 0001:00195088       ??0?$moneypunct@_W$00@std@@QAE@ABV_Locinfo@1@I_N@Z 20196088 f i libcpmt:wlocale.obj
 0001:001950b8       ??0?$moneypunct@_W$0A@@std@@QAE@ABV_Locinfo@1@I_N@Z 201960b8 f i libcpmt:wlocale.obj
 0001:001950e8       ??0?$num_get@GV?$istreambuf_iterator@GU?$char_traits@G@std@@@std@@@std@@QAE@ABV_Locinfo@1@I@Z 201960e8 f i libcpmt:wlocale.obj
 0001:00195107       ??0?$num_get@_WV?$istreambuf_iterator@_WU?$char_traits@_W@std@@@std@@@std@@QAE@ABV_Locinfo@1@I@Z 20196107 f i libcpmt:wlocale.obj
 0001:00195126       ??0?$num_put@GV?$ostreambuf_iterator@GU?$char_traits@G@std@@@std@@@std@@QAE@ABV_Locinfo@1@I@Z 20196126 f i libcpmt:wlocale.obj
 0001:00195145       ??0?$num_put@_WV?$ostreambuf_iterator@_WU?$char_traits@_W@std@@@std@@@std@@QAE@ABV_Locinfo@1@I@Z 20196145 f i libcpmt:wlocale.obj
 0001:00195164       ??0?$numpunct@G@std@@QAE@ABV_Locinfo@1@I_N@Z 20196164 f i libcpmt:wlocale.obj
 0001:001951ab       ??0?$numpunct@_W@std@@QAE@ABV_Locinfo@1@I_N@Z 201961ab f i libcpmt:wlocale.obj
 0001:001951f2       ??0?$time_get@GV?$istreambuf_iterator@GU?$char_traits@G@std@@@std@@@std@@QAE@ABV_Locinfo@1@I@Z 201961f2 f i libcpmt:wlocale.obj
 0001:00195235       ??0?$time_get@_WV?$istreambuf_iterator@_WU?$char_traits@_W@std@@@std@@@std@@QAE@ABV_Locinfo@1@I@Z 20196235 f i libcpmt:wlocale.obj
 0001:00195278       ??0?$time_put@GV?$ostreambuf_iterator@GU?$char_traits@G@std@@@std@@@std@@QAE@ABV_Locinfo@1@I@Z 20196278 f i libcpmt:wlocale.obj
 0001:001952af       ??0?$time_put@_WV?$ostreambuf_iterator@_WU?$char_traits@_W@std@@@std@@@std@@QAE@ABV_Locinfo@1@I@Z 201962af f i libcpmt:wlocale.obj
 0001:001952e6       ??0_Bxty@?$_String_val@U?$_Simple_types@G@std@@@std@@QAE@XZ 201962e6 f i libcpmt:wlocale.obj
 0001:001952f6       ??0_Bxty@?$_String_val@U?$_Simple_types@_W@std@@@std@@QAE@XZ 201962f6 f i libcpmt:wlocale.obj
 0001:00195306       ??0_Timevec@std@@QAE@PAX@Z 20196306 f i libcpmt:wlocale.obj
 0001:00195317       ??0messages_base@std@@QAE@I@Z 20196317 f i libcpmt:wlocale.obj
 0001:00195331       ??0money_base@std@@QAE@I@Z 20196331 f i libcpmt:wlocale.obj
 0001:0019534b       ??0time_base@std@@QAE@I@Z  2019634b f i libcpmt:wlocale.obj
 0001:00195365       ??1?$_Compressed_pair@V?$allocator@G@std@@V?$_String_val@U?$_Simple_types@G@std@@@2@$00@std@@QAE@XZ 20196365 f i libcpmt:wlocale.obj
 0001:00195368       ??1?$_Compressed_pair@V?$allocator@_W@std@@V?$_String_val@U?$_Simple_types@_W@std@@@2@$00@std@@QAE@XZ 20196368 f i libcpmt:wlocale.obj
 0001:0019536b       ??1?$_Mpunct@G@std@@MAE@XZ 2019636b f i libcpmt:wlocale.obj
 0001:00195386       ??1?$_Mpunct@_W@std@@MAE@XZ 20196386 f i libcpmt:wlocale.obj
 0001:001953a1       ??1?$_String_val@U?$_Simple_types@G@std@@@std@@QAE@XZ 201963a1 f i libcpmt:wlocale.obj
 0001:001953a4       ??1?$_String_val@U?$_Simple_types@_W@std@@@std@@QAE@XZ 201963a4 f i libcpmt:wlocale.obj
 0001:001953a7       ??1?$_Tidy_guard@V?$_Mpunct@G@std@@@std@@QAE@XZ 201963a7 f i libcpmt:wlocale.obj
 0001:001953b4       ??1?$_Tidy_guard@V?$_Mpunct@_W@std@@@std@@QAE@XZ 201963b4 f i libcpmt:wlocale.obj
 0001:001953c1       ??1?$_Tidy_guard@V?$numpunct@G@std@@@std@@QAE@XZ 201963c1 f i libcpmt:wlocale.obj
 0001:001953ce       ??1?$_Tidy_guard@V?$numpunct@_W@std@@@std@@QAE@XZ 201963ce f i libcpmt:wlocale.obj
 0001:001953db       ??1?$_Tidy_guard@V?$time_get@GV?$istreambuf_iterator@GU?$char_traits@G@std@@@std@@@std@@@std@@QAE@XZ 201963db f i libcpmt:wlocale.obj
 0001:001953e8       ??1?$_Tidy_guard@V?$time_get@_WV?$istreambuf_iterator@_WU?$char_traits@_W@std@@@std@@@std@@@std@@QAE@XZ 201963e8 f i libcpmt:wlocale.obj
 0001:001953f5       ??1?$basic_string@GU?$char_traits@G@std@@V?$allocator@G@2@@std@@QAE@XZ 201963f5 f i libcpmt:wlocale.obj
 0001:001953fa       ??1?$basic_string@_WU?$char_traits@_W@std@@V?$allocator@_W@2@@std@@QAE@XZ 201963fa f i libcpmt:wlocale.obj
 0001:001953ff       ??1?$codecvt@GDU_Mbstatet@@@std@@MAE@XZ 201963ff f i libcpmt:wlocale.obj
 0001:00195406       ??1?$codecvt@_WDU_Mbstatet@@@std@@MAE@XZ 20196406 f i libcpmt:wlocale.obj
 0001:0019540d       ??1?$collate@G@std@@MAE@XZ 2019640d f i libcpmt:wlocale.obj
 0001:0019542d       ??1?$collate@_W@std@@MAE@XZ 2019642d f i libcpmt:wlocale.obj
 0001:0019544d       ??1?$ctype@G@std@@MAE@XZ   2019644d f i libcpmt:wlocale.obj
 0001:00195480       ??1?$ctype@_W@std@@MAE@XZ  20196480 f i libcpmt:wlocale.obj
 0001:001954b3       ??1?$messages@G@std@@MAE@XZ 201964b3 f i libcpmt:wlocale.obj
 0001:001954ba       ??1?$messages@_W@std@@MAE@XZ 201964ba f i libcpmt:wlocale.obj
 0001:001954c1       ??1?$money_get@GV?$istreambuf_iterator@GU?$char_traits@G@std@@@std@@@std@@MAE@XZ 201964c1 f i libcpmt:wlocale.obj
 0001:001954c8       ??1?$money_get@_WV?$istreambuf_iterator@_WU?$char_traits@_W@std@@@std@@@std@@MAE@XZ 201964c8 f i libcpmt:wlocale.obj
 0001:001954cf       ??1?$money_put@GV?$ostreambuf_iterator@GU?$char_traits@G@std@@@std@@@std@@MAE@XZ 201964cf f i libcpmt:wlocale.obj
 0001:001954d6       ??1?$money_put@_WV?$ostreambuf_iterator@_WU?$char_traits@_W@std@@@std@@@std@@MAE@XZ 201964d6 f i libcpmt:wlocale.obj
 0001:001954dd       ??1?$moneypunct@G$00@std@@MAE@XZ 201964dd f i libcpmt:wlocale.obj
 0001:001954f8       ??1?$moneypunct@G$0A@@std@@MAE@XZ 201964f8 f i libcpmt:wlocale.obj
 0001:00195513       ??1?$moneypunct@_W$00@std@@MAE@XZ 20196513 f i libcpmt:wlocale.obj
 0001:0019552e       ??1?$moneypunct@_W$0A@@std@@MAE@XZ 2019652e f i libcpmt:wlocale.obj
 0001:00195549       ??1?$num_get@GV?$istreambuf_iterator@GU?$char_traits@G@std@@@std@@@std@@MAE@XZ 20196549 f i libcpmt:wlocale.obj
 0001:00195550       ??1?$num_get@_WV?$istreambuf_iterator@_WU?$char_traits@_W@std@@@std@@@std@@MAE@XZ 20196550 f i libcpmt:wlocale.obj
 0001:00195557       ??1?$num_put@GV?$ostreambuf_iterator@GU?$char_traits@G@std@@@std@@@std@@MAE@XZ 20196557 f i libcpmt:wlocale.obj
 0001:0019555e       ??1?$num_put@_WV?$ostreambuf_iterator@_WU?$char_traits@_W@std@@@std@@@std@@MAE@XZ 2019655e f i libcpmt:wlocale.obj
 0001:00195565       ??1?$numpunct@G@std@@MAE@XZ 20196565 f i libcpmt:wlocale.obj
 0001:00195580       ??1?$numpunct@_W@std@@MAE@XZ 20196580 f i libcpmt:wlocale.obj
 0001:0019559b       ??1?$time_get@GV?$istreambuf_iterator@GU?$char_traits@G@std@@@std@@@std@@MAE@XZ 2019659b f i libcpmt:wlocale.obj
 0001:001955b6       ??1?$time_get@_WV?$istreambuf_iterator@_WU?$char_traits@_W@std@@@std@@@std@@MAE@XZ 201965b6 f i libcpmt:wlocale.obj
 0001:001955d1       ??1?$time_put@GV?$ostreambuf_iterator@GU?$char_traits@G@std@@@std@@@std@@MAE@XZ 201965d1 f i libcpmt:wlocale.obj
 0001:001955f1       ??1?$time_put@_WV?$ostreambuf_iterator@_WU?$char_traits@_W@std@@@std@@@std@@MAE@XZ 201965f1 f i libcpmt:wlocale.obj
 0001:00195611       ??1_Bxty@?$_String_val@U?$_Simple_types@G@std@@@std@@QAE@XZ 20196611 f i libcpmt:wlocale.obj
 0001:00195614       ??1_Bxty@?$_String_val@U?$_Simple_types@_W@std@@@std@@QAE@XZ 20196614 f i libcpmt:wlocale.obj
 0001:00195617       ??1_Timevec@std@@QAE@XZ    20196617 f i libcpmt:wlocale.obj
 0001:00195622       ??1messages_base@std@@UAE@XZ 20196622 f i libcpmt:wlocale.obj
 0001:00195629       ??1money_base@std@@UAE@XZ  20196629 f i libcpmt:wlocale.obj
 0001:00195630       ??1time_base@std@@UAE@XZ   20196630 f i libcpmt:wlocale.obj
 0001:00195637       ??4?$_Yarn@_W@std@@QAEAAV01@PB_W@Z 20196637 f i libcpmt:wlocale.obj
 0001:0019569d       ??4?$basic_string@GU?$char_traits@G@std@@V?$allocator@G@2@@std@@QAEAAV01@$$QAV01@@Z 2019669d f i libcpmt:wlocale.obj
 0001:001956c6       ??4?$basic_string@_WU?$char_traits@_W@std@@V?$allocator@_W@2@@std@@QAEAAV01@$$QAV01@@Z 201966c6 f i libcpmt:wlocale.obj
 0001:001956ef       ??4?$ostreambuf_iterator@GU?$char_traits@G@std@@@std@@QAEAAV01@G@Z 201966ef f i libcpmt:wlocale.obj
 0001:00195722       ??4?$ostreambuf_iterator@_WU?$char_traits@_W@std@@@std@@QAEAAV01@_W@Z 20196722 f i libcpmt:wlocale.obj
 0001:00195755       ??4_Timevec@std@@QAEAAV01@ABV01@@Z 20196755 f i libcpmt:wlocale.obj
 0001:00195787       ??8?$_String_const_iterator@V?$_String_val@U?$_Simple_types@G@std@@@std@@@std@@QBE_NABV01@@Z 20196787 f i libcpmt:wlocale.obj
 0001:0019579c       ??8?$_String_const_iterator@V?$_String_val@U?$_Simple_types@_W@std@@@std@@@std@@QBE_NABV01@@Z 2019679c f i libcpmt:wlocale.obj
 0001:001957b1       ??A?$basic_string@GU?$char_traits@G@std@@V?$allocator@G@2@@std@@QAEAAGI@Z 201967b1 f i libcpmt:wlocale.obj
 0001:001957cb       ??A?$basic_string@GU?$char_traits@G@std@@V?$allocator@G@2@@std@@QBEABGI@Z 201967cb f i libcpmt:wlocale.obj
 0001:001957e5       ??A?$basic_string@_WU?$char_traits@_W@std@@V?$allocator@_W@2@@std@@QAEAA_WI@Z 201967e5 f i libcpmt:wlocale.obj
 0001:001957ff       ??A?$basic_string@_WU?$char_traits@_W@std@@V?$allocator@_W@2@@std@@QBEAB_WI@Z 201967ff f i libcpmt:wlocale.obj
 0001:00195819       ??D?$_String_const_iterator@V?$_String_val@U?$_Simple_types@G@std@@@std@@@std@@QBEABGXZ 20196819 f i libcpmt:wlocale.obj
 0001:0019581c       ??D?$_String_const_iterator@V?$_String_val@U?$_Simple_types@_W@std@@@std@@@std@@QBEAB_WXZ 2019681c f i libcpmt:wlocale.obj
 0001:0019581f       ??D?$_String_iterator@V?$_String_val@U?$_Simple_types@G@std@@@std@@@std@@QBEAAGXZ 2019681f f i libcpmt:wlocale.obj
 0001:00195822       ??D?$_String_iterator@V?$_String_val@U?$_Simple_types@_W@std@@@std@@@std@@QBEAA_WXZ 20196822 f i libcpmt:wlocale.obj
 0001:00195825       ??D?$istreambuf_iterator@GU?$char_traits@G@std@@@std@@QBEGXZ 20196825 f i libcpmt:wlocale.obj
 0001:0019583e       ??D?$istreambuf_iterator@_WU?$char_traits@_W@std@@@std@@QBE_WXZ 2019683e f i libcpmt:wlocale.obj
 0001:00195857       ??D?$ostreambuf_iterator@GU?$char_traits@G@std@@@std@@QAEAAV01@XZ 20196857 f i libcpmt:wlocale.obj
 0001:0019585a       ??D?$ostreambuf_iterator@_WU?$char_traits@_W@std@@@std@@QAEAAV01@XZ 2019685a f i libcpmt:wlocale.obj
 0001:0019585d       ??E?$_String_const_iterator@V?$_String_val@U?$_Simple_types@G@std@@@std@@@std@@QAEAAV01@XZ 2019685d f i libcpmt:wlocale.obj
 0001:00195863       ??E?$_String_const_iterator@V?$_String_val@U?$_Simple_types@_W@std@@@std@@@std@@QAEAAV01@XZ 20196863 f i libcpmt:wlocale.obj
 0001:00195869       ??E?$_String_iterator@V?$_String_val@U?$_Simple_types@G@std@@@std@@@std@@QAEAAV01@XZ 20196869 f i libcpmt:wlocale.obj
 0001:0019586f       ??E?$_String_iterator@V?$_String_val@U?$_Simple_types@_W@std@@@std@@@std@@QAEAAV01@XZ 2019686f f i libcpmt:wlocale.obj
 0001:00195875       ??E?$istreambuf_iterator@GU?$char_traits@G@std@@@std@@QAEAAV01@XZ 20196875 f i libcpmt:wlocale.obj
 0001:00195884       ??E?$istreambuf_iterator@_WU?$char_traits@_W@std@@@std@@QAEAAV01@XZ 20196884 f i libcpmt:wlocale.obj
 0001:00195893       ??E?$ostreambuf_iterator@GU?$char_traits@G@std@@@std@@QAEAAV01@H@Z 20196893 f i libcpmt:wlocale.obj
 0001:00195898       ??E?$ostreambuf_iterator@GU?$char_traits@G@std@@@std@@QAEAAV01@XZ 20196898 f i libcpmt:wlocale.obj
 0001:0019589b       ??E?$ostreambuf_iterator@_WU?$char_traits@_W@std@@@std@@QAEAAV01@H@Z 2019689b f i libcpmt:wlocale.obj
 0001:001958a0       ??E?$ostreambuf_iterator@_WU?$char_traits@_W@std@@@std@@QAEAAV01@XZ 201968a0 f i libcpmt:wlocale.obj
 0001:001958a3       ??G?$_String_iterator@V?$_String_val@U?$_Simple_types@G@std@@@std@@@std@@QBE?AV01@H@Z 201968a3 f i libcpmt:wlocale.obj
 0001:001958bd       ??G?$_String_iterator@V?$_String_val@U?$_Simple_types@_W@std@@@std@@@std@@QBE?AV01@H@Z 201968bd f i libcpmt:wlocale.obj
 0001:001958d7       ??H?$_String_iterator@V?$_String_val@U?$_Simple_types@G@std@@@std@@@std@@QBE?AV01@H@Z 201968d7 f i libcpmt:wlocale.obj
 0001:001958f0       ??H?$_String_iterator@V?$_String_val@U?$_Simple_types@_W@std@@@std@@@std@@QBE?AV01@H@Z 201968f0 f i libcpmt:wlocale.obj
 0001:00195909       ??R<lambda_1>@?1???$_Append@G@?$basic_string@GU?$char_traits@G@std@@V?$allocator@G@2@@std@@AAEAAV12@QBGI@Z@SA@QAG0I0I@Z 20196909 f i libcpmt:wlocale.obj
 0001:00195955       ??R<lambda_1>@?1???$_Append@_W@?$basic_string@_WU?$char_traits@_W@std@@V?$allocator@_W@2@@std@@AAEAAV12@QB_WI@Z@SA@QA_W0I0I@Z 20196955 f i libcpmt:wlocale.obj
 0001:001959a1       ??R<lambda_1>@?1??append@?$basic_string@GU?$char_traits@G@std@@V?$allocator@G@2@@std@@QAEAAV23@IG@Z@SA@QAGQBGIIG@Z 201969a1 f i libcpmt:wlocale.obj
 0001:001959e9       ??R<lambda_1>@?1??append@?$basic_string@_WU?$char_traits@_W@std@@V?$allocator@_W@2@@std@@QAEAAV23@I_W@Z@SA@QA_WQB_WII0@Z 201969e9 f i libcpmt:wlocale.obj
 0001:00195a31       ??R<lambda_1>@?1??insert@?$basic_string@GU?$char_traits@G@std@@V?$allocator@G@2@@std@@QAEAAV23@IIG@Z@SA@QAGQBGIIIG@Z 20196a31 f i libcpmt:wlocale.obj
 0001:00195a96       ??R<lambda_1>@?1??insert@?$basic_string@_WU?$char_traits@_W@std@@V?$allocator@_W@2@@std@@QAEAAV23@II_W@Z@SA@QA_WQB_WIII0@Z 20196a96 f i libcpmt:wlocale.obj
 0001:00195afb       ??R<lambda_1>@?1??push_back@?$basic_string@GU?$char_traits@G@std@@V?$allocator@G@2@@std@@QAEXG@Z@SA@QAGQBGIG@Z 20196afb f i libcpmt:wlocale.obj
 0001:00195b34       ??R<lambda_1>@?1??push_back@?$basic_string@_WU?$char_traits@_W@std@@V?$allocator@_W@2@@std@@QAEX_W@Z@SA@QA_WQB_WI0@Z 20196b34 f i libcpmt:wlocale.obj
 0001:00195b6d       ??Y?$_String_const_iterator@V?$_String_val@U?$_Simple_types@G@std@@@std@@@std@@QAEAAV01@H@Z 20196b6d f i libcpmt:wlocale.obj
 0001:00195b81       ??Y?$_String_const_iterator@V?$_String_val@U?$_Simple_types@_W@std@@@std@@@std@@QAEAAV01@H@Z 20196b81 f i libcpmt:wlocale.obj
 0001:00195b95       ??Y?$_String_iterator@V?$_String_val@U?$_Simple_types@G@std@@@std@@@std@@QAEAAV01@H@Z 20196b95 f i libcpmt:wlocale.obj
 0001:00195ba9       ??Y?$_String_iterator@V?$_String_val@U?$_Simple_types@_W@std@@@std@@@std@@QAEAAV01@H@Z 20196ba9 f i libcpmt:wlocale.obj
 0001:00195bbd       ??Y?$basic_string@DU?$char_traits@D@std@@V?$allocator@D@2@@std@@QAEAAV01@D@Z 20196bbd f i libcpmt:wlocale.obj
 0001:00195bd7       ??Y?$basic_string@GU?$char_traits@G@std@@V?$allocator@G@2@@std@@QAEAAV01@ABV01@@Z 20196bd7 f i libcpmt:wlocale.obj
 0001:00195be2       ??Y?$basic_string@_WU?$char_traits@_W@std@@V?$allocator@_W@2@@std@@QAEAAV01@ABV01@@Z 20196be2 f i libcpmt:wlocale.obj
 0001:00195bed       ??Z?$_String_const_iterator@V?$_String_val@U?$_Simple_types@G@std@@@std@@@std@@QAEAAV01@H@Z 20196bed f i libcpmt:wlocale.obj
 0001:00195c03       ??Z?$_String_const_iterator@V?$_String_val@U?$_Simple_types@_W@std@@@std@@@std@@QAEAAV01@H@Z 20196c03 f i libcpmt:wlocale.obj
 0001:00195c19       ??Z?$_String_iterator@V?$_String_val@U?$_Simple_types@G@std@@@std@@@std@@QAEAAV01@H@Z 20196c19 f i libcpmt:wlocale.obj
 0001:00195c2f       ??Z?$_String_iterator@V?$_String_val@U?$_Simple_types@_W@std@@@std@@@std@@QAEAAV01@H@Z 20196c2f f i libcpmt:wlocale.obj
 0001:00195c45       ??_E?$_Mpunct@G@std@@MAEPAXI@Z 20196c45 f i libcpmt:wlocale.obj
 0001:00195c45       ??_G?$_Mpunct@G@std@@MAEPAXI@Z 20196c45 f i libcpmt:wlocale.obj
 0001:00195c7e       ??_E?$_Mpunct@_W@std@@MAEPAXI@Z 20196c7e f i libcpmt:wlocale.obj
 0001:00195c7e       ??_G?$_Mpunct@_W@std@@MAEPAXI@Z 20196c7e f i libcpmt:wlocale.obj
 0001:00195cb7       ??_E?$codecvt@GDU_Mbstatet@@@std@@MAEPAXI@Z 20196cb7 f i libcpmt:wlocale.obj
 0001:00195cb7       ??_G?$codecvt@GDU_Mbstatet@@@std@@MAEPAXI@Z 20196cb7 f i libcpmt:wlocale.obj
 0001:00195ce2       ??_E?$codecvt@_WDU_Mbstatet@@@std@@MAEPAXI@Z 20196ce2 f i libcpmt:wlocale.obj
 0001:00195ce2       ??_G?$codecvt@_WDU_Mbstatet@@@std@@MAEPAXI@Z 20196ce2 f i libcpmt:wlocale.obj
 0001:00195d0d       ??_E?$collate@G@std@@MAEPAXI@Z 20196d0d f i libcpmt:wlocale.obj
 0001:00195d0d       ??_G?$collate@G@std@@MAEPAXI@Z 20196d0d f i libcpmt:wlocale.obj
 0001:00195d37       ??_E?$collate@_W@std@@MAEPAXI@Z 20196d37 f i libcpmt:wlocale.obj
 0001:00195d37       ??_G?$collate@_W@std@@MAEPAXI@Z 20196d37 f i libcpmt:wlocale.obj
 0001:00195d61       ??_E?$ctype@G@std@@MAEPAXI@Z 20196d61 f i libcpmt:wlocale.obj
 0001:00195d61       ??_G?$ctype@G@std@@MAEPAXI@Z 20196d61 f i libcpmt:wlocale.obj
 0001:00195d8b       ??_E?$ctype@_W@std@@MAEPAXI@Z 20196d8b f i libcpmt:wlocale.obj
 0001:00195d8b       ??_G?$ctype@_W@std@@MAEPAXI@Z 20196d8b f i libcpmt:wlocale.obj
 0001:00195db5       ??_E?$messages@G@std@@MAEPAXI@Z 20196db5 f i libcpmt:wlocale.obj
 0001:00195db5       ??_G?$messages@G@std@@MAEPAXI@Z 20196db5 f i libcpmt:wlocale.obj
 0001:00195de0       ??_E?$messages@_W@std@@MAEPAXI@Z 20196de0 f i libcpmt:wlocale.obj
 0001:00195de0       ??_G?$messages@_W@std@@MAEPAXI@Z 20196de0 f i libcpmt:wlocale.obj
 0001:00195e0b       ??_E?$money_get@GV?$istreambuf_iterator@GU?$char_traits@G@std@@@std@@@std@@MAEPAXI@Z 20196e0b f i libcpmt:wlocale.obj
 0001:00195e0b       ??_G?$money_get@GV?$istreambuf_iterator@GU?$char_traits@G@std@@@std@@@std@@MAEPAXI@Z 20196e0b f i libcpmt:wlocale.obj
 0001:00195e36       ??_E?$money_get@_WV?$istreambuf_iterator@_WU?$char_traits@_W@std@@@std@@@std@@MAEPAXI@Z 20196e36 f i libcpmt:wlocale.obj
 0001:00195e36       ??_G?$money_get@_WV?$istreambuf_iterator@_WU?$char_traits@_W@std@@@std@@@std@@MAEPAXI@Z 20196e36 f i libcpmt:wlocale.obj
 0001:00195e61       ??_E?$money_put@GV?$ostreambuf_iterator@GU?$char_traits@G@std@@@std@@@std@@MAEPAXI@Z 20196e61 f i libcpmt:wlocale.obj
 0001:00195e61       ??_G?$money_put@GV?$ostreambuf_iterator@GU?$char_traits@G@std@@@std@@@std@@MAEPAXI@Z 20196e61 f i libcpmt:wlocale.obj
 0001:00195e8c       ??_E?$money_put@_WV?$ostreambuf_iterator@_WU?$char_traits@_W@std@@@std@@@std@@MAEPAXI@Z 20196e8c f i libcpmt:wlocale.obj
 0001:00195e8c       ??_G?$money_put@_WV?$ostreambuf_iterator@_WU?$char_traits@_W@std@@@std@@@std@@MAEPAXI@Z 20196e8c f i libcpmt:wlocale.obj
 0001:00195eb7       ??_E?$moneypunct@G$00@std@@MAEPAXI@Z 20196eb7 f i libcpmt:wlocale.obj
 0001:00195eb7       ??_G?$moneypunct@G$00@std@@MAEPAXI@Z 20196eb7 f i libcpmt:wlocale.obj
 0001:00195ef0       ??_E?$moneypunct@G$0A@@std@@MAEPAXI@Z 20196ef0 f i libcpmt:wlocale.obj
 0001:00195ef0       ??_G?$moneypunct@G$0A@@std@@MAEPAXI@Z 20196ef0 f i libcpmt:wlocale.obj
 0001:00195f29       ??_E?$moneypunct@_W$00@std@@MAEPAXI@Z 20196f29 f i libcpmt:wlocale.obj
 0001:00195f29       ??_G?$moneypunct@_W$00@std@@MAEPAXI@Z 20196f29 f i libcpmt:wlocale.obj
 0001:00195f62       ??_E?$moneypunct@_W$0A@@std@@MAEPAXI@Z 20196f62 f i libcpmt:wlocale.obj
 0001:00195f62       ??_G?$moneypunct@_W$0A@@std@@MAEPAXI@Z 20196f62 f i libcpmt:wlocale.obj
 0001:00195f9b       ??_E?$num_get@GV?$istreambuf_iterator@GU?$char_traits@G@std@@@std@@@std@@MAEPAXI@Z 20196f9b f i libcpmt:wlocale.obj
 0001:00195f9b       ??_G?$num_get@GV?$istreambuf_iterator@GU?$char_traits@G@std@@@std@@@std@@MAEPAXI@Z 20196f9b f i libcpmt:wlocale.obj
 0001:00195fc6       ??_E?$num_get@_WV?$istreambuf_iterator@_WU?$char_traits@_W@std@@@std@@@std@@MAEPAXI@Z 20196fc6 f i libcpmt:wlocale.obj
 0001:00195fc6       ??_G?$num_get@_WV?$istreambuf_iterator@_WU?$char_traits@_W@std@@@std@@@std@@MAEPAXI@Z 20196fc6 f i libcpmt:wlocale.obj
 0001:00195ff1       ??_E?$num_put@GV?$ostreambuf_iterator@GU?$char_traits@G@std@@@std@@@std@@MAEPAXI@Z 20196ff1 f i libcpmt:wlocale.obj
 0001:00195ff1       ??_G?$num_put@GV?$ostreambuf_iterator@GU?$char_traits@G@std@@@std@@@std@@MAEPAXI@Z 20196ff1 f i libcpmt:wlocale.obj
 0001:0019601c       ??_E?$num_put@_WV?$ostreambuf_iterator@_WU?$char_traits@_W@std@@@std@@@std@@MAEPAXI@Z 2019701c f i libcpmt:wlocale.obj
 0001:0019601c       ??_G?$num_put@_WV?$ostreambuf_iterator@_WU?$char_traits@_W@std@@@std@@@std@@MAEPAXI@Z 2019701c f i libcpmt:wlocale.obj
 0001:00196047       ??_E?$numpunct@G@std@@MAEPAXI@Z 20197047 f i libcpmt:wlocale.obj
 0001:00196047       ??_G?$numpunct@G@std@@MAEPAXI@Z 20197047 f i libcpmt:wlocale.obj
 0001:00196080       ??_E?$numpunct@_W@std@@MAEPAXI@Z 20197080 f i libcpmt:wlocale.obj
 0001:00196080       ??_G?$numpunct@_W@std@@MAEPAXI@Z 20197080 f i libcpmt:wlocale.obj
 0001:001960b9       ??_E?$time_get@GV?$istreambuf_iterator@GU?$char_traits@G@std@@@std@@@std@@MAEPAXI@Z 201970b9 f i libcpmt:wlocale.obj
 0001:001960b9       ??_G?$time_get@GV?$istreambuf_iterator@GU?$char_traits@G@std@@@std@@@std@@MAEPAXI@Z 201970b9 f i libcpmt:wlocale.obj
 0001:001960f2       ??_E?$time_get@_WV?$istreambuf_iterator@_WU?$char_traits@_W@std@@@std@@@std@@MAEPAXI@Z 201970f2 f i libcpmt:wlocale.obj
 0001:001960f2       ??_G?$time_get@_WV?$istreambuf_iterator@_WU?$char_traits@_W@std@@@std@@@std@@MAEPAXI@Z 201970f2 f i libcpmt:wlocale.obj
 0001:0019612b       ??_E?$time_put@GV?$ostreambuf_iterator@GU?$char_traits@G@std@@@std@@@std@@MAEPAXI@Z 2019712b f i libcpmt:wlocale.obj
 0001:0019612b       ??_G?$time_put@GV?$ostreambuf_iterator@GU?$char_traits@G@std@@@std@@@std@@MAEPAXI@Z 2019712b f i libcpmt:wlocale.obj
 0001:00196155       ??_E?$time_put@_WV?$ostreambuf_iterator@_WU?$char_traits@_W@std@@@std@@@std@@MAEPAXI@Z 20197155 f i libcpmt:wlocale.obj
 0001:00196155       ??_G?$time_put@_WV?$ostreambuf_iterator@_WU?$char_traits@_W@std@@@std@@@std@@MAEPAXI@Z 20197155 f i libcpmt:wlocale.obj
 0001:0019617f       ??_Emessages_base@std@@UAEPAXI@Z 2019717f f i libcpmt:wlocale.obj
 0001:0019617f       ??_Gmessages_base@std@@UAEPAXI@Z 2019717f f i libcpmt:wlocale.obj
 0001:001961aa       ??_Emoney_base@std@@UAEPAXI@Z 201971aa f i libcpmt:wlocale.obj
 0001:001961aa       ??_Gmoney_base@std@@UAEPAXI@Z 201971aa f i libcpmt:wlocale.obj
 0001:001961d5       ??_Etime_base@std@@UAEPAXI@Z 201971d5 f i libcpmt:wlocale.obj
 0001:001961d5       ??_Gtime_base@std@@UAEPAXI@Z 201971d5 f i libcpmt:wlocale.obj
 0001:00196200       ?_Activate_SSO_buffer@?$_String_val@U?$_Simple_types@G@std@@@std@@QAEXXZ 20197200 f i libcpmt:wlocale.obj
 0001:00196203       ?_Activate_SSO_buffer@?$_String_val@U?$_Simple_types@_W@std@@@std@@QAEXXZ 20197203 f i libcpmt:wlocale.obj
 0001:00196206       ?_Adopt@_Iterator_base0@std@@QAEXPBX@Z 20197206 f i libcpmt:wlocale.obj
 0001:00196209       ?_Apply_annotation@?$basic_string@GU?$char_traits@G@std@@V?$allocator@G@2@@std@@CAXQBGIII@Z 20197209 f i libcpmt:wlocale.obj
 0001:0019626b       ?_Apply_annotation@?$basic_string@_WU?$char_traits@_W@std@@V?$allocator@_W@2@@std@@CAXQB_WIII@Z 2019726b f i libcpmt:wlocale.obj
 0001:001962cd       ?_C_str@?$_Yarn@_W@std@@QBEPB_WXZ 201972cd f i libcpmt:wlocale.obj
 0001:001962d9       ?_Calculate_growth@?$basic_string@GU?$char_traits@G@std@@V?$allocator@G@2@@std@@ABEII@Z 201972d9 f i libcpmt:wlocale.obj
 0001:001962f9       ?_Calculate_growth@?$basic_string@GU?$char_traits@G@std@@V?$allocator@G@2@@std@@CAIIII@Z 201972f9 f i libcpmt:wlocale.obj
 0001:00196336       ?_Calculate_growth@?$basic_string@_WU?$char_traits@_W@std@@V?$allocator@_W@2@@std@@ABEII@Z 20197336 f i libcpmt:wlocale.obj
 0001:00196356       ?_Calculate_growth@?$basic_string@_WU?$char_traits@_W@std@@V?$allocator@_W@2@@std@@CAIIII@Z 20197356 f i libcpmt:wlocale.obj
 0001:00196393       ?_Check_offset@?$_String_val@U?$_Simple_types@G@std@@@std@@QBEXI@Z 20197393 f i libcpmt:wlocale.obj
 0001:001963ad       ?_Check_offset@?$_String_val@U?$_Simple_types@_W@std@@@std@@QBEXI@Z 201973ad f i libcpmt:wlocale.obj
 0001:001963c7       ?_Compat@?$_String_const_iterator@V?$_String_val@U?$_Simple_types@G@std@@@std@@@std@@QBEXABV12@@Z 201973c7 f i libcpmt:wlocale.obj
 0001:001963ca       ?_Compat@?$_String_const_iterator@V?$_String_val@U?$_Simple_types@_W@std@@@std@@@std@@QBEXABV12@@Z 201973ca f i libcpmt:wlocale.obj
 0001:001963cd       ?_Construct_empty@?$basic_string@GU?$char_traits@G@std@@V?$allocator@G@2@@std@@AAEXXZ 201973cd f i libcpmt:wlocale.obj
 0001:001963e6       ?_Construct_empty@?$basic_string@_WU?$char_traits@_W@std@@V?$allocator@_W@2@@std@@AAEXXZ 201973e6 f i libcpmt:wlocale.obj
 0001:001963ff       ?_Create_annotation@?$basic_string@GU?$char_traits@G@std@@V?$allocator@G@2@@std@@ABEXXZ 201973ff f i libcpmt:wlocale.obj
 0001:0019641f       ?_Create_annotation@?$basic_string@_WU?$char_traits@_W@std@@V?$allocator@_W@2@@std@@ABEXXZ 2019741f f i libcpmt:wlocale.obj
 0001:0019643f       ?_Deallocate_for_capacity@?$basic_string@GU?$char_traits@G@std@@V?$allocator@G@2@@std@@CAXAAV?$allocator@G@2@QAGI@Z 2019743f f i libcpmt:wlocale.obj
 0001:0019645f       ?_Deallocate_for_capacity@?$basic_string@_WU?$char_traits@_W@std@@V?$allocator@_W@2@@std@@CAXAAV?$allocator@_W@2@QA_WI@Z 2019745f f i libcpmt:wlocale.obj
 0001:0019647f       ?_Donarrow@?$ctype@G@std@@IBEDGD@Z 2019747f f i libcpmt:wlocale.obj
 0001:001964df       ?_Donarrow@?$ctype@_W@std@@IBED_WD@Z 201974df f i libcpmt:wlocale.obj
 0001:0019653f       ?_Dowiden@?$ctype@G@std@@IBEGD@Z 2019753f f i libcpmt:wlocale.obj
 0001:00196588       ?_Dowiden@?$ctype@_W@std@@IBE_WD@Z 20197588 f i libcpmt:wlocale.obj
 0001:001965d4       ?_Empty@?$_Yarn@_W@std@@QBE_NXZ 201975d4 f i libcpmt:wlocale.obj
 0001:001965db       ?_Eos@?$basic_string@GU?$char_traits@G@std@@V?$allocator@G@2@@std@@AAEXI@Z 201975db f i libcpmt:wlocale.obj
 0001:0019660f       ?_Eos@?$basic_string@_WU?$char_traits@_W@std@@V?$allocator@_W@2@@std@@AAEXI@Z 2019760f f i libcpmt:wlocale.obj
 0001:00196643       ?_Ffmt@?$num_put@GV?$ostreambuf_iterator@GU?$char_traits@G@std@@@std@@@std@@ABAPADPADDH@Z 20197643 f i libcpmt:wlocale.obj
 0001:00196702       ?_Ffmt@?$num_put@_WV?$ostreambuf_iterator@_WU?$char_traits@_W@std@@@std@@@std@@ABAPADPADDH@Z 20197702 f i libcpmt:wlocale.obj
 0001:001967c1       ?_Fnv1a_append_bytes@std@@YAIIQBEI@Z 201977c1 f i libcpmt:wlocale.obj
 0001:001967f3       ?_Get_first@?$_Compressed_pair@V?$allocator@G@std@@V?$_String_val@U?$_Simple_types@G@std@@@2@$00@std@@QAEAAV?$allocator@G@2@XZ 201977f3 f i libcpmt:wlocale.obj
 0001:001967f6       ?_Get_first@?$_Compressed_pair@V?$allocator@G@std@@V?$_String_val@U?$_Simple_types@G@std@@@2@$00@std@@QBEABV?$allocator@G@2@XZ 201977f6 f i libcpmt:wlocale.obj
 0001:001967f9       ?_Get_first@?$_Compressed_pair@V?$allocator@_W@std@@V?$_String_val@U?$_Simple_types@_W@std@@@2@$00@std@@QAEAAV?$allocator@_W@2@XZ 201977f9 f i libcpmt:wlocale.obj
 0001:001967fc       ?_Get_first@?$_Compressed_pair@V?$allocator@_W@std@@V?$_String_val@U?$_Simple_types@_W@std@@@2@$00@std@@QBEABV?$allocator@_W@2@XZ 201977fc f i libcpmt:wlocale.obj
 0001:001967ff       ?_Getal@?$basic_string@GU?$char_traits@G@std@@V?$allocator@G@2@@std@@AAEAAV?$allocator@G@2@XZ 201977ff f i libcpmt:wlocale.obj
 0001:00196802       ?_Getal@?$basic_string@GU?$char_traits@G@std@@V?$allocator@G@2@@std@@ABEABV?$allocator@G@2@XZ 20197802 f i libcpmt:wlocale.obj
 0001:00196805       ?_Getal@?$basic_string@_WU?$char_traits@_W@std@@V?$allocator@_W@2@@std@@AAEAAV?$allocator@_W@2@XZ 20197805 f i libcpmt:wlocale.obj
 0001:00196808       ?_Getal@?$basic_string@_WU?$char_traits@_W@std@@V?$allocator@_W@2@@std@@ABEABV?$allocator@_W@2@XZ 20197808 f i libcpmt:wlocale.obj
 0001:0019680b       ?_Getcat@?$codecvt@GDU_Mbstatet@@@std@@SAIPAPBVfacet@locale@2@PBV42@@Z 2019780b f i libcpmt:wlocale.obj
 0001:0019688a       ?_Getcat@?$codecvt@_WDU_Mbstatet@@@std@@SAIPAPBVfacet@locale@2@PBV42@@Z 2019788a f i libcpmt:wlocale.obj
 0001:00196909       ?_Getcat@?$collate@G@std@@SAIPAPBVfacet@locale@2@PBV42@@Z 20197909 f i libcpmt:wlocale.obj
 0001:001969d7       ?_Getcat@?$collate@_W@std@@SAIPAPBVfacet@locale@2@PBV42@@Z 201979d7 f i libcpmt:wlocale.obj
 0001:00196aa5       ?_Getcat@?$ctype@G@std@@SAIPAPBVfacet@locale@2@PBV42@@Z 20197aa5 f i libcpmt:wlocale.obj
 0001:00196b34       ?_Getcat@?$ctype@_W@std@@SAIPAPBVfacet@locale@2@PBV42@@Z 20197b34 f i libcpmt:wlocale.obj
 0001:00196bc3       ?_Getcat@?$messages@G@std@@SAIPAPBVfacet@locale@2@PBV42@@Z 20197bc3 f i libcpmt:wlocale.obj
 0001:00196c48       ?_Getcat@?$messages@_W@std@@SAIPAPBVfacet@locale@2@PBV42@@Z 20197c48 f i libcpmt:wlocale.obj
 0001:00196ccd       ?_Getcat@?$money_get@GV?$istreambuf_iterator@GU?$char_traits@G@std@@@std@@@std@@SAIPAPBVfacet@locale@2@PBV42@@Z 20197ccd f i libcpmt:wlocale.obj
 0001:00196d52       ?_Getcat@?$money_get@_WV?$istreambuf_iterator@_WU?$char_traits@_W@std@@@std@@@std@@SAIPAPBVfacet@locale@2@PBV42@@Z 20197d52 f i libcpmt:wlocale.obj
 0001:00196dd7       ?_Getcat@?$money_put@GV?$ostreambuf_iterator@GU?$char_traits@G@std@@@std@@@std@@SAIPAPBVfacet@locale@2@PBV42@@Z 20197dd7 f i libcpmt:wlocale.obj
 0001:00196e5c       ?_Getcat@?$money_put@_WV?$ostreambuf_iterator@_WU?$char_traits@_W@std@@@std@@@std@@SAIPAPBVfacet@locale@2@PBV42@@Z 20197e5c f i libcpmt:wlocale.obj
 0001:00196ee1       ?_Getcat@?$moneypunct@G$00@std@@SAIPAPBVfacet@locale@2@PBV42@@Z 20197ee1 f i libcpmt:wlocale.obj
 0001:00196f74       ?_Getcat@?$moneypunct@G$0A@@std@@SAIPAPBVfacet@locale@2@PBV42@@Z 20197f74 f i libcpmt:wlocale.obj
 0001:00197008       ?_Getcat@?$moneypunct@_W$00@std@@SAIPAPBVfacet@locale@2@PBV42@@Z 20198008 f i libcpmt:wlocale.obj
 0001:0019709b       ?_Getcat@?$moneypunct@_W$0A@@std@@SAIPAPBVfacet@locale@2@PBV42@@Z 2019809b f i libcpmt:wlocale.obj
 0001:0019712f       ?_Getcat@?$num_get@GV?$istreambuf_iterator@GU?$char_traits@G@std@@@std@@@std@@SAIPAPBVfacet@locale@2@PBV42@@Z 2019812f f i libcpmt:wlocale.obj
 0001:001971b4       ?_Getcat@?$num_get@_WV?$istreambuf_iterator@_WU?$char_traits@_W@std@@@std@@@std@@SAIPAPBVfacet@locale@2@PBV42@@Z 201981b4 f i libcpmt:wlocale.obj
 0001:00197239       ?_Getcat@?$num_put@GV?$ostreambuf_iterator@GU?$char_traits@G@std@@@std@@@std@@SAIPAPBVfacet@locale@2@PBV42@@Z 20198239 f i libcpmt:wlocale.obj
 0001:001972be       ?_Getcat@?$num_put@_WV?$ostreambuf_iterator@_WU?$char_traits@_W@std@@@std@@@std@@SAIPAPBVfacet@locale@2@PBV42@@Z 201982be f i libcpmt:wlocale.obj
 0001:00197343       ?_Getcat@?$numpunct@G@std@@SAIPAPBVfacet@locale@2@PBV42@@Z 20198343 f i libcpmt:wlocale.obj
 0001:001973cb       ?_Getcat@?$numpunct@_W@std@@SAIPAPBVfacet@locale@2@PBV42@@Z 201983cb f i libcpmt:wlocale.obj
 0001:00197453       ?_Getcat@?$time_get@GV?$istreambuf_iterator@GU?$char_traits@G@std@@@std@@@std@@SAIPAPBVfacet@locale@2@PBV42@@Z 20198453 f i libcpmt:wlocale.obj
 0001:001974da       ?_Getcat@?$time_get@_WV?$istreambuf_iterator@_WU?$char_traits@_W@std@@@std@@@std@@SAIPAPBVfacet@locale@2@PBV42@@Z 201984da f i libcpmt:wlocale.obj
 0001:00197561       ?_Getcat@?$time_put@GV?$ostreambuf_iterator@GU?$char_traits@G@std@@@std@@@std@@SAIPAPBVfacet@locale@2@PBV42@@Z 20198561 f i libcpmt:wlocale.obj
 0001:001975f9       ?_Getcat@?$time_put@_WV?$ostreambuf_iterator@_WU?$char_traits@_W@std@@@std@@@std@@SAIPAPBVfacet@locale@2@PBV42@@Z 201985f9 f i libcpmt:wlocale.obj
 0001:00197691       ?_Getcoll@_Locinfo@std@@QBE?AU_Collvec@@XZ 20198691 f i libcpmt:wlocale.obj
 0001:001976ac       ?_Getdateorder@_Locinfo@std@@QBEHXZ 201986ac f i libcpmt:wlocale.obj
 0001:001976b1       ?_Getdays@_Locinfo@std@@QBEPBDXZ 201986b1 f i libcpmt:wlocale.obj
 0001:001976eb       ?_Getfmt@?$time_get@GV?$istreambuf_iterator@GU?$char_traits@G@std@@@std@@@std@@IBE?AV?$istreambuf_iterator@GU?$char_traits@G@std@@@2@V32@0AAVios_base@2@AAHPAUtm@@PBD@Z 201986eb f i libcpmt:wlocale.obj
 0001:001978b9       ?_Getfmt@?$time_get@_WV?$istreambuf_iterator@_WU?$char_traits@_W@std@@@std@@@std@@IBE?AV?$istreambuf_iterator@_WU?$char_traits@_W@std@@@2@V32@0AAVios_base@2@AAHPAUtm@@PBD@Z 201988b9 f i libcpmt:wlocale.obj
 0001:00197a87       ?_Getint@?$time_get@GV?$istreambuf_iterator@GU?$char_traits@G@std@@@std@@@std@@ABAHAAV?$istreambuf_iterator@GU?$char_traits@G@std@@@2@0HHAAHABV?$ctype@G@2@@Z 20198a87 f i libcpmt:wlocale.obj
 0001:00197ab4       ?_Getint@?$time_get@_WV?$istreambuf_iterator@_WU?$char_traits@_W@std@@@std@@@std@@ABAHAAV?$istreambuf_iterator@_WU?$char_traits@_W@std@@@2@0HHAAHABV?$ctype@_W@2@@Z 20198ab4 f i libcpmt:wlocale.obj
 0001:00197ae1       ?_Getmfld@?$money_get@GV?$istreambuf_iterator@GU?$char_traits@G@std@@@std@@@std@@ABE?AV?$basic_string@DU?$char_traits@D@std@@V?$allocator@D@2@@2@AAV?$istreambuf_iterator@GU?$char_traits@G@std@@@2@0_NAAVios_base@2@AAY0M@G@Z 20198ae1 f i libcpmt:wlocale.obj
 0001:00198a56       ?_Getmfld@?$money_get@_WV?$istreambuf_iterator@_WU?$char_traits@_W@std@@@std@@@std@@ABE?AV?$basic_string@DU?$char_traits@D@std@@V?$allocator@D@2@@2@AAV?$istreambuf_iterator@_WU?$char_traits@_W@std@@@2@0_NAAVios_base@2@AAY0M@_W@Z 20199a56 f i libcpmt:wlocale.obj
 0001:001999cb       ?_Getmonths@_Locinfo@std@@QBEPBDXZ 2019a9cb f i libcpmt:wlocale.obj
 0001:00199a05       ?_Getptr@_Timevec@std@@QBEPAXXZ 2019aa05 f i libcpmt:wlocale.obj
 0001:00199a08       ?_Gnavail@?$basic_streambuf@GU?$char_traits@G@std@@@std@@IBE_JXZ 2019aa08 f i libcpmt:wlocale.obj
 0001:00199a1e       ?_Gnavail@?$basic_streambuf@_WU?$char_traits@_W@std@@@std@@IBE_JXZ 2019aa1e f i libcpmt:wlocale.obj
 0001:00199a34       ?_Gninc@?$basic_streambuf@GU?$char_traits@G@std@@@std@@IAEPAGXZ 2019aa34 f i libcpmt:wlocale.obj
 0001:00199a48       ?_Gninc@?$basic_streambuf@_WU?$char_traits@_W@std@@@std@@IAEPA_WXZ 2019aa48 f i libcpmt:wlocale.obj
