 ui_mp_x86

 Timestamp is 69e809c8 (Tue Apr 21 16:35:36 2026)

 Preferred load address is 40000000

 Start         Length     Name                   Class
 0001:00000000 00012df0H .text$di                CODE
 0001:00012df0 00115f70H .text$mn                CODE
 0001:00128d60 00007220H .text$x                 CODE
 0001:0012ff80 00001645H .text$yd                CODE
 0002:00000000 00000104H .CRT$XCA                DATA
 0002:00000104 00000110H .CRT$XCC                DATA
 0002:00000214 0000010cH .CRT$XCL                DATA
 0002:00000320 00000284H .CRT$XCU                DATA
 0002:000005a4 00000104H .CRT$XCZ                DATA
 0002:000006a8 00000104H .CRT$XIA                DATA
 0002:000007ac 00000114H .CRT$XIC                DATA
 0002:000008c0 00000104H .CRT$XIZ                DATA
 0002:000009c4 00000104H .CRT$XPA                DATA
 0002:00000ac8 0000010cH .CRT$XPX                DATA
 0002:00000bd4 00000104H .CRT$XPXA               DATA
 0002:00000cd8 00000104H .CRT$XPZ                DATA
 0002:00000ddc 00000104H .CRT$XTA                DATA
 0002:00000ee0 00000120H .CRT$XTZ                DATA
 0002:00001000 0001d700H .rdata                  DATA
 0002:0001e700 00000180H .rdata$CastGuardVftablesA DATA
 0002:0001e880 0000014cH .rdata$CastGuardVftablesC DATA
 0002:0001e9cc 0000232cH .rdata$r                DATA
 0002:00020cf8 0000081cH .rdata$sxdata           DATA
 0002:00021514 00000184H .rdata$zzzdbg           DATA
 0002:00021698 00000104H .rtc$IAA                DATA
 0002:0002179c 00000104H .rtc$IZZ                DATA
 0002:000218a0 00000104H .rtc$TAA                DATA
 0002:000219a4 00000104H .rtc$TZZ                DATA
 0002:00021aa8 00007308H .xdata$x                DATA
 0002:00028db0 0000016cH .edata                  DATA
 0003:00000000 00007f98H .data                   DATA
 0003:00007f98 00000388H .data$r                 DATA
 0003:00008320 00001110H .data$rs                DATA
 0003:00009430 003de550H .bss                    DATA
 0004:00000000 000001dcH .idata$5                DATA
 0004:000001dc 00000014H .idata$2                DATA
 0004:000001f0 00000014H .idata$3                DATA
 0004:00000204 000001dcH .idata$4                DATA
 0004:000003e0 0000083aH .idata$6                DATA
 0005:00000000 0000010eH .00cfg                  DATA
 0006:00000000 00000199H .fptable                DATA
 0007:00000000 00000170H .rsrc$01                DATA
 0007:00000170 000002ccH .rsrc$02                DATA

  Address         Publics by Value              Rva+Base       Lib:Object

 0000:00000000       ___AbsoluteZero            00000000     <absolute>
 0000:00000000       ___arm64x_extra_rfe_table  00000000     <absolute>
 0000:00000000       ___arm64x_extra_rfe_table_size 00000000     <absolute>
 0000:00000000       ___arm64x_native_entrypoint 00000000     <absolute>
 0000:00000000       ___arm64x_redirection_metadata 00000000     <absolute>
 0000:00000000       ___arm64x_redirection_metadata_count 00000000     <absolute>
 0000:00000000       ___dynamic_value_reloc_table 00000000     <absolute>
 0000:00000000       ___enclave_config          00000000     <absolute>
 0000:00000000       ___guard_check_icall_a64n_fptr 00000000     <absolute>
 0000:00000000       ___guard_eh_cont_count     00000000     <absolute>
 0000:00000000       ___guard_eh_cont_table     00000000     <absolute>
 0000:00000000       ___guard_fids_count        00000000     <absolute>
 0000:00000000       ___guard_fids_table        00000000     <absolute>
 0000:00000000       ___guard_iat_count         00000000     <absolute>
 0000:00000000       ___guard_iat_table         00000000     <absolute>
 0000:00000000       ___guard_longjmp_count     00000000     <absolute>
 0000:00000000       ___guard_longjmp_table     00000000     <absolute>
 0000:00000000       ___hybrid_auxiliary_delayload_iat 00000000     <absolute>
 0000:00000000       ___hybrid_auxiliary_delayload_iat_copy 00000000     <absolute>
 0000:00000000       ___hybrid_auxiliary_iat    00000000     <absolute>
 0000:00000000       ___hybrid_auxiliary_iat_copy 00000000     <absolute>
 0000:00000000       ___hybrid_code_map         00000000     <absolute>
 0000:00000000       ___hybrid_code_map_count   00000000     <absolute>
 0000:00000000       ___hybrid_image_info_bitfield 00000000     <absolute>
 0000:00000000       ___volatile_metadata       00000000     <absolute>
 0000:00000000       ___x64_code_ranges_to_entry_points 00000000     <absolute>
 0000:00000000       ___x64_code_ranges_to_entry_points_count 00000000     <absolute>
 0000:00000000       __except_list              00000000     <absolute>
 0000:00000100       ___guard_flags             00000100     <absolute>
 0000:0000017b       ___safe_se_handler_count   0000017b     <absolute>
 0000:00000000       ___ImageBase               40000000     <linker-defined>
 0001:00012df0       ?AssetCache@@YAXXZ         40013df0 f   ui_main.obj
 0001:00012fd0       ?Asset_Parse@@YA?AW4qboolean@@H@Z 40013fd0 f   ui_main.obj
 0001:000134a0       ?Count_Text_AutoWrap_Paint@@YAHMMHMQAMPBDMH@Z 400144a0 f   ui_main.obj
 0001:00013750       ?GetMenuBuffer@@YAPADPBD@Z 40014750 f   ui_main.obj
 0001:00013820       ?Load_Menu@@YA?AW4qboolean@@H@Z 40014820 f   ui_main.obj
 0001:000138c0       ?Multiline_Text_Height@@YAHPBDMH@Z 400148c0 f   ui_main.obj
 0001:000139c0       ?Multiline_Text_Width@@YAHPBDMH@Z 400149c0 f   ui_main.obj
 0001:00013ab0       ?Text_AutoWrap_Paint@@YAXMMHHMQAMPBDMH@Z 40014ab0 f   ui_main.obj
 0001:00013c00       ?Text_AutoWrap_Paint_Chunk@@YAPADMMHMQAMPADMHHW4qboolean@@0@Z 40014c00 f   ui_main.obj
 0001:00013fc0       ?Text_Height@@YAHPBDMH@Z   40014fc0 f   ui_main.obj
 0001:00014000       ?Text_Height_Ext@@YAHPBDMHPAUfontInfo_t@@@Z 40015000 f   ui_main.obj
 0001:000140b0       ?Text_Paint@@YAXMMMQAMPBDMHH@Z 400150b0 f   ui_main.obj
 0001:00014130       ?Text_PaintCenter@@YAXMMMQAMPBDM@Z 40015130 f   ui_main.obj
 0001:000141c0       ?Text_PaintChar@@YAXMMMMMMMMMH@Z 400151c0 f   ui_main.obj
 0001:00014290       ?Text_PaintCharExt@@YAXMMMMMMMMMMH@Z 40015290 f   ui_main.obj
 0001:00014360       ?Text_PaintWithCursor@@YAXMMMQAMPBDHDHH@Z 40015360 f   ui_main.obj
 0001:00014780       ?Text_Paint_Ext@@YAXMMMMQAMPBDMHHPAUfontInfo_t@@@Z 40015780 f   ui_main.obj
 0001:00014d20       ?Text_SetActiveFont@@YAXH@Z 40015d20 f   ui_main.obj
 0001:00014d30       ?Text_Width@@YAHPBDMH@Z    40015d30 f   ui_main.obj
 0001:00014d70       ?Text_Width_Ext@@YAHPBDMHPAUfontInfo_t@@@Z 40015d70 f   ui_main.obj
 0001:000160a0       ?UI_Campaign_f@@YAXXZ      400170a0 f   ui_main.obj
 0001:00016200       ?UI_CheckExecKey@@YA?AW4qboolean@@H@Z 40017200 f   ui_main.obj
 0001:00016690       ?UI_DrawCampaignDescription@@YAXPAUrectDef_s@@MQAMMMHHW4qboolean@@@Z 40017690 f   ui_main.obj
 0001:000171d0       ?UI_DrawCenteredPic@@YAXHHH@Z 400181d0 f   ui_main.obj
 0001:00017520       ?UI_DrawConnectScreen@@YAXW4qboolean@@@Z 40018520 f   ui_main.obj
 0001:000177f0       ?UI_DrawGametypeDescription@@YAXPAUrectDef_s@@MQAMMMHHW4qboolean@@@Z 400187f0 f   ui_main.obj
 0001:00017dd0       ?UI_DrawMapPreview@@YAXPAUrectDef_s@@MQAMW4qboolean@@@Z 40018dd0 f   ui_main.obj
 0001:00018eb0       ?UI_DrawNetMapPreview@@YAXPAUrectDef_s@@MQAMW4qboolean@@@Z 40019eb0 f   ui_main.obj
 0001:0001a590       ?UI_FeederItemText@@YAPBDMHHPAH0@Z 4001b590 f   ui_main.obj
 0001:0001b700       ?UI_FeederSelectionClick@@YA?AW4qboolean@@PAUitemDef_s@@@Z 4001c700 f   ui_main.obj
 0001:0001c1b0       ?UI_ListCampaigns_f@@YAXXZ 4001d1b0 f   ui_main.obj
 0001:0001c3c0       ?UI_Load@@YAXXZ            4001d3c0 f   ui_main.obj
 0001:0001c5d0       ?UI_LoadMenus@@YAXPBDW4qboolean@@@Z 4001d5d0 f   ui_main.obj
 0001:0001c910       ?UI_LoadNonIngame@@YAXXZ   4001d910 f   ui_main.obj
 0001:0001da80       ?UI_OwnerDrawVisible@@YA?AW4qboolean@@H@Z 4001ea80 f   ui_main.obj
 0001:0001e3d0       ?UI_ParseMenu@@YA?AW4qboolean@@PBD@Z 4001f3d0 f   ui_main.obj
 0001:0001e5a0       ?UI_PrintTime@@YAXPADHH@Z  4001f5a0 f   ui_main.obj
 0001:0001e6d0       ?UI_ReadableSize@@YAXPADHH@Z 4001f6d0 f   ui_main.obj
 0001:0001e850       ?UI_RegisterCvars@@YAXXZ   4001f850 f   ui_main.obj
 0001:0001e980       ?UI_Report@@YAXXZ          4001f980 f   ui_main.obj
 0001:0001e9a0       ?UI_RunMenuScript@@YAXPAPAD@Z 4001f9a0 f   ui_main.obj
 0001:000234a0       ?UI_ServersSort@@YAXHW4qboolean@@@Z 400244a0 f   ui_main.obj
 0001:000234f0       ?UI_ShowPostGame@@YAXW4qboolean@@@Z 400244f0 f   ui_main.obj
 0001:00023bd0       ?UI_Update@@YAXPBD@Z       40024bd0 f   ui_main.obj
 0001:00023f50       ?UI_UpdateCvars@@YAXXZ     40024f50 f   ui_main.obj
 0001:00024070       ?WM_ActivateLimboChat@@YAXXZ 40025070 f   ui_main.obj
 0001:000240f0       ?WM_setItemPic@@YAXPADPBD@Z 400250f0 f   ui_main.obj
 0001:00024140       ?WM_setVisibility@@YAXPADW4qboolean@@@Z 40025140 f   ui_main.obj
 0001:00024180       ?_UI_DrawRect@@YAXMMMMMPBM@Z 40025180 f   ui_main.obj
 0001:00024240       ?_UI_DrawSides@@YAXMMMMM@Z 40025240 f   ui_main.obj
 0001:00024370       ?_UI_DrawTopBottom@@YAXMMMMM@Z 40025370 f   ui_main.obj
 0001:000244a0       ?_UI_GetActiveMenu@@YA?AW4uiMenuCommand_t@@XZ 400254a0 f   ui_main.obj
 0001:000244b0       ?_UI_Init@@YAXW4qboolean@@@Z 400254b0 f   ui_main.obj
 0001:00024bf0       ?_UI_IsFullscreen@@YA?AW4qboolean@@XZ 40025bf0 f   ui_main.obj
 0001:00024c00       ?_UI_KeyEvent@@YAXHW4qboolean@@@Z 40025c00 f   ui_main.obj
 0001:00024cf0       ?_UI_MouseEvent@@YAXHH@Z   40025cf0 f   ui_main.obj
 0001:00024d90       ?_UI_Refresh@@YAXH@Z       40025d90 f   ui_main.obj
 0001:00024fd0       ?_UI_SetActiveMenu@@YAXW4uiMenuCommand_t@@@Z 40025fd0 f   ui_main.obj
 0001:000255f0       ?_UI_Shutdown@@YAXXZ       400265f0 f   ui_main.obj
 0001:00025680       _vmMain                    40026680 f   ui_main.obj
 0001:000257d0       ??0exception@std@@QAE@ABV01@@Z 400267d0 f i static.obj
 0001:00025810       ?what@exception@std@@UBEPBDXZ 40026810 f i static.obj
 0001:00025830       ??_Eexception@std@@UAEPAXI@Z 40026830 f i static.obj
 0001:00025830       ??_Gexception@std@@UAEPAXI@Z 40026830 f i static.obj
 0001:00025870       ??0bad_alloc@std@@QAE@ABV01@@Z 40026870 f i static.obj
 0001:000258b0       ??_Ebad_alloc@std@@UAEPAXI@Z 400268b0 f i static.obj
 0001:000258b0       ??_Gbad_alloc@std@@UAEPAXI@Z 400268b0 f i static.obj
 0001:000258f0       ??1bad_array_new_length@std@@UAE@XZ 400268f0 f i static.obj
 0001:00025910       ??0bad_array_new_length@std@@QAE@ABV01@@Z 40026910 f i static.obj
 0001:00025950       ??_Ebad_array_new_length@std@@UAEPAXI@Z 40026950 f i static.obj
 0001:00025950       ??_Gbad_array_new_length@std@@UAEPAXI@Z 40026950 f i static.obj
 0001:00025990       ??$_Allocate_manually_vector_aligned@U_Default_allocate_traits@std@@@std@@YAPAXI@Z 40026990 f i static.obj
 0001:000259d0       ??0?$basic_string@DU?$char_traits@D@std@@V?$allocator@D@2@@std@@QAE@QBD@Z 400269d0 f i static.obj
 0001:00025af0       ??0bad_array_new_length@std@@QAE@XZ 40026af0 f i static.obj
 0001:00025b10       ??1?$basic_string@DU?$char_traits@D@std@@V?$allocator@D@2@@std@@QAE@XZ 40026b10 f i static.obj
 0001:00025b70       ??1exception@std@@UAE@XZ   40026b70 f i static.obj
 0001:00025b90       ?_Throw_bad_array_new_length@std@@YAXXZ 40026b90 f i static.obj
 0001:00025bc0       ?_Xlen_string@std@@YAXXZ   40026bc0 f i static.obj
 0001:00025bd0       ?Com_DPrintf@@YAXPBDZZ     40026bd0 f   ui_atoms.obj
 0001:00025c40       ?Com_Error@@YAXHPBDZZ      40026c40 f   ui_atoms.obj
 0001:00025c90       ?Com_Printf@@YAXPBDZZ      40026c90 f   ui_atoms.obj
 0001:00025ce0       ?UI_AdjustFrom640@@YAXPAM000@Z 40026ce0 f   ui_atoms.obj
 0001:00025d50       ?UI_Argv@@YAPADH@Z         40026d50 f   ui_atoms.obj
 0001:00025d90       ?UI_ClampCvar@@YAMMMM@Z    40026d90 f   ui_atoms.obj
 0001:00025dc0       ?UI_ClearScores@@YAXXZ     40026dc0 f   ui_atoms.obj
 0001:00025dd0       ?UI_ConsoleCommand@@YA?AW4qboolean@@H@Z 40026dd0 f   ui_atoms.obj
 0001:00025fe0       ?UI_CursorInRect@@YA?AW4qboolean@@HHHH@Z 40026fe0 f   ui_atoms.obj
 0001:00026030       ?UI_Cvar_VariableString@@YAPADPBD@Z 40027030 f   ui_atoms.obj
 0001:00026080       ?UI_DrawHandlePic@@YAXMMMMH@Z 40027080 f   ui_atoms.obj
 0001:000261b0       ?UI_DrawNamedPic@@YAXMMMMPBD@Z 400271b0 f   ui_atoms.obj
 0001:00026250       ?UI_DrawRect@@YAXMMMMPBM@Z 40027250 f   ui_atoms.obj
 0001:000262f0       ?UI_DrawRotatedPic@@YAXMMMMHM@Z 400272f0 f   ui_atoms.obj
 0001:00026390       ?UI_DrawSides@@YAXMMMM@Z   40027390 f   ui_atoms.obj
 0001:000264b0       ?UI_DrawTextBox@@YAXHHHH@Z 400274b0 f   ui_atoms.obj
 0001:00026590       ?UI_DrawTopBottom@@YAXMMMM@Z 40027590 f   ui_atoms.obj
 0001:000266b0       ?UI_FillRect@@YAXMMMMPBM@Z 400276b0 f   ui_atoms.obj
 0001:00026760       ?UI_LoadBestScores@@YAXPBDH@Z 40027760 f   ui_atoms.obj
 0001:00026770       ?UI_SetColor@@YAXPBM@Z     40027770 f   ui_atoms.obj
 0001:00026780       ?UI_Shutdown@@YAXXZ        40027780 f   ui_atoms.obj
 0001:00026790       ?UI_UpdateScreen@@YAXXZ    40027790 f   ui_atoms.obj
 0001:000267a0       ?UI_DescriptionForCampaign@@YAPBDXZ 400277a0 f   ui_gameinfo.obj
 0001:00026870       ?UI_FindCampaignInCampaignList@@YAHPBD@Z 40027870 f   ui_gameinfo.obj
 0001:000268d0       ?UI_FindMapInfoByMapname@@YAPAUmapInfo@@PBD@Z 400278d0 f   ui_gameinfo.obj
 0001:00026940       ?UI_GetBotInfoByName@@YAPADPBD@Z 40027940 f   ui_gameinfo.obj
 0001:000269a0       ?UI_GetBotInfoByNumber@@YAPADH@Z 400279a0 f   ui_gameinfo.obj
 0001:000269e0       ?UI_GetBotNameByNumber@@YAPADH@Z 400279e0 f   ui_gameinfo.obj
 0001:00026a20       ?UI_GetNumBots@@YAHXZ      40027a20 f   ui_gameinfo.obj
 0001:00026a30       ?UI_LoadArenas@@YAXXZ      40027a30 f   ui_gameinfo.obj
 0001:00027090       ?UI_LoadBots@@YAXXZ        40028090 f   ui_gameinfo.obj
 0001:00027300       ?UI_LoadCampaigns@@YAXXZ   40028300 f   ui_gameinfo.obj
 0001:00027c90       ?UI_NameForCampaign@@YAPBDXZ 40028c90 f   ui_gameinfo.obj
 0001:00027d60       ?UI_ParseInfos@@YAHPADHQAPADH@Z 40028d60 f   ui_gameinfo.obj
 0001:00027fd0       ?UI_LoadPanel_RenderHeaderText@@YAXPAUpanel_button_s@@@Z 40028fd0 f   ui_loadpanel.obj
 0001:00028060       ?UI_LoadPanel_RenderLoadingText@@YAXPAUpanel_button_s@@@Z 40029060 f   ui_loadpanel.obj
 0001:00028380       ?MiniAngleToAxis@@YAXMQAY01M@Z 40029380 f   ui_loadpanel.obj
 0001:00028400       ?SetupRotatedThing@@YAXPAUpolyVert_t@@QAMMMM@Z 40029400 f   ui_loadpanel.obj
 0001:00028580       ?UI_DownloadInfo@@YAPBDPBD@Z 40029580 f   ui_loadpanel.obj
 0001:00028890       ?UI_DrawLoadPanel@@YAXW4qboolean@@00@Z 40029890 f   ui_loadpanel.obj
 0001:000289d0       ?UI_LoadPanel_RenderPercentageMeter@@YAXPAUpanel_button_s@@@Z 400299d0 f   ui_loadpanel.obj
 0001:00028a80       ??$atan2@HM$0A@@@YANHM@Z   40029a80 f i ui_players.obj
 0001:00029010       ?UI_DrawPlayer@@YAXMMMMPAUplayerInfo_t@@H@Z 4002a010 f   ui_players.obj
 0001:00029a90       ?UI_MachinegunSpinAngle@@YAMPAUplayerInfo_t@@@Z 4002aa90 f   ui_players.obj
 0001:0002a130       ?UI_PlayerInfo_SetInfo@@YAXPAUplayerInfo_t@@HHQAM1W4weapon_t@@W4qboolean@@@Z 4002b130 f   ui_players.obj
 0001:0002a450       ?UI_PlayerInfo_SetModel@@YAXPAUplayerInfo_t@@PBD@Z 4002b450 f   ui_players.obj
 0001:0002a9a0       ?UI_RegisterClientModelname@@YA?AW4qboolean@@PAUplayerInfo_t@@PBD@Z 4002b9a0 f   ui_players.obj
 0001:0002b140       ?Script_SetColor@@YAXPAUitemDef_s@@PAW4qboolean@@PAPAD@Z 4002c140 f   ui_shared.obj
 0001:0002b230       ?Script_SetAsset@@YAXPAUitemDef_s@@PAW4qboolean@@PAPAD@Z 4002c230 f   ui_shared.obj
 0001:0002b250       ?Script_SetBackground@@YAXPAUitemDef_s@@PAW4qboolean@@PAPAD@Z 4002c250 f   ui_shared.obj
 0001:0002b2a0       ?Script_SetTeamColor@@YAXPAUitemDef_s@@PAW4qboolean@@PAPAD@Z 4002c2a0 f   ui_shared.obj
 0001:0002b2e0       ?Script_SetItemColor@@YAXPAUitemDef_s@@PAW4qboolean@@PAPAD@Z 4002c2e0 f   ui_shared.obj
 0001:0002b430       ?Script_SetMenuItemColor@@YAXPAUitemDef_s@@PAW4qboolean@@PAPAD@Z 4002c430 f   ui_shared.obj
 0001:0002b5a0       ?Script_Show@@YAXPAUitemDef_s@@PAW4qboolean@@PAPAD@Z 4002c5a0 f   ui_shared.obj
 0001:0002b5f0       ?Script_Hide@@YAXPAUitemDef_s@@PAW4qboolean@@PAPAD@Z 4002c5f0 f   ui_shared.obj
 0001:0002b640       ?Script_FadeIn@@YAXPAUitemDef_s@@PAW4qboolean@@PAPAD@Z 4002c640 f   ui_shared.obj
 0001:0002b690       ?Script_FadeOut@@YAXPAUitemDef_s@@PAW4qboolean@@PAPAD@Z 4002c690 f   ui_shared.obj
 0001:0002b6e0       ?Script_Open@@YAXPAUitemDef_s@@PAW4qboolean@@PAPAD@Z 4002c6e0 f   ui_shared.obj
 0001:0002b720       ?Script_FadeInMenu@@YAXPAUitemDef_s@@PAW4qboolean@@PAPAD@Z 4002c720 f   ui_shared.obj
 0001:0002b760       ?Script_FadeOutMenu@@YAXPAUitemDef_s@@PAW4qboolean@@PAPAD@Z 4002c760 f   ui_shared.obj
 0001:0002b7a0       ?Script_ConditionalOpen@@YAXPAUitemDef_s@@PAW4qboolean@@PAPAD@Z 4002c7a0 f   ui_shared.obj
 0001:0002b8d0       ?Script_ConditionalScript@@YAXPAUitemDef_s@@PAW4qboolean@@PAPAD@Z 4002c8d0 f   ui_shared.obj
 0001:0002c2c0       ?Script_Close@@YAXPAUitemDef_s@@PAW4qboolean@@PAPAD@Z 4002d2c0 f   ui_shared.obj
 0001:0002c300       ?Script_CloseAll@@YAXPAUitemDef_s@@PAW4qboolean@@PAPAD@Z 4002d300 f   ui_shared.obj
 0001:0002c310       ?Script_CloseAllOtherMenus@@YAXPAUitemDef_s@@PAW4qboolean@@PAPAD@Z 4002d310 f   ui_shared.obj
 0001:0002c370       ?Script_Clipboard@@YAXPAUitemDef_s@@PAW4qboolean@@PAPAD@Z 4002d370 f   ui_shared.obj
 0001:0002c380       ?Script_NotebookShowpage@@YAXPAUitemDef_s@@PAW4qboolean@@PAPAD@Z 4002d380 f   ui_shared.obj
 0001:0002c390       ?Script_Transition@@YAXPAUitemDef_s@@PAW4qboolean@@PAPAD@Z 4002d390 f   ui_shared.obj
 0001:0002c470       ?Script_Orbit@@YAXPAUitemDef_s@@PAW4qboolean@@PAPAD@Z 4002d470 f   ui_shared.obj
 0001:0002c5a0       ?Script_SetFocus@@YAXPAUitemDef_s@@PAW4qboolean@@PAPAD@Z 4002d5a0 f   ui_shared.obj
 0001:0002c650       ?Script_ClearFocus@@YAXPAUitemDef_s@@PAW4qboolean@@PAPAD@Z 4002d650 f   ui_shared.obj
 0001:0002c670       ?Script_SetPlayerModel@@YAXPAUitemDef_s@@PAW4qboolean@@PAPAD@Z 4002d670 f   ui_shared.obj
 0001:0002c6c0       ?Script_SetPlayerHead@@YAXPAUitemDef_s@@PAW4qboolean@@PAPAD@Z 4002d6c0 f   ui_shared.obj
 0001:0002c710       ?Script_ClearCvar@@YAXPAUitemDef_s@@PAW4qboolean@@PAPAD@Z 4002d710 f   ui_shared.obj
 0001:0002c750       ?Script_SetCvar@@YAXPAUitemDef_s@@PAW4qboolean@@PAPAD@Z 4002d750 f   ui_shared.obj
 0001:0002c7c0       ?Script_CopyCvar@@YAXPAUitemDef_s@@PAW4qboolean@@PAPAD@Z 4002d7c0 f   ui_shared.obj
 0001:0002c850       ?Script_Exec@@YAXPAUitemDef_s@@PAW4qboolean@@PAPAD@Z 4002d850 f   ui_shared.obj
 0001:0002c8b0       ?Script_ExecNOW@@YAXPAUitemDef_s@@PAW4qboolean@@PAPAD@Z 4002d8b0 f   ui_shared.obj
 0001:0002c910       ?Script_Play@@YAXPAUitemDef_s@@PAW4qboolean@@PAPAD@Z 4002d910 f   ui_shared.obj
 0001:0002c970       ?Script_playLooped@@YAXPAUitemDef_s@@PAW4qboolean@@PAPAD@Z 4002d970 f   ui_shared.obj
 0001:0002c9d0       ?Script_AddListItem@@YAXPAUitemDef_s@@PAW4qboolean@@PAPAD@Z 4002d9d0 f   ui_shared.obj
 0001:0002cac0       ?Script_CheckAutoUpdate@@YAXPAUitemDef_s@@PAW4qboolean@@PAPAD@Z 4002dac0 f   ui_shared.obj
 0001:0002cad0       ?Script_GetAutoUpdate@@YAXPAUitemDef_s@@PAW4qboolean@@PAPAD@Z 4002dad0 f   ui_shared.obj
 0001:0002cae0       ?Script_SetMenuFocus@@YAXPAUitemDef_s@@PAW4qboolean@@PAPAD@Z 4002dae0 f   ui_shared.obj
 0001:0002cb40       ?Script_ExecWolfConfig@@YAXPAUitemDef_s@@PAW4qboolean@@PAPAD@Z 4002db40 f   ui_shared.obj
 0001:0002cca0       ?Script_SetEditFocus@@YAXPAUitemDef_s@@PAW4qboolean@@PAPAD@Z 4002dca0 f   ui_shared.obj
 0001:0002cda0       ?Script_Abort@@YAXPAUitemDef_s@@PAW4qboolean@@PAPAD@Z 4002dda0 f   ui_shared.obj
 0001:0002cdc0       ?ItemParse_name@@YA?AW4qboolean@@PAUitemDef_s@@H@Z 4002ddc0 f   ui_shared.obj
 0001:0002cdf0       ?ItemParse_focusSound@@YA?AW4qboolean@@PAUitemDef_s@@H@Z 4002ddf0 f   ui_shared.obj
 0001:0002ce50       ?ItemParse_text@@YA?AW4qboolean@@PAUitemDef_s@@H@Z 4002de50 f   ui_shared.obj
 0001:0002ce80       ?ItemParse_textfile@@YA?AW4qboolean@@PAUitemDef_s@@H@Z 4002de80 f   ui_shared.obj
 0001:0002cef0       ?ItemParse_group@@YA?AW4qboolean@@PAUitemDef_s@@H@Z 4002def0 f   ui_shared.obj
 0001:0002cf20       ?ItemParse_asset_model@@YA?AW4qboolean@@PAUitemDef_s@@H@Z 4002df20 f   ui_shared.obj
 0001:0002cf90       ?ItemParse_asset_shader@@YA?AW4qboolean@@PAUitemDef_s@@H@Z 4002df90 f   ui_shared.obj
 0001:0002cff0       ?ItemParse_model_origin@@YA?AW4qboolean@@PAUitemDef_s@@H@Z 4002dff0 f   ui_shared.obj
 0001:0002d060       ?ItemParse_model_fovx@@YA?AW4qboolean@@PAUitemDef_s@@H@Z 4002e060 f   ui_shared.obj
 0001:0002d0a0       ?ItemParse_model_fovy@@YA?AW4qboolean@@PAUitemDef_s@@H@Z 4002e0a0 f   ui_shared.obj
 0001:0002d0e0       ?ItemParse_model_rotation@@YA?AW4qboolean@@PAUitemDef_s@@H@Z 4002e0e0 f   ui_shared.obj
 0001:0002d120       ?ItemParse_model_angle@@YA?AW4qboolean@@PAUitemDef_s@@H@Z 4002e120 f   ui_shared.obj
 0001:0002d150       ?ItemParse_model_animplay@@YA?AW4qboolean@@PAUitemDef_s@@H@Z 4002e150 f   ui_shared.obj
 0001:0002d210       ?ItemParse_rect@@YA?AW4qboolean@@PAUitemDef_s@@H@Z 4002e210 f   ui_shared.obj
 0001:0002d230       ?ItemParse_origin@@YA?AW4qboolean@@PAUitemDef_s@@H@Z 4002e230 f   ui_shared.obj
 0001:0002d2c0       ?ItemParse_style@@YA?AW4qboolean@@PAUitemDef_s@@H@Z 4002e2c0 f   ui_shared.obj
 0001:0002d2f0       ?ItemParse_decoration@@YA?AW4qboolean@@PAUitemDef_s@@H@Z 4002e2f0 f   ui_shared.obj
 0001:0002d310       ?ItemParse_textasint@@YA?AW4qboolean@@PAUitemDef_s@@H@Z 4002e310 f   ui_shared.obj
 0001:0002d330       ?ItemParse_textasfloat@@YA?AW4qboolean@@PAUitemDef_s@@H@Z 4002e330 f   ui_shared.obj
 0001:0002d350       ?ItemParse_notselectable@@YA?AW4qboolean@@PAUitemDef_s@@H@Z 4002e350 f   ui_shared.obj
 0001:0002d3a0       ?ItemParse_wrapped@@YA?AW4qboolean@@PAUitemDef_s@@H@Z 4002e3a0 f   ui_shared.obj
 0001:0002d3c0       ?ItemParse_autowrapped@@YA?AW4qboolean@@PAUitemDef_s@@H@Z 4002e3c0 f   ui_shared.obj
 0001:0002d3e0       ?ItemParse_horizontalscroll@@YA?AW4qboolean@@PAUitemDef_s@@H@Z 4002e3e0 f   ui_shared.obj
 0001:0002d400       ?ItemParse_type@@YA?AW4qboolean@@PAUitemDef_s@@H@Z 4002e400 f   ui_shared.obj
 0001:0002d440       ?ItemParse_elementwidth@@YA?AW4qboolean@@PAUitemDef_s@@H@Z 4002e440 f   ui_shared.obj
 0001:0002d480       ?ItemParse_elementheight@@YA?AW4qboolean@@PAUitemDef_s@@H@Z 4002e480 f   ui_shared.obj
 0001:0002d4c0       ?ItemParse_feeder@@YA?AW4qboolean@@PAUitemDef_s@@H@Z 4002e4c0 f   ui_shared.obj
 0001:0002d4f0       ?ItemParse_elementtype@@YA?AW4qboolean@@PAUitemDef_s@@H@Z 4002e4f0 f   ui_shared.obj
 0001:0002d540       ?ItemParse_columns@@YA?AW4qboolean@@PAUitemDef_s@@H@Z 4002e540 f   ui_shared.obj
 0001:0002d660       ?ItemParse_border@@YA?AW4qboolean@@PAUitemDef_s@@H@Z 4002e660 f   ui_shared.obj
 0001:0002d690       ?ItemParse_bordersize@@YA?AW4qboolean@@PAUitemDef_s@@H@Z 4002e690 f   ui_shared.obj
 0001:0002d6c0       ?ItemParse_visible@@YA?AW4qboolean@@PAUitemDef_s@@H@Z 4002e6c0 f   ui_shared.obj
 0001:0002d710       ?ItemParse_ownerdraw@@YA?AW4qboolean@@PAUitemDef_s@@H@Z 4002e710 f   ui_shared.obj
 0001:0002d750       ?ItemParse_align@@YA?AW4qboolean@@PAUitemDef_s@@H@Z 4002e750 f   ui_shared.obj
 0001:0002d780       ?ItemParse_textalign@@YA?AW4qboolean@@PAUitemDef_s@@H@Z 4002e780 f   ui_shared.obj
 0001:0002d7b0       ?ItemParse_textalignx@@YA?AW4qboolean@@PAUitemDef_s@@H@Z 4002e7b0 f   ui_shared.obj
 0001:0002d7e0       ?ItemParse_textaligny@@YA?AW4qboolean@@PAUitemDef_s@@H@Z 4002e7e0 f   ui_shared.obj
 0001:0002d810       ?ItemParse_textscale@@YA?AW4qboolean@@PAUitemDef_s@@H@Z 4002e810 f   ui_shared.obj
 0001:0002d840       ?ItemParse_textstyle@@YA?AW4qboolean@@PAUitemDef_s@@H@Z 4002e840 f   ui_shared.obj
 0001:0002d870       ?ItemParse_textfont@@YA?AW4qboolean@@PAUitemDef_s@@H@Z 4002e870 f   ui_shared.obj
 0001:0002d8a0       ?ItemParse_backcolor@@YA?AW4qboolean@@PAUitemDef_s@@H@Z 4002e8a0 f   ui_shared.obj
 0001:0002d910       ?ItemParse_forecolor@@YA?AW4qboolean@@PAUitemDef_s@@H@Z 4002e910 f   ui_shared.obj
 0001:0002d980       ?ItemParse_bordercolor@@YA?AW4qboolean@@PAUitemDef_s@@H@Z 4002e980 f   ui_shared.obj
 0001:0002d9f0       ?ItemParse_outlinecolor@@YA?AW4qboolean@@PAUitemDef_s@@H@Z 4002e9f0 f   ui_shared.obj
 0001:0002da20       ?ItemParse_background@@YA?AW4qboolean@@PAUitemDef_s@@H@Z 4002ea20 f   ui_shared.obj
 0001:0002da80       ?ItemParse_cinematic@@YA?AW4qboolean@@PAUitemDef_s@@H@Z 4002ea80 f   ui_shared.obj
 0001:0002dab0       ?ItemParse_doubleClick@@YA?AW4qboolean@@PAUitemDef_s@@H@Z 4002eab0 f   ui_shared.obj
 0001:0002db00       ?ItemParse_onEsc@@YA?AW4qboolean@@PAUitemDef_s@@H@Z 4002eb00 f   ui_shared.obj
 0001:0002db30       ?ItemParse_onEnter@@YA?AW4qboolean@@PAUitemDef_s@@H@Z 4002eb30 f   ui_shared.obj
 0001:0002db60       ?ItemParse_contextMenu@@YA?AW4qboolean@@PAUitemDef_s@@H@Z 4002eb60 f   ui_shared.obj
 0001:0002dbb0       ?ItemParse_onFocus@@YA?AW4qboolean@@PAUitemDef_s@@H@Z 4002ebb0 f   ui_shared.obj
 0001:0002dbe0       ?ItemParse_leaveFocus@@YA?AW4qboolean@@PAUitemDef_s@@H@Z 4002ebe0 f   ui_shared.obj
 0001:0002dc10       ?ItemParse_mouseEnter@@YA?AW4qboolean@@PAUitemDef_s@@H@Z 4002ec10 f   ui_shared.obj
 0001:0002dc40       ?ItemParse_mouseExit@@YA?AW4qboolean@@PAUitemDef_s@@H@Z 4002ec40 f   ui_shared.obj
 0001:0002dc70       ?ItemParse_mouseEnterText@@YA?AW4qboolean@@PAUitemDef_s@@H@Z 4002ec70 f   ui_shared.obj
 0001:0002dca0       ?ItemParse_mouseExitText@@YA?AW4qboolean@@PAUitemDef_s@@H@Z 4002eca0 f   ui_shared.obj
 0001:0002dcd0       ?ItemParse_action@@YA?AW4qboolean@@PAUitemDef_s@@H@Z 4002ecd0 f   ui_shared.obj
 0001:0002dd00       ?ItemParse_accept@@YA?AW4qboolean@@PAUitemDef_s@@H@Z 4002ed00 f   ui_shared.obj
 0001:0002dd30       ?ItemParse_special@@YA?AW4qboolean@@PAUitemDef_s@@H@Z 4002ed30 f   ui_shared.obj
 0001:0002dd60       ?ItemParse_cvarTest@@YA?AW4qboolean@@PAUitemDef_s@@H@Z 4002ed60 f   ui_shared.obj
 0001:0002dd90       ?ItemParse_cvar@@YA?AW4qboolean@@PAUitemDef_s@@H@Z 4002ed90 f   ui_shared.obj
 0001:0002de00       ?ItemParse_maxChars@@YA?AW4qboolean@@PAUitemDef_s@@H@Z 4002ee00 f   ui_shared.obj
 0001:0002de70       ?ItemParse_maxPaintChars@@YA?AW4qboolean@@PAUitemDef_s@@H@Z 4002ee70 f   ui_shared.obj
 0001:0002dee0       ?ItemParse_cvarFloat@@YA?AW4qboolean@@PAUitemDef_s@@H@Z 4002eee0 f   ui_shared.obj
 0001:0002df70       ?ItemParse_cvarStrList@@YA?AW4qboolean@@PAUitemDef_s@@H@Z 4002ef70 f   ui_shared.obj
 0001:0002e0c0       ?ItemParse_cvarFloatList@@YA?AW4qboolean@@PAUitemDef_s@@H@Z 4002f0c0 f   ui_shared.obj
 0001:0002e200       ?ItemParse_cvarListUndefined@@YA?AW4qboolean@@PAUitemDef_s@@H@Z 4002f200 f   ui_shared.obj
 0001:0002e280       ?ItemParse_addColorRangeRel@@YA?AW4qboolean@@PAUitemDef_s@@H@Z 4002f280 f   ui_shared.obj
 0001:0002e2a0       ?ItemParse_addColorRange@@YA?AW4qboolean@@PAUitemDef_s@@H@Z 4002f2a0 f   ui_shared.obj
 0001:0002e2c0       ?ItemParse_ownerdrawFlag@@YA?AW4qboolean@@PAUitemDef_s@@H@Z 4002f2c0 f   ui_shared.obj
 0001:0002e310       ?ItemParse_enableCvar@@YA?AW4qboolean@@PAUitemDef_s@@H@Z 4002f310 f   ui_shared.obj
 0001:0002e360       ?ItemParse_disableCvar@@YA?AW4qboolean@@PAUitemDef_s@@H@Z 4002f360 f   ui_shared.obj
 0001:0002e3b0       ?ItemParse_noToggle@@YA?AW4qboolean@@PAUitemDef_s@@H@Z 4002f3b0 f   ui_shared.obj
 0001:0002e3d0       ?ItemParse_showCvar@@YA?AW4qboolean@@PAUitemDef_s@@H@Z 4002f3d0 f   ui_shared.obj
 0001:0002e420       ?ItemParse_hideCvar@@YA?AW4qboolean@@PAUitemDef_s@@H@Z 4002f420 f   ui_shared.obj
 0001:0002e470       ?ItemParse_execKey@@YA?AW4qboolean@@PAUitemDef_s@@H@Z 4002f470 f   ui_shared.obj
 0001:0002e4d0       ?ItemParse_settingDisabled@@YA?AW4qboolean@@PAUitemDef_s@@H@Z 4002f4d0 f   ui_shared.obj
 0001:0002e510       ?ItemParse_settingEnabled@@YA?AW4qboolean@@PAUitemDef_s@@H@Z 4002f510 f   ui_shared.obj
 0001:0002e550       ?ItemParse_tooltip@@YA?AW4qboolean@@PAUitemDef_s@@H@Z 4002f550 f   ui_shared.obj
 0001:0002e5a0       ?ItemParse_tooltipalignx@@YA?AW4qboolean@@PAUitemDef_s@@H@Z 4002f5a0 f   ui_shared.obj
 0001:0002e5f0       ?ItemParse_tooltipaligny@@YA?AW4qboolean@@PAUitemDef_s@@H@Z 4002f5f0 f   ui_shared.obj
 0001:0002e640       ?ItemParse_voteFlag@@YA?AW4qboolean@@PAUitemDef_s@@H@Z 4002f640 f   ui_shared.obj
 0001:0002e660       ?MenuParse_name@@YA?AW4qboolean@@PAUitemDef_s@@H@Z 4002f660 f   ui_shared.obj
 0001:0002e6b0       ?MenuParse_fullscreen@@YA?AW4qboolean@@PAUitemDef_s@@H@Z 4002f6b0 f   ui_shared.obj
 0001:0002e6e0       ?MenuParse_rect@@YA?AW4qboolean@@PAUitemDef_s@@H@Z 4002f6e0 f   ui_shared.obj
 0001:0002e700       ?MenuParse_style@@YA?AW4qboolean@@PAUitemDef_s@@H@Z 4002f700 f   ui_shared.obj
 0001:0002e730       ?MenuParse_visible@@YA?AW4qboolean@@PAUitemDef_s@@H@Z 4002f730 f   ui_shared.obj
 0001:0002e780       ?MenuParse_onOpen@@YA?AW4qboolean@@PAUitemDef_s@@H@Z 4002f780 f   ui_shared.obj
 0001:0002e7b0       ?MenuParse_onClose@@YA?AW4qboolean@@PAUitemDef_s@@H@Z 4002f7b0 f   ui_shared.obj
 0001:0002e7e0       ?MenuParse_onESC@@YA?AW4qboolean@@PAUitemDef_s@@H@Z 4002f7e0 f   ui_shared.obj
 0001:0002e810       ?MenuParse_onEnter@@YA?AW4qboolean@@PAUitemDef_s@@H@Z 4002f810 f   ui_shared.obj
 0001:0002e840       ?MenuParse_onTimeout@@YA?AW4qboolean@@PAUitemDef_s@@H@Z 4002f840 f   ui_shared.obj
 0001:0002e890       ?MenuParse_border@@YA?AW4qboolean@@PAUitemDef_s@@H@Z 4002f890 f   ui_shared.obj
 0001:0002e8c0       ?MenuParse_borderSize@@YA?AW4qboolean@@PAUitemDef_s@@H@Z 4002f8c0 f   ui_shared.obj
 0001:0002e8f0       ?MenuParse_backcolor@@YA?AW4qboolean@@PAUitemDef_s@@H@Z 4002f8f0 f   ui_shared.obj
 0001:0002e950       ?MenuParse_forecolor@@YA?AW4qboolean@@PAUitemDef_s@@H@Z 4002f950 f   ui_shared.obj
 0001:0002e9c0       ?MenuParse_bordercolor@@YA?AW4qboolean@@PAUitemDef_s@@H@Z 4002f9c0 f   ui_shared.obj
 0001:0002ea20       ?MenuParse_focuscolor@@YA?AW4qboolean@@PAUitemDef_s@@H@Z 4002fa20 f   ui_shared.obj
 0001:0002ea90       ?MenuParse_disablecolor@@YA?AW4qboolean@@PAUitemDef_s@@H@Z 4002fa90 f   ui_shared.obj
 0001:0002eaf0       ?MenuParse_outlinecolor@@YA?AW4qboolean@@PAUitemDef_s@@H@Z 4002faf0 f   ui_shared.obj
 0001:0002eb20       ?MenuParse_background@@YA?AW4qboolean@@PAUitemDef_s@@H@Z 4002fb20 f   ui_shared.obj
 0001:0002eb80       ?MenuParse_cinematic@@YA?AW4qboolean@@PAUitemDef_s@@H@Z 4002fb80 f   ui_shared.obj
 0001:0002ebb0       ?MenuParse_ownerdrawFlag@@YA?AW4qboolean@@PAUitemDef_s@@H@Z 4002fbb0 f   ui_shared.obj
 0001:0002ec00       ?MenuParse_ownerdraw@@YA?AW4qboolean@@PAUitemDef_s@@H@Z 4002fc00 f   ui_shared.obj
 0001:0002ec30       ?MenuParse_popup@@YA?AW4qboolean@@PAUitemDef_s@@H@Z 4002fc30 f   ui_shared.obj
 0001:0002ec50       ?MenuParse_outOfBounds@@YA?AW4qboolean@@PAUitemDef_s@@H@Z 4002fc50 f   ui_shared.obj
 0001:0002ec70       ?MenuParse_soundLoop@@YA?AW4qboolean@@PAUitemDef_s@@H@Z 4002fc70 f   ui_shared.obj
 0001:0002eca0       ?MenuParse_fadeClamp@@YA?AW4qboolean@@PAUitemDef_s@@H@Z 4002fca0 f   ui_shared.obj
 0001:0002ecd0       ?MenuParse_fadeAmount@@YA?AW4qboolean@@PAUitemDef_s@@H@Z 4002fcd0 f   ui_shared.obj
 0001:0002ed00       ?MenuParse_fadeCycle@@YA?AW4qboolean@@PAUitemDef_s@@H@Z 4002fd00 f   ui_shared.obj
 0001:0002ed30       ?MenuParse_itemDef@@YA?AW4qboolean@@PAUitemDef_s@@H@Z 4002fd30 f   ui_shared.obj
 0001:0002ee50       ?MenuParse_execKey@@YA?AW4qboolean@@PAUitemDef_s@@H@Z 4002fe50 f   ui_shared.obj
 0001:0002eeb0       ?MenuParse_execKeyInt@@YA?AW4qboolean@@PAUitemDef_s@@H@Z 4002feb0 f   ui_shared.obj
 0001:0002ef10       ?MenuParse_drawAlwaysOnTop@@YA?AW4qboolean@@PAUitemDef_s@@H@Z 4002ff10 f   ui_shared.obj
 0001:0002ef30       ?MenuParse_itemHotkeyMode@@YA?AW4qboolean@@PAUitemDef_s@@H@Z 4002ff30 f   ui_shared.obj
 0001:0002ef60       ?MenuParse_modal@@YA?AW4qboolean@@PAUitemDef_s@@H@Z 4002ff60 f   ui_shared.obj
 0001:0002ef80       ?AdjustFrom640@@YAXPAM000@Z 4002ff80 f   ui_shared.obj
 0001:0002f000       ?BG_CursorInRect@@YA?AW4qboolean@@PAUrectDef_s@@@Z 40030000 f   ui_shared.obj
 0001:0002f060       ?BG_FitTextToWidth_Ext@@YAXPADMMHPAUfontInfo_t@@@Z 40030060 f   ui_shared.obj
 0001:0002f170       ?BG_PanelButton_EditClick@@YA?AW4qboolean@@PAUpanel_button_s@@H@Z 40030170 f   ui_shared.obj
 0001:0002f3c0       ?BG_PanelButton_RenderEdit@@YAXPAUpanel_button_s@@@Z 400303c0 f   ui_shared.obj
 0001:0002f6b0       ?BG_PanelButtonsGetHighlightButton@@YAPAUpanel_button_s@@PAPAU1@@Z 400306b0 f   ui_shared.obj
 0001:0002f700       ?BG_PanelButtonsKeyEvent@@YA?AW4qboolean@@HW41@PAPAUpanel_button_s@@@Z 40030700 f   ui_shared.obj
 0001:0002f850       ?BG_PanelButtonsRender@@YAXPAPAUpanel_button_s@@@Z 40030850 f   ui_shared.obj
 0001:0002f890       ?BG_PanelButtonsRender_Img@@YAXPAUpanel_button_s@@@Z 40030890 f   ui_shared.obj
 0001:0002f950       ?BG_PanelButtonsRender_Text@@YAXPAUpanel_button_s@@@Z 40030950 f   ui_shared.obj
 0001:0002f970       ?BG_PanelButtonsRender_TextExt@@YAXPAUpanel_button_s@@PBD@Z 40030970 f   ui_shared.obj
 0001:0002fb40       ?BG_PanelButtonsSetup@@YAXPAPAUpanel_button_s@@@Z 40030b40 f   ui_shared.obj
 0001:0002fb80       ?BG_PanelButtons_GetFocusButton@@YAPAUpanel_button_s@@XZ 40030b80 f   ui_shared.obj
 0001:0002fb90       ?BG_PanelButtons_SetFocusButton@@YAXPAUpanel_button_s@@@Z 40030b90 f   ui_shared.obj
 0001:0002fba0       ?BG_RectContainsPoint@@YA?AW4qboolean@@MMMMMM@Z 40030ba0 f   ui_shared.obj
 0001:0002fbf0       ?BindingFromName@@YAPADPBD@Z 40030bf0 f   ui_shared.obj
 0001:0002fcf0       ?BindingIDFromName@@YAHPBD@Z 40030cf0 f   ui_shared.obj
 0001:0002fd40       ?Color_Parse@@YA?AW4qboolean@@PAPADPAY03M@Z 40030d40 f   ui_shared.obj
 0001:0002fda0       ?Controls_GetConfig@@YAXXZ 40030da0 f   ui_shared.obj
 0001:0002fdf0       ?Controls_SetConfig@@YAXW4qboolean@@@Z 40030df0 f   ui_shared.obj
 0001:0002fe90       ?Controls_SetDefaults@@YAXW4qboolean@@@Z 40030e90 f   ui_shared.obj
 0001:0002ff00       ?Display_CacheAll@@YAXXZ   40030f00 f   ui_shared.obj
 0001:0002ff40       ?Display_CaptureItem@@YAPAXHH@Z 40030f40 f   ui_shared.obj
 0001:00030020       ?Display_CursorType@@YAHHH@Z 40031020 f   ui_shared.obj
 0001:00030120       ?Display_GetContext@@YAPAUdisplayContextDef_t@@XZ 40031120 f   ui_shared.obj
 0001:00030130       ?Display_HandleKey@@YAXHW4qboolean@@HH@Z 40031130 f   ui_shared.obj
 0001:00030170       ?Display_KeyBindPending@@YA?AW4qboolean@@XZ 40031170 f   ui_shared.obj
 0001:00030180       ?Display_MouseMove@@YA?AW4qboolean@@PAXHH@Z 40031180 f   ui_shared.obj
 0001:000302c0       ?Display_VisibleMenuCount@@YAHXZ 400312c0 f   ui_shared.obj
 0001:00030430       ?Fade@@YAXPAHPAMM0HW4qboolean@@M@Z 40031430 f   ui_shared.obj
 0001:000304c0       ?FileExists@@YA?AW4qboolean@@PAD@Z 400314c0 f   ui_shared.obj
 0001:00030510       ?Float_Parse@@YA?AW4qboolean@@PAPADPAM@Z 40031510 f   ui_shared.obj
 0001:00030550       ?GradientBar_Paint@@YAXPAUrectDef_s@@QAM@Z 40031550 f   ui_shared.obj
 0001:000305b0       ?Init_Display@@YAXPAUdisplayContextDef_t@@@Z 400315b0 f   ui_shared.obj
 0001:000305c0       ?Int_Parse@@YA?AW4qboolean@@PAPADPAH@Z 400315c0 f   ui_shared.obj
 0001:00030600       ?IsVisible@@YA?AW4qboolean@@H@Z 40031600 f   ui_shared.obj
 0001:00030620       ?Item_Action@@YAXPAUitemDef_s@@@Z 40031620 f   ui_shared.obj
 0001:00030650       ?Item_Bind_HandleKey@@YA?AW4qboolean@@PAUitemDef_s@@HW41@@Z 40031650 f   ui_shared.obj
 0001:00030920       ?Item_Bind_Paint@@YAXPAUitemDef_s@@@Z 40031920 f   ui_shared.obj
 0001:00030c00       ?Item_CheckBox_HandleKey@@YA?AW4qboolean@@PAUitemDef_s@@H@Z 40031c00 f   ui_shared.obj
 0001:00030d70       ?Item_CheckBox_Paint@@YAXPAUitemDef_s@@@Z 40031d70 f   ui_shared.obj
 0001:00031260       ?Item_EnableShowViaCvar@@YA?AW4qboolean@@PAUitemDef_s@@H@Z 40032260 f   ui_shared.obj
 0001:000313d0       ?Item_HandleKey@@YA?AW4qboolean@@PAUitemDef_s@@HW41@@Z 400323d0 f   ui_shared.obj
 0001:000315c0       ?Item_Image_Paint@@YAXPAUitemDef_s@@@Z 400325c0 f   ui_shared.obj
 0001:00031650       ?Item_Init@@YAXPAUitemDef_s@@@Z 40032650 f   ui_shared.obj
 0001:000316a0       ?Item_InitControls@@YAXPAUitemDef_s@@@Z 400326a0 f   ui_shared.obj
 0001:00031710       ?Item_ListBox_HandleKey@@YA?AW4qboolean@@PAUitemDef_s@@HW41@1@Z 40032710 f   ui_shared.obj
 0001:00031d60       ?Item_ListBox_MaxScroll@@YAHPAUitemDef_s@@@Z 40032d60 f   ui_shared.obj
 0001:00031df0       ?Item_ListBox_MouseEnter@@YAXPAUitemDef_s@@MMW4qboolean@@@Z 40032df0 f   ui_shared.obj
 0001:00032010       ?Item_ListBox_OverLB@@YAHPAUitemDef_s@@MM@Z 40033010 f   ui_shared.obj
 0001:00032530       ?Item_ListBox_Paint@@YAXPAUitemDef_s@@@Z 40033530 f   ui_shared.obj
 0001:000331c0       ?Item_ListBox_ThumbDrawPosition@@YAHPAUitemDef_s@@@Z 400341c0 f   ui_shared.obj
 0001:000332e0       ?Item_ListBox_ThumbPosition@@YAHPAUitemDef_s@@@Z 400342e0 f   ui_shared.obj
 0001:000333f0       ?Item_Model_Paint@@YAXPAUitemDef_s@@@Z 400343f0 f   ui_shared.obj
 0001:00033840       ?Item_MouseEnter@@YAXPAUitemDef_s@@MM@Z 40034840 f   ui_shared.obj
 0001:00033a30       ?Item_MouseLeave@@YAXPAUitemDef_s@@@Z 40034a30 f   ui_shared.obj
 0001:00033a90       ?Item_Multi_CountSettings@@YAHPAUitemDef_s@@@Z 40034a90 f   ui_shared.obj
 0001:00033ab0       ?Item_Multi_FindCvarByValue@@YAHPAUitemDef_s@@@Z 40034ab0 f   ui_shared.obj
 0001:00033bc0       ?Item_Multi_HandleKey@@YA?AW4qboolean@@PAUitemDef_s@@H@Z 40034bc0 f   ui_shared.obj
 0001:00033d80       ?Item_Multi_Paint@@YAXPAUitemDef_s@@@Z 40034d80 f   ui_shared.obj
 0001:00033fb0       ?Item_Multi_Setting@@YAPBDPAUitemDef_s@@@Z 40034fb0 f   ui_shared.obj
 0001:000340e0       ?Item_OwnerDraw_HandleKey@@YA?AW4qboolean@@PAUitemDef_s@@H@Z 400350e0 f   ui_shared.obj
 0001:00034130       ?Item_OwnerDraw_Paint@@YAXPAUitemDef_s@@@Z 40035130 f   ui_shared.obj
 0001:00034690       ?Item_Paint@@YAXPAUitemDef_s@@@Z 40035690 f   ui_shared.obj
 0001:00034bf0       ?Item_Parse@@YA?AW4qboolean@@HPAUitemDef_s@@@Z 40035bf0 f   ui_shared.obj
 0001:00034d20       ?Item_RunScript@@YAXPAUitemDef_s@@PAW4qboolean@@PBD@Z 40035d20 f   ui_shared.obj
 0001:00034e90       ?Item_SetFocus@@YA?AW4qboolean@@PAUitemDef_s@@MM@Z 40035e90 f   ui_shared.obj
 0001:000350e0       ?Item_SetMouseOver@@YAXPAUitemDef_s@@W4qboolean@@@Z 400360e0 f   ui_shared.obj
 0001:00035110       ?Item_SetScreenCoords@@YAXPAUitemDef_s@@MM@Z 40036110 f   ui_shared.obj
 0001:00035200       ?Item_SetTextExtents@@YAXPAUitemDef_s@@PAH1PBD@Z 40036200 f   ui_shared.obj
 0001:000354c0       ?Item_SettingShow@@YA?AW4qboolean@@PAUitemDef_s@@W41@@Z 400364c0 f   ui_shared.obj
 0001:000355b0       ?Item_SetupKeywordHash@@YAXXZ 400365b0 f   ui_shared.obj
 0001:00035610       ?Item_Slider_HandleKey@@YA?AW4qboolean@@PAUitemDef_s@@HW41@@Z 40036610 f   ui_shared.obj
 0001:000357e0       ?Item_Slider_OverSlider@@YAHPAUitemDef_s@@MM@Z 400367e0 f   ui_shared.obj
 0001:00035860       ?Item_Slider_Paint@@YAXPAUitemDef_s@@@Z 40036860 f   ui_shared.obj
 0001:00035af0       ?Item_Slider_ThumbPosition@@YAMPAUitemDef_s@@@Z 40036af0 f   ui_shared.obj
 0001:00035bd0       ?Item_StartCapture@@YAXPAUitemDef_s@@H@Z 40036bd0 f   ui_shared.obj
 0001:00035e20       ?Item_StopCapture@@YAXPAUitemDef_s@@@Z 40036e20 f   ui_shared.obj
 0001:00035e30       ?Item_TextColor@@YAXPAUitemDef_s@@PAY03M@Z 40036e30 f   ui_shared.obj
 0001:000360b0       ?Item_TextField_HandleKey@@YA?AW4qboolean@@PAUitemDef_s@@H@Z 400370b0 f   ui_shared.obj
 0001:00036660       ?Item_TextField_Paint@@YAXPAUitemDef_s@@@Z 40037660 f   ui_shared.obj
 0001:00036a90       ?Item_Text_AutoWrapped_Paint@@YAXPAUitemDef_s@@@Z 40037a90 f   ui_shared.obj
 0001:00036d90       ?Item_Text_Paint@@YAXPAUitemDef_s@@@Z 40037d90 f   ui_shared.obj
 0001:00036fe0       ?Item_Text_Wrapped_Paint@@YAXPAUitemDef_s@@@Z 40037fe0 f   ui_shared.obj
 0001:000371e0       ?Item_UpdatePosition@@YAXPAUitemDef_s@@@Z 400381e0 f   ui_shared.obj
 0001:00037230       ?Item_ValidateTooltipData@@YA?AW4qboolean@@PAUitemDef_s@@@Z 40038230 f   ui_shared.obj
 0001:00037290       ?Item_ValidateTypeData@@YAXPAUitemDef_s@@@Z 40038290 f   ui_shared.obj
 0001:000373b0       ?Item_YesNo_HandleKey@@YA?AW4qboolean@@PAUitemDef_s@@H@Z 400383b0 f   ui_shared.obj
 0001:000374b0       ?Item_YesNo_Paint@@YAXPAUitemDef_s@@@Z 400384b0 f   ui_shared.obj
 0001:00037780       ?KeywordHash_Add@@YAXQAPAUkeywordHash_s@@PAU1@@Z 40038780 f   ui_shared.obj
 0001:000377b0       ?KeywordHash_Find@@YAPAUkeywordHash_s@@QAPAU1@PAD@Z 400387b0 f   ui_shared.obj
 0001:00037810       ?KeywordHash_Key@@YAHPAD@Z 40038810 f   ui_shared.obj
 0001:00037870       ?LerpColor@@YAXQAM00M@Z    40038870 f   ui_shared.obj
 0001:00037a10       ?Menu_ClearFocus@@YAPAUitemDef_s@@PAUmenuDef_t@@@Z 40038a10 f   ui_shared.obj
 0001:00037b40       ?Menu_Count@@YAHXZ         40038b40 f   ui_shared.obj
 0001:00037b50       ?Menu_FadeItemByName@@YAXPAUmenuDef_t@@PBDW4qboolean@@@Z 40038b50 f   ui_shared.obj
 0001:00037bf0       ?Menu_FadeMenuByName@@YAXPBDPAW4qboolean@@W41@@Z 40038bf0 f   ui_shared.obj
 0001:00037c60       ?Menu_FindItemByName@@YAPAUitemDef_s@@PAUmenuDef_t@@PBD@Z 40038c60 f   ui_shared.obj
 0001:00037cd0       ?Menu_Get@@YAPAUmenuDef_t@@H@Z 40038cd0 f   ui_shared.obj
 0001:00037d00       ?Menu_GetFocused@@YAPAUmenuDef_t@@XZ 40038d00 f   ui_shared.obj
 0001:00037d50       ?Menu_GetFocusedItem@@YAPAUitemDef_s@@PAUmenuDef_t@@@Z 40038d50 f   ui_shared.obj
 0001:00037da0       ?Menu_GetMatchingItemByNumber@@YAPAUitemDef_s@@PAUmenuDef_t@@HPBD@Z 40038da0 f   ui_shared.obj
 0001:00037ec0       ?Menu_HandleKey@@YAXPAUmenuDef_t@@HW4qboolean@@@Z 40038ec0 f   ui_shared.obj
 0001:000385d0       ?Menu_HandleMouseMove@@YAXPAUmenuDef_t@@MM@Z 400395d0 f   ui_shared.obj
 0001:000388d0       ?Menu_HitTest@@YAPAUitemDef_s@@PAUmenuDef_t@@MM@Z 400398d0 f   ui_shared.obj
 0001:00038950       ?Menu_Init@@YAXPAUmenuDef_t@@@Z 40039950 f   ui_shared.obj
 0001:000389f0       ?Menu_ItemsMatchingGroup@@YAHPAUmenuDef_t@@PBD@Z 400399f0 f   ui_shared.obj
 0001:00038af0       ?Menu_New@@YAXH@Z          40039af0 f   ui_shared.obj
 0001:00038b50       ?Menu_OrbitItemByName@@YAXPAUmenuDef_t@@PBDMMMMH@Z 40039b50 f   ui_shared.obj
 0001:00038d30       ?Menu_Paint@@YAXPAUmenuDef_t@@W4qboolean@@@Z 40039d30 f   ui_shared.obj
 0001:00038fa0       ?Menu_PaintAll@@YAXXZ      40039fa0 f   ui_shared.obj
 0001:00039170       ?Menu_Parse@@YA?AW4qboolean@@HPAUmenuDef_t@@@Z 4003a170 f   ui_shared.obj
 0001:000392d0       ?Menu_PostParse@@YAXPAUmenuDef_t@@@Z 4003a2d0 f   ui_shared.obj
 0001:00039320       ?Menu_Reset@@YAXXZ         4003a320 f   ui_shared.obj
 0001:00039380       ?Menu_ScrollFeeder@@YAXPAUmenuDef_t@@HW4qboolean@@@Z 4003a380 f   ui_shared.obj
 0001:00039400       ?Menu_SetFeederSelection@@YAXPAUmenuDef_t@@HHPBD@Z 4003a400 f   ui_shared.obj
 0001:000394e0       ?Menu_SetNextCursorItem@@YAPAUitemDef_s@@PAUmenuDef_t@@@Z 4003a4e0 f   ui_shared.obj
 0001:00039620       ?Menu_SetPrevCursorItem@@YAPAUitemDef_s@@PAUmenuDef_t@@@Z 4003a620 f   ui_shared.obj
 0001:00039750       ?Menu_SetupKeywordHash@@YAXXZ 4003a750 f   ui_shared.obj
 0001:000397b0       ?Menu_ShowItemByName@@YAXPAUmenuDef_t@@PBDW4qboolean@@@Z 4003a7b0 f   ui_shared.obj
 0001:00039860       ?Menu_TransitionItemByName@@YAXPAUmenuDef_t@@PBDUrectDef_s@@2HM@Z 4003a860 f   ui_shared.obj
 0001:00039930       ?Menu_UpdatePosition@@YAXPAUmenuDef_t@@@Z 4003a930 f   ui_shared.obj
 0001:000399b0       ?Menus_Activate@@YAXPAUmenuDef_t@@@Z 4003a9b0 f   ui_shared.obj
 0001:00039a80       ?Menus_ActivateByName@@YAPAUmenuDef_t@@PBDW4qboolean@@@Z 4003aa80 f   ui_shared.obj
 0001:00039b60       ?Menus_AnyFullScreenVisible@@YA?AW4qboolean@@XZ 4003ab60 f   ui_shared.obj
 0001:00039bb0       ?Menus_CaptureFuncActive@@YA?AW4qboolean@@XZ 4003abb0 f   ui_shared.obj
 0001:00039bc0       ?Menus_CloseAll@@YAXXZ     4003abc0 f   ui_shared.obj
 0001:00039c10       ?Menus_CloseByName@@YAXPBD@Z 4003ac10 f   ui_shared.obj
 0001:00039cf0       ?Menus_FindByName@@YAPAUmenuDef_t@@PBD@Z 4003acf0 f   ui_shared.obj
 0001:00039d50       ?Menus_HandleOOBClick@@YAXPAUmenuDef_t@@HW4qboolean@@@Z 4003ad50 f   ui_shared.obj
 0001:00039eb0       ?Menus_OpenByName@@YAXPBD@Z 4003aeb0 f   ui_shared.obj
 0001:00039ed0       ?Menus_ShowByName@@YAXPBD@Z 4003aed0 f   ui_shared.obj
 0001:00039f00       ?PC_Char_Parse@@YA?AW4qboolean@@HPAD@Z 4003af00 f   ui_shared.obj
 0001:00039f50       ?PC_Rect_Parse@@YA?AW4qboolean@@HPAUrectDef_s@@@Z 4003af50 f   ui_shared.obj
 0001:00039fc0       ?PC_Script_Parse@@YA?AW4qboolean@@HPAPBD@Z 4003afc0 f   ui_shared.obj
 0001:0003a110       ?PC_String_Parse_Trans@@YA?AW4qboolean@@HPAPBD@Z 4003b110 f   ui_shared.obj
 0001:0003a180       ?ParseColorRange@@YA?AW4qboolean@@PAUitemDef_s@@HH@Z 4003b180 f   ui_shared.obj
 0001:0003a280       ?Rect_ContainsPoint@@YA?AW4qboolean@@PAUrectDef_s@@MM@Z 4003b280 f   ui_shared.obj
 0001:0003a2e0       ?Rect_Parse@@YA?AW4qboolean@@PAPADPAUrectDef_s@@@Z 4003b2e0 f   ui_shared.obj
 0001:0003a350       ?Rect_ToWindowCoords@@YAXPAUrectDef_s@@PAUwindowDef_t@@@Z 4003b350 f   ui_shared.obj
 0001:0003a370       ?Script_CheckProfile@@YA?AW4qboolean@@PAD@Z 4003b370 f   ui_shared.obj
 0001:0003a420       ?Script_WriteProfile@@YA?AW4qboolean@@PAD@Z 4003b420 f   ui_shared.obj
 0001:0003a920       ?String_Alloc@@YAPBDPBD@Z  4003b920 f   ui_shared.obj
 0001:0003aa90       ?String_Init@@YAXXZ        4003ba90 f   ui_shared.obj
 0001:0003aaf0       ?String_Parse@@YA?AW4qboolean@@PAPADPAPBD@Z 4003baf0 f   ui_shared.obj
 0001:0003ab30       ?String_Report@@YAXXZ      4003bb30 f   ui_shared.obj
 0001:0003abe0       ?ToWindowCoords@@YAXPAM0PAUwindowDef_t@@@Z 4003bbe0 f   ui_shared.obj
 0001:0003ac10       ?Tooltip_ComputePosition@@YAXPAUitemDef_s@@@Z 4003bc10 f   ui_shared.obj
 0001:0003ad90       ?Tooltip_Initialize@@YAXPAUitemDef_s@@@Z 4003bd90 f   ui_shared.obj
 0001:0003ae90       ?UI_Alloc@@YAPAXH@Z        4003be90 f   ui_shared.obj
 0001:0003af00       ?UI_InitMemory@@YAXXZ      4003bf00 f   ui_shared.obj
 0001:0003af20       ?UI_OutOfMemory@@YA?AW4qboolean@@XZ 4003bf20 f   ui_shared.obj
 0001:0003afe0       ?Window_Init@@YAXPAUwindowDef_t@@@Z 4003bfe0 f   ui_shared.obj
 0001:0003b040       ?Window_Paint@@YAXPAUwindowDef_t@@MMM@Z 4003c040 f   ui_shared.obj
 0001:0003b630       ?PASSFLOAT@@YAHM@Z         4003c630 f   ui_syscalls.obj
 0001:0003b650       ?trap_AddCommand@@YAXPBD@Z 4003c650 f   ui_syscalls.obj
 0001:0003b670       ?trap_Argc@@YAHXZ          4003c670 f   ui_syscalls.obj
 0001:0003b680       ?trap_Argv@@YAXHPADH@Z     4003c680 f   ui_syscalls.obj
 0001:0003b6a0       ?trap_CIN_DrawCinematic@@YAXH@Z 4003c6a0 f   ui_syscalls.obj
 0001:0003b6c0       ?trap_CIN_PlayCinematic@@YAHPBDHHHHH@Z 4003c6c0 f   ui_syscalls.obj
 0001:0003b6f0       ?trap_CIN_RunCinematic@@YA?AW4e_status@@H@Z 4003c6f0 f   ui_syscalls.obj
 0001:0003b710       ?trap_CIN_SetExtents@@YAXHHHHH@Z 4003c710 f   ui_syscalls.obj
 0001:0003b740       ?trap_CIN_StopCinematic@@YA?AW4e_status@@H@Z 4003c740 f   ui_syscalls.obj
 0001:0003b760       ?trap_CM_LerpTag@@YAHPAUorientation_t@@PBUrefEntity_t@@PBDH@Z 4003c760 f   ui_syscalls.obj
 0001:0003b790       ?trap_CheckAutoUpdate@@YAXXZ 4003c790 f   ui_syscalls.obj
 0001:0003b7a0       ?trap_Cmd_ExecuteText@@YAXHPBD@Z 4003c7a0 f   ui_syscalls.obj
 0001:0003b7c0       ?trap_Cvar_Create@@YAXPBD0H@Z 4003c7c0 f   ui_syscalls.obj
 0001:0003b7e0       ?trap_Cvar_InfoStringBuffer@@YAXHPADH@Z 4003c7e0 f   ui_syscalls.obj
 0001:0003b800       ?trap_Cvar_LatchedVariableStringBuffer@@YAXPBDPADH@Z 4003c800 f   ui_syscalls.obj
 0001:0003b820       ?trap_Cvar_Register@@YAXPAUvmCvar_t@@PBD1H@Z 4003c820 f   ui_syscalls.obj
 0001:0003b850       ?trap_Cvar_Reset@@YAXPBD@Z 4003c850 f   ui_syscalls.obj
 0001:0003b870       ?trap_Cvar_Set@@YAXPBD0@Z  4003c870 f   ui_syscalls.obj
 0001:0003b890       ?trap_Cvar_SetValue@@YAXPBDM@Z 4003c890 f   ui_syscalls.obj
 0001:0003b8c0       ?trap_Cvar_Update@@YAXPAUvmCvar_t@@@Z 4003c8c0 f   ui_syscalls.obj
 0001:0003b8e0       ?trap_Cvar_VariableStringBuffer@@YAXPBDPADH@Z 4003c8e0 f   ui_syscalls.obj
 0001:0003b900       ?trap_Cvar_VariableValue@@YAMPBD@Z 4003c900 f   ui_syscalls.obj
 0001:0003b930       ?trap_Error@@YAXPBD@Z      4003c930 f   ui_syscalls.obj
 0001:0003b950       ?trap_FS_Delete@@YAHPBD@Z  4003c950 f   ui_syscalls.obj
 0001:0003b970       ?trap_FS_FCloseFile@@YAXH@Z 4003c970 f   ui_syscalls.obj
 0001:0003b990       ?trap_FS_FOpenFile@@YAHPBDPAHW4fsMode_t@@@Z 4003c990 f   ui_syscalls.obj
 0001:0003b9b0       ?trap_FS_GetFileList@@YAHPBD0PADH@Z 4003c9b0 f   ui_syscalls.obj
 0001:0003b9e0       ?trap_FS_Read@@YAXPAXHH@Z  4003c9e0 f   ui_syscalls.obj
 0001:0003ba00       ?trap_FS_Write@@YAXPBXHH@Z 4003ca00 f   ui_syscalls.obj
 0001:0003ba20       ?trap_GetAutoUpdate@@YAXXZ 4003ca20 f   ui_syscalls.obj
 0001:0003ba30       ?trap_GetCDKey@@YAXPADH@Z  4003ca30 f   ui_syscalls.obj
 0001:0003ba50       ?trap_GetClientState@@YAXPAUuiClientState_t@@@Z 4003ca50 f   ui_syscalls.obj
 0001:0003ba70       ?trap_GetClipboardData@@YAXPADH@Z 4003ca70 f   ui_syscalls.obj
 0001:0003ba90       ?trap_GetConfigString@@YAHHPADH@Z 4003ca90 f   ui_syscalls.obj
 0001:0003bab0       ?trap_GetGlconfig@@YAXPAUglconfig_t@@@Z 4003cab0 f   ui_syscalls.obj
 0001:0003bad0       ?trap_GetHunkData@@YAXPAH0@Z 4003cad0 f   ui_syscalls.obj
 0001:0003baf0       ?trap_GetLimboString@@YA?AW4qboolean@@HPAD@Z 4003caf0 f   ui_syscalls.obj
 0001:0003bb10       ?trap_Key_ClearStates@@YAXXZ 4003cb10 f   ui_syscalls.obj
 0001:0003bb20       ?trap_Key_GetBindingBuf@@YAXHPADH@Z 4003cb20 f   ui_syscalls.obj
 0001:0003bb40       ?trap_Key_GetCatcher@@YAHXZ 4003cb40 f   ui_syscalls.obj
 0001:0003bb50       ?trap_Key_GetOverstrikeMode@@YA?AW4qboolean@@XZ 4003cb50 f   ui_syscalls.obj
 0001:0003bb60       ?trap_Key_IsDown@@YA?AW4qboolean@@H@Z 4003cb60 f   ui_syscalls.obj
 0001:0003bb80       ?trap_Key_KeynumToStringBuf@@YAXHPADH@Z 4003cb80 f   ui_syscalls.obj
 0001:0003bba0       ?trap_Key_KeysForBinding@@YAXPBDPAH1@Z 4003cba0 f   ui_syscalls.obj
 0001:0003bbc0       ?trap_Key_SetBinding@@YAXHPBD@Z 4003cbc0 f   ui_syscalls.obj
 0001:0003bbe0       ?trap_Key_SetCatcher@@YAXH@Z 4003cbe0 f   ui_syscalls.obj
 0001:0003bc00       ?trap_Key_SetOverstrikeMode@@YAXW4qboolean@@@Z 4003cc00 f   ui_syscalls.obj
 0001:0003bc20       ?trap_LAN_AddServer@@YAHHPBD0@Z 4003cc20 f   ui_syscalls.obj
 0001:0003bc40       ?trap_LAN_ClearPing@@YAXH@Z 4003cc40 f   ui_syscalls.obj
 0001:0003bc60       ?trap_LAN_CompareServers@@YAHHHHHH@Z 4003cc60 f   ui_syscalls.obj
 0001:0003bc90       ?trap_LAN_GetGlobalServerAddressString@@YAXHPADH@Z 4003cc90 f   ui_syscalls.obj
 0001:0003bcb0       ?trap_LAN_GetGlobalServerCount@@YAHXZ 4003ccb0 f   ui_syscalls.obj
 0001:0003bcc0       ?trap_LAN_GetLocalServerAddressString@@YAXHPADH@Z 4003ccc0 f   ui_syscalls.obj
 0001:0003bce0       ?trap_LAN_GetLocalServerCount@@YAHXZ 4003cce0 f   ui_syscalls.obj
 0001:0003bcf0       ?trap_LAN_GetPing@@YAXHPADHPAH@Z 4003ccf0 f   ui_syscalls.obj
 0001:0003bd20       ?trap_LAN_GetPingInfo@@YAXHPADH@Z 4003cd20 f   ui_syscalls.obj
 0001:0003bd40       ?trap_LAN_GetPingQueueCount@@YAHXZ 4003cd40 f   ui_syscalls.obj
 0001:0003bd50       ?trap_LAN_GetServerAddressString@@YAXHHPADH@Z 4003cd50 f   ui_syscalls.obj
 0001:0003bd80       ?trap_LAN_GetServerCount@@YAHH@Z 4003cd80 f   ui_syscalls.obj
 0001:0003bda0       ?trap_LAN_GetServerInfo@@YAXHHPADH@Z 4003cda0 f   ui_syscalls.obj
 0001:0003bdd0       ?trap_LAN_GetServerPing@@YAHHH@Z 4003cdd0 f   ui_syscalls.obj
 0001:0003bdf0       ?trap_LAN_LoadCachedServers@@YAXXZ 4003cdf0 f   ui_syscalls.obj
 0001:0003be00       ?trap_LAN_MarkServerVisible@@YAXHHW4qboolean@@@Z 4003ce00 f   ui_syscalls.obj
 0001:0003be20       ?trap_LAN_RemoveServer@@YAXHPBD@Z 4003ce20 f   ui_syscalls.obj
 0001:0003be40       ?trap_LAN_ResetPings@@YAXH@Z 4003ce40 f   ui_syscalls.obj
 0001:0003be60       ?trap_LAN_SaveCachedServers@@YAXXZ 4003ce60 f   ui_syscalls.obj
 0001:0003be70       ?trap_LAN_ServerIsInFavoriteList@@YA?AW4qboolean@@HH@Z 4003ce70 f   ui_syscalls.obj
 0001:0003be90       ?trap_LAN_ServerIsVisible@@YAHHH@Z 4003ce90 f   ui_syscalls.obj
 0001:0003beb0       ?trap_LAN_ServerStatus@@YAHPBDPADH@Z 4003ceb0 f   ui_syscalls.obj
 0001:0003bed0       ?trap_LAN_UpdateVisiblePings@@YA?AW4qboolean@@H@Z 4003ced0 f   ui_syscalls.obj
 0001:0003bef0       ?trap_MemoryRemaining@@YAHXZ 4003cef0 f   ui_syscalls.obj
 0001:0003bf00       ?trap_Milliseconds@@YAHXZ  4003cf00 f   ui_syscalls.obj
 0001:0003bf10       ?trap_PC_AddGlobalDefine@@YAHPAD@Z 4003cf10 f   ui_syscalls.obj
 0001:0003bf30       ?trap_PC_FreeSource@@YAHH@Z 4003cf30 f   ui_syscalls.obj
 0001:0003bf50       ?trap_PC_LoadSource@@YAHPBD@Z 4003cf50 f   ui_syscalls.obj
 0001:0003bf70       ?trap_PC_ReadToken@@YAHHPAUpc_token_s@@@Z 4003cf70 f   ui_syscalls.obj
 0001:0003bf90       ?trap_PC_RemoveAllGlobalDefines@@YAHXZ 4003cf90 f   ui_syscalls.obj
 0001:0003bfa0       ?trap_PC_SourceFileAndLine@@YAHHPADPAH@Z 4003cfa0 f   ui_syscalls.obj
 0001:0003bfc0       ?trap_PC_UnReadToken@@YAHH@Z 4003cfc0 f   ui_syscalls.obj
 0001:0003bfe0       ?trap_Print@@YAXPBD@Z      4003cfe0 f   ui_syscalls.obj
 0001:0003c000       ?trap_R_Add2dPolys@@YAXPAUpolyVert_t@@HH@Z 4003d000 f   ui_syscalls.obj
 0001:0003c020       ?trap_R_AddCoronaToScene@@YAXQBMMMMMHW4qboolean@@@Z 4003d020 f   ui_syscalls.obj
 0001:0003c0b0       ?trap_R_AddLightToScene@@YAXQBMMMMMMHH@Z 4003d0b0 f   ui_syscalls.obj
 0001:0003c150       ?trap_R_AddPolyToScene@@YAXHHPBUpolyVert_t@@@Z 4003d150 f   ui_syscalls.obj
 0001:0003c170       ?trap_R_AddRefEntityToScene@@YAXPBUrefEntity_t@@@Z 4003d170 f   ui_syscalls.obj
 0001:0003c190       ?trap_R_ClearScene@@YAXXZ  4003d190 f   ui_syscalls.obj
 0001:0003c1a0       ?trap_R_DrawRotatedPic@@YAXMMMMMMMMHM@Z 4003d1a0 f   ui_syscalls.obj
 0001:0003c2a0       ?trap_R_DrawStretchPic@@YAXMMMMMMMMH@Z 4003d2a0 f   ui_syscalls.obj
 0001:0003c380       ?trap_R_ModelBounds@@YAXHQAM0@Z 4003d380 f   ui_syscalls.obj
 0001:0003c3a0       ?trap_R_RegisterFont@@YAXPBDHPAUfontInfo_t@@@Z 4003d3a0 f   ui_syscalls.obj
 0001:0003c3c0       ?trap_R_RegisterModel@@YAHPBD@Z 4003d3c0 f   ui_syscalls.obj
 0001:0003c3e0       ?trap_R_RegisterShaderNoMip@@YAHPBD@Z 4003d3e0 f   ui_syscalls.obj
 0001:0003c400       ?trap_R_RegisterSkin@@YAHPBD@Z 4003d400 f   ui_syscalls.obj
 0001:0003c420       ?trap_R_RemapShader@@YAXPBD00@Z 4003d420 f   ui_syscalls.obj
 0001:0003c440       ?trap_R_RenderScene@@YAXPBUrefdef_t@@@Z 4003d440 f   ui_syscalls.obj
 0001:0003c460       ?trap_R_SetColor@@YAXPBM@Z 4003d460 f   ui_syscalls.obj
 0001:0003c480       ?trap_RealTime@@YAHPAUqtime_s@@@Z 4003d480 f   ui_syscalls.obj
 0001:0003c4a0       ?trap_S_FadeAllSound@@YAXMHW4qboolean@@@Z 4003d4a0 f   ui_syscalls.obj
 0001:0003c4e0       ?trap_S_FadeBackgroundTrack@@YAXMHH@Z 4003d4e0 f   ui_syscalls.obj
 0001:0003c520       ?trap_S_RegisterSound@@YAHPBDW4qboolean@@@Z 4003d520 f   ui_syscalls.obj
 0001:0003c540       ?trap_S_StartBackgroundTrack@@YAXPBD0H@Z 4003d540 f   ui_syscalls.obj
 0001:0003c560       ?trap_S_StartLocalSound@@YAXHH@Z 4003d560 f   ui_syscalls.obj
 0001:0003c580       ?trap_S_StopBackgroundTrack@@YAXXZ 4003d580 f   ui_syscalls.obj
 0001:0003c590       ?trap_SetCDKey@@YAXPAD@Z   4003d590 f   ui_syscalls.obj
 0001:0003c5b0       ?trap_SetPbClStatus@@YAXH@Z 4003d5b0 f   ui_syscalls.obj
 0001:0003c5d0       ?trap_SetPbSvStatus@@YAXH@Z 4003d5d0 f   ui_syscalls.obj
 0001:0003c5f0       ?trap_TranslateString@@YAPADPBD@Z 4003d5f0 f   ui_syscalls.obj
 0001:0003c650       ?trap_UpdateScreen@@YAXXZ  4003d650 f   ui_syscalls.obj
 0001:0003c660       ?trap_VerifyCDKey@@YA?AW4qboolean@@PBD0@Z 4003d660 f   ui_syscalls.obj
 0001:0003c680       ?trap_openURL@@YAXPBD@Z    4003d680 f   ui_syscalls.obj
 0001:0003c6a0       _dllEntry                  4003d6a0 f   ui_syscalls.obj
 0001:0003c6b0       ?AddPointToBounds@@YAXQBMQAM1@Z 4003d6b0 f   q_math.obj
 0001:0003c750       ?AngleDelta@@YAMMM@Z       4003d750 f   q_math.obj
 0001:0003c780       ?AngleMod@@YAMM@Z          4003d780 f   q_math.obj
 0001:0003c7d0       ?AngleNormalize180@@YAMM@Z 4003d7d0 f   q_math.obj
 0001:0003c820       ?AngleNormalize2Pi@@YAMM@Z 4003d820 f   q_math.obj
 0001:0003c870       ?AngleNormalize360@@YAMM@Z 4003d870 f   q_math.obj
 0001:0003c8c0       ?AngleSubtract@@YAMMM@Z    4003d8c0 f   q_math.obj
 0001:0003c930       ?AngleVectors@@YAXQBMQAM11@Z 4003d930 f   q_math.obj
 0001:0003cb80       ?AnglesSubtract@@YAXQAM00@Z 4003db80 f   q_math.obj
 0001:0003cc10       ?AnglesToAxis@@YAXQBMQAY02M@Z 4003dc10 f   q_math.obj
 0001:0003cc70       ?AxisClear@@YAXQAY02M@Z    4003dc70 f   q_math.obj
 0001:0003ccd0       ?AxisCopy@@YAXQAY02$$CBMQAY02M@Z 4003dcd0 f   q_math.obj
 0001:0003cd20       ?AxisToAngles@@YAXQAY02MQAM@Z 4003dd20 f   q_math.obj
 0001:0003ce90       ?BoxOnPlaneSide@@YAHQAM0PAUcplane_s@@@Z 4003de90 f   q_math.obj
 0001:0003cef0       ?BoxOnPlaneSide_fast@@YAHQAM0PAUcplane_s@@@Z 4003def0 f i q_math.obj
 0001:0003d1c0       ?ByteToDir@@YAXHQAM@Z      4003e1c0 f   q_math.obj
 0001:0003d220       ?ClampChar@@YACH@Z         4003e220 f   q_math.obj
 0001:0003d250       ?ClampShort@@YAFH@Z        4003e250 f   q_math.obj
 0001:0003d280       ?ClearBounds@@YAXQAM0@Z    4003e280 f   q_math.obj
 0001:0003d2c0       ?ColorBytes3@@YAIMMM@Z     4003e2c0 f   q_math.obj
 0001:0003d310       ?ColorBytes4@@YAIMMMM@Z    4003e310 f   q_math.obj
 0001:0003d380       ?CrossProduct@@YAXQBM0QAM@Z 4003e380 f   q_math.obj
 0001:0003d400       ?DirToByte@@YAHQAM@Z       4003e400 f   q_math.obj
 0001:0003d4a0       ?Distance@@YAMQBM0@Z       4003e4a0 f   q_math.obj
 0001:0003d500       ?DistanceFromLineSquared@@YAMQAM00@Z 4003e500 f   q_math.obj
 0001:0003d680       ?DistanceFromVectorSquared@@YAMQAM00@Z 4003e680 f   q_math.obj
 0001:0003d6f0       ?DistanceSquared@@YAMQBM0@Z 4003e6f0 f   q_math.obj
 0001:0003d750       ?GetPerpendicularViewVector@@YAXQBM00QAM@Z 4003e750 f   q_math.obj
 0001:0003d820       ?LerpAngle@@YAMMMM@Z       4003e820 f   q_math.obj
 0001:0003d890       ?LerpPosition@@YAXQAM0M0@Z 4003e890 f   q_math.obj
 0001:0003d900       ?MakeNormalVectors@@YAXQBMQAM1@Z 4003e900 f   q_math.obj
 0001:0003d9c0       ?MatrixMultiply@@YAXQAY02M00@Z 4003e9c0 f   q_math.obj
 0001:0003dbb0       ?NormalizeColor@@YAMQBMQAM@Z 4003ebb0 f   q_math.obj
 0001:0003dc40       ?PerpendicularVector@@YAXQAMQBM@Z 4003ec40 f   q_math.obj
 0001:0003dd10       ?PlaneFromPoints@@YA?AW4qboolean@@QAMQBM11@Z 4003ed10 f   q_math.obj
 0001:0003de20       ?PointInBounds@@YA?AW4qboolean@@QBM00@Z 4003ee20 f   q_math.obj
 0001:0003de90       ?ProjectPointOnPlane@@YAXQAMQBM1@Z 4003ee90 f   q_math.obj
 0001:0003df70       ?ProjectPointOntoVector@@YAXQAM000@Z 4003ef70 f   q_math.obj
 0001:0003e060       ?ProjectPointOntoVectorBounded@@YAXQAM000@Z 4003f060 f   q_math.obj
 0001:0003e220       ?Q_crandom@@YAMPAH@Z       4003f220 f   q_math.obj
 0001:0003e250       ?Q_fabs@@YAMM@Z            4003f250 f   q_math.obj
 0001:0003e270       ?Q_log2@@YAHH@Z            4003f270 f   q_math.obj
 0001:0003e290       ?Q_rand@@YAHPAH@Z          4003f290 f   q_math.obj
 0001:0003e2b0       ?Q_random@@YAMPAH@Z        4003f2b0 f   q_math.obj
 0001:0003e2f0       ?Q_rsqrt@@YAMM@Z           4003f2f0 f   q_math.obj
 0001:0003e350       ?RadiusFromBounds@@YAMQBM0@Z 4003f350 f   q_math.obj
 0001:0003e3d0       ?RotateAroundDirection@@YAXQAY02MM@Z 4003f3d0 f   q_math.obj
 0001:0003e460       ?RotateAroundPitch@@YAXQAY02MM@Z 4003f460 f   q_math.obj
 0001:0003e4f0       ?RotatePointAroundVector@@YAXQAMQBM1M@Z 4003f4f0 f   q_math.obj
 0001:0003e790       ?RotatePointAroundVertex@@YAXQAMMMMQBM@Z 4003f790 f   q_math.obj
 0001:0003e960       ?SetPlaneSignbits@@YAXPAUcplane_s@@@Z 4003f960 f   q_math.obj
 0001:0003e9a0       ?Vector4Scale@@YAXQBMMQAM@Z 4003f9a0 f   q_math.obj
 0001:0003e9f0       ?VectorCompare@@YAHQBM0@Z  4003f9f0 f   q_math.obj
 0001:0003ea40       ?VectorDistance@@YAMQAM0@Z 4003fa40 f   q_math.obj
 0001:0003eaa0       ?VectorDistanceSquared@@YAMQAM0@Z 4003faa0 f   q_math.obj
 0001:0003eb00       ?VectorInverse@@YAXQAM@Z   4003fb00 f   q_math.obj
 0001:0003eb50       ?VectorLength@@YAMQBM@Z    4003fb50 f   q_math.obj
 0001:0003ebd0       ?VectorLengthSquared@@YAMQBM@Z 4003fbd0 f   q_math.obj
 0001:0003ec10       ?VectorNormalize2@@YAMQBMQAM@Z 4003fc10 f   q_math.obj
 0001:0003ed00       ?VectorNormalize@@YAMQAM@Z 4003fd00 f   q_math.obj
 0001:0003edf0       ?VectorNormalizeFast@@YAXQAM@Z 4003fdf0 f   q_math.obj
 0001:0003eea0       ?VectorRotate@@YAXQAMQAY02M0@Z 4003fea0 f   q_math.obj
 0001:0003ef50       ?_DotProduct@@YAMQBM0@Z    4003ff50 f   q_math.obj
 0001:0003ef80       ?_VectorAdd@@YAXQBM0QAM@Z  4003ff80 f   q_math.obj
 0001:0003efd0       ?_VectorCopy@@YAXQBMQAM@Z  4003ffd0 f   q_math.obj
 0001:0003f000       ?_VectorMA@@YAXQBMM0QAM@Z  40040000 f   q_math.obj
 0001:0003f060       ?_VectorScale@@YAXQBMMQAM@Z 40040060 f   q_math.obj
 0001:0003f0a0       ?_VectorSubtract@@YAXQBM0QAM@Z 400400a0 f   q_math.obj
 0001:0003f0f0       ?myftol@@YAJM@Z            400400f0 f   q_math.obj
 0001:0003f110       ?vectoangles@@YAXQBMQAM@Z  40040110 f   q_math.obj
 0001:0003f300       ?vectoyaw@@YAMQBM@Z        40040300 f   q_math.obj
 0001:0003f3f0       ??$?MDU?$char_traits@D@std@@V?$allocator@D@1@@std@@YA_NABV?$basic_string@DU?$char_traits@D@std@@V?$allocator@D@2@@0@0@Z 400403f0 f i q_shared.obj
 0001:0003f4c0       ??$_Erase_tree@V?$allocator@U?$_Tree_node@U?$pair@$$CBV?$basic_string@DU?$char_traits@D@std@@V?$allocator@D@2@@std@@V12@@std@@PAX@std@@@std@@@?$_Tree_val@U?$_Tree_simple_types@U?$pair@$$CBV?$basic_string@DU?$char_traits@D@std@@V?$allocator@D@2@@std@@V12@@std@@@std@@@std@@QAEXAAV?$allocator@U?$_Tree_node@U?$pair@$$CBV?$basic_string@DU?$char_traits@D@std@@V?$allocator@D@2@@std@@V12@@std@@PAX@std@@@1@PAU?$_Tree_node@U?$pair@$$CBV?$basic_string@DU?$char_traits@D@std@@V?$allocator@D@2@@std@@V12@@std@@PAX@1@@Z 400404c0 f i q_shared.obj
 0001:0003f520       ??$_Find_lower_bound@V?$basic_string@DU?$char_traits@D@std@@V?$allocator@D@2@@std@@@?$_Tree@V?$_Tmap_traits@V?$basic_string@DU?$char_traits@D@std@@V?$allocator@D@2@@std@@V12@U?$less@V?$basic_string@DU?$char_traits@D@std@@V?$allocator@D@2@@std@@@2@V?$allocator@U?$pair@$$CBV?$basic_string@DU?$char_traits@D@std@@V?$allocator@D@2@@std@@V12@@std@@@2@$0A@@std@@@std@@IBE?AU?$_Tree_find_result@PAU?$_Tree_node@U?$pair@$$CBV?$basic_string@DU?$char_traits@D@std@@V?$allocator@D@2@@std@@V12@@std@@PAX@std@@@1@ABV?$basic_string@DU?$char_traits@D@std@@V?$allocator@D@2@@1@@Z 40040520 f i q_shared.obj
 0001:0003f590       ??$_Try_emplace@ABV?$basic_string@DU?$char_traits@D@std@@V?$allocator@D@2@@std@@$$V@?$map@V?$basic_string@DU?$char_traits@D@std@@V?$allocator@D@2@@std@@V12@U?$less@V?$basic_string@DU?$char_traits@D@std@@V?$allocator@D@2@@std@@@2@V?$allocator@U?$pair@$$CBV?$basic_string@DU?$char_traits@D@std@@V?$allocator@D@2@@std@@V12@@std@@@2@@std@@AAE?AU?$pair@PAU?$_Tree_node@U?$pair@$$CBV?$basic_string@DU?$char_traits@D@std@@V?$allocator@D@2@@std@@V12@@std@@PAX@std@@_N@1@ABV?$basic_string@DU?$char_traits@D@std@@V?$allocator@D@2@@1@@Z 40040590 f i q_shared.obj
 0001:0003f7b0       ??1?$_Alloc_construct_ptr@V?$allocator@U?$_Tree_node@U?$pair@$$CBV?$basic_string@DU?$char_traits@D@std@@V?$allocator@D@2@@std@@V12@@std@@PAX@std@@@std@@@std@@QAE@XZ 400407b0 f i q_shared.obj
 0001:0003f7d0       ??1?$_Tree_temp_node_alloc@V?$allocator@U?$_Tree_node@U?$pair@$$CBV?$basic_string@DU?$char_traits@D@std@@V?$allocator@D@2@@std@@V12@@std@@PAX@std@@@std@@@std@@QAE@XZ 400407d0 f i q_shared.obj
 0001:0003f7f0       ??1?$map@V?$basic_string@DU?$char_traits@D@std@@V?$allocator@D@2@@std@@V12@U?$less@V?$basic_string@DU?$char_traits@D@std@@V?$allocator@D@2@@std@@@2@V?$allocator@U?$pair@$$CBV?$basic_string@DU?$char_traits@D@std@@V?$allocator@D@2@@std@@V12@@std@@@2@@std@@QAE@XZ 400407f0 f i q_shared.obj
 0001:0003f820       ??1?$pair@$$CBV?$basic_string@DU?$char_traits@D@std@@V?$allocator@D@2@@std@@V12@@std@@QAE@XZ 40040820 f i q_shared.obj
 0001:0003f8e0       ??4?$basic_string@DU?$char_traits@D@std@@V?$allocator@D@2@@std@@QAEAAV01@ABV01@@Z 400408e0 f i q_shared.obj
 0001:0003fa60       ?BigFloat@@YAMM@Z          40040a60 f   q_shared.obj
 0001:0003fa80       ?BigLong64@@YA?AUqint64@@U1@@Z 40040a80 f   q_shared.obj
 0001:0003faa0       ?BigLong@@YAHH@Z           40040aa0 f   q_shared.obj
 0001:0003fab0       ?BigShort@@YAFF@Z          40040ab0 f   q_shared.obj
 0001:0003fac0       ?COM_BackupParseSession@@YAXPAPAD@Z 40040ac0 f   q_shared.obj
 0001:0003fae0       ?COM_BeginParseSession@@YAXPBD@Z 40040ae0 f   q_shared.obj
 0001:0003fb20       ?COM_BitCheck@@YA?AW4qboolean@@QBHH@Z 40040b20 f   q_shared.obj
 0001:0003fb70       ?COM_BitClear@@YAXQAHH@Z   40040b70 f   q_shared.obj
 0001:0003fbb0       ?COM_BitSet@@YAXQAHH@Z     40040bb0 f   q_shared.obj
 0001:0003fbf0       ?COM_Compress@@YAHPAD@Z    40040bf0 f   q_shared.obj
 0001:0003fca0       ?COM_DefaultExtension@@YAXPADHPBD@Z 40040ca0 f   q_shared.obj
 0001:0003fd20       ?COM_FixPath@@YAXPAD@Z     40040d20 f   q_shared.obj
 0001:0003fd50       ?COM_GetCurrentParseLine@@YAHXZ 40040d50 f   q_shared.obj
 0001:0003fd60       ?COM_MatchToken@@YAXPAPADPAD@Z 40040d60 f   q_shared.obj
 0001:0003fdd0       ?COM_Parse@@YAPADPAPAD@Z   40040dd0 f   q_shared.obj
 0001:0003fdf0       ?COM_ParseError@@YAXPADZZ  40040df0 f   q_shared.obj
 0001:0003fe40       ?COM_ParseExt@@YAPADPAPADW4qboolean@@@Z 40040e40 f   q_shared.obj
 0001:00040070       ?COM_ParseWarning@@YAXPADZZ 40041070 f   q_shared.obj
 0001:000400c0       ?COM_RestoreParseSession@@YAXPAPAD@Z 400410c0 f   q_shared.obj
 0001:000400e0       ?COM_SetCurrentParseLine@@YAXH@Z 400410e0 f   q_shared.obj
 0001:000400f0       ?COM_SkipPath@@YAPADPAD@Z  400410f0 f   q_shared.obj
 0001:00040120       ?COM_StripExtension@@YAXPBDPAD@Z 40041120 f   q_shared.obj
 0001:00040160       ?COM_StripFilename@@YAXPAD0@Z 40041160 f   q_shared.obj
 0001:000401b0       ?Com_Clamp@@YAMMMM@Z       400411b0 f   q_shared.obj
 0001:000401e0       ?Com_ParseInfos@@YAHPADHQAY0EAA@D@Z 400411e0 f   q_shared.obj
 0001:00040390       ?Com_sprintf@@YAXPADHPBDZZ 40041390 f   q_shared.obj
 0001:000403d0       ?FloatNoSwap@@YAMM@Z       400413d0 f   q_shared.obj
 0001:000403e0       ?FloatSwap@@YAMM@Z         400413e0 f   q_shared.obj
 0001:00040420       ?Info_NextPair@@YAXPAPBDPAD1@Z 40041420 f   q_shared.obj
 0001:000404a0       ?Info_RemoveKey@@YAXPADPBD@Z 400414a0 f   q_shared.obj
 0001:000405c0       ?Info_RemoveKey_Big@@YAXPADPBD@Z 400415c0 f   q_shared.obj
 0001:000406d0       ?Info_SetValueForKey@@YAXPADPBD1@Z 400416d0 f   q_shared.obj
 0001:000408f0       ?Info_SetValueForKey_Big@@YAXPADPBD1@Z 400418f0 f   q_shared.obj
 0001:00040b10       ?Info_Validate@@YA?AW4qboolean@@PBD@Z 40041b10 f   q_shared.obj
 0001:00040ed0       ?Info_ValueForKey@@YAPADPBD0@Z 40041ed0 f   q_shared.obj
 0001:00041000       ?LittleFloat@@YAMM@Z       40042000 f   q_shared.obj
 0001:00041020       ?LittleLong64@@YA?AUqint64@@U1@@Z 40042020 f   q_shared.obj
 0001:00041040       ?LittleLong@@YAHH@Z        40042040 f   q_shared.obj
 0001:00041050       ?LittleShort@@YAFF@Z       40042050 f   q_shared.obj
 0001:00041060       ?Long64NoSwap@@YA?AUqint64@@U1@@Z 40042060 f   q_shared.obj
 0001:00041070       ?Long64Swap@@YA?AUqint64@@U1@@Z 40042070 f   q_shared.obj
 0001:000410d0       ?LongNoSwap@@YAHH@Z        400420d0 f   q_shared.obj
 0001:000410e0       ?LongSwap@@YAHH@Z          400420e0 f   q_shared.obj
 0001:00041120       ?Parse1DMatrix@@YAXPAPADHPAM@Z 40042120 f   q_shared.obj
 0001:00041180       ?Parse2DMatrix@@YAXPAPADHHPAM@Z 40042180 f   q_shared.obj
 0001:000411f0       ?Parse3DMatrix@@YAXPAPADHHHPAM@Z 400421f0 f   q_shared.obj
 0001:00041270       ?Q_CleanDirName@@YAPADPAD@Z 40042270 f   q_shared.obj
 0001:000412d0       ?Q_CleanStr@@YAPADPAD@Z    400422d0 f   q_shared.obj
 0001:00041350       ?Q_PrintStrlen@@YAHPBD@Z   40042350 f   q_shared.obj
 0001:000414f0       ?Q_isBadDirChar@@YA?AW4qboolean@@D@Z 400424f0 f   q_shared.obj
 0001:00041540       ?Q_isalpha@@YAHH@Z         40042540 f   q_shared.obj
 0001:00041570       ?Q_isalphanumeric@@YAHH@Z  40042570 f   q_shared.obj
 0001:000415b0       ?Q_isforfilename@@YAHH@Z   400425b0 f   q_shared.obj
 0001:000415e0       ?Q_islower@@YAHH@Z         400425e0 f   q_shared.obj
 0001:00041600       ?Q_isnumeric@@YAHH@Z       40042600 f   q_shared.obj
 0001:00041620       ?Q_isprint@@YAHH@Z         40042620 f   q_shared.obj
 0001:00041640       ?Q_isupper@@YAHH@Z         40042640 f   q_shared.obj
 0001:00041660       ?Q_strcat@@YAXPADHPBD@Z    40042660 f   q_shared.obj
 0001:000416c0       ?Q_stricmp@@YAHPBD0@Z      400426c0 f   q_shared.obj
 0001:000416f0       ?Q_stricmpn@@YAHPBD0H@Z    400426f0 f   q_shared.obj
 0001:00041780       ?Q_strlwr@@YAPADPAD@Z      40042780 f   q_shared.obj
 0001:000417c0       ?Q_strncmp@@YAHPBD0H@Z     400427c0 f   q_shared.obj
 0001:00041820       ?Q_strncpyz@@YAXPADPBDH@Z  40042820 f   q_shared.obj
 0001:00041880       ?Q_strrchr@@YAPADPBDH@Z    40042880 f   q_shared.obj
 0001:000418c0       ?Q_strupr@@YAPADPAD@Z      400428c0 f   q_shared.obj
 0001:00041900       ?ShortNoSwap@@YAFF@Z       40042900 f   q_shared.obj
 0001:00041910       ?ShortSwap@@YAFF@Z         40042910 f   q_shared.obj
 0001:00041940       ?SkipBracedSection@@YAXPAPAD@Z 40042940 f   q_shared.obj
 0001:00041990       ?SkipBracedSection_Depth@@YAXPAPADH@Z 40042990 f   q_shared.obj
 0001:000419e0       ?SkipRestOfLine@@YAXPAPAD@Z 400429e0 f   q_shared.obj
 0001:00041a80       ?Swap_Init@@YAXXZ          40042a80 f   q_shared.obj
 0001:00041af0       ?_Insert_node@?$_Tree_val@U?$_Tree_simple_types@U?$pair@$$CBV?$basic_string@DU?$char_traits@D@std@@V?$allocator@D@2@@std@@V12@@std@@@std@@@std@@QAEPAU?$_Tree_node@U?$pair@$$CBV?$basic_string@DU?$char_traits@D@std@@V?$allocator@D@2@@std@@V12@@std@@PAX@2@U?$_Tree_id@PAU?$_Tree_node@U?$pair@$$CBV?$basic_string@DU?$char_traits@D@std@@V?$allocator@D@2@@std@@V12@@std@@PAX@std@@@2@QAU32@@Z 40042af0 f i q_shared.obj
 0001:00041d60       ?_Throw_tree_length_error@std@@YAXXZ 40042d60 f i q_shared.obj
 0001:00041d70       ?tv@@YAPAMMMM@Z            40042d70 f   q_shared.obj
 0001:00041dc0       ?va@@YAPADPBDZZ            40042dc0 f   q_shared.obj
 0001:00041e80       ___local_stdio_printf_options 40042e80 f i q_shared.obj
 0001:00041e90       ?BG_cpuUpdate@@YAXXZ       40042e90 f   bg_cpu.obj
 0001:00041f80       ??$_Construct@$00PBD@?$basic_string@DU?$char_traits@D@std@@V?$allocator@D@2@@std@@AAEXQBDI@Z 40042f80 f i Cvar.obj
 0001:00042060       ??$_Float_put_desired_precision@N@std@@YAH_JH@Z 40043060 f i Cvar.obj
 0001:000420b0       ??$_Float_put_desired_precision@O@std@@YAH_JH@Z 400430b0 f i Cvar.obj
 0001:00042100       ??$_Fput_v3@$0A@@?$num_put@DV?$ostreambuf_iterator@DU?$char_traits@D@std@@@std@@@std@@ABE?AV?$ostreambuf_iterator@DU?$char_traits@D@std@@@1@V21@AAVios_base@1@DPBDI_N@Z 40043100 f i Cvar.obj
 0001:00042630       ??$_Immortalize_memcpy_image@V_Iostream_error_category2@std@@@std@@YAABV_Iostream_error_category2@0@XZ 40043630 f i Cvar.obj
 0001:00042640       ??$_Maklocchr@D@std@@YADDPADABU_Cvtvec@@@Z 40043640 f i Cvar.obj
 0001:00042650       ??$_Maklocstr@D@std@@YAPADPBDPADABU_Cvtvec@@@Z 40043650 f i Cvar.obj
 0001:000426b0       ??$_Reallocate_grow_by@V<lambda_6607a66f2a10a1261ff9db96cba1015b>@@IID@?$basic_string@DU?$char_traits@D@std@@V?$allocator@D@2@@std@@AAEAAV01@IV<lambda_6607a66f2a10a1261ff9db96cba1015b>@@IID@Z 400436b0 f i Cvar.obj
 0001:00042870       ??$_Reallocate_grow_by@V<lambda_73347dd824626abab36262ed74192d8f>@@PBDI@?$basic_string@DU?$char_traits@D@std@@V?$allocator@D@2@@std@@AAEAAV01@IV<lambda_73347dd824626abab36262ed74192d8f>@@PBDI@Z 40043870 f i Cvar.obj
 0001:00042a00       ??$_Reallocate_grow_by@V<lambda_c1b8c41cb4019640539cfd828748c4d4>@@ID@?$basic_string@DU?$char_traits@D@std@@V?$allocator@D@2@@std@@AAEAAV01@IV<lambda_c1b8c41cb4019640539cfd828748c4d4>@@ID@Z 40043a00 f i Cvar.obj
 0001:00042ba0       ??$use_facet@V?$ctype@D@std@@@std@@YAABV?$ctype@D@0@ABVlocale@0@@Z 40043ba0 f i Cvar.obj
 0001:00042d80       ??$use_facet@V?$num_put@DV?$ostreambuf_iterator@DU?$char_traits@D@std@@@std@@@std@@@std@@YAABV?$num_put@DV?$ostreambuf_iterator@DU?$char_traits@D@std@@@std@@@0@ABVlocale@0@@Z 40043d80 f i Cvar.obj
 0001:00042f40       ??$use_facet@V?$numpunct@D@std@@@std@@YAABV?$numpunct@D@0@ABVlocale@0@@Z 40043f40 f i Cvar.obj
 0001:000431d0       ??0?$basic_ios@DU?$char_traits@D@std@@@std@@IAE@XZ 400441d0 f i Cvar.obj
 0001:00043260       ??0?$basic_ostream@DU?$char_traits@D@std@@@std@@QAE@PAV?$basic_streambuf@DU?$char_traits@D@std@@@1@_N@Z 40044260 f i Cvar.obj
 0001:00043490       ??0?$basic_ostringstream@DU?$char_traits@D@std@@V?$allocator@D@2@@std@@QAE@XZ 40044490 f i Cvar.obj
 0001:00043610       ??0?$basic_string@DU?$char_traits@D@std@@V?$allocator@D@2@@std@@QAE@ABV01@@Z 40044610 f i Cvar.obj
 0001:00043720       ??0?$basic_string@DU?$char_traits@D@std@@V?$allocator@D@2@@std@@QAE@ID@Z 40044720 f i Cvar.obj
 0001:00043840       ??0?$fpos@U_Mbstatet@@@std@@QAE@_J@Z 40044840 f i Cvar.obj
 0001:00043880       ??0Cvar@cvar@@QAE@ABV?$basic_string@DU?$char_traits@D@std@@V?$allocator@D@2@@std@@0HP6AXAAV01@@Z_N@Z 40044880 f   Cvar.obj
 0001:00043990       ??0_Locinfo@std@@QAE@PBD@Z 40044990 f i Cvar.obj
 0001:00043a50       ??0_System_error@std@@IAE@Verror_code@1@ABV?$basic_string@DU?$char_traits@D@std@@V?$allocator@D@2@@1@@Z 40044a50 f i Cvar.obj
 0001:00043cb0       ??0_System_error@std@@QAE@ABV01@@Z 40044cb0 f i Cvar.obj
 0001:00043d10       ??0bad_cast@std@@QAE@ABV01@@Z 40044d10 f i Cvar.obj
 0001:00043d50       ??0failure@ios_base@std@@QAE@ABV012@@Z 40044d50 f i Cvar.obj
 0001:00043db0       ??0failure@ios_base@std@@QAE@PBDABVerror_code@2@@Z 40044db0 f i Cvar.obj
 0001:00043eb0       ??0runtime_error@std@@QAE@ABV01@@Z 40044eb0 f i Cvar.obj
 0001:00043ef0       ??0sentry@?$basic_ostream@DU?$char_traits@D@std@@@std@@QAE@AAV12@@Z 40044ef0 f i Cvar.obj
 0001:00043fa0       ??0system_error@std@@QAE@ABV01@@Z 40044fa0 f i Cvar.obj
 0001:00044000       ??1?$_Alloc_construct_ptr@V?$allocator@U?$_List_node@PAVCvar@cvar@@PAX@std@@@std@@@std@@QAE@XZ 40045000 f i Cvar.obj
 0001:00044020       ??1?$_Tidy_guard@V?$numpunct@D@std@@@std@@QAE@XZ 40045020 f i Cvar.obj
 0001:00044050       ??1?$_Yarn@D@std@@QAE@XZ   40045050 f i Cvar.obj
 0001:00044070       ??1?$_Yarn@_W@std@@QAE@XZ  40045070 f i Cvar.obj
 0001:00044090       ??1?$basic_ios@DU?$char_traits@D@std@@@std@@UAE@XZ 40045090 f i Cvar.obj
 0001:000440f0       ??1?$basic_ostream@DU?$char_traits@D@std@@@std@@UAE@XZ 400450f0 f i Cvar.obj
 0001:00044120       ??1?$basic_ostringstream@DU?$char_traits@D@std@@V?$allocator@D@2@@std@@UAE@XZ 40045120 f i Cvar.obj
 0001:00044180       ??1?$basic_streambuf@DU?$char_traits@D@std@@@std@@UAE@XZ 40045180 f i Cvar.obj
 0001:000441c0       ??1?$basic_stringbuf@DU?$char_traits@D@std@@V?$allocator@D@2@@std@@UAE@XZ 400451c0 f i Cvar.obj
 0001:00044300       ??1?$ctype@D@std@@MAE@XZ   40045300 f i Cvar.obj
 0001:00044350       ??1?$num_put@DV?$ostreambuf_iterator@DU?$char_traits@D@std@@@std@@@std@@MAE@XZ 40045350 f i Cvar.obj
 0001:00044360       ??1?$numpunct@D@std@@MAE@XZ 40045360 f i Cvar.obj
 0001:000443a0       ??1?$unique_ptr@V_Facet_base@std@@U?$default_delete@V_Facet_base@std@@@2@@std@@QAE@XZ 400453a0 f i Cvar.obj
 0001:000443b0       ??1Cvar@cvar@@QAE@XZ       400453b0 f   Cvar.obj
 0001:00044490       ??1_Facet_base@std@@UAE@XZ 40045490 f i Cvar.obj
 0001:000444a0       ??1_Locinfo@std@@QAE@XZ    400454a0 f i Cvar.obj
 0001:000445a0       ??1_Sentry_base@?$basic_ostream@DU?$char_traits@D@std@@@std@@QAE@XZ 400455a0 f i Cvar.obj
 0001:000445f0       ??1bad_cast@std@@UAE@XZ    400455f0 f i Cvar.obj
 0001:00044610       ??1ctype_base@std@@UAE@XZ  40045610 f i Cvar.obj
 0001:00044620       ??1error_category@std@@UAE@XZ 40045620 f i Cvar.obj
 0001:00044630       ??1facet@locale@std@@MAE@XZ 40045630 f i Cvar.obj
 0001:00044640       ??1failure@ios_base@std@@UAE@XZ 40045640 f i Cvar.obj
 0001:00044660       ??1ios_base@std@@UAE@XZ    40045660 f i Cvar.obj
 0001:000446b0       ??1locale@std@@QAE@XZ      400456b0 f i Cvar.obj
 0001:000446d0       ??1sentry@?$basic_ostream@DU?$char_traits@D@std@@@std@@QAE@XZ 400456d0 f i Cvar.obj
 0001:00044740       ??1system_error@std@@UAE@XZ 40045740 f i Cvar.obj
 0001:00044760       ??6?$basic_ostream@DU?$char_traits@D@std@@@std@@QAEAAV01@H@Z 40045760 f i Cvar.obj
 0001:000449d0       ??6?$basic_ostream@DU?$char_traits@D@std@@@std@@QAEAAV01@M@Z 400459d0 f i Cvar.obj
 0001:00044c50       ??_D?$basic_ostringstream@DU?$char_traits@D@std@@V?$allocator@D@2@@std@@QAEXXZ 40045c50 f i Cvar.obj
 0001:00044cf5       ??_E?$basic_ostream@DU?$char_traits@D@std@@@std@@$4PPPPPPPM@A@AEPAXI@Z 40045cf5 f i Cvar.obj
 0001:00044cff       ??_E?$basic_ostringstream@DU?$char_traits@D@std@@V?$allocator@D@2@@std@@$4PPPPPPPM@A@AEPAXI@Z 40045cff f i Cvar.obj
 0001:00044d10       ??_E?$basic_ios@DU?$char_traits@D@std@@@std@@UAEPAXI@Z 40045d10 f i Cvar.obj
 0001:00044d10       ??_G?$basic_ios@DU?$char_traits@D@std@@@std@@UAEPAXI@Z 40045d10 f i Cvar.obj
 0001:00044d80       ??_E?$basic_ostream@DU?$char_traits@D@std@@@std@@UAEPAXI@Z 40045d80 f i Cvar.obj
 0001:00044d80       ??_G?$basic_ostream@DU?$char_traits@D@std@@@std@@UAEPAXI@Z 40045d80 f i Cvar.obj
 0001:00044e20       ??_E?$basic_ostringstream@DU?$char_traits@D@std@@V?$allocator@D@2@@std@@UAEPAXI@Z 40045e20 f i Cvar.obj
 0001:00044e20       ??_G?$basic_ostringstream@DU?$char_traits@D@std@@V?$allocator@D@2@@std@@UAEPAXI@Z 40045e20 f i Cvar.obj
 0001:00044e60       ??_E?$basic_streambuf@DU?$char_traits@D@std@@@std@@UAEPAXI@Z 40045e60 f i Cvar.obj
 0001:00044e60       ??_G?$basic_streambuf@DU?$char_traits@D@std@@@std@@UAEPAXI@Z 40045e60 f i Cvar.obj
 0001:00044ed0       ??_E?$basic_stringbuf@DU?$char_traits@D@std@@V?$allocator@D@2@@std@@UAEPAXI@Z 40045ed0 f i Cvar.obj
 0001:00044ed0       ??_G?$basic_stringbuf@DU?$char_traits@D@std@@V?$allocator@D@2@@std@@UAEPAXI@Z 40045ed0 f i Cvar.obj
 0001:00044f00       ??_E?$ctype@D@std@@MAEPAXI@Z 40045f00 f i Cvar.obj
 0001:00044f00       ??_G?$ctype@D@std@@MAEPAXI@Z 40045f00 f i Cvar.obj
 0001:00044f70       ??_E?$num_put@DV?$ostreambuf_iterator@DU?$char_traits@D@std@@@std@@@std@@MAEPAXI@Z 40045f70 f i Cvar.obj
 0001:00044f70       ??_G?$num_put@DV?$ostreambuf_iterator@DU?$char_traits@D@std@@@std@@@std@@MAEPAXI@Z 40045f70 f i Cvar.obj
 0001:00044fa0       ??_E?$numpunct@D@std@@MAEPAXI@Z 40045fa0 f i Cvar.obj
 0001:00044fa0       ??_G?$numpunct@D@std@@MAEPAXI@Z 40045fa0 f i Cvar.obj
 0001:00045000       ??_E_Facet_base@std@@UAEPAXI@Z 40046000 f i Cvar.obj
 0001:00045000       ??_G_Facet_base@std@@UAEPAXI@Z 40046000 f i Cvar.obj
 0001:00045030       ??_E_Iostream_error_category2@std@@UAEPAXI@Z 40046030 f i Cvar.obj
 0001:00045030       ??_G_Iostream_error_category2@std@@UAEPAXI@Z 40046030 f i Cvar.obj
 0001:00045060       ??_E_System_error@std@@UAEPAXI@Z 40046060 f i Cvar.obj
 0001:00045060       ??_G_System_error@std@@UAEPAXI@Z 40046060 f i Cvar.obj
 0001:000450a0       ??_Ebad_cast@std@@UAEPAXI@Z 400460a0 f i Cvar.obj
 0001:000450a0       ??_Gbad_cast@std@@UAEPAXI@Z 400460a0 f i Cvar.obj
 0001:000450e0       ??_Ectype_base@std@@UAEPAXI@Z 400460e0 f i Cvar.obj
 0001:000450e0       ??_Gctype_base@std@@UAEPAXI@Z 400460e0 f i Cvar.obj
 0001:00045110       ??_Efacet@locale@std@@MAEPAXI@Z 40046110 f i Cvar.obj
 0001:00045110       ??_Gfacet@locale@std@@MAEPAXI@Z 40046110 f i Cvar.obj
 0001:00045140       ??_Efailure@ios_base@std@@UAEPAXI@Z 40046140 f i Cvar.obj
 0001:00045140       ??_Gfailure@ios_base@std@@UAEPAXI@Z 40046140 f i Cvar.obj
 0001:00045180       ??_Eios_base@std@@UAEPAXI@Z 40046180 f i Cvar.obj
 0001:00045180       ??_Gios_base@std@@UAEPAXI@Z 40046180 f i Cvar.obj
 0001:000451f0       ??_Eruntime_error@std@@UAEPAXI@Z 400461f0 f i Cvar.obj
 0001:000451f0       ??_Gruntime_error@std@@UAEPAXI@Z 400461f0 f i Cvar.obj
 0001:00045230       ??_Esystem_error@std@@UAEPAXI@Z 40046230 f i Cvar.obj
 0001:00045230       ??_Gsystem_error@std@@UAEPAXI@Z 40046230 f i Cvar.obj
 0001:00045270       ?_Decref@facet@locale@std@@UAEPAV_Facet_base@3@XZ 40046270 f i Cvar.obj
 0001:00045290       ?_Ffmt@?$num_put@DV?$ostreambuf_iterator@DU?$char_traits@D@std@@@std@@@std@@ABAPADPADDH@Z 40046290 f i Cvar.obj
 0001:00045390       ?_Incref@facet@locale@std@@UAEXXZ 40046390 f i Cvar.obj
 0001:000453a0       ?_Init@?$basic_streambuf@DU?$char_traits@D@std@@@std@@IAEXXZ 400463a0 f i Cvar.obj
 0001:00045410       ?_Iput@?$num_put@DV?$ostreambuf_iterator@DU?$char_traits@D@std@@@std@@@std@@ABA?AV?$ostreambuf_iterator@DU?$char_traits@D@std@@@2@V32@AAVios_base@2@DPADI@Z 40046410 f i Cvar.obj
 0001:000458c0       ?_Lock@?$basic_streambuf@DU?$char_traits@D@std@@@std@@UAEXXZ 400468c0 f i Cvar.obj
 0001:000458d0       ?_Osfx@?$basic_ostream@DU?$char_traits@D@std@@@std@@QAEXXZ 400468d0 f i Cvar.obj
 0001:000459d0       ?_Put@?$num_put@DV?$ostreambuf_iterator@DU?$char_traits@D@std@@@std@@@std@@ABA?AV?$ostreambuf_iterator@DU?$char_traits@D@std@@@2@V32@PBDI@Z 400469d0 f i Cvar.obj
 0001:00045a60       ?_Rep@?$num_put@DV?$ostreambuf_iterator@DU?$char_traits@D@std@@@std@@@std@@ABA?AV?$ostreambuf_iterator@DU?$char_traits@D@std@@@2@V32@DI@Z 40046a60 f i Cvar.obj
 0001:00045ae0       ?_Unlock@?$basic_streambuf@DU?$char_traits@D@std@@@std@@UAEXXZ 40046ae0 f i Cvar.obj
 0001:00045af0       ?_Xran@?$_String_val@U?$_Simple_types@D@std@@@std@@SAXXZ 40046af0 f i Cvar.obj
 0001:00045b00       ?clear@ios_base@std@@QAEXH_N@Z 40046b00 f i Cvar.obj
 0001:00045b90       ?deallocate@?$allocator@D@std@@QAEXQADI@Z 40046b90 f i Cvar.obj
 0001:00045be0       ?default_error_condition@error_category@std@@UBE?AVerror_condition@2@H@Z 40046be0 f i Cvar.obj
 0001:00045c00       ?do_decimal_point@?$numpunct@D@std@@MBEDXZ 40046c00 f i Cvar.obj
 0001:00045c10       ?do_falsename@?$numpunct@D@std@@MBE?AV?$basic_string@DU?$char_traits@D@std@@V?$allocator@D@2@@2@XZ 40046c10 f i Cvar.obj
 0001:00045c70       ?do_grouping@?$numpunct@D@std@@MBE?AV?$basic_string@DU?$char_traits@D@std@@V?$allocator@D@2@@2@XZ 40046c70 f i Cvar.obj
 0001:00045cd0       ?do_narrow@?$ctype@D@std@@MBEDDD@Z 40046cd0 f i Cvar.obj
 0001:00045ce0       ?do_narrow@?$ctype@D@std@@MBEPBDPBD0DPAD@Z 40046ce0 f i Cvar.obj
 0001:00045d10       ?do_put@?$num_put@DV?$ostreambuf_iterator@DU?$char_traits@D@std@@@std@@@std@@MBE?AV?$ostreambuf_iterator@DU?$char_traits@D@std@@@2@V32@AAVios_base@2@DJ@Z 40046d10 f i Cvar.obj
 0001:00045de0       ?do_put@?$num_put@DV?$ostreambuf_iterator@DU?$char_traits@D@std@@@std@@@std@@MBE?AV?$ostreambuf_iterator@DU?$char_traits@D@std@@@2@V32@AAVios_base@2@DK@Z 40046de0 f i Cvar.obj
 0001:00045eb0       ?do_put@?$num_put@DV?$ostreambuf_iterator@DU?$char_traits@D@std@@@std@@@std@@MBE?AV?$ostreambuf_iterator@DU?$char_traits@D@std@@@2@V32@AAVios_base@2@DN@Z 40046eb0 f i Cvar.obj
 0001:000460d0       ?do_put@?$num_put@DV?$ostreambuf_iterator@DU?$char_traits@D@std@@@std@@@std@@MBE?AV?$ostreambuf_iterator@DU?$char_traits@D@std@@@2@V32@AAVios_base@2@DO@Z 400470d0 f i Cvar.obj
 0001:000462f0       ?do_put@?$num_put@DV?$ostreambuf_iterator@DU?$char_traits@D@std@@@std@@@std@@MBE?AV?$ostreambuf_iterator@DU?$char_traits@D@std@@@2@V32@AAVios_base@2@DPBX@Z 400472f0 f i Cvar.obj
 0001:00046350       ?do_put@?$num_put@DV?$ostreambuf_iterator@DU?$char_traits@D@std@@@std@@@std@@MBE?AV?$ostreambuf_iterator@DU?$char_traits@D@std@@@2@V32@AAVios_base@2@D_J@Z 40047350 f i Cvar.obj
 0001:00046430       ?do_put@?$num_put@DV?$ostreambuf_iterator@DU?$char_traits@D@std@@@std@@@std@@MBE?AV?$ostreambuf_iterator@DU?$char_traits@D@std@@@2@V32@AAVios_base@2@D_K@Z 40047430 f i Cvar.obj
 0001:00046510       ?do_put@?$num_put@DV?$ostreambuf_iterator@DU?$char_traits@D@std@@@std@@@std@@MBE?AV?$ostreambuf_iterator@DU?$char_traits@D@std@@@2@V32@AAVios_base@2@D_N@Z 40047510 f i Cvar.obj
 0001:00046780       ?do_thousands_sep@?$numpunct@D@std@@MBEDXZ 40047780 f i Cvar.obj
 0001:00046790       ?do_tolower@?$ctype@D@std@@MBEDD@Z 40047790 f i Cvar.obj
 0001:000467b0       ?do_tolower@?$ctype@D@std@@MBEPBDPADPBD@Z 400477b0 f i Cvar.obj
 0001:000467f0       ?do_toupper@?$ctype@D@std@@MBEDD@Z 400477f0 f i Cvar.obj
 0001:00046810       ?do_toupper@?$ctype@D@std@@MBEPBDPADPBD@Z 40047810 f i Cvar.obj
 0001:00046850       ?do_truename@?$numpunct@D@std@@MBE?AV?$basic_string@DU?$char_traits@D@std@@V?$allocator@D@2@@2@XZ 40047850 f i Cvar.obj
 0001:000468b0       ?do_widen@?$ctype@D@std@@MBEDD@Z 400478b0 f i Cvar.obj
 0001:000468c0       ?do_widen@?$ctype@D@std@@MBEPBDPBD0PAD@Z 400478c0 f i Cvar.obj
 0001:000468f0       ?equivalent@error_category@std@@UBE_NABVerror_code@2@H@Z 400478f0 f i Cvar.obj
 0001:00046920       ?equivalent@error_category@std@@UBE_NHABVerror_condition@2@@Z 40047920 f i Cvar.obj
 0001:00046970       ?flush@?$basic_ostream@DU?$char_traits@D@std@@@std@@QAEAAV12@XZ 40047970 f i Cvar.obj
 0001:00046b10       ?getUpdateList@Cvar@cvar@@SAABV?$list@PAVCvar@cvar@@V?$allocator@PAVCvar@cvar@@@std@@@std@@XZ 40047b10 f   Cvar.obj
 0001:00046b20       ?imbue@?$basic_streambuf@DU?$char_traits@D@std@@@std@@MAEXABVlocale@2@@Z 40047b20 f i Cvar.obj
 0001:00046b30       ?init@Cvar@cvar@@SAXXZ     40047b30 f   Cvar.obj
 0001:00046b80       ?make_error_code@std@@YA?AVerror_code@1@W4io_errc@1@@Z 40047b80 f i Cvar.obj
 0001:00046ba0       ?message@_Iostream_error_category2@std@@UBE?AV?$basic_string@DU?$char_traits@D@std@@V?$allocator@D@2@@2@H@Z 40047ba0 f i Cvar.obj
 0001:00046c80       ?name@_Iostream_error_category2@std@@UBEPBDXZ 40047c80 f i Cvar.obj
 0001:00046c90       ?overflow@?$basic_streambuf@DU?$char_traits@D@std@@@std@@MAEHH@Z 40047c90 f i Cvar.obj
 0001:00046ca0       ?overflow@?$basic_stringbuf@DU?$char_traits@D@std@@V?$allocator@D@2@@std@@MAEHH@Z 40047ca0 f i Cvar.obj
 0001:00046ea0       ?pbackfail@?$basic_streambuf@DU?$char_traits@D@std@@@std@@MAEHH@Z 40047ea0 f i Cvar.obj
 0001:00046eb0       ?pbackfail@?$basic_stringbuf@DU?$char_traits@D@std@@V?$allocator@D@2@@std@@MAEHH@Z 40047eb0 f i Cvar.obj
 0001:00046f20       ?push_back@?$list@PAVCvar@cvar@@V?$allocator@PAVCvar@cvar@@@std@@@std@@QAEX$$QAPAVCvar@cvar@@@Z 40047f20 f i Cvar.obj
 0001:00046fc0       ?resize@?$basic_string@DU?$char_traits@D@std@@V?$allocator@D@2@@std@@QAEXID@Z 40047fc0 f i Cvar.obj
 0001:00047050       ?seekoff@?$basic_streambuf@DU?$char_traits@D@std@@@std@@MAE?AV?$fpos@U_Mbstatet@@@2@_JHH@Z 40048050 f i Cvar.obj
 0001:00047090       ?seekoff@?$basic_stringbuf@DU?$char_traits@D@std@@V?$allocator@D@2@@std@@MAE?AV?$fpos@U_Mbstatet@@@2@_JHH@Z 40048090 f i Cvar.obj
 0001:000472e0       ?seekpos@?$basic_streambuf@DU?$char_traits@D@std@@@std@@MAE?AV?$fpos@U_Mbstatet@@@2@V32@H@Z 400482e0 f i Cvar.obj
 0001:00047320       ?seekpos@?$basic_stringbuf@DU?$char_traits@D@std@@V?$allocator@D@2@@std@@MAE?AV?$fpos@U_Mbstatet@@@2@V32@H@Z 40048320 f i Cvar.obj
 0001:000474d0       ?set@Cvar@cvar@@QAEXABV?$basic_string@DU?$char_traits@D@std@@V?$allocator@D@2@@std@@@Z 400484d0 f   Cvar.obj
 0001:00047520       ?set@Cvar@cvar@@QAEXH@Z    40048520 f   Cvar.obj
 0001:000476c0       ?set@Cvar@cvar@@QAEXM@Z    400486c0 f   Cvar.obj
 0001:00047860       ?setbuf@?$basic_streambuf@DU?$char_traits@D@std@@@std@@MAEPAV12@PAD_J@Z 40048860 f i Cvar.obj
 0001:00047870       ?setstate@?$basic_ios@DU?$char_traits@D@std@@@std@@QAEXH_N@Z 40048870 f i Cvar.obj
 0001:000478a0       ?showmanyc@?$basic_streambuf@DU?$char_traits@D@std@@@std@@MAE_JXZ 400488a0 f i Cvar.obj
 0001:000478b0       ?str@?$basic_stringbuf@DU?$char_traits@D@std@@V?$allocator@D@2@@std@@QBE?AV?$basic_string@DU?$char_traits@D@std@@V?$allocator@D@2@@2@XZ 400488b0 f i Cvar.obj
 0001:00047a70       ?sync@?$basic_streambuf@DU?$char_traits@D@std@@@std@@MAEHXZ 40048a70 f i Cvar.obj
 0001:00047a80       ?trapRegister@Cvar@cvar@@AAEXXZ 40048a80 f   Cvar.obj
 0001:00047ad0       ?trapUpdate@Cvar@cvar@@AAEXXZ 40048ad0 f   Cvar.obj
 0001:00047b30       ?uflow@?$basic_streambuf@DU?$char_traits@D@std@@@std@@MAEHXZ 40048b30 f i Cvar.obj
 0001:00047b60       ?underflow@?$basic_streambuf@DU?$char_traits@D@std@@@std@@MAEHXZ 40048b60 f i Cvar.obj
 0001:00047b70       ?underflow@?$basic_stringbuf@DU?$char_traits@D@std@@V?$allocator@D@2@@std@@MAEHXZ 40048b70 f i Cvar.obj
 0001:00047bf0       ?xsgetn@?$basic_streambuf@DU?$char_traits@D@std@@@std@@MAE_JPAD_J@Z 40048bf0 f i Cvar.obj
 0001:00047cf0       ?xsputn@?$basic_streambuf@DU?$char_traits@D@std@@@std@@MAE_JPBD_J@Z 40048cf0 f i Cvar.obj
 0001:00047df0       _sprintf_s                 40048df0 f i Cvar.obj
 0001:00047e30       ??$?6DU?$char_traits@D@std@@V?$allocator@D@1@@std@@YAAAV?$basic_ostream@DU?$char_traits@D@std@@@0@AAV10@ABV?$basic_string@DU?$char_traits@D@std@@V?$allocator@D@2@@0@@Z 40048e30 f i PairDump.obj
 0001:00047e60       ??$?6U?$char_traits@D@std@@@std@@YAAAV?$basic_ostream@DU?$char_traits@D@std@@@0@AAV10@PBD@Z 40048e60 f i PairDump.obj
 0001:000481d0       ??$_Erase_tree@V?$allocator@U?$_Tree_node@U?$pair@$$CBV?$basic_string@DU?$char_traits@D@std@@V?$allocator@D@2@@std@@PBUData@PairDump@str@@@std@@PAX@std@@@std@@@?$_Tree_val@U?$_Tree_simple_types@U?$pair@$$CBV?$basic_string@DU?$char_traits@D@std@@V?$allocator@D@2@@std@@PBUData@PairDump@str@@@std@@@std@@@std@@QAEXAAV?$allocator@U?$_Tree_node@U?$pair@$$CBV?$basic_string@DU?$char_traits@D@std@@V?$allocator@D@2@@std@@PBUData@PairDump@str@@@std@@PAX@std@@@1@PAU?$_Tree_node@U?$pair@$$CBV?$basic_string@DU?$char_traits@D@std@@V?$allocator@D@2@@std@@PBUData@PairDump@str@@@std@@PAX@1@@Z 400491d0 f i PairDump.obj
 0001:00048290       ??$_Find_lower_bound@V?$basic_string@DU?$char_traits@D@std@@V?$allocator@D@2@@std@@@?$_Tree@V?$_Tmap_traits@V?$basic_string@DU?$char_traits@D@std@@V?$allocator@D@2@@std@@PBUData@PairDump@str@@U?$less@V?$basic_string@DU?$char_traits@D@std@@V?$allocator@D@2@@std@@@2@V?$allocator@U?$pair@$$CBV?$basic_string@DU?$char_traits@D@std@@V?$allocator@D@2@@std@@PBUData@PairDump@str@@@std@@@2@$0A@@std@@@std@@IBE?AU?$_Tree_find_result@PAU?$_Tree_node@U?$pair@$$CBV?$basic_string@DU?$char_traits@D@std@@V?$allocator@D@2@@std@@PBUData@PairDump@str@@@std@@PAX@std@@@1@ABV?$basic_string@DU?$char_traits@D@std@@V?$allocator@D@2@@1@@Z 40049290 f i PairDump.obj
 0001:00048300       ??$_Free_non_head@V?$allocator@U?$_List_node@USection@PairDump@str@@PAX@std@@@std@@@?$_List_node@USection@PairDump@str@@PAX@std@@SAXAAV?$allocator@U?$_List_node@USection@PairDump@str@@PAX@std@@@1@PAU01@@Z 40049300 f i PairDump.obj
 0001:00048350       ??$_Insert_string@DU?$char_traits@D@std@@I@std@@YAAAV?$basic_ostream@DU?$char_traits@D@std@@@0@AAV10@QBDI@Z 40049350 f i PairDump.obj
 0001:00048670       ??$endl@DU?$char_traits@D@std@@@std@@YAAAV?$basic_ostream@DU?$char_traits@D@std@@@0@AAV10@@Z 40049670 f i PairDump.obj
 0001:00048730       ??0?$list@UData@PairDump@str@@V?$allocator@UData@PairDump@str@@@std@@@std@@QAE@ABV01@@Z 40049730 f i PairDump.obj
 0001:000488f0       ??0PairDump@str@@QAE@V?$basic_string@DU?$char_traits@D@std@@V?$allocator@D@2@@std@@@Z 400498f0 f   PairDump.obj
 0001:000489d0       ??1?$_Alloc_construct_ptr@V?$allocator@U?$_List_node@UData@PairDump@str@@PAX@std@@@std@@@std@@QAE@XZ 400499d0 f i PairDump.obj
 0001:000489f0       ??1?$_Alloc_construct_ptr@V?$allocator@U?$_List_node@USection@PairDump@str@@PAX@std@@@std@@@std@@QAE@XZ 400499f0 f i PairDump.obj
 0001:00048a10       ??1?$_Alloc_construct_ptr@V?$allocator@U?$_Tree_node@U?$pair@$$CBV?$basic_string@DU?$char_traits@D@std@@V?$allocator@D@2@@std@@PBUData@PairDump@str@@@std@@PAX@std@@@std@@@std@@QAE@XZ 40049a10 f i PairDump.obj
 0001:00048a30       ??1?$_List_node_insert_op2@V?$allocator@U?$_List_node@UData@PairDump@str@@PAX@std@@@std@@@std@@QAE@XZ 40049a30 f i PairDump.obj
 0001:00048a80       ??1?$list@UData@PairDump@str@@V?$allocator@UData@PairDump@str@@@std@@@std@@QAE@XZ 40049a80 f i PairDump.obj
 0001:00048ae0       ??1?$list@USection@PairDump@str@@V?$allocator@USection@PairDump@str@@@std@@@std@@QAE@XZ 40049ae0 f i PairDump.obj
 0001:00048b00       ??1?$map@V?$basic_string@DU?$char_traits@D@std@@V?$allocator@D@2@@std@@PBUData@PairDump@str@@U?$less@V?$basic_string@DU?$char_traits@D@std@@V?$allocator@D@2@@std@@@2@V?$allocator@U?$pair@$$CBV?$basic_string@DU?$char_traits@D@std@@V?$allocator@D@2@@std@@PBUData@PairDump@str@@@std@@@2@@std@@QAE@XZ 40049b00 f i PairDump.obj
 0001:00048b30       ??1Data@PairDump@str@@QAE@XZ 40049b30 f i PairDump.obj
 0001:00048bf0       ??1PairDump@str@@QAE@XZ    40049bf0 f   PairDump.obj
 0001:00048c70       ??1Section@PairDump@str@@QAE@XZ 40049c70 f i PairDump.obj
 0001:00048ce0       ??6?$basic_ostream@DU?$char_traits@D@std@@@std@@QAEAAV01@I@Z 40049ce0 f i PairDump.obj
 0001:00048f50       ??6?$basic_ostream@DU?$char_traits@D@std@@@std@@QAEAAV01@N@Z 40049f50 f i PairDump.obj
 0001:000491d0       ?_Insert_node@?$_Tree_val@U?$_Tree_simple_types@U?$pair@$$CBV?$basic_string@DU?$char_traits@D@std@@V?$allocator@D@2@@std@@PBUData@PairDump@str@@@std@@@std@@@std@@QAEPAU?$_Tree_node@U?$pair@$$CBV?$basic_string@DU?$char_traits@D@std@@V?$allocator@D@2@@std@@PBUData@PairDump@str@@@std@@PAX@2@U?$_Tree_id@PAU?$_Tree_node@U?$pair@$$CBV?$basic_string@DU?$char_traits@D@std@@V?$allocator@D@2@@std@@PBUData@PairDump@str@@@std@@PAX@std@@@2@QAU32@@Z 4004a1d0 f i PairDump.obj
 0001:00049440       ?addEntry@PairDump@str@@QAEXV?$basic_string@DU?$char_traits@D@std@@V?$allocator@D@2@@std@@0@Z 4004a440 f   PairDump.obj
 0001:00049560       ?addEntry@PairDump@str@@QAEXV?$basic_string@DU?$char_traits@D@std@@V?$allocator@D@2@@std@@AAY02$$CBM@Z 4004a560 f   PairDump.obj
 0001:00049630       ?addEntry@PairDump@str@@QAEXV?$basic_string@DU?$char_traits@D@std@@V?$allocator@D@2@@std@@H@Z 4004a630 f   PairDump.obj
 0001:000497d0       ?addEntry@PairDump@str@@QAEXV?$basic_string@DU?$char_traits@D@std@@V?$allocator@D@2@@std@@I@Z 4004a7d0 f   PairDump.obj
 0001:00049970       ?addEntry@PairDump@str@@QAEXV?$basic_string@DU?$char_traits@D@std@@V?$allocator@D@2@@std@@M@Z 4004a970 f   PairDump.obj
 0001:00049b10       ?addEntry@PairDump@str@@QAEXV?$basic_string@DU?$char_traits@D@std@@V?$allocator@D@2@@std@@N@Z 4004ab10 f   PairDump.obj
 0001:00049cc0       ?addEntry@PairDump@str@@QAEXV?$basic_string@DU?$char_traits@D@std@@V?$allocator@D@2@@std@@_N@Z 4004acc0 f   PairDump.obj
 0001:00049dd0       ?addSection@PairDump@str@@QAEXV?$basic_string@DU?$char_traits@D@std@@V?$allocator@D@2@@std@@@Z 4004add0 f   PairDump.obj
 0001:00049fd0       ?append@?$basic_string@DU?$char_traits@D@std@@V?$allocator@D@2@@std@@QAEAAV12@ABV12@@Z 4004afd0 f i PairDump.obj
 0001:0004a060       ?clear@PairDump@str@@QAEXXZ 4004b060 f   PairDump.obj
 0001:0004a270       ?dump@PairDump@str@@QAEXAAV?$basic_ostream@DU?$char_traits@D@std@@@std@@@Z 4004b270 f   PairDump.obj
 0001:0004a480       ?dump@PairDump@str@@QAEXABV12@AAV?$basic_ostream@DU?$char_traits@D@std@@@std@@@Z 4004b480 f   PairDump.obj
 0001:0004ae00       ?left@std@@YAAAVios_base@1@AAV21@@Z 4004be00 f i PairDump.obj
 0001:0004ae20       ?push_back@?$list@UData@PairDump@str@@V?$allocator@UData@PairDump@str@@@std@@@std@@QAEXABUData@PairDump@str@@@Z 4004be20 f i PairDump.obj
 0001:0004aef0       ?put@?$basic_ostream@DU?$char_traits@D@std@@@std@@QAEAAV12@D@Z 4004bef0 f i PairDump.obj
 0001:0004b130       ??$?6U?$char_traits@D@std@@@std@@YAAAV?$basic_ostream@DU?$char_traits@D@std@@@0@AAV10@D@Z 4004c130 f i util.obj
 0001:0004b4d0       ??$_Assign@D@?$basic_string@DU?$char_traits@D@std@@V?$allocator@D@2@@std@@AAEAAV01@QBDI@Z 4004c4d0 f i util.obj
 0001:0004b630       ??$_Reallocate_grow_by@V<lambda_15711c68e099a15a58f4d77303cb286d>@@D@?$basic_string@DU?$char_traits@D@std@@V?$allocator@D@2@@std@@AAEAAV01@IV<lambda_15711c68e099a15a58f4d77303cb286d>@@D@Z 4004c630 f i util.obj
 0001:0004b7a0       ??$setfill@D@std@@YA?AU?$_Fillobj@D@0@D@Z 4004c7a0 f i util.obj
 0001:0004b7b0       ?_Tidy_deallocate@?$basic_string@DU?$char_traits@D@std@@V?$allocator@D@2@@std@@AAEXXZ 4004c7b0 f i util.obj
 0001:0004b810       ?append@?$basic_string@DU?$char_traits@D@std@@V?$allocator@D@2@@std@@QAEAAV12@ID@Z 4004c810 f i util.obj
 0001:0004b890       ?etAlignLeft@str@@YAAAV?$basic_string@DU?$char_traits@D@std@@V?$allocator@D@2@@std@@ABV23@IAAV23@@Z 4004c890 f   util.obj
 0001:0004b910       ?etAlignRight@str@@YAAAV?$basic_string@DU?$char_traits@D@std@@V?$allocator@D@2@@std@@ABV23@IAAV23@@Z 4004c910 f   util.obj
 0001:0004b9e0       ?etDecolorize@str@@YAAAV?$basic_string@DU?$char_traits@D@std@@V?$allocator@D@2@@std@@AAV23@@Z 4004c9e0 f   util.obj
 0001:0004bb50       ?etLength@str@@YAIABV?$basic_string@DU?$char_traits@D@std@@V?$allocator@D@2@@std@@@Z 4004cb50 f   util.obj
 0001:0004bc10       ?etTruncate@str@@YA?AV?$basic_string@DU?$char_traits@D@std@@V?$allocator@D@2@@std@@ABV23@I@Z 4004cc10 f   util.obj
 0001:0004bcc0       ?etTruncate@str@@YAAAV?$basic_string@DU?$char_traits@D@std@@V?$allocator@D@2@@std@@AAV23@I@Z 4004ccc0 f   util.obj
 0001:0004be30       ?hex@std@@YAAAVios_base@1@AAV21@@Z 4004ce30 f i util.obj
 0001:0004be50       ?str@?$basic_ostringstream@DU?$char_traits@D@std@@V?$allocator@D@2@@std@@QBE?AV?$basic_string@DU?$char_traits@D@std@@V?$allocator@D@2@@2@XZ 4004ce50 f i util.obj
 0001:0004bf40       ?toHexString@str@@YA?AV?$basic_string@DU?$char_traits@D@std@@V?$allocator@D@2@@std@@I@Z 4004cf40 f   util.obj
 0001:0004c010       ?toHexString@str@@YAAAV?$basic_string@DU?$char_traits@D@std@@V?$allocator@D@2@@std@@IAAV23@@Z 4004d010 f   util.obj
 0001:0004c220       ?toSeconds@str@@YAHABV?$basic_string@DU?$char_traits@D@std@@V?$allocator@D@2@@std@@_N@Z 4004d220 f   util.obj
 0001:0004c6e0       ?toString@str@@YA?AV?$basic_string@DU?$char_traits@D@std@@V?$allocator@D@2@@std@@AAY02$$CBM@Z 4004d6e0 f   util.obj
 0001:0004c7b0       ?toString@str@@YA?AV?$basic_string@DU?$char_traits@D@std@@V?$allocator@D@2@@std@@PBX@Z 4004d7b0 f   util.obj
 0001:0004c880       ?toString@str@@YA?AV?$basic_string@DU?$char_traits@D@std@@V?$allocator@D@2@@std@@W4entityType_t@@@Z 4004d880 f   util.obj
 0001:0004c950       ?toString@str@@YA?AV?$basic_string@DU?$char_traits@D@std@@V?$allocator@D@2@@std@@W4gamestate_t@@@Z 4004d950 f   util.obj
 0001:0004ca20       ?toString@str@@YA?AV?$basic_string@DU?$char_traits@D@std@@V?$allocator@D@2@@std@@W4gametype_t@@@Z 4004da20 f   util.obj
 0001:0004caf0       ?toString@str@@YA?AV?$basic_string@DU?$char_traits@D@std@@V?$allocator@D@2@@std@@W4team_t@@@Z 4004daf0 f   util.obj
 0001:0004cbc0       ?toString@str@@YA?AV?$basic_string@DU?$char_traits@D@std@@V?$allocator@D@2@@std@@W4trType_t@@@Z 4004dbc0 f   util.obj
 0001:0004cc90       ?toString@str@@YA?AV?$basic_string@DU?$char_traits@D@std@@V?$allocator@D@2@@std@@W4weapon_t@@@Z 4004dc90 f   util.obj
 0001:0004cd60       ?toString@str@@YAAAV?$basic_string@DU?$char_traits@D@std@@V?$allocator@D@2@@std@@AAY02$$CBMAAV23@@Z 4004dd60 f   util.obj
 0001:0004d050       ?toString@str@@YAAAV?$basic_string@DU?$char_traits@D@std@@V?$allocator@D@2@@std@@PBXAAV23@@Z 4004e050 f   util.obj
 0001:0004d060       ?toString@str@@YAAAV?$basic_string@DU?$char_traits@D@std@@V?$allocator@D@2@@std@@W4entityType_t@@AAV23@@Z 4004e060 f   util.obj
 0001:0004e5a0       ?toString@str@@YAAAV?$basic_string@DU?$char_traits@D@std@@V?$allocator@D@2@@std@@W4gamestate_t@@AAV23@@Z 4004f5a0 f   util.obj
 0001:0004e830       ?toString@str@@YAAAV?$basic_string@DU?$char_traits@D@std@@V?$allocator@D@2@@std@@W4gametype_t@@AAV23@@Z 4004f830 f   util.obj
 0001:0004ea40       ?toString@str@@YAAAV?$basic_string@DU?$char_traits@D@std@@V?$allocator@D@2@@std@@W4team_t@@AAV23@@Z 4004fa40 f   util.obj
 0001:0004ec50       ?toString@str@@YAAAV?$basic_string@DU?$char_traits@D@std@@V?$allocator@D@2@@std@@W4trType_t@@AAV23@@Z 4004fc50 f   util.obj
 0001:0004f970       ?toString@str@@YAAAV?$basic_string@DU?$char_traits@D@std@@V?$allocator@D@2@@std@@W4weapon_t@@AAV23@@Z 40050970 f   util.obj
 0001:00050cf0       ?toStringSecondsRemaining@str@@YA?AV?$basic_string@DU?$char_traits@D@std@@V?$allocator@D@2@@std@@H_N@Z 40051cf0 f   util.obj
 0001:00050dc0       ?toStringSecondsRemaining@str@@YAAAV?$basic_string@DU?$char_traits@D@std@@V?$allocator@D@2@@std@@HAAV23@_N@Z 40051dc0 f   util.obj
 0001:00051170       ?update@Cvar@cvar@@SAXXZ   40052170 f   Cvar1.obj
 0001:000511a0       ?BG_LoadCampaignSave@@YA?AW4qboolean@@PBDPAUcpsFile_t@@0@Z 400521a0 f   bg_campaign1.obj
 0001:000513a0       ?BG_StoreCampaignSave@@YA?AW4qboolean@@PBDPAUcpsFile_t@@0@Z 400523a0 f   bg_campaign1.obj
 0001:00051550       ?BG_ClassHasWeapon@@YA?AW4qboolean@@PAUbg_playerclass_t@@W4weapon_t@@@Z 40052550 f   bg_classes1.obj
 0001:00051580       ?BG_ClassLetterForNumber@@YAPBDH@Z 40052580 f   bg_classes1.obj
 0001:000515f0       ?BG_ClassSkillForClass@@YA?AW4skillType_t@@H@Z 400525f0 f   bg_classes1.obj
 0001:00051630       ?BG_ClassTextToClass@@YAHPAD@Z 40052630 f   bg_classes1.obj
 0001:000516f0       ?BG_ClassnameForNumber@@YAPBDH@Z 400526f0 f   bg_classes1.obj
 0001:00051760       ?BG_GetPlayerClassInfo@@YAPAUbg_playerclass_t@@HH@Z 40052760 f   bg_classes1.obj
 0001:000517a0       ?BG_PlayerClassForPlayerState@@YAPAUbg_playerclass_t@@PAUplayerState_s@@@Z 400527a0 f   bg_classes1.obj
 0001:000517d0       ?BG_ShortClassnameForNumber@@YAPBDH@Z 400527d0 f   bg_classes1.obj
 0001:00051840       ?BG_WeaponIsPrimaryForClassAndTeam@@YA?AW4qboolean@@HW4team_t@@W4weapon_t@@@Z 40052840 f   bg_classes1.obj
 0001:000518b0       ?BG_IsPercent@@YA_NPBD@Z   400528b0 f   bg_jaymod1.obj
 0001:000518f0       ?BG_AddMagicAmmo@@YA?AW4qboolean@@PAUplayerState_s@@PAHHH@Z 400528f0 f   bg_misc1.obj
 0001:00051ca0       ?BG_AddPathCorner@@YAXPBDQAM@Z 40052ca0 f   bg_misc1.obj
 0001:00051d20       ?BG_AddPredictableEventToPlayerstate@@YAXHHPAUplayerState_s@@@Z 40052d20 f   bg_misc1.obj
 0001:00051d60       ?BG_AddSplineControl@@YAXPAUsplinePath_s@@PBD@Z 40052d60 f   bg_misc1.obj
 0001:00051dc0       ?BG_AddSplinePath@@YAPAUsplinePath_s@@PBD0QAM@Z 40052dc0 f   bg_misc1.obj
 0001:00051e80       ?BG_AdjustAAGunMuzzleForBarrel@@YAXPAM000H@Z 40052e80 f   bg_misc1.obj
 0001:000521e0       ?BG_AkimboFireSequence@@YA?AW4qboolean@@HHH@Z 400531e0 f   bg_misc1.obj
 0001:00052230       ?BG_AkimboSidearm@@YAHH@Z  40053230 f   bg_misc1.obj
 0001:00052290       ?BG_BBoxCollision@@YA?AW4qboolean@@QAM000@Z 40053290 f   bg_misc1.obj
 0001:000522e0       ?BG_BuildSplinePaths@@YAXXZ 400532e0 f   bg_misc1.obj
 0001:00052460       ?BG_CalculateSpline_r@@YAXPAUsplinePath_s@@QAM1M@Z 40053460 f   bg_misc1.obj
 0001:00052690       ?BG_CanItemBeGrabbed@@YA?AW4qboolean@@PBUentityState_s@@PBUplayerState_s@@PAHH@Z 40053690 f   bg_misc1.obj
 0001:00052880       ?BG_CanUseWeapon@@YA?AW4qboolean@@HHW4weapon_t@@@Z 40053880 f   bg_misc1.obj
 0001:00052b40       ?BG_ComputeSegments@@YAXPAUsplinePath_s@@@Z 40053b40 f   bg_misc1.obj
 0001:00052d50       ?BG_CreateRotationMatrix@@YAXQBMQAY02M@Z 40053d50 f   bg_misc1.obj
 0001:00052d80       ?BG_DuplicateWeapon@@YA?AW4weapon_t@@W41@@Z 40053d80 f   bg_misc1.obj
 0001:00052e10       ?BG_EvaluateTrajectory@@YAXPBUtrajectory_t@@HQAMW4qboolean@@H@Z 40053e10 f   bg_misc1.obj
 0001:00053cc0       ?BG_EvaluateTrajectoryDelta@@YAXPBUtrajectory_t@@HQAMW4qboolean@@H@Z 40054cc0 f   bg_misc1.obj
 0001:00054010       ?BG_FindAmmoForWeapon@@YA?AW4weapon_t@@W41@@Z 40055010 f   bg_misc1.obj
 0001:00054050       ?BG_FindClipForWeapon@@YA?AW4weapon_t@@W41@@Z 40055050 f   bg_misc1.obj
 0001:00054090       ?BG_FindItem@@YAPAUgitem_s@@PBD@Z 40055090 f   bg_misc1.obj
 0001:000540e0       ?BG_FindItemForAmmo@@YAPAUgitem_s@@H@Z 400550e0 f   bg_misc1.obj
 0001:00054150       ?BG_FindItemForClassName@@YAPAUgitem_s@@PBD@Z 40055150 f   bg_misc1.obj
 0001:000541a0       ?BG_FindItemForWeapon@@YAPAUgitem_s@@W4weapon_t@@@Z 400551a0 f   bg_misc1.obj
 0001:000541f0       ?BG_Find_PathCorner@@YAPAUpathCorner_t@@PBD@Z 400551f0 f   bg_misc1.obj
 0001:00054250       ?BG_Find_Spline@@YAPAUsplinePath_s@@PBD@Z 40055250 f   bg_misc1.obj
 0001:000542b0       ?BG_FootstepForSurface@@YAHH@Z 400552b0 f   bg_misc1.obj
 0001:00054360       ?BG_GetLocationString@@YAPADPAM@Z 40055360 f   bg_misc1.obj
 0001:000543f0       ?BG_GetMarkDir@@YAXQBM0QAM@Z 400553f0 f   bg_misc1.obj
 0001:00054680       ?BG_GetSplineData@@YAPAUsplinePath_s@@HPAW4qboolean@@@Z 40055680 f   bg_misc1.obj
 0001:000546c0       ?BG_GrenadeTypeForTeam@@YA?AW4weapon_t@@W4team_t@@@Z 400556c0 f   bg_misc1.obj
 0001:000546f0       ?BG_GrenadesForClass@@YAHHPAH@Z 400556f0 f   bg_misc1.obj
 0001:00054800       ?BG_InitLocations@@YAXQAM0@Z 40055800 f   bg_misc1.obj
 0001:00054930       ?BG_IsAkimboSideArm@@YA?AW4qboolean@@HPAUplayerState_s@@@Z 40055930 f   bg_misc1.obj
 0001:00054990       ?BG_IsAkimboWeapon@@YA?AW4qboolean@@H@Z 40055990 f   bg_misc1.obj
 0001:000549c0       ?BG_IsScopedWeapon@@YA?AW4qboolean@@H@Z 400559c0 f   bg_misc1.obj
 0001:000549f0       ?BG_LinearPathOrigin2@@YAXMPAPAUsplinePath_s@@PAMQAMW4qboolean@@@Z 400559f0 f   bg_misc1.obj
 0001:00054d10       ?BG_MaxAmmoForWeapon@@YAHW4weapon_t@@PAH@Z 40055d10 f   bg_misc1.obj
 0001:00054e90       ?BG_PlayerStateToEntityState@@YAXPAUplayerState_s@@PAUentityState_s@@HW4qboolean@@@Z 40055e90 f   bg_misc1.obj
 0001:00055340       ?BG_PlayerStateToEntityStateExtraPolate@@YAXPAUplayerState_s@@PAUentityState_s@@HW4qboolean@@@Z 40056340 f   bg_misc1.obj
 0001:000557f0       ?BG_PlayerTouchesItem@@YA?AW4qboolean@@PAUplayerState_s@@PAUentityState_s@@H@Z 400567f0 f   bg_misc1.obj
 0001:00055890       ?BG_RaySphereIntersection@@YA?AW4qboolean@@MQAMPAUsplineSegment_t@@PAM2@Z 40056890 f   bg_misc1.obj
 0001:000559d0       ?BG_RotatePoint@@YAXQAMQAY02$$CBM@Z 400569d0 f   bg_misc1.obj
 0001:00055a70       ?BG_SplineLength@@YAMPAUsplinePath_s@@@Z 40056a70 f   bg_misc1.obj
 0001:00055be0       ?BG_TransposeMatrix@@YAXQAY02$$CBMQAY02M@Z 40056be0 f   bg_misc1.obj
 0001:00055c30       ?BG_TraverseSpline@@YA?AW4qboolean@@PAMPAPAUsplinePath_s@@@Z 40056c30 f   bg_misc1.obj
 0001:00055d40       ?BG_ValidStatWeapon@@YAPAUgitem_s@@W4weapon_t@@@Z 40056d40 f   bg_misc1.obj
 0001:00055de0       ?BG_WeaponForMOD@@YA?AW4weapon_t@@H@Z 40056de0 f   bg_misc1.obj
 0001:00055e10       ?BG_WeaponInWolfMP@@YA?AW4qboolean@@H@Z 40056e10 f   bg_misc1.obj
 0001:00055ea0       ?BG_cleanName@@YAHPBDPADHW4qboolean@@@Z 40056ea0 f   bg_misc1.obj
 0001:00055f20       ?BG_colorstrncpyz@@YAHPAD0HH@Z 40056f20 f   bg_misc1.obj
 0001:00055fc0       ?BG_drawStrlen@@YAHPBD@Z   40056fc0 f   bg_misc1.obj
 0001:00056010       ?BG_isLightWeaponSupportingFastReload@@YA?AW4qboolean@@H@Z 40057010 f   bg_misc1.obj
 0001:00056060       ?BG_setCrosshair@@YAXPADPAMM0@Z 40057060 f   bg_misc1.obj
 0001:000563d0       ?BG_simpleHintsCollapse@@YAHHH@Z 400573d0 f   bg_misc1.obj
 0001:00056490       ?BG_simpleHintsExpand@@YAHHH@Z 40057490 f   bg_misc1.obj
 0001:00056510       ?BG_simpleWeaponState@@YAHH@Z 40057510 f   bg_misc1.obj
 0001:00056580       ?BG_strRelPos@@YAHPADH@Z   40057580 f   bg_misc1.obj
 0001:000565e0       ?PC_Color_Parse@@YA?AW4qboolean@@HPAY03M@Z 400575e0 f   bg_misc1.obj
 0001:00056640       ?PC_Float_Parse@@YA?AW4qboolean@@HPAM@Z 40057640 f   bg_misc1.obj
 0001:00056700       ?PC_Int_Parse@@YA?AW4qboolean@@HPAH@Z 40057700 f   bg_misc1.obj
 0001:000567b0       ?PC_SourceError@@YAXHPADZZ 400577b0 f   bg_misc1.obj
 0001:00056830       ?PC_SourceWarning@@YAXHPADZZ 40057830 f   bg_misc1.obj
 0001:000568b0       ?PC_String_Parse@@YA?AW4qboolean@@HPAPBD@Z 400578b0 f   bg_misc1.obj
 0001:00056900       ?PC_String_ParseNoAlloc@@YA?AW4qboolean@@HPADI@Z 40057900 f   bg_misc1.obj
 0001:00056960       ?PC_Vec_Parse@@YA?AW4qboolean@@HPAY02M@Z 40057960 f   bg_misc1.obj
 0001:000569c0       ?Q_vsnprintf@@YAHPADHPBD0@Z 400579c0 f   bg_misc1.obj
 0001:00056a20       ??0ColorManipulator@text@@QAE@E@Z 40057a20 f   base:Manipulator.obj
 0001:00056a50       ??0Manipulator@text@@QAE@E@Z 40057a50 f   base:Manipulator.obj
 0001:00056a70       ??1ColorManipulator@text@@UAE@XZ 40057a70 f   base:Manipulator.obj
 0001:00056a80       ??1Manipulator@text@@UAE@XZ 40057a80 f   base:Manipulator.obj
 0001:00056a90       ??4ColorManipulator@text@@QAEAAV01@ABV01@@Z 40057a90 f   base:Manipulator.obj
 0001:00056ab0       ??_EColorManipulator@text@@UAEPAXI@Z 40057ab0 f i base:Manipulator.obj
 0001:00056ab0       ??_GColorManipulator@text@@UAEPAXI@Z 40057ab0 f i base:Manipulator.obj
 0001:00056ae0       ??_EManipulator@text@@UAEPAXI@Z 40057ae0 f i base:Manipulator.obj
 0001:00056ae0       ??_GManipulator@text@@UAEPAXI@Z 40057ae0 f i base:Manipulator.obj
 0001:00056b10       ??$?6U?$char_traits@D@std@@@std@@YAAAV?$basic_ostream@DU?$char_traits@D@std@@@0@AAV10@E@Z 40057b10 f i base:InlineText.obj
 0001:00056b20       ??0InlineText@text@@QAE@ABV01@@Z 40057b20 f   base:InlineText.obj
 0001:00056cd0       ??0InlineText@text@@QAE@ABV?$basic_string@DU?$char_traits@D@std@@V?$allocator@D@2@@std@@@Z 40057cd0 f   base:InlineText.obj
 0001:00056e80       ??0InlineText@text@@QAE@ABVColorManipulator@1@@Z 40057e80 f   base:InlineText.obj
 0001:00056fe0       ??0InlineText@text@@QAE@D@Z 40057fe0 f   base:InlineText.obj
 0001:00057190       ??0InlineText@text@@QAE@E@Z 40058190 f   base:InlineText.obj
 0001:00057340       ??0InlineText@text@@QAE@F@Z 40058340 f   base:InlineText.obj
 0001:000574f0       ??0InlineText@text@@QAE@G@Z 400584f0 f   base:InlineText.obj
 0001:000576a0       ??0InlineText@text@@QAE@H@Z 400586a0 f   base:InlineText.obj
 0001:00057850       ??0InlineText@text@@QAE@I@Z 40058850 f   base:InlineText.obj
 0001:00057a00       ??0InlineText@text@@QAE@M@Z 40058a00 f   base:InlineText.obj
 0001:00057bc0       ??0InlineText@text@@QAE@N@Z 40058bc0 f   base:InlineText.obj
 0001:00057d80       ??0InlineText@text@@QAE@PBD@Z 40058d80 f   base:InlineText.obj
 0001:00057f30       ??0InlineText@text@@QAE@PBX@Z 40058f30 f   base:InlineText.obj
 0001:000580e0       ??0InlineText@text@@QAE@XZ 400590e0 f   base:InlineText.obj
 0001:00058240       ??0InlineText@text@@QAE@_J@Z 40059240 f   base:InlineText.obj
 0001:000583f0       ??0InlineText@text@@QAE@_K@Z 400593f0 f   base:InlineText.obj
 0001:000585a0       ??0InlineText@text@@QAE@_N@Z 400595a0 f   base:InlineText.obj
 0001:00058750       ??0InlineVec3@text@@QAE@ABV01@@Z 40059750 f   base:InlineText.obj
 0001:000587c0       ??0InlineVec3@text@@QAE@PBM@Z 400597c0 f   base:InlineText.obj
 0001:00058890       ??0InlineVec3@text@@QAE@XZ 40059890 f   base:InlineText.obj
 0001:00058950       ??1InlineText@text@@QAE@XZ 40059950 f   base:InlineText.obj
 0001:00058b90       ??1InlineVec3@text@@QAE@XZ 40059b90 f   base:InlineText.obj
 0001:00058ba0       ??4InlineText@text@@QAEAAV01@ABV01@@Z 40059ba0 f   base:InlineText.obj
 0001:00058d00       ??6?$basic_ostream@DU?$char_traits@D@std@@@std@@QAEAAV01@F@Z 40059d00 f i base:InlineText.obj
 0001:00058f50       ??6?$basic_ostream@DU?$char_traits@D@std@@@std@@QAEAAV01@G@Z 40059f50 f i base:InlineText.obj
 0001:00059180       ??6?$basic_ostream@DU?$char_traits@D@std@@@std@@QAEAAV01@PBX@Z 4005a180 f i base:InlineText.obj
 0001:000593a0       ??6?$basic_ostream@DU?$char_traits@D@std@@@std@@QAEAAV01@_J@Z 4005a3a0 f i base:InlineText.obj
 0001:000595d0       ??6?$basic_ostream@DU?$char_traits@D@std@@@std@@QAEAAV01@_K@Z 4005a5d0 f i base:InlineText.obj
 0001:00059800       ??6?$basic_ostream@DU?$char_traits@D@std@@@std@@QAEAAV01@_N@Z 4005a800 f i base:InlineText.obj
 0001:00059a20       ??RInlineText@text@@QAEAAV01@ABV?$basic_string@DU?$char_traits@D@std@@V?$allocator@D@2@@std@@@Z 4005aa20 f   base:InlineText.obj
 0001:00059a40       ??RInlineText@text@@QAEAAV01@D@Z 4005aa40 f   base:InlineText.obj
 0001:00059b50       ??RInlineText@text@@QAEAAV01@E@Z 4005ab50 f   base:InlineText.obj
 0001:00059c60       ??RInlineText@text@@QAEAAV01@F@Z 4005ac60 f   base:InlineText.obj
 0001:00059d60       ??RInlineText@text@@QAEAAV01@G@Z 4005ad60 f   base:InlineText.obj
 0001:00059e60       ??RInlineText@text@@QAEAAV01@H@Z 4005ae60 f   base:InlineText.obj
 0001:00059f60       ??RInlineText@text@@QAEAAV01@I@Z 4005af60 f   base:InlineText.obj
 0001:0005a060       ??RInlineText@text@@QAEAAV01@M@Z 4005b060 f   base:InlineText.obj
 0001:0005a1c0       ??RInlineText@text@@QAEAAV01@N@Z 4005b1c0 f   base:InlineText.obj
 0001:0005a320       ??RInlineText@text@@QAEAAV01@PBD@Z 4005b320 f   base:InlineText.obj
 0001:0005a420       ??RInlineText@text@@QAEAAV01@PBX@Z 4005b420 f   base:InlineText.obj
 0001:0005a530       ??RInlineText@text@@QAEAAV01@_J@Z 4005b530 f   base:InlineText.obj
 0001:0005a640       ??RInlineText@text@@QAEAAV01@_K@Z 4005b640 f   base:InlineText.obj
 0001:0005a750       ??RInlineText@text@@QAEAAV01@_N@Z 4005b750 f   base:InlineText.obj
 0001:0005a850       ??RInlineVec3@text@@QAEAAV01@PBM@Z 4005b850 f   base:InlineText.obj
 0001:0005aad0       ?_Makestr@_System_error@std@@CA?AV?$basic_string@DU?$char_traits@D@std@@V?$allocator@D@2@@2@Verror_code@2@V32@@Z 4005bad0 f i base:InlineText.obj
 0001:0005ac90       ?_Tidy@?$basic_stringbuf@DU?$char_traits@D@std@@V?$allocator@D@2@@std@@IAEXXZ 4005bc90 f i base:InlineText.obj
 0001:0005ad90       ?compute@InlineText@text@@AAEXABV?$basic_string@DU?$char_traits@D@std@@V?$allocator@D@2@@std@@@Z 4005bd90 f   base:InlineText.obj
 0001:0005b09e       _GetSystemInfo@4           4005c09e f   kernel32:KERNEL32.dll
 0001:0005b0a4       ??0bad_alloc@std@@QAE@XZ   4005c0a4 f i libcpmt:xthrow.obj
 0001:0005b0c9       ??0bad_function_call@std@@QAE@ABV01@@Z 4005c0c9 f i libcpmt:xthrow.obj
 0001:0005b0ea       ??0bad_function_call@std@@QAE@XZ 4005c0ea f i libcpmt:xthrow.obj
 0001:0005b106       ??0exception@std@@QAE@QBD@Z 4005c106 f i libcpmt:xthrow.obj
 0001:0005b14f       ??0exception@std@@QAE@QBDH@Z 4005c14f f i libcpmt:xthrow.obj
 0001:0005b17a       ??0exception@std@@QAE@XZ   4005c17a f i libcpmt:xthrow.obj
 0001:0005b196       ??0invalid_argument@std@@QAE@ABV01@@Z 4005c196 f i libcpmt:xthrow.obj
 0001:0005b1b7       ??0invalid_argument@std@@QAE@PBD@Z 4005c1b7 f i libcpmt:xthrow.obj
 0001:0005b1dd       ??0length_error@std@@QAE@ABV01@@Z 4005c1dd f i libcpmt:xthrow.obj
 0001:0005b1fe       ??0length_error@std@@QAE@PBD@Z 4005c1fe f i libcpmt:xthrow.obj
 0001:0005b224       ??0logic_error@std@@QAE@ABV01@@Z 4005c224 f i libcpmt:xthrow.obj
 0001:0005b245       ??0logic_error@std@@QAE@PBD@Z 4005c245 f i libcpmt:xthrow.obj
 0001:0005b26b       ??0out_of_range@std@@QAE@ABV01@@Z 4005c26b f i libcpmt:xthrow.obj
 0001:0005b28c       ??0out_of_range@std@@QAE@PBD@Z 4005c28c f i libcpmt:xthrow.obj
 0001:0005b2b2       ??0overflow_error@std@@QAE@ABV01@@Z 4005c2b2 f i libcpmt:xthrow.obj
 0001:0005b2d3       ??0overflow_error@std@@QAE@PBD@Z 4005c2d3 f i libcpmt:xthrow.obj
 0001:0005b2f9       ??0regex_error@std@@QAE@ABV01@@Z 4005c2f9 f i libcpmt:xthrow.obj
 0001:0005b326       ??0regex_error@std@@QAE@W4error_type@regex_constants@1@@Z 4005c326 f i libcpmt:xthrow.obj
 0001:0005b35f       ??0runtime_error@std@@QAE@PBD@Z 4005c35f f i libcpmt:xthrow.obj
 0001:0005b385       ??1bad_alloc@std@@UAE@XZ   4005c385 f i libcpmt:xthrow.obj
 0001:0005b39a       ??1bad_function_call@std@@UAE@XZ 4005c39a f i libcpmt:xthrow.obj
 0001:0005b3af       ??1invalid_argument@std@@UAE@XZ 4005c3af f i libcpmt:xthrow.obj
 0001:0005b3c4       ??1length_error@std@@UAE@XZ 4005c3c4 f i libcpmt:xthrow.obj
 0001:0005b3d9       ??1logic_error@std@@UAE@XZ 4005c3d9 f i libcpmt:xthrow.obj
 0001:0005b3ee       ??1out_of_range@std@@UAE@XZ 4005c3ee f i libcpmt:xthrow.obj
 0001:0005b403       ??1overflow_error@std@@UAE@XZ 4005c403 f i libcpmt:xthrow.obj
 0001:0005b418       ??1regex_error@std@@UAE@XZ 4005c418 f i libcpmt:xthrow.obj
 0001:0005b42d       ??1runtime_error@std@@UAE@XZ 4005c42d f i libcpmt:xthrow.obj
 0001:0005b442       ??_Ebad_function_call@std@@UAEPAXI@Z 4005c442 f i libcpmt:xthrow.obj
 0001:0005b442       ??_Gbad_function_call@std@@UAEPAXI@Z 4005c442 f i libcpmt:xthrow.obj
 0001:0005b47a       ??_Einvalid_argument@std@@UAEPAXI@Z 4005c47a f i libcpmt:xthrow.obj
 0001:0005b47a       ??_Ginvalid_argument@std@@UAEPAXI@Z 4005c47a f i libcpmt:xthrow.obj
 0001:0005b4b2       ??_Elength_error@std@@UAEPAXI@Z 4005c4b2 f i libcpmt:xthrow.obj
 0001:0005b4b2       ??_Glength_error@std@@UAEPAXI@Z 4005c4b2 f i libcpmt:xthrow.obj
 0001:0005b4ea       ??_Elogic_error@std@@UAEPAXI@Z 4005c4ea f i libcpmt:xthrow.obj
 0001:0005b4ea       ??_Glogic_error@std@@UAEPAXI@Z 4005c4ea f i libcpmt:xthrow.obj
 0001:0005b522       ??_Eout_of_range@std@@UAEPAXI@Z 4005c522 f i libcpmt:xthrow.obj
 0001:0005b522       ??_Gout_of_range@std@@UAEPAXI@Z 4005c522 f i libcpmt:xthrow.obj
 0001:0005b55a       ??_Eoverflow_error@std@@UAEPAXI@Z 4005c55a f i libcpmt:xthrow.obj
 0001:0005b55a       ??_Goverflow_error@std@@UAEPAXI@Z 4005c55a f i libcpmt:xthrow.obj
 0001:0005b592       ??_Eregex_error@std@@UAEPAXI@Z 4005c592 f i libcpmt:xthrow.obj
 0001:0005b592       ??_Gregex_error@std@@UAEPAXI@Z 4005c592 f i libcpmt:xthrow.obj
 0001:0005b5ca       ?_Stringify@regex_error@std@@CAPBDW4error_type@regex_constants@2@@Z 4005c5ca f i libcpmt:xthrow.obj
 0001:0005b6ba       ?_Xbad_alloc@std@@YAXXZ    4005c6ba f   libcpmt:xthrow.obj
 0001:0005b6de       ?_Xbad_function_call@std@@YAXXZ 4005c6de f   libcpmt:xthrow.obj
 0001:0005b702       ?_Xinvalid_argument@std@@YAXPBD@Z 4005c702 f   libcpmt:xthrow.obj
 0001:0005b72a       ?_Xlength_error@std@@YAXPBD@Z 4005c72a f   libcpmt:xthrow.obj
 0001:0005b752       ?_Xout_of_range@std@@YAXPBD@Z 4005c752 f   libcpmt:xthrow.obj
 0001:0005b77a       ?_Xoverflow_error@std@@YAXPBD@Z 4005c77a f   libcpmt:xthrow.obj
 0001:0005b7a2       ?_Xregex_error@std@@YAXW4error_type@regex_constants@1@@Z 4005c7a2 f   libcpmt:xthrow.obj
 0001:0005b7ca       ?_Xruntime_error@std@@YAXPBD@Z 4005c7ca f   libcpmt:xthrow.obj
 0001:0005b7f2       ?what@bad_function_call@std@@UBEPBDXZ 4005c7f2 f i libcpmt:xthrow.obj
 0001:0005b7f8       ??0_Init_locks@std@@QAE@XZ 4005c7f8 f   libcpmt:xlock.obj
 0001:0005b830       ??0_Lockit@std@@QAE@H@Z    4005c830 f   libcpmt:xlock.obj
 0001:0005b86d       ??0_Lockit@std@@QAE@XZ     4005c86d f   libcpmt:xlock.obj
 0001:0005b883       ??1_Init_locks@std@@QAE@XZ 4005c883 f   libcpmt:xlock.obj
 0001:0005b8b3       ??1_Lockit@std@@QAE@XZ     4005c8b3 f   libcpmt:xlock.obj
 0001:0005b8d9       ?_Init_locks_ctor@_Init_locks@std@@CAXPAV12@@Z 4005c8d9 f   libcpmt:xlock.obj
 0001:0005b909       ?_Init_locks_dtor@_Init_locks@std@@CAXPAV12@@Z 4005c909 f   libcpmt:xlock.obj
 0001:0005b939       ?_Lockit_ctor@_Lockit@std@@CAXPAV12@@Z 4005c939 f   libcpmt:xlock.obj
 0001:0005b948       ?_Lockit_ctor@_Lockit@std@@CAXPAV12@H@Z 4005c948 f   libcpmt:xlock.obj
 0001:0005b97b       ?_Lockit_ctor@_Lockit@std@@SAXH@Z 4005c97b f   libcpmt:xlock.obj
 0001:0005b9a8       ?_Lockit_dtor@_Lockit@std@@CAXPAV12@@Z 4005c9a8 f   libcpmt:xlock.obj
 0001:0005b9c4       ?_Lockit_dtor@_Lockit@std@@SAXH@Z 4005c9c4 f   libcpmt:xlock.obj
 0001:0005b9f1       ?uncaught_exception@std@@YA_NXZ 4005c9f1 f   libcpmt:uncaught_exception.obj
 0001:0005b9f6       ?_Syserror_map@std@@YAPBDH@Z 4005c9f6 f   libcpmt:syserror.obj
 0001:0005ba24       ?_Winerror_map@std@@YAHH@Z 4005ca24 f   libcpmt:syserror.obj
 0001:0005ba4e       ?_Winerror_message@std@@YAKKPADK@Z 4005ca4e f   libcpmt:syserror.obj
 0001:0005ba7e       ??0?$_Yarn@D@std@@QAE@PBD@Z 4005ca7e f i libcpmt:locale0.obj
 0001:0005baa4       ??0_Fac_node@std@@QAE@PAU01@PAV_Facet_base@1@@Z 4005caa4 f i libcpmt:locale0.obj
 0001:0005babd       ??0_Facet_base@std@@QAE@XZ 4005cabd f i libcpmt:locale0.obj
 0001:0005bac8       ??0_Locimp@locale@std@@AAE@ABV012@@Z 4005cac8 f i libcpmt:locale0.obj
 0001:0005bb4c       ??0_Locimp@locale@std@@AAE@_N@Z 4005cb4c f i libcpmt:locale0.obj
 0001:0005bb9d       ??0facet@locale@std@@IAE@I@Z 4005cb9d f i libcpmt:locale0.obj
 0001:0005bbb7       ??0id@locale@std@@QAE@I@Z  4005cbb7 f i libcpmt:locale0.obj
 0001:0005bbc8       ??0locale@std@@AAE@U_Secret_locale_construct_tag@01@PAV_Locimp@01@@Z 4005cbc8 f i libcpmt:locale0.obj
 0001:0005bbda       ??0locale@std@@QAE@W4_Uninitialized@1@@Z 4005cbda f i libcpmt:locale0.obj
 0001:0005bbdf       ??1_Fac_node@std@@QAE@XZ   4005cbdf f i libcpmt:locale0.obj
 0001:0005bc1c       ??1_Fac_tidy_reg_t@std@@QAE@XZ 4005cc1c f i libcpmt:locale0.obj
 0001:0005bc49       ??1_Locimp@locale@std@@MAE@XZ 4005cc49 f i libcpmt:locale0.obj
 0001:0005bc71       ??2@YAPAXIPAX@Z            4005cc71 f i libcpmt:locale0.obj
 0001:0005bc7b       ??2_Fac_node@std@@SAPAXI@Z 4005cc7b f i libcpmt:locale0.obj
 0001:0005bca1       ??3_Fac_node@std@@SAXPAX@Z 4005cca1 f i libcpmt:locale0.obj
 0001:0005bca6       ??4?$_Yarn@D@std@@QAEAAV01@PBD@Z 4005cca6 f i libcpmt:locale0.obj
 0001:0005bd01       ??_G_Fac_node@std@@QAEPAXI@Z 4005cd01 f i libcpmt:locale0.obj
 0001:0005bd3d       ??_E_Locimp@locale@std@@MAEPAXI@Z 4005cd3d f i libcpmt:locale0.obj
 0001:0005bd3d       ??_G_Locimp@locale@std@@MAEPAXI@Z 4005cd3d f i libcpmt:locale0.obj
 0001:0005bd67       ?_C_str@?$_Yarn@D@std@@QBEPBDXZ 4005cd67 f i libcpmt:locale0.obj
 0001:0005bd73       ?_Empty@?$_Yarn@D@std@@QBE_NXZ 4005cd73 f i libcpmt:locale0.obj
 0001:0005bd7a       ?_Facet_Register@std@@YAXPAV_Facet_base@1@@Z 4005cd7a f   libcpmt:locale0.obj
 0001:0005bdb2       ?_Getgloballocale@locale@std@@CAPAV_Locimp@12@XZ 4005cdb2 f   libcpmt:locale0.obj
 0001:0005bdb8       ?_Init@locale@std@@CAPAV_Locimp@12@_N@Z 4005cdb8 f   libcpmt:locale0.obj
 0001:0005be68       ?_Locimp_dtor@_Locimp@locale@std@@CAXPAV123@@Z 4005ce68 f   libcpmt:locale0.obj
 0001:0005bef5       ?_Locinfo_ctor@_Locinfo@std@@SAXPAV12@PBD@Z 4005cef5 f   libcpmt:locale0.obj
 0001:0005bf54       ?_Locinfo_dtor@_Locinfo@std@@SAXPAV12@@Z 4005cf54 f   libcpmt:locale0.obj
 0001:0005bf74       ?_New_Locimp@_Locimp@locale@std@@CAPAV123@ABV123@@Z 4005cf74 f   libcpmt:locale0.obj
 0001:0005bfb0       ?_New_Locimp@_Locimp@locale@std@@CAPAV123@_N@Z 4005cfb0 f   libcpmt:locale0.obj
 0001:0005bfdb       ?_Setgloballocale@locale@std@@CAXPAX@Z 4005cfdb f   libcpmt:locale0.obj
 0001:0005c00d       ?_Tidy@?$_Yarn@D@std@@AAEXXZ 4005d00d f i libcpmt:locale0.obj
 0001:0005c02b       ?__empty_global_delete@@YAXPAX@Z 4005d02b f i libcpmt:locale0.obj
 0001:0005c02e       ?__empty_global_delete@@YAXPAXI@Z 4005d02e f i libcpmt:locale0.obj
 0001:0005c02e       ?__global_delete@@YAXPAXI@Z 4005d02e f i libcpmt:locale0.obj
 0001:0005c031       ?__empty_global_delete@@YAXPAXIW4align_val_t@std@@@Z 4005d031 f i libcpmt:locale0.obj
 0001:0005c034       ?__empty_global_delete@@YAXPAXW4align_val_t@std@@@Z 4005d034 f i libcpmt:locale0.obj
 0001:0005c037       ?c_str@?$_Yarn@D@std@@QBEPBDXZ 4005d037 f i libcpmt:locale0.obj
 0001:0005c043       ?classic@locale@std@@SAABV12@XZ 4005d043 f   libcpmt:locale0.obj
 0001:0005c05f       ?empty@locale@std@@SA?AV12@XZ 4005d05f f   libcpmt:locale0.obj
 0001:0005c084       __Deletegloballocale       4005d084 f   libcpmt:locale0.obj
 0001:0005c105       __Getctype                 4005d105 f   libcpmt:_tolower.obj
 0001:0005c18e       __Tolower                  4005d18e f   libcpmt:_tolower.obj
 0001:0005c2b5       __Getcvt                   4005d2b5 f   libcpmt:xwctomb.obj
 0001:0005c344       __Wcrtomb                  4005d344 f   libcpmt:xwctomb.obj
 0001:0005c3b7       ___Wcrtomb_lk              4005d3b7 f   libcpmt:xwctomb.obj
 0001:0005c3c2       __Toupper                  4005d3c2 f   libcpmt:_toupper.obj
 0001:0005c4e9       ??_Glocale@std@@QAEPAXI@Z  4005d4e9 f i libcpmt:ios.obj
 0001:0005c513       ?_Addstd@ios_base@std@@SAXPAV12@@Z 4005d513 f   libcpmt:ios.obj
 0001:0005c572       ?_Callfns@ios_base@std@@AAEXW4event@12@@Z 4005d572 f i libcpmt:ios.obj
 0001:0005c5b1       ?_Ios_base_dtor@ios_base@std@@CAXPAV12@@Z 4005d5b1 f   libcpmt:ios.obj
 0001:0005c601       ?_Tidy@ios_base@std@@AAEXXZ 4005d601 f i libcpmt:ios.obj
 0001:0005c6a2       ??0?$_Smanip@H@std@@QAE@P6AXAAVios_base@1@H@ZH@Z 4005d6a2 f i libcpmt:iomanip.obj
 0001:0005c6bb       ??0?$_Smanip@_J@std@@QAE@P6AXAAVios_base@1@_J@Z1@Z 4005d6bb f i libcpmt:iomanip.obj
 0001:0005c6db       ?precision@ios_base@std@@QAE_J_J@Z 4005d6db f i libcpmt:iomanip.obj
 0001:0005c6ff       ?resetiosflags@std@@YA?AU?$_Smanip@H@1@H@Z 4005d6ff f   libcpmt:iomanip.obj
 0001:0005c775       ?setbase@std@@YA?AU?$_Smanip@H@1@H@Z 4005d775 f   libcpmt:iomanip.obj
 0001:0005c78e       ?setf@ios_base@std@@QAEHHH@Z 4005d78e f i libcpmt:iomanip.obj
 0001:0005c7bc       ?setiosflags@std@@YA?AU?$_Smanip@H@1@H@Z 4005d7bc f   libcpmt:iomanip.obj
 0001:0005c7d5       ?setprecision@std@@YA?AU?$_Smanip@_J@1@_J@Z 4005d7d5 f   libcpmt:iomanip.obj
 0001:0005c7f5       ?setw@std@@YA?AU?$_Smanip@_J@1@_J@Z 4005d7f5 f   libcpmt:iomanip.obj
 0001:0005c867       ?width@ios_base@std@@QAE_J_J@Z 4005d867 f i libcpmt:iomanip.obj
 0001:0005c88b       __Mtxdst                   4005d88b f   libcpmt:xmtx.obj
 0001:0005c89c       __Mtxinit                  4005d89c f   libcpmt:xmtx.obj
 0001:0005c8b6       __Mtxlock                  4005d8b6 f   libcpmt:xmtx.obj
 0001:0005c8c7       __Mtxunlock                4005d8c7 f   libcpmt:xmtx.obj
 0001:0005c8e9       ___std_get_string_size_without_trailing_whitespace@8 4005d8e9 f   libcpmt:syserror_import_lib.obj
 0001:0005c916       ___std_system_error_allocate_message@8 4005d916 f   libcpmt:syserror_import_lib.obj
 0001:0005c9ae       ___std_system_error_deallocate_message@4 4005d9ae f   libcpmt:syserror_import_lib.obj
 0001:0005c9b4       ??$?0$$V@?$_Compressed_pair@V?$allocator@D@std@@V?$_String_val@U?$_Simple_types@D@std@@@2@$00@std@@QAE@U_Zero_then_variadic_args_t@1@@Z 4005d9b4 f i libcpmt:locale.obj
 0001:0005c9d8       ??$?0AAPAV_Facet_base@std@@@?$_Compressed_pair@U?$default_delete@V_Facet_base@std@@@std@@PAV_Facet_base@2@$00@std@@QAE@U_Zero_then_variadic_args_t@1@AAPAV_Facet_base@1@@Z 4005d9d8 f i libcpmt:locale.obj
 0001:0005c9ec       ??$?0U?$default_delete@V_Facet_base@std@@@std@@$0A@@?$unique_ptr@V_Facet_base@std@@U?$default_delete@V_Facet_base@std@@@2@@std@@QAE@PAV_Facet_base@1@@Z 4005d9ec f i libcpmt:locale.obj
 0001:0005c9fd       ??$?8DU?$char_traits@D@std@@@std@@YA_NABV?$istreambuf_iterator@DU?$char_traits@D@std@@@0@0@Z 4005d9fd f i libcpmt:locale.obj
 0001:0005ca11       ??$_Adl_verify_range@PADPAD@std@@YAXABQAD0@Z 4005da11 f i libcpmt:locale.obj
 0001:0005ca14       ??$_Adl_verify_range@PADPBD@std@@YAXABQADABQBD@Z 4005da14 f i libcpmt:locale.obj
 0001:0005ca17       ??$_Adl_verify_range@PBDPBD@std@@YAXABQBD0@Z 4005da17 f i libcpmt:locale.obj
 0001:0005ca1a       ??$_Adl_verify_range@V?$istreambuf_iterator@DU?$char_traits@D@std@@@std@@V12@@std@@YAXABV?$istreambuf_iterator@DU?$char_traits@D@std@@@0@0@Z 4005da1a f i libcpmt:locale.obj
 0001:0005ca1d       ??$_Allocate@$07U_Default_allocate_traits@std@@@std@@YAPAXI@Z 4005da1d f i libcpmt:locale.obj
 0001:0005ca48       ??$_Allocate_at_least_helper@V?$allocator@D@std@@@std@@YAPADAAV?$allocator@D@0@AAI@Z 4005da48 f i libcpmt:locale.obj
 0001:0005ca5c       ??$_Allocate_for_capacity@$0A@@?$basic_string@DU?$char_traits@D@std@@V?$allocator@D@2@@std@@CAPADAAV?$allocator@D@1@AAI@Z 4005da5c f i libcpmt:locale.obj
 0001:0005ca77       ??$_Append@D@?$basic_string@DU?$char_traits@D@std@@V?$allocator@D@2@@std@@AAEAAV01@QBDI@Z 4005da77 f i libcpmt:locale.obj
 0001:0005caf4       ??$_Construct@$0A@D@?$basic_string@DU?$char_traits@D@std@@V?$allocator@D@2@@std@@AAEXDI@Z 4005daf4 f i libcpmt:locale.obj
 0001:0005cb9b       ??$_Construct_in_place@PADAAPAD@std@@YAXAAPAD0@Z 4005db9b f i libcpmt:locale.obj
 0001:0005cbad       ??$_Construct_in_place@PADABQAD@std@@YAXAAPADABQAD@Z 4005dbad f i libcpmt:locale.obj
 0001:0005cbbf       ??$_Convert_size@II@std@@YAII@Z 4005dbbf f i libcpmt:locale.obj
 0001:0005cbc9       ??$_Could_compare_equal_to_value_type@PBDD@std@@YA_NABD@Z 4005dbc9 f i libcpmt:locale.obj
 0001:0005cbcc       ??$_Deallocate@$07@std@@YAXPAXI@Z 4005dbcc f i libcpmt:locale.obj
 0001:0005cc03       ??$_Destroy_in_place@PAD@std@@YAXAAPAD@Z 4005dc03 f i libcpmt:locale.obj
 0001:0005cc06       ??$_Find_elem@D$0BL@@std@@YAIAAY0BL@$$CBDD@Z 4005dc06 f i libcpmt:locale.obj
 0001:0005cc25       ??$_Find_elem@D$0BN@@std@@YAIAAY0BN@$$CBDD@Z 4005dc25 f i libcpmt:locale.obj
 0001:0005cc44       ??$_Find_unchecked@PBDD@std@@YAPBDPBDQBDABD@Z 4005dc44 f i libcpmt:locale.obj
 0001:0005cc67       ??$_Find_vectorized@$$CBDD@std@@YAPBDQBD0D@Z 4005dc67 f i libcpmt:locale.obj
 0001:0005cc7e       ??$_Get_index@$0A@@id@locale@std@@QAEIXZ 4005dc7e f i libcpmt:locale.obj
 0001:0005ccc0       ??$_Get_proxy_allocator@V?$allocator@D@std@@@std@@YA?AU_Fake_allocator@0@ABV?$allocator@D@0@@Z 4005dcc0 f i libcpmt:locale.obj
 0001:0005ccc3       ??$_Get_size_of_n@$00@std@@YAII@Z 4005dcc3 f i libcpmt:locale.obj
 0001:0005cccd       ??$_Get_unwrapped@ABQAD@std@@YA?A_TABQAD@Z 4005dccd f i libcpmt:locale.obj
 0001:0005ccd9       ??$_Getloctxt@V?$istreambuf_iterator@DU?$char_traits@D@std@@@std@@D@std@@YAHAAV?$istreambuf_iterator@DU?$char_traits@D@std@@@0@0IPBDW4_Case_sensitive@0@@Z 4005dcd9 f i libcpmt:locale.obj
 0001:0005cf91       ??$_Max_limit@H@std@@YAHXZ 4005df91 f i libcpmt:locale.obj
 0001:0005cf97       ??$_Parse_fp_with_locale@$0A@@?$num_get@DV?$istreambuf_iterator@DU?$char_traits@D@std@@@std@@@std@@CA?AU_Num_get_parse_result@1@QADHAAV?$istreambuf_iterator@DU?$char_traits@D@std@@@1@1ABVlocale@1@@Z 4005df97 f i libcpmt:locale.obj
 0001:0005da96       ??$_Parse_int_with_locale@$0A@@?$num_get@DV?$istreambuf_iterator@DU?$char_traits@D@std@@@std@@@std@@CA?AU_Num_get_parse_result@1@QADAAV?$istreambuf_iterator@DU?$char_traits@D@std@@@1@1HABVlocale@1@@Z 4005ea96 f i libcpmt:locale.obj
 0001:0005dfd8       ??$_Pocma@V?$allocator@D@std@@@std@@YAXAAV?$allocator@D@0@0@Z 4005efd8 f i libcpmt:locale.obj
 0001:0005dfdb       ??$_Reallocate_grow_by@V<lambda_1>@?1???$_Append@D@?$basic_string@DU?$char_traits@D@std@@V?$allocator@D@2@@std@@AAEAAV23@QBDI@Z@PBDI@?$basic_string@DU?$char_traits@D@std@@V?$allocator@D@2@@std@@AAEAAV01@IV<lambda_1>@?1???$_Append@D@01@AAEAAV01@QBDI@Z@PBDI@Z 4005efdb f i libcpmt:locale.obj
 0001:0005e09f       ??$_Reallocate_grow_by@V<lambda_1>@?1??append@?$basic_string@DU?$char_traits@D@std@@V?$allocator@D@2@@std@@QAEAAV34@ID@Z@ID@?$basic_string@DU?$char_traits@D@std@@V?$allocator@D@2@@std@@AAEAAV01@IV<lambda_1>@?1??append@01@QAEAAV01@ID@Z@ID@Z 4005f09f f i libcpmt:locale.obj
 0001:0005e163       ??$_Reallocate_grow_by@V<lambda_1>@?1??insert@?$basic_string@DU?$char_traits@D@std@@V?$allocator@D@2@@std@@QAEAAV34@IID@Z@IID@?$basic_string@DU?$char_traits@D@std@@V?$allocator@D@2@@std@@AAEAAV01@IV<lambda_1>@?1??insert@01@QAEAAV01@IID@Z@IID@Z 4005f163 f i libcpmt:locale.obj
 0001:0005e22b       ??$_Reallocate_grow_by@V<lambda_1>@?1??push_back@?$basic_string@DU?$char_traits@D@std@@V?$allocator@D@2@@std@@QAEXD@Z@D@?$basic_string@DU?$char_traits@D@std@@V?$allocator@D@2@@std@@AAEAAV01@IV<lambda_1>@?1??push_back@01@QAEXD@Z@D@Z 4005f22b f i libcpmt:locale.obj
 0001:0005e313       ??$_Reverse_vectorized@$00@std@@YAXPAX0@Z 4005f313 f i libcpmt:locale.obj
 0001:0005e318       ??$_To_address@PAD@std@@YA?A_PABQAD@Z 4005f318 f i libcpmt:locale.obj
 0001:0005e324       ??$_To_address@PBD@std@@YA?A_PABQBD@Z 4005f324 f i libcpmt:locale.obj
 0001:0005e330       ??$_Traits_copy_batch@U?$char_traits@D@std@@D@std@@YAXQADQBDI@Z 4005f330 f i libcpmt:locale.obj
 0001:0005e335       ??$_Traits_move_batch@U?$char_traits@D@std@@D@std@@YAXQADQBDI@Z 4005f335 f i libcpmt:locale.obj
 0001:0005e33a       ??$_Unfancy@D@std@@YAPADPAD@Z 4005f33a f i libcpmt:locale.obj
 0001:0005e344       ??$addressof@PAD@std@@YAPAPADAAPAD@Z 4005f344 f i libcpmt:locale.obj
 0001:0005e34e       ??$addressof@V?$basic_string@DU?$char_traits@D@std@@V?$allocator@D@2@@std@@@std@@YAPAV?$basic_string@DU?$char_traits@D@std@@V?$allocator@D@2@@0@AAV10@@Z 4005f34e f i libcpmt:locale.obj
 0001:0005e358       ??$begin@$$CBD$0BL@@std@@YAPBDAAY0BL@$$CBD@Z 4005f358 f i libcpmt:locale.obj
 0001:0005e362       ??$begin@$$CBD$0BN@@std@@YAPBDAAY0BN@$$CBD@Z 4005f362 f i libcpmt:locale.obj
 0001:0005e36c       ??$construct_at@D$$V@std@@YAPADQAD@Z 4005f36c f i libcpmt:locale.obj
 0001:0005e379       ??$construct_at@PADAAPAD@std@@YAPAPADQAPADAAPAD@Z 4005f379 f i libcpmt:locale.obj
 0001:0005e38b       ??$construct_at@PADABQAD@std@@YAPAPADQAPADABQAD@Z 4005f38b f i libcpmt:locale.obj
 0001:0005e39d       ??$end@$$CBD$0BL@@std@@YAPBDAAY0BL@$$CBD@Z 4005f39d f i libcpmt:locale.obj
 0001:0005e3aa       ??$end@$$CBD$0BN@@std@@YAPBDAAY0BN@$$CBD@Z 4005f3aa f i libcpmt:locale.obj
 0001:0005e3b7       ??$exchange@PAV_Facet_base@std@@$$T@std@@YAPAV_Facet_base@0@AAPAV10@$$QA$$T@Z 4005f3b7 f i libcpmt:locale.obj
 0001:0005e3cc       ??$forward@AAPAD@std@@YAAAPADAAPAD@Z 4005f3cc f i libcpmt:locale.obj
 0001:0005e3d6       ??$forward@AAPAV_Facet_base@std@@@std@@YAAAPAV_Facet_base@0@AAPAV10@@Z 4005f3d6 f i libcpmt:locale.obj
 0001:0005e3e0       ??$forward@ABQAD@std@@YAABQADABQAD@Z 4005f3e0 f i libcpmt:locale.obj
 0001:0005e3ea       ??$isfinite@N@@YA_NN@Z     4005f3ea f i libcpmt:locale.obj
 0001:0005e40a       ??$isfinite@O@@YA_NO@Z     4005f40a f i libcpmt:locale.obj
 0001:0005e42a       ??$max@I@std@@YAABIABI0@Z  4005f42a f i libcpmt:locale.obj
 0001:0005e440       ??$min@H@std@@YAABHABH0@Z  4005f440 f i libcpmt:locale.obj
 0001:0005e456       ??$min@I@std@@YAABIABI0@Z  4005f456 f i libcpmt:locale.obj
 0001:0005e46c       ??$move@AAD@std@@YA$$QADAAD@Z 4005f46c f i libcpmt:locale.obj
 0001:0005e476       ??$move@AAV?$allocator@D@std@@@std@@YA$$QAV?$allocator@D@0@AAV10@@Z 4005f476 f i libcpmt:locale.obj
 0001:0005e480       ??$move@AAV?$basic_string@DU?$char_traits@D@std@@V?$allocator@D@2@@std@@@std@@YA$$QAV?$basic_string@DU?$char_traits@D@std@@V?$allocator@D@2@@0@AAV10@@Z 4005f480 f i libcpmt:locale.obj
 0001:0005e48a       ??$reverse@PAD@std@@YAXQAD0@Z 4005f48a f i libcpmt:locale.obj
 0001:0005e48f       ??$swap@D$0A@@std@@YAXAAD0@Z 4005f48f f i libcpmt:locale.obj
 0001:0005e4a9       ??$to_address@$$CBD@std@@YAPBDQBD@Z 4005f4a9 f i libcpmt:locale.obj
 0001:0005e4b3       ??$to_address@D@std@@YAPADQAD@Z 4005f4b3 f i libcpmt:locale.obj
 0001:0005e4bd       ??$use_facet@V?$codecvt@DDU_Mbstatet@@@std@@@std@@YAABV?$codecvt@DDU_Mbstatet@@@0@ABVlocale@0@@Z 4005f4bd f i libcpmt:locale.obj
 0001:0005e57b       ??$use_facet@V?$num_get@DV?$istreambuf_iterator@DU?$char_traits@D@std@@@std@@@std@@@std@@YAABV?$num_get@DV?$istreambuf_iterator@DU?$char_traits@D@std@@@std@@@0@ABVlocale@0@@Z 4005f57b f i libcpmt:locale.obj
 0001:0005e639       ??0?$_String_val@U?$_Simple_types@D@std@@@std@@QAE@XZ 4005f639 f i libcpmt:locale.obj
 0001:0005e65a       ??0?$_Yarn@D@std@@QAE@XZ   4005f65a f i libcpmt:locale.obj
 0001:0005e66a       ??0?$_Yarn@_W@std@@QAE@XZ  4005f66a f i libcpmt:locale.obj
 0001:0005e67c       ??0?$allocator@D@std@@QAE@XZ 4005f67c f i libcpmt:locale.obj
 0001:0005e67f       ??0?$basic_string@DU?$char_traits@D@std@@V?$allocator@D@2@@std@@QAE@XZ 4005f67f f i libcpmt:locale.obj
 0001:0005e6a4       ??0?$codecvt@DDU_Mbstatet@@@std@@QAE@ABV_Locinfo@1@I@Z 4005f6a4 f i libcpmt:locale.obj
 0001:0005e6c3       ??0?$ctype@D@std@@QAE@ABV_Locinfo@1@I@Z 4005f6c3 f i libcpmt:locale.obj
 0001:0005e706       ??0?$num_get@DV?$istreambuf_iterator@DU?$char_traits@D@std@@@std@@@std@@QAE@ABV_Locinfo@1@I@Z 4005f706 f i libcpmt:locale.obj
 0001:0005e725       ??0?$num_put@DV?$ostreambuf_iterator@DU?$char_traits@D@std@@@std@@@std@@QAE@ABV_Locinfo@1@I@Z 4005f725 f i libcpmt:locale.obj
 0001:0005e744       ??0?$numpunct@D@std@@QAE@ABV_Locinfo@1@I_N@Z 4005f744 f i libcpmt:locale.obj
 0001:0005e78b       ??0_Bxty@?$_String_val@U?$_Simple_types@D@std@@@std@@QAE@XZ 4005f78b f i libcpmt:locale.obj
 0001:0005e79b       ??0_Fake_proxy_ptr_impl@std@@QAE@ABU_Fake_allocator@1@ABU_Container_base0@1@@Z 4005f79b f i libcpmt:locale.obj
 0001:0005e7a0       ??0bad_alloc@std@@AAE@QBD@Z 4005f7a0 f i libcpmt:locale.obj
 0001:0005e7cb       ??0bad_cast@std@@QAE@XZ    4005f7cb f i libcpmt:locale.obj
 0001:0005e7f0       ??0codecvt_base@std@@QAE@I@Z 4005f7f0 f i libcpmt:locale.obj
 0001:0005e80a       ??0ctype_base@std@@QAE@I@Z 4005f80a f i libcpmt:locale.obj
 0001:0005e824       ??0locale@std@@QAE@ABV01@@Z 4005f824 f i libcpmt:locale.obj
 0001:0005e859       ??0locale@std@@QAE@XZ      4005f859 f i libcpmt:locale.obj
 0001:0005e8af       ??1?$_Compressed_pair@V?$allocator@D@std@@V?$_String_val@U?$_Simple_types@D@std@@@2@$00@std@@QAE@XZ 4005f8af f i libcpmt:locale.obj
 0001:0005e8b2       ??1?$_String_val@U?$_Simple_types@D@std@@@std@@QAE@XZ 4005f8b2 f i libcpmt:locale.obj
 0001:0005e8b5       ??1?$codecvt@DDU_Mbstatet@@@std@@MAE@XZ 4005f8b5 f i libcpmt:locale.obj
 0001:0005e8bc       ??1?$num_get@DV?$istreambuf_iterator@DU?$char_traits@D@std@@@std@@@std@@MAE@XZ 4005f8bc f i libcpmt:locale.obj
 0001:0005e8c3       ??1_Bxty@?$_String_val@U?$_Simple_types@D@std@@@std@@QAE@XZ 4005f8c3 f i libcpmt:locale.obj
 0001:0005e8c6       ??1codecvt_base@std@@UAE@XZ 4005f8c6 f i libcpmt:locale.obj
 0001:0005e8cd       ??4?$basic_string@DU?$char_traits@D@std@@V?$allocator@D@2@@std@@QAEAAV01@$$QAV01@@Z 4005f8cd f i libcpmt:locale.obj
 0001:0005e8f6       ??4?$ostreambuf_iterator@DU?$char_traits@D@std@@@std@@QAEAAV01@D@Z 4005f8f6 f i libcpmt:locale.obj
 0001:0005e923       ??A?$basic_string@DU?$char_traits@D@std@@V?$allocator@D@2@@std@@QAEAADI@Z 4005f923 f i libcpmt:locale.obj
 0001:0005e93c       ??A?$basic_string@DU?$char_traits@D@std@@V?$allocator@D@2@@std@@QBEABDI@Z 4005f93c f i libcpmt:locale.obj
 0001:0005e955       ??D?$istreambuf_iterator@DU?$char_traits@D@std@@@std@@QBEDXZ 4005f955 f i libcpmt:locale.obj
 0001:0005e96c       ??D?$ostreambuf_iterator@DU?$char_traits@D@std@@@std@@QAEAAV01@XZ 4005f96c f i libcpmt:locale.obj
 0001:0005e96f       ??E?$istreambuf_iterator@DU?$char_traits@D@std@@@std@@QAEAAV01@XZ 4005f96f f i libcpmt:locale.obj
 0001:0005e97e       ??E?$ostreambuf_iterator@DU?$char_traits@D@std@@@std@@QAEAAV01@XZ 4005f97e f i libcpmt:locale.obj
 0001:0005e981       ??R<lambda_1>@?1???$_Append@D@?$basic_string@DU?$char_traits@D@std@@V?$allocator@D@2@@std@@AAEAAV12@QBDI@Z@SA@QAD0I0I@Z 4005f981 f i libcpmt:locale.obj
 0001:0005e9bb       ??R<lambda_1>@?1??append@?$basic_string@DU?$char_traits@D@std@@V?$allocator@D@2@@std@@QAEAAV23@ID@Z@SA@QADQBDIID@Z 4005f9bb f i libcpmt:locale.obj
 0001:0005e9f8       ??R<lambda_1>@?1??insert@?$basic_string@DU?$char_traits@D@std@@V?$allocator@D@2@@std@@QAEAAV23@IID@Z@SA@QADQBDIIID@Z 4005f9f8 f i libcpmt:locale.obj
 0001:0005ea50       ??R<lambda_1>@?1??push_back@?$basic_string@DU?$char_traits@D@std@@V?$allocator@D@2@@std@@QAEXD@Z@SA@QADQBDID@Z 4005fa50 f i libcpmt:locale.obj
 0001:0005ea80       ??R?$default_delete@V_Facet_base@std@@@std@@QBEXPAV_Facet_base@1@@Z 4005fa80 f i libcpmt:locale.obj
 0001:0005eaad       ??Y?$basic_string@DU?$char_traits@D@std@@V?$allocator@D@2@@std@@QAEAAV01@ABV01@@Z 4005faad f i libcpmt:locale.obj
 0001:0005eab8       ??_E?$codecvt@DDU_Mbstatet@@@std@@MAEPAXI@Z 4005fab8 f i libcpmt:locale.obj
 0001:0005eab8       ??_G?$codecvt@DDU_Mbstatet@@@std@@MAEPAXI@Z 4005fab8 f i libcpmt:locale.obj
 0001:0005eae3       ??_E?$num_get@DV?$istreambuf_iterator@DU?$char_traits@D@std@@@std@@@std@@MAEPAXI@Z 4005fae3 f i libcpmt:locale.obj
 0001:0005eae3       ??_G?$num_get@DV?$istreambuf_iterator@DU?$char_traits@D@std@@@std@@@std@@MAEPAXI@Z 4005fae3 f i libcpmt:locale.obj
 0001:0005eb0e       ??_Ecodecvt_base@std@@UAEPAXI@Z 4005fb0e f i libcpmt:locale.obj
 0001:0005eb0e       ??_Gcodecvt_base@std@@UAEPAXI@Z 4005fb0e f i libcpmt:locale.obj
 0001:0005eb39       ?_Activate_SSO_buffer@?$_String_val@U?$_Simple_types@D@std@@@std@@QAEXXZ 4005fb39 f i libcpmt:locale.obj
 0001:0005eb3c       ?_Addfac@_Locimp@locale@std@@AAEXPAVfacet@23@I@Z 4005fb3c f i libcpmt:locale.obj
 0001:0005eb57       ?_Adjust_manually_vector_aligned@std@@YAXAAPAXAAI@Z 4005fb57 f i libcpmt:locale.obj
 0001:0005eb84       ?_Alloc_proxy@_Container_base0@std@@QAEXABU_Fake_allocator@2@@Z 4005fb84 f i libcpmt:locale.obj
 0001:0005eb87       ?_Allocate@_Default_allocate_traits@std@@SAPAXI@Z 4005fb87 f i libcpmt:locale.obj
 0001:0005eb92       ?_Apply_annotation@?$basic_string@DU?$char_traits@D@std@@V?$allocator@D@2@@std@@CAXQBDIII@Z 4005fb92 f i libcpmt:locale.obj
 0001:0005ebed       ?_C_str@locale@std@@QBEPBDXZ 4005fbed f i libcpmt:locale.obj
 0001:0005ec0b       ?_Calculate_growth@?$basic_string@DU?$char_traits@D@std@@V?$allocator@D@2@@std@@ABEII@Z 4005fc0b f i libcpmt:locale.obj
 0001:0005ec2b       ?_Calculate_growth@?$basic_string@DU?$char_traits@D@std@@V?$allocator@D@2@@std@@CAIIII@Z 4005fc2b f i libcpmt:locale.obj
 0001:0005ec68       ?_Check_offset@?$_String_val@U?$_Simple_types@D@std@@@std@@QBEXI@Z 4005fc68 f i libcpmt:locale.obj
 0001:0005ec82       ?_Clamp_to_end@_Asan_aligned_pointers@std@@QBEPBXPBX@Z 4005fc82 f i libcpmt:locale.obj
 0001:0005ec97       ?_Construct_empty@?$basic_string@DU?$char_traits@D@std@@V?$allocator@D@2@@std@@AAEXXZ 4005fc97 f i libcpmt:locale.obj
 0001:0005ecad       ?_Create_annotation@?$basic_string@DU?$char_traits@D@std@@V?$allocator@D@2@@std@@ABEXXZ 4005fcad f i libcpmt:locale.obj
 0001:0005eccd       ?_Deallocate_for_capacity@?$basic_string@DU?$char_traits@D@std@@V?$allocator@D@2@@std@@CAXAAV?$allocator@D@2@QADI@Z 4005fccd f i libcpmt:locale.obj
 0001:0005ece6       ?_Eos@?$basic_string@DU?$char_traits@D@std@@V?$allocator@D@2@@std@@AAEXI@Z 4005fce6 f i libcpmt:locale.obj
 0001:0005ed18       ?_Get_asan_aligned_after@std@@YAPBXQBX@Z 4005fd18 f i libcpmt:locale.obj
 0001:0005ed29       ?_Get_first@?$_Compressed_pair@U?$default_delete@V_Facet_base@std@@@std@@PAV_Facet_base@2@$00@std@@QAEAAU?$default_delete@V_Facet_base@std@@@2@XZ 4005fd29 f i libcpmt:locale.obj
 0001:0005ed2c       ?_Get_first@?$_Compressed_pair@V?$allocator@D@std@@V?$_String_val@U?$_Simple_types@D@std@@@2@$00@std@@QAEAAV?$allocator@D@2@XZ 4005fd2c f i libcpmt:locale.obj
 0001:0005ed2f       ?_Get_first@?$_Compressed_pair@V?$allocator@D@std@@V?$_String_val@U?$_Simple_types@D@std@@@2@$00@std@@QBEABV?$allocator@D@2@XZ 4005fd2f f i libcpmt:locale.obj
 0001:0005ed32       ?_Getal@?$basic_string@DU?$char_traits@D@std@@V?$allocator@D@2@@std@@AAEAAV?$allocator@D@2@XZ 4005fd32 f i libcpmt:locale.obj
 0001:0005ed35       ?_Getal@?$basic_string@DU?$char_traits@D@std@@V?$allocator@D@2@@std@@ABEABV?$allocator@D@2@XZ 4005fd35 f i libcpmt:locale.obj
 0001:0005ed38       ?_Getcat@?$codecvt@DDU_Mbstatet@@@std@@SAIPAPBVfacet@locale@2@PBV42@@Z 4005fd38 f i libcpmt:locale.obj
 0001:0005edbd       ?_Getcat@?$ctype@D@std@@SAIPAPBVfacet@locale@2@PBV42@@Z 4005fdbd f i libcpmt:locale.obj
 0001:0005ee3c       ?_Getcat@?$num_get@DV?$istreambuf_iterator@DU?$char_traits@D@std@@@std@@@std@@SAIPAPBVfacet@locale@2@PBV42@@Z 4005fe3c f i libcpmt:locale.obj
 0001:0005eec1       ?_Getcat@?$num_put@DV?$ostreambuf_iterator@DU?$char_traits@D@std@@@std@@@std@@SAIPAPBVfacet@locale@2@PBV42@@Z 4005fec1 f i libcpmt:locale.obj
 0001:0005ef46       ?_Getcat@?$numpunct@D@std@@SAIPAPBVfacet@locale@2@PBV42@@Z 4005ff46 f i libcpmt:locale.obj
 0001:0005efce       ?_Getctype@_Locinfo@std@@QBE?AU_Ctypevec@@XZ 4005ffce f i libcpmt:locale.obj
 0001:0005eff9       ?_Getcvt@_Locinfo@std@@QBE?AU_Cvtvec@@XZ 4005fff9 f i libcpmt:locale.obj
 0001:0005f026       ?_Getfacet@locale@std@@QBEPBVfacet@12@I@Z 40060026 f i libcpmt:locale.obj
 0001:0005f077       ?_Getfalse@_Locinfo@std@@QBEPBDXZ 40060077 f i libcpmt:locale.obj
 0001:0005f07d       ?_Getlconv@_Locinfo@std@@QBEPBUlconv@@XZ 4006007d f i libcpmt:locale.obj
 0001:0005f082       ?_Getname@_Locinfo@std@@QBEPBDXZ 40060082 f i libcpmt:locale.obj
 0001:0005f08f       ?_Gettrue@_Locinfo@std@@QBEPBDXZ 4006008f f i libcpmt:locale.obj
 0001:0005f095       ?_Gnavail@?$basic_streambuf@DU?$char_traits@D@std@@@std@@IBE_JXZ 40060095 f i libcpmt:locale.obj
 0001:0005f0ab       ?_Gninc@?$basic_streambuf@DU?$char_traits@D@std@@@std@@IAEPADXZ 400600ab f i libcpmt:locale.obj
 0001:0005f0bf       ?_Ifmt@?$num_put@DV?$ostreambuf_iterator@DU?$char_traits@D@std@@@std@@@std@@ABAPADPADPBDH@Z 400600bf f i libcpmt:locale.obj
 0001:0005f151       ?_Inc@?$istreambuf_iterator@DU?$char_traits@D@std@@@std@@AAEXXZ 40060151 f i libcpmt:locale.obj
 0001:0005f17e       ?_Init@?$codecvt@DDU_Mbstatet@@@std@@IAEXABV_Locinfo@2@@Z 4006017e f i libcpmt:locale.obj
 0001:0005f181       ?_Init@?$ctype@D@std@@IAEXABV_Locinfo@2@@Z 40060181 f i libcpmt:locale.obj
 0001:0005f1ac       ?_Init@?$num_get@DV?$istreambuf_iterator@DU?$char_traits@D@std@@@std@@@std@@IAEXABV_Locinfo@2@@Z 400601ac f i libcpmt:locale.obj
 0001:0005f1af       ?_Init@?$num_put@DV?$ostreambuf_iterator@DU?$char_traits@D@std@@@std@@@std@@IAEXABV_Locinfo@2@@Z 400601af f i libcpmt:locale.obj
 0001:0005f1b2       ?_Init@?$numpunct@D@std@@IAEXABV_Locinfo@2@_N@Z 400601b2 f i libcpmt:locale.obj
 0001:0005f27a       ?_Large_mode_engaged@?$_String_val@U?$_Simple_types@D@std@@@std@@QBE_NXZ 4006027a f i libcpmt:locale.obj
 0001:0005f284       ?_Locimp_Addfac@_Locimp@locale@std@@CAXPAV123@PAVfacet@23@I@Z 40060284 f   libcpmt:locale.obj
 0001:0005f38b       ?_Locimp_ctor@_Locimp@locale@std@@CAXPAV123@ABV123@@Z 4006038b f   libcpmt:locale.obj
 0001:0005f473       ?_Locinfo_Addcats@_Locinfo@std@@SAAAV12@PAV12@HPBD@Z 40060473 f   libcpmt:locale.obj
 0001:0005f52e       ?_Locinfo_ctor@_Locinfo@std@@SAXPAV12@HPBD@Z 4006052e f   libcpmt:locale.obj
 0001:0005f572       ?_Makeloc@_Locimp@locale@std@@CAPAV123@ABV_Locinfo@3@HPAV123@PBV23@@Z 40060572 f   libcpmt:locale.obj
 0001:0005f7e8       ?_Modify_annotation@?$basic_string@DU?$char_traits@D@std@@V?$allocator@D@2@@std@@ABEXII@Z 400607e8 f i libcpmt:locale.obj
 0001:0005f818       ?_Myptr@?$_String_val@U?$_Simple_types@D@std@@@std@@QAEPADXZ 40060818 f i libcpmt:locale.obj
 0001:0005f825       ?_Myptr@?$_String_val@U?$_Simple_types@D@std@@@std@@QBEPBDXZ 40060825 f i libcpmt:locale.obj
 0001:0005f832       ?_Orphan_all@_Container_base0@std@@QAEXXZ 40060832 f i libcpmt:locale.obj
 0001:0005f835       ?_Peek@?$istreambuf_iterator@DU?$char_traits@D@std@@@std@@ABEDXZ 40060835 f i libcpmt:locale.obj
 0001:0005f865       ?_Pnavail@?$basic_streambuf@DU?$char_traits@D@std@@@std@@IBE_JXZ 40060865 f i libcpmt:locale.obj
 0001:0005f87b       ?_Pninc@?$basic_streambuf@DU?$char_traits@D@std@@@std@@IAEPADXZ 4006087b f i libcpmt:locale.obj
 0001:0005f88f       ?_Release@_Fake_proxy_ptr_impl@std@@QAEXXZ 4006088f f i libcpmt:locale.obj
 0001:0005f892       ?_Remove_annotation@?$basic_string@DU?$char_traits@D@std@@V?$allocator@D@2@@std@@ABEXXZ 40060892 f i libcpmt:locale.obj
 0001:0005f8b2       ?_Stodx_v3@std@@YANPBDPAPADPAH@Z 400608b2 f i libcpmt:locale.obj
 0001:0005f8eb       ?_Stofx_v3@std@@YAMPBDPAPADPAH@Z 400608eb f i libcpmt:locale.obj
 0001:0005f92d       ?_Swap_proxy_and_iterators@?$basic_string@DU?$char_traits@D@std@@V?$allocator@D@2@@std@@AAEXAAV12@@Z 4006092d f i libcpmt:locale.obj
 0001:0005f930       ?_Swap_proxy_and_iterators@_Container_base0@std@@QAEXAAU12@@Z 40060930 f i libcpmt:locale.obj
 0001:0005f933       ?_Switch_to_buf@_Bxty@?$_String_val@U?$_Simple_types@D@std@@@std@@QAEXXZ 40060933 f i libcpmt:locale.obj
 0001:0005f936       ?_Take_contents@?$basic_string@DU?$char_traits@D@std@@V?$allocator@D@2@@std@@AAEXAAV12@@Z 40060936 f i libcpmt:locale.obj
 0001:0005f990       ?_Throw_bad_cast@std@@YAXXZ 40060990 f i libcpmt:locale.obj
 0001:0005f9b4       ?_Tidy@?$_Yarn@_W@std@@AAEXXZ 400609b4 f i libcpmt:locale.obj
 0001:0005f9d2       ?_Tidy@?$ctype@D@std@@IAEXXZ 400609d2 f i libcpmt:locale.obj
 0001:0005fa06       ?_Tidy@?$numpunct@D@std@@AAEXXZ 40060a06 f i libcpmt:locale.obj
 0001:0005fa2e       ?allocate@?$allocator@D@std@@QAEPADI@Z 40060a2e f i libcpmt:locale.obj
 0001:0005fa42       ?assign@?$_Char_traits@DH@std@@SAPADQADID@Z 40060a42 f i libcpmt:locale.obj
 0001:0005fa71       ?assign@?$_Narrow_char_traits@DH@std@@SAPADQADID@Z 40060a71 f i libcpmt:locale.obj
 0001:0005fa8f       ?assign@?$_Narrow_char_traits@DH@std@@SAXAADABD@Z 40060a8f f i libcpmt:locale.obj
 0001:0005faa1       ?assign@?$basic_string@DU?$char_traits@D@std@@V?$allocator@D@2@@std@@QAEAAV12@$$QAV12@@Z 40060aa1 f i libcpmt:locale.obj
 0001:0005fabb       ?c_str@?$basic_string@DU?$char_traits@D@std@@V?$allocator@D@2@@std@@QBEPBDXZ 40060abb f i libcpmt:locale.obj
 0001:0005fac8       ?copy@?$_Char_traits@DH@std@@SAPADQADQBDI@Z 40060ac8 f i libcpmt:locale.obj
 0001:0005fae7       ?data@?$basic_string@DU?$char_traits@D@std@@V?$allocator@D@2@@std@@QBEPBDXZ 40060ae7 f i libcpmt:locale.obj
 0001:0005faf4       ?decimal_point@?$numpunct@D@std@@QBEDXZ 40060af4 f i libcpmt:locale.obj
 0001:0005fb12       ?do_always_noconv@?$codecvt@DDU_Mbstatet@@@std@@MBE_NXZ 40060b12 f i libcpmt:locale.obj
 0001:0005fb15       ?do_always_noconv@codecvt_base@std@@MBE_NXZ 40060b15 f i libcpmt:locale.obj
 0001:0005fb18       ?do_encoding@codecvt_base@std@@MBEHXZ 40060b18 f i libcpmt:locale.obj
 0001:0005fb1c       ?do_get@?$num_get@DV?$istreambuf_iterator@DU?$char_traits@D@std@@@std@@@std@@MBE?AV?$istreambuf_iterator@DU?$char_traits@D@std@@@2@V32@0AAVios_base@2@AAHAAG@Z 40060b1c f i libcpmt:locale.obj
 0001:0005fc53       ?do_get@?$num_get@DV?$istreambuf_iterator@DU?$char_traits@D@std@@@std@@@std@@MBE?AV?$istreambuf_iterator@DU?$char_traits@D@std@@@2@V32@0AAVios_base@2@AAHAAI@Z 40060c53 f i libcpmt:locale.obj
 0001:0005fca3       ?do_get@?$num_get@DV?$istreambuf_iterator@DU?$char_traits@D@std@@@std@@@std@@MBE?AV?$istreambuf_iterator@DU?$char_traits@D@std@@@2@V32@0AAVios_base@2@AAHAAJ@Z 40060ca3 f i libcpmt:locale.obj
 0001:0005fdaa       ?do_get@?$num_get@DV?$istreambuf_iterator@DU?$char_traits@D@std@@@std@@@std@@MBE?AV?$istreambuf_iterator@DU?$char_traits@D@std@@@2@V32@0AAVios_base@2@AAHAAK@Z 40060daa f i libcpmt:locale.obj
 0001:0005feb1       ?do_get@?$num_get@DV?$istreambuf_iterator@DU?$char_traits@D@std@@@std@@@std@@MBE?AV?$istreambuf_iterator@DU?$char_traits@D@std@@@2@V32@0AAVios_base@2@AAHAAM@Z 40060eb1 f i libcpmt:locale.obj
 0001:0005ffdd       ?do_get@?$num_get@DV?$istreambuf_iterator@DU?$char_traits@D@std@@@std@@@std@@MBE?AV?$istreambuf_iterator@DU?$char_traits@D@std@@@2@V32@0AAVios_base@2@AAHAAN@Z 40060fdd f i libcpmt:locale.obj
 0001:0006010a       ?do_get@?$num_get@DV?$istreambuf_iterator@DU?$char_traits@D@std@@@std@@@std@@MBE?AV?$istreambuf_iterator@DU?$char_traits@D@std@@@2@V32@0AAVios_base@2@AAHAAO@Z 4006110a f i libcpmt:locale.obj
 0001:0006015c       ?do_get@?$num_get@DV?$istreambuf_iterator@DU?$char_traits@D@std@@@std@@@std@@MBE?AV?$istreambuf_iterator@DU?$char_traits@D@std@@@2@V32@0AAVios_base@2@AAHAAPAX@Z 4006115c f i libcpmt:locale.obj
 0001:00060263       ?do_get@?$num_get@DV?$istreambuf_iterator@DU?$char_traits@D@std@@@std@@@std@@MBE?AV?$istreambuf_iterator@DU?$char_traits@D@std@@@2@V32@0AAVios_base@2@AAHAA_J@Z 40061263 f i libcpmt:locale.obj
 0001:00060371       ?do_get@?$num_get@DV?$istreambuf_iterator@DU?$char_traits@D@std@@@std@@@std@@MBE?AV?$istreambuf_iterator@DU?$char_traits@D@std@@@2@V32@0AAVios_base@2@AAHAA_K@Z 40061371 f i libcpmt:locale.obj
 0001:0006047f       ?do_get@?$num_get@DV?$istreambuf_iterator@DU?$char_traits@D@std@@@std@@@std@@MBE?AV?$istreambuf_iterator@DU?$char_traits@D@std@@@2@V32@0AAVios_base@2@AAHAA_N@Z 4006147f f i libcpmt:locale.obj
 0001:000606fc       ?do_in@?$codecvt@DDU_Mbstatet@@@std@@MBEHAAU_Mbstatet@@PBD1AAPBDPAD3AAPAD@Z 400616fc f i libcpmt:locale.obj
 0001:0006071c       ?do_length@?$codecvt@DDU_Mbstatet@@@std@@MBEHAAU_Mbstatet@@PBD1I@Z 4006171c f i libcpmt:locale.obj
 0001:00060736       ?do_max_length@codecvt_base@std@@MBEHXZ 40061736 f i libcpmt:locale.obj
 0001:0006073a       ?do_out@?$codecvt@DDU_Mbstatet@@@std@@MBEHAAU_Mbstatet@@PBD1AAPBDPAD3AAPAD@Z 4006173a f i libcpmt:locale.obj
 0001:0006075a       ?do_unshift@?$codecvt@DDU_Mbstatet@@@std@@MBEHAAU_Mbstatet@@PAD1AAPAD@Z 4006175a f i libcpmt:locale.obj
 0001:00060770       ?empty@?$basic_string@DU?$char_traits@D@std@@V?$allocator@D@2@@std@@QBE_NXZ 40061770 f i libcpmt:locale.obj
 0001:0006077a       ?eof@?$_Narrow_char_traits@DH@std@@SAHXZ 4006177a f i libcpmt:locale.obj
 0001:0006077e       ?eq_int_type@?$_Narrow_char_traits@DH@std@@SA_NHH@Z 4006177e f i libcpmt:locale.obj
 0001:0006078f       ?equal@?$istreambuf_iterator@DU?$char_traits@D@std@@@std@@QBE_NABV12@@Z 4006178f f i libcpmt:locale.obj
 0001:000607d7       ?falsename@?$numpunct@D@std@@QBE?AV?$basic_string@DU?$char_traits@D@std@@V?$allocator@D@2@@2@XZ 400617d7 f i libcpmt:locale.obj
 0001:00060805       ?flags@ios_base@std@@QBEHXZ 40061805 f i libcpmt:locale.obj
 0001:00060809       ?fpclassify@@YAHN@Z        40061809 f i libcpmt:locale.obj
 0001:00060823       ?fpclassify@@YAHO@Z        40061823 f i libcpmt:locale.obj
 0001:0006083d       ?getloc@ios_base@std@@QBE?AVlocale@2@XZ 4006183d f i libcpmt:locale.obj
 0001:00060857       ?global@locale@std@@SA?AV12@ABV12@@Z 40061857 f   libcpmt:locale.obj
 0001:00060979       ?gptr@?$basic_streambuf@DU?$char_traits@D@std@@@std@@IBEPADXZ 40061979 f i libcpmt:locale.obj
 0001:0006097f       ?grouping@?$numpunct@D@std@@QBE?AV?$basic_string@DU?$char_traits@D@std@@V?$allocator@D@2@@2@XZ 4006197f f i libcpmt:locale.obj
 0001:000609ad       ?insert@?$basic_string@DU?$char_traits@D@std@@V?$allocator@D@2@@std@@QAEAAV12@IID@Z 400619ad f i libcpmt:locale.obj
 0001:00060a4d       ?is_constant_evaluated@std@@YA_NXZ 40061a4d f i libcpmt:locale.obj
 0001:00060a50       ?length@?$_Narrow_char_traits@DH@std@@SAIQBD@Z 40061a50 f i libcpmt:locale.obj
 0001:00060a69       ?max_size@?$_Default_allocator_traits@V?$allocator@D@std@@@std@@SAIABV?$allocator@D@2@@Z 40061a69 f i libcpmt:locale.obj
 0001:00060a6d       ?max_size@?$basic_string@DU?$char_traits@D@std@@V?$allocator@D@2@@std@@QBEIXZ 40061a6d f i libcpmt:locale.obj
 0001:00060a73       ?move@?$_Char_traits@DH@std@@SAPADQADQBDI@Z 40061a73 f i libcpmt:locale.obj
 0001:00060a92       ?precision@ios_base@std@@QBE_JXZ 40061a92 f i libcpmt:locale.obj
 0001:00060a99       ?push_back@?$basic_string@DU?$char_traits@D@std@@V?$allocator@D@2@@std@@QAEXD@Z 40061a99 f i libcpmt:locale.obj
 0001:00060af1       ?release@?$unique_ptr@V_Facet_base@std@@U?$default_delete@V_Facet_base@std@@@2@@std@@QAEPAV_Facet_base@2@XZ 40061af1 f i libcpmt:locale.obj
 0001:00060afc       ?sbumpc@?$basic_streambuf@DU?$char_traits@D@std@@@std@@QAEHXZ 40061afc f i libcpmt:locale.obj
 0001:00060b43       ?sgetc@?$basic_streambuf@DU?$char_traits@D@std@@@std@@QAEHXZ 40061b43 f i libcpmt:locale.obj
 0001:00060b7c       ?size@?$basic_string@DU?$char_traits@D@std@@V?$allocator@D@2@@std@@QBEIXZ 40061b7c f i libcpmt:locale.obj
 0001:00060b80       ?sputc@?$basic_streambuf@DU?$char_traits@D@std@@@std@@QAEHD@Z 40061b80 f i libcpmt:locale.obj
 0001:00060be5       ?thousands_sep@?$numpunct@D@std@@QBEDXZ 40061be5 f i libcpmt:locale.obj
 0001:00060c03       ?to_char_type@?$_Narrow_char_traits@DH@std@@SADH@Z 40061c03 f i libcpmt:locale.obj
 0001:00060c0d       ?to_int_type@?$_Narrow_char_traits@DH@std@@SAHD@Z 40061c0d f i libcpmt:locale.obj
 0001:00060c18       ?tolower@?$ctype@D@std@@QBEDD@Z 40061c18 f i libcpmt:locale.obj
 0001:00060c41       ?truename@?$numpunct@D@std@@QBE?AV?$basic_string@DU?$char_traits@D@std@@V?$allocator@D@2@@2@XZ 40061c41 f i libcpmt:locale.obj
 0001:00060c6f       ?widen@?$ctype@D@std@@QBEPBDPBD0PAD@Z 40061c6f f i libcpmt:locale.obj
 0001:00060c9f       ?width@ios_base@std@@QBE_JXZ 40061c9f f i libcpmt:locale.obj
 0001:00060ca6       __vsprintf_s_l             40061ca6 f i libcpmt:locale.obj
 0001:00060cdf       _fabsl                     40061cdf f i libcpmt:locale.obj
 0001:00060d00       _frexpl                    40061d00 f i libcpmt:locale.obj
 0001:00060d23       ??1_Init_atexit@@QAE@XZ    40061d23 f i libcpmt:iosptrs.obj
 0001:00060da5       ?_Atexit@@YAXP6AXXZ@Z      40061da5 f   libcpmt:iosptrs.obj
 0001:00060ddf       ??0?$__crt_scoped_stack_ptr@_W@@QAE@U?$__crt_scoped_stack_ptr_tag@_W@@@Z 40061ddf f i libcpmt:StlLCMapStringA.obj
 0001:00060df0       ??0?$__crt_scoped_stack_ptr_tag@_W@@QAE@QA_W@Z 40061df0 f i libcpmt:StlLCMapStringA.obj
 0001:00060e01       ??1?$__crt_scoped_stack_ptr@_W@@QAE@XZ 40061e01 f i libcpmt:StlLCMapStringA.obj
 0001:00060e20       ??B?$__crt_scoped_stack_ptr@_W@@QBE_NXZ 40061e20 f i libcpmt:StlLCMapStringA.obj
 0001:00060e27       ?get@?$__crt_scoped_stack_ptr@_W@@QBEPA_WXZ 40061e27 f i libcpmt:StlLCMapStringA.obj
 0001:00060e2a       __MallocaComputeSize       40061e2a f i libcpmt:StlLCMapStringA.obj
 0001:00060e3f       __MarkAllocaS              40061e3f f i libcpmt:StlLCMapStringA.obj
 0001:00060e58       ___crtLCMapStringA         40061e58 f   libcpmt:StlLCMapStringA.obj
 0001:0006109c       __freea_crt                4006209c f i libcpmt:StlLCMapStringA.obj
 0001:00092f90       ___std_adjacent_find_1@8   40093f90 f   libcpmt:vector_algorithms.obj
 0001:00092fa0       ___std_adjacent_find_2@8   40093fa0 f   libcpmt:vector_algorithms.obj
 0001:00092fb0       ___std_adjacent_find_4@8   40093fb0 f   libcpmt:vector_algorithms.obj
 0001:00092fc0       ___std_adjacent_find_8@8   40093fc0 f   libcpmt:vector_algorithms.obj
 0001:00092fd0       ___std_bitset_from_string_1@28 40093fd0 f   libcpmt:vector_algorithms.obj
 0001:00093110       ___std_bitset_from_string_2@28 40094110 f   libcpmt:vector_algorithms.obj
 0001:00093260       ___std_bitset_to_string_1@20 40094260 f   libcpmt:vector_algorithms.obj
 0001:00093270       ___std_bitset_to_string_2@20 40094270 f   libcpmt:vector_algorithms.obj
 0001:00093280       ___std_count_trivial_1@12  40094280 f   libcpmt:vector_algorithms.obj
 0001:00093290       ___std_count_trivial_2@12  40094290 f   libcpmt:vector_algorithms.obj
 0001:000932a0       ___std_count_trivial_4@12  400942a0 f   libcpmt:vector_algorithms.obj
 0001:000932b0       ___std_count_trivial_8@16  400942b0 f   libcpmt:vector_algorithms.obj
 0001:000932d0       ___std_find_end_1@16       400942d0 f   libcpmt:vector_algorithms.obj
 0001:000932e0       ___std_find_end_2@16       400942e0 f   libcpmt:vector_algorithms.obj
 0001:000932f0       ___std_find_end_4@16       400942f0 f   libcpmt:vector_algorithms.obj
 0001:00093410       ___std_find_end_8@16       40094410 f   libcpmt:vector_algorithms.obj
 0001:00093550       ___std_find_first_not_of_trivial_pos_1@16 40094550 f   libcpmt:vector_algorithms.obj
 0001:00093610       ___std_find_first_not_of_trivial_pos_2@16 40094610 f   libcpmt:vector_algorithms.obj
 0001:00093620       ___std_find_first_of_trivial_1@16 40094620 f   libcpmt:vector_algorithms.obj
 0001:000936a0       ___std_find_first_of_trivial_2@16 400946a0 f   libcpmt:vector_algorithms.obj
 0001:00093730       ___std_find_first_of_trivial_4@16 40094730 f   libcpmt:vector_algorithms.obj
 0001:000937c0       ___std_find_first_of_trivial_8@16 400947c0 f   libcpmt:vector_algorithms.obj
 0001:00093820       ___std_find_first_of_trivial_pos_1@16 40094820 f   libcpmt:vector_algorithms.obj
 0001:000938e0       ___std_find_first_of_trivial_pos_2@16 400948e0 f   libcpmt:vector_algorithms.obj
 0001:000938f0       ___std_find_first_of_trivial_pos_4@16 400948f0 f   libcpmt:vector_algorithms.obj
 0001:00093900       ___std_find_first_of_trivial_pos_8@16 40094900 f   libcpmt:vector_algorithms.obj
 0001:00093a50       ___std_find_last_not_ch_pos_1@12 40094a50 f   libcpmt:vector_algorithms.obj
 0001:00093a80       ___std_find_last_not_ch_pos_2@12 40094a80 f   libcpmt:vector_algorithms.obj
 0001:00093ab0       ___std_find_last_not_ch_pos_4@12 40094ab0 f   libcpmt:vector_algorithms.obj
 0001:00093ae0       ___std_find_last_not_ch_pos_8@16 40094ae0 f   libcpmt:vector_algorithms.obj
 0001:00093b20       ___std_find_last_not_of_trivial_pos_1@16 40094b20 f   libcpmt:vector_algorithms.obj
 0001:00093b30       ___std_find_last_not_of_trivial_pos_2@16 40094b30 f   libcpmt:vector_algorithms.obj
 0001:00093b40       ___std_find_last_of_trivial_pos_1@16 40094b40 f   libcpmt:vector_algorithms.obj
 0001:00093b50       ___std_find_last_of_trivial_pos_2@16 40094b50 f   libcpmt:vector_algorithms.obj
 0001:00093b60       ___std_find_last_trivial_1@12 40094b60 f   libcpmt:vector_algorithms.obj
 0001:00093b70       ___std_find_last_trivial_2@12 40094b70 f   libcpmt:vector_algorithms.obj
 0001:00093b80       ___std_find_last_trivial_4@12 40094b80 f   libcpmt:vector_algorithms.obj
 0001:00093b90       ___std_find_last_trivial_8@16 40094b90 f   libcpmt:vector_algorithms.obj
 0001:00093bb0       ___std_find_not_ch_1@12    40094bb0 f   libcpmt:vector_algorithms.obj
 0001:00093bc0       ___std_find_not_ch_2@12    40094bc0 f   libcpmt:vector_algorithms.obj
 0001:00093bd0       ___std_find_not_ch_4@12    40094bd0 f   libcpmt:vector_algorithms.obj
 0001:00093be0       ___std_find_not_ch_8@16    40094be0 f   libcpmt:vector_algorithms.obj
 0001:00093c00       ___std_find_trivial_1@12   40094c00 f   libcpmt:vector_algorithms.obj
 0001:00093c10       ___std_find_trivial_2@12   40094c10 f   libcpmt:vector_algorithms.obj
 0001:00093c20       ___std_find_trivial_4@12   40094c20 f   libcpmt:vector_algorithms.obj
 0001:00093c30       ___std_find_trivial_8@16   40094c30 f   libcpmt:vector_algorithms.obj
 0001:00093c50       ___std_find_trivial_unsized_1@8 40094c50 f   libcpmt:vector_algorithms.obj
 0001:00093c70       ___std_find_trivial_unsized_2@8 40094c70 f   libcpmt:vector_algorithms.obj
 0001:00093ca0       ___std_find_trivial_unsized_4@8 40094ca0 f   libcpmt:vector_algorithms.obj
 0001:00093cd0       ___std_find_trivial_unsized_8@12 40094cd0 f   libcpmt:vector_algorithms.obj
 0001:00093d00       ___std_is_sorted_until_1i@12 40094d00 f   libcpmt:vector_algorithms.obj
 0001:00093d10       ___std_is_sorted_until_1u@12 40094d10 f   libcpmt:vector_algorithms.obj
 0001:00093e30       ___std_is_sorted_until_2i@12 40094e30 f   libcpmt:vector_algorithms.obj
 0001:00093e40       ___std_is_sorted_until_2u@12 40094e40 f   libcpmt:vector_algorithms.obj
 0001:00093e50       ___std_is_sorted_until_4i@12 40094e50 f   libcpmt:vector_algorithms.obj
 0001:00093e60       ___std_is_sorted_until_4u@12 40094e60 f   libcpmt:vector_algorithms.obj
 0001:00093e70       ___std_is_sorted_until_8i@12 40094e70 f   libcpmt:vector_algorithms.obj
 0001:00093e80       ___std_is_sorted_until_8u@12 40094e80 f   libcpmt:vector_algorithms.obj
 0001:00093e90       ___std_is_sorted_until_d@12 40094e90 f   libcpmt:vector_algorithms.obj
 0001:00093ea0       ___std_is_sorted_until_f@12 40094ea0 f   libcpmt:vector_algorithms.obj
 0001:00093eb0       ___std_max_1i@8            40094eb0 f   libcpmt:vector_algorithms.obj
 0001:00094020       ___std_max_1u@8            40095020 f   libcpmt:vector_algorithms.obj
 0001:00094030       ___std_max_2i@8            40095030 f   libcpmt:vector_algorithms.obj
 0001:00094180       ___std_max_2u@8            40095180 f   libcpmt:vector_algorithms.obj
 0001:00094190       ___std_max_4i@8            40095190 f   libcpmt:vector_algorithms.obj
 0001:000941a0       ___std_max_4u@8            400951a0 f   libcpmt:vector_algorithms.obj
 0001:000941b0       ___std_max_8i@8            400951b0 f   libcpmt:vector_algorithms.obj
 0001:000941c0       ___std_max_8u@8            400951c0 f   libcpmt:vector_algorithms.obj
 0001:00094310       ___std_max_d@8             40095310 f   libcpmt:vector_algorithms.obj
 0001:00094320       ___std_max_element_1@12    40095320 f   libcpmt:vector_algorithms.obj
 0001:000943c0       ___std_max_element_2@12    400953c0 f   libcpmt:vector_algorithms.obj
 0001:00094460       ___std_max_element_4@12    40095460 f   libcpmt:vector_algorithms.obj
 0001:00094540       ___std_max_element_8@12    40095540 f   libcpmt:vector_algorithms.obj
 0001:000945f0       ___std_max_element_d@12    400955f0 f   libcpmt:vector_algorithms.obj
 0001:00094690       ___std_max_element_f@12    40095690 f   libcpmt:vector_algorithms.obj
 0001:00094730       ___std_max_f@8             40095730 f   libcpmt:vector_algorithms.obj
 0001:00094740       ___std_min_1i@8            40095740 f   libcpmt:vector_algorithms.obj
 0001:000948b0       ___std_min_1u@8            400958b0 f   libcpmt:vector_algorithms.obj
 0001:000948c0       ___std_min_2i@8            400958c0 f   libcpmt:vector_algorithms.obj
 0001:00094a10       ___std_min_2u@8            40095a10 f   libcpmt:vector_algorithms.obj
 0001:00094a20       ___std_min_4i@8            40095a20 f   libcpmt:vector_algorithms.obj
 0001:00094a30       ___std_min_4u@8            40095a30 f   libcpmt:vector_algorithms.obj
 0001:00094a40       ___std_min_8i@8            40095a40 f   libcpmt:vector_algorithms.obj
 0001:00094a50       ___std_min_8u@8            40095a50 f   libcpmt:vector_algorithms.obj
 0001:00094ba0       ___std_min_d@8             40095ba0 f   libcpmt:vector_algorithms.obj
 0001:00094bb0       ___std_min_element_1@12    40095bb0 f   libcpmt:vector_algorithms.obj
 0001:00094c50       ___std_min_element_2@12    40095c50 f   libcpmt:vector_algorithms.obj
 0001:00094d00       ___std_min_element_4@12    40095d00 f   libcpmt:vector_algorithms.obj
 0001:00094de0       ___std_min_element_8@12    40095de0 f   libcpmt:vector_algorithms.obj
 0001:00094e90       ___std_min_element_d@12    40095e90 f   libcpmt:vector_algorithms.obj
 0001:00094f30       ___std_min_element_f@12    40095f30 f   libcpmt:vector_algorithms.obj
 0001:00094fd0       ___std_min_f@8             40095fd0 f   libcpmt:vector_algorithms.obj
 0001:00094fe0       ___std_minmax_1i@8         40095fe0 f   libcpmt:vector_algorithms.obj
 0001:00094ff0       ___std_minmax_1u@8         40095ff0 f   libcpmt:vector_algorithms.obj
 0001:00095000       ___std_minmax_2i@8         40096000 f   libcpmt:vector_algorithms.obj
 0001:00095010       ___std_minmax_2u@8         40096010 f   libcpmt:vector_algorithms.obj
 0001:00095020       ___std_minmax_4i@8         40096020 f   libcpmt:vector_algorithms.obj
 0001:00095030       ___std_minmax_4u@8         40096030 f   libcpmt:vector_algorithms.obj
 0001:00095040       ___std_minmax_8i@8         40096040 f   libcpmt:vector_algorithms.obj
 0001:00095070       ___std_minmax_8u@8         40096070 f   libcpmt:vector_algorithms.obj
 0001:000950a0       ___std_minmax_d@8          400960a0 f   libcpmt:vector_algorithms.obj
 0001:000950d0       ___std_minmax_element_1@12 400960d0 f   libcpmt:vector_algorithms.obj
 0001:00095200       ___std_minmax_element_2@12 40096200 f   libcpmt:vector_algorithms.obj
 0001:000952d0       ___std_minmax_element_4@12 400962d0 f   libcpmt:vector_algorithms.obj
 0001:000953a0       ___std_minmax_element_8@12 400963a0 f   libcpmt:vector_algorithms.obj
 0001:00095470       ___std_minmax_element_d@12 40096470 f   libcpmt:vector_algorithms.obj
 0001:00095540       ___std_minmax_element_f@12 40096540 f   libcpmt:vector_algorithms.obj
 0001:00095600       ___std_minmax_f@8          40096600 f   libcpmt:vector_algorithms.obj
 0001:00095610       ___std_mismatch_1@12       40096610 f   libcpmt:vector_algorithms.obj
 0001:00095620       ___std_mismatch_2@12       40096620 f   libcpmt:vector_algorithms.obj
 0001:00095630       ___std_mismatch_4@12       40096630 f   libcpmt:vector_algorithms.obj
 0001:00095640       ___std_mismatch_8@12       40096640 f   libcpmt:vector_algorithms.obj
 0001:00095650       ___std_remove_1@12         40096650 f   libcpmt:vector_algorithms.obj
 0001:00095710       ___std_remove_2@12         40096710 f   libcpmt:vector_algorithms.obj
 0001:000957e0       ___std_remove_4@12         400967e0 f   libcpmt:vector_algorithms.obj
 0001:00095910       ___std_remove_8@16         40096910 f   libcpmt:vector_algorithms.obj
 0001:00095a50       ___std_remove_copy_1@16    40096a50 f   libcpmt:vector_algorithms.obj
 0001:00095bf0       ___std_remove_copy_2@16    40096bf0 f   libcpmt:vector_algorithms.obj
 0001:00095da0       ___std_remove_copy_4@16    40096da0 f   libcpmt:vector_algorithms.obj
 0001:00096030       ___std_remove_copy_8@20    40097030 f   libcpmt:vector_algorithms.obj
 0001:00096300       ___std_replace_4@16        40097300 f   libcpmt:vector_algorithms.obj
 0001:000963c0       ___std_replace_8@24        400973c0 f   libcpmt:vector_algorithms.obj
 0001:000964a0       ___std_reverse_copy_trivially_copyable_1 400974a0 f   libcpmt:vector_algorithms.obj
 0001:000964b0       ___std_reverse_copy_trivially_copyable_2 400974b0 f   libcpmt:vector_algorithms.obj
 0001:000964c0       ___std_reverse_copy_trivially_copyable_4 400974c0 f   libcpmt:vector_algorithms.obj
 0001:000965c0       ___std_reverse_copy_trivially_copyable_8 400975c0 f   libcpmt:vector_algorithms.obj
 0001:000966c0       ___std_reverse_trivially_swappable_1 400976c0 f   libcpmt:vector_algorithms.obj
 0001:000966d0       ___std_reverse_trivially_swappable_2 400976d0 f   libcpmt:vector_algorithms.obj
 0001:000966e0       ___std_reverse_trivially_swappable_4 400976e0 f   libcpmt:vector_algorithms.obj
 0001:000967c0       ___std_reverse_trivially_swappable_8 400977c0 f   libcpmt:vector_algorithms.obj
 0001:000968d0       ___std_rotate@12           400978d0 f   libcpmt:vector_algorithms.obj
 0001:00096c10       ___std_search_1@16         40097c10 f   libcpmt:vector_algorithms.obj
 0001:00096c20       ___std_search_2@16         40097c20 f   libcpmt:vector_algorithms.obj
 0001:00096c30       ___std_search_4@16         40097c30 f   libcpmt:vector_algorithms.obj
 0001:00096d70       ___std_search_8@16         40097d70 f   libcpmt:vector_algorithms.obj
 0001:00096ed0       ___std_search_n_1@16       40097ed0 f   libcpmt:vector_algorithms.obj
 0001:00096ee0       ___std_search_n_2@16       40097ee0 f   libcpmt:vector_algorithms.obj
 0001:00096ef0       ___std_search_n_4@16       40097ef0 f   libcpmt:vector_algorithms.obj
 0001:00096f00       ___std_search_n_8@20       40097f00 f   libcpmt:vector_algorithms.obj
 0001:00096f30       ___std_swap_ranges_trivially_swappable 40097f30 f   libcpmt:vector_algorithms.obj
 0001:00096f60       ___std_swap_ranges_trivially_swappable_noalias 40097f60 f   libcpmt:vector_algorithms.obj
 0001:00097060       ___std_unique_1@8          40098060 f   libcpmt:vector_algorithms.obj
 0001:00097120       ___std_unique_2@8          40098120 f   libcpmt:vector_algorithms.obj
 0001:00097200       ___std_unique_4@8          40098200 f   libcpmt:vector_algorithms.obj
 0001:00097330       ___std_unique_8@8          40098330 f   libcpmt:vector_algorithms.obj
 0001:00097480       ___std_unique_copy_1@12    40098480 f   libcpmt:vector_algorithms.obj
 0001:00097610       ___std_unique_copy_2@12    40098610 f   libcpmt:vector_algorithms.obj
 0001:000977a0       ___std_unique_copy_4@12    400987a0 f   libcpmt:vector_algorithms.obj
 0001:00097a00       ___std_unique_copy_8@12    40098a00 f   libcpmt:vector_algorithms.obj
 0001:00097c82       ??$?0$$V@?$_Compressed_pair@V?$allocator@G@std@@V?$_String_val@U?$_Simple_types@G@std@@@2@$00@std@@QAE@U_Zero_then_variadic_args_t@1@@Z 40098c82 f i libcpmt:wlocale.obj
 0001:00097ca6       ??$?0$$V@?$_Compressed_pair@V?$allocator@_W@std@@V?$_String_val@U?$_Simple_types@_W@std@@@2@$00@std@@QAE@U_Zero_then_variadic_args_t@1@@Z 40098ca6 f i libcpmt:wlocale.obj
 0001:00097cca       ??$?0V?$allocator@D@std@@$$V@?$_Compressed_pair@V?$allocator@D@std@@V?$_String_val@U?$_Simple_types@D@std@@@2@$00@std@@QAE@U_One_then_variadic_args_t@1@$$QAV?$allocator@D@1@@Z 40098cca f i libcpmt:wlocale.obj
 0001:00097cee       ??$?0V?$allocator@G@std@@$$V@?$_Compressed_pair@V?$allocator@G@std@@V?$_String_val@U?$_Simple_types@G@std@@@2@$00@std@@QAE@U_One_then_variadic_args_t@1@$$QAV?$allocator@G@1@@Z 40098cee f i libcpmt:wlocale.obj
 0001:00097d12       ??$?0V?$allocator@_W@std@@$$V@?$_Compressed_pair@V?$allocator@_W@std@@V?$_String_val@U?$_Simple_types@_W@std@@@2@$00@std@@QAE@U_One_then_variadic_args_t@1@$$QAV?$allocator@_W@1@@Z 40098d12 f i libcpmt:wlocale.obj
 0001:00097d36       ??$?8GU?$char_traits@G@std@@@std@@YA_NABV?$istreambuf_iterator@GU?$char_traits@G@std@@@0@0@Z 40098d36 f i libcpmt:wlocale.obj
 0001:00097d4a       ??$?8_WU?$char_traits@_W@std@@@std@@YA_NABV?$istreambuf_iterator@_WU?$char_traits@_W@std@@@0@0@Z 40098d4a f i libcpmt:wlocale.obj
 0001:00097d5e       ??$_Adl_verify_range@PAGPAG@std@@YAXABQAG0@Z 40098d5e f i libcpmt:wlocale.obj
 0001:00097d61       ??$_Adl_verify_range@PAGPBG@std@@YAXABQAGABQBG@Z 40098d61 f i libcpmt:wlocale.obj
 0001:00097d64       ??$_Adl_verify_range@PA_WPA_W@std@@YAXABQA_W0@Z 40098d64 f i libcpmt:wlocale.obj
 0001:00097d67       ??$_Adl_verify_range@PA_WPB_W@std@@YAXABQA_WABQB_W@Z 40098d67 f i libcpmt:wlocale.obj
 0001:00097d6a       ??$_Adl_verify_range@PBGPBG@std@@YAXABQBG0@Z 40098d6a f i libcpmt:wlocale.obj
 0001:00097d6d       ??$_Adl_verify_range@PB_WPB_W@std@@YAXABQB_W0@Z 40098d6d f i libcpmt:wlocale.obj
 0001:00097d70       ??$_Adl_verify_range@V?$istreambuf_iterator@GU?$char_traits@G@std@@@std@@V12@@std@@YAXABV?$istreambuf_iterator@GU?$char_traits@G@std@@@0@0@Z 40098d70 f i libcpmt:wlocale.obj
 0001:00097d73       ??$_Adl_verify_range@V?$istreambuf_iterator@_WU?$char_traits@_W@std@@@std@@V12@@std@@YAXABV?$istreambuf_iterator@_WU?$char_traits@_W@std@@@0@0@Z 40098d73 f i libcpmt:wlocale.obj
 0001:00097d76       ??$_Allocate_at_least_helper@V?$allocator@G@std@@@std@@YAPAGAAV?$allocator@G@0@AAI@Z 40098d76 f i libcpmt:wlocale.obj
 0001:00097d8c       ??$_Allocate_at_least_helper@V?$allocator@_W@std@@@std@@YAPA_WAAV?$allocator@_W@0@AAI@Z 40098d8c f i libcpmt:wlocale.obj
 0001:00097da2       ??$_Allocate_for_capacity@$0A@@?$basic_string@GU?$char_traits@G@std@@V?$allocator@G@2@@std@@CAPAGAAV?$allocator@G@1@AAI@Z 40098da2 f i libcpmt:wlocale.obj
 0001:00097dc0       ??$_Allocate_for_capacity@$0A@@?$basic_string@_WU?$char_traits@_W@std@@V?$allocator@_W@2@@std@@CAPA_WAAV?$allocator@_W@1@AAI@Z 40098dc0 f i libcpmt:wlocale.obj
 0001:00097dde       ??$_Append@G@?$basic_string@GU?$char_traits@G@std@@V?$allocator@G@2@@std@@AAEAAV01@QBGI@Z 40098dde f i libcpmt:wlocale.obj
 0001:00097e68       ??$_Append@_W@?$basic_string@_WU?$char_traits@_W@std@@V?$allocator@_W@2@@std@@AAEAAV01@QB_WI@Z 40098e68 f i libcpmt:wlocale.obj
 0001:00097ef2       ??$_Bit_cast@IT_Addr_storage@error_category@std@@$0A@@std@@YAIABT_Addr_storage@error_category@0@@Z 40098ef2 f i libcpmt:wlocale.obj
 0001:00097efe       ??$_Construct@$00PBG@?$basic_string@GU?$char_traits@G@std@@V?$allocator@G@2@@std@@AAEXQBGI@Z 40098efe f i libcpmt:wlocale.obj
 0001:00097fa8       ??$_Construct@$00PB_W@?$basic_string@_WU?$char_traits@_W@std@@V?$allocator@_W@2@@std@@AAEXQB_WI@Z 40098fa8 f i libcpmt:wlocale.obj
 0001:00098052       ??$_Construct@$01PBD@?$basic_string@DU?$char_traits@D@std@@V?$allocator@D@2@@std@@AAEXQBDI@Z 40099052 f i libcpmt:wlocale.obj
 0001:000980e0       ??$_Construct@$01PBG@?$basic_string@GU?$char_traits@G@std@@V?$allocator@G@2@@std@@AAEXQBGI@Z 400990e0 f i libcpmt:wlocale.obj
 0001:0009817e       ??$_Construct@$01PB_W@?$basic_string@_WU?$char_traits@_W@std@@V?$allocator@_W@2@@std@@AAEXQB_WI@Z 4009917e f i libcpmt:wlocale.obj
 0001:0009821c       ??$_Construct@$0A@G@?$basic_string@GU?$char_traits@G@std@@V?$allocator@G@2@@std@@AAEXGI@Z 4009921c f i libcpmt:wlocale.obj
 0001:000982c4       ??$_Construct@$0A@_W@?$basic_string@_WU?$char_traits@_W@std@@V?$allocator@_W@2@@std@@AAEX_WI@Z 400992c4 f i libcpmt:wlocale.obj
 0001:0009836c       ??$_Construct_in_place@PAGAAPAG@std@@YAXAAPAG0@Z 4009936c f i libcpmt:wlocale.obj
 0001:0009837e       ??$_Construct_in_place@PAGABQAG@std@@YAXAAPAGABQAG@Z 4009937e f i libcpmt:wlocale.obj
 0001:00098390       ??$_Construct_in_place@PA_WAAPA_W@std@@YAXAAPA_W0@Z 40099390 f i libcpmt:wlocale.obj
 0001:000983a2       ??$_Construct_in_place@PA_WABQA_W@std@@YAXAAPA_WABQA_W@Z 400993a2 f i libcpmt:wlocale.obj
 0001:000983b4       ??$_Copy_unchecked@PA_WPA_WV?$ostreambuf_iterator@GU?$char_traits@G@std@@@std@@@std@@YA?AV?$ostreambuf_iterator@GU?$char_traits@G@std@@@0@PA_W0V10@@Z 400993b4 f i libcpmt:wlocale.obj
 0001:000983ed       ??$_Copy_unchecked@PA_WPA_WV?$ostreambuf_iterator@_WU?$char_traits@_W@std@@@std@@@std@@YA?AV?$ostreambuf_iterator@_WU?$char_traits@_W@std@@@0@PA_W0V10@@Z 400993ed f i libcpmt:wlocale.obj
 0001:00098426       ??$_Could_compare_equal_to_value_type@PBGG@std@@YA_NABG@Z 40099426 f i libcpmt:wlocale.obj
 0001:00098429       ??$_Could_compare_equal_to_value_type@PB_W_W@std@@YA_NAB_W@Z 40099429 f i libcpmt:wlocale.obj
 0001:0009842c       ??$_Destroy_in_place@PAG@std@@YAXAAPAG@Z 4009942c f i libcpmt:wlocale.obj
 0001:0009842f       ??$_Destroy_in_place@PA_W@std@@YAXAAPA_W@Z 4009942f f i libcpmt:wlocale.obj
 0001:00098432       ??$_Find_elem@G$0BL@@std@@YAIAAY0BL@$$CBGG@Z 40099432 f i libcpmt:wlocale.obj
 0001:00098453       ??$_Find_elem@G$0BN@@std@@YAIAAY0BN@$$CBGG@Z 40099453 f i libcpmt:wlocale.obj
 0001:00098474       ??$_Find_elem@G$0M@@std@@YAIAAY0M@$$CBGG@Z 40099474 f i libcpmt:wlocale.obj
 0001:00098495       ??$_Find_elem@_W$0BL@@std@@YAIAAY0BL@$$CB_W_W@Z 40099495 f i libcpmt:wlocale.obj
 0001:000984b6       ??$_Find_elem@_W$0BN@@std@@YAIAAY0BN@$$CB_W_W@Z 400994b6 f i libcpmt:wlocale.obj
 0001:000984d7       ??$_Find_elem@_W$0M@@std@@YAIAAY0M@$$CB_W_W@Z 400994d7 f i libcpmt:wlocale.obj
 0001:000984f8       ??$_Find_unchecked@PBGG@std@@YAPBGPBGQBGABG@Z 400994f8 f i libcpmt:wlocale.obj
 0001:00098514       ??$_Find_unchecked@PB_W_W@std@@YAPB_WPB_WQB_WAB_W@Z 40099514 f i libcpmt:wlocale.obj
 0001:00098530       ??$_Find_vectorized@$$CBGG@std@@YAPBGQBG0G@Z 40099530 f i libcpmt:wlocale.obj
 0001:00098547       ??$_Find_vectorized@$$CB_W_W@std@@YAPB_WQB_W0_W@Z 40099547 f i libcpmt:wlocale.obj
 0001:0009855e       ??$_Fput_v3@$0A@@?$num_put@GV?$ostreambuf_iterator@GU?$char_traits@G@std@@@std@@@std@@ABE?AV?$ostreambuf_iterator@GU?$char_traits@G@std@@@1@V21@AAVios_base@1@GPBDI_N@Z 4009955e f i libcpmt:wlocale.obj
 0001:0009893f       ??$_Fput_v3@$0A@@?$num_put@_WV?$ostreambuf_iterator@_WU?$char_traits@_W@std@@@std@@@std@@ABE?AV?$ostreambuf_iterator@_WU?$char_traits@_W@std@@@1@V21@AAVios_base@1@_WPBDI_N@Z 4009993f f i libcpmt:wlocale.obj
 0001:00098d20       ??$_Get_proxy_allocator@V?$allocator@G@std@@@std@@YA?AU_Fake_allocator@0@ABV?$allocator@G@0@@Z 40099d20 f i libcpmt:wlocale.obj
 0001:00098d23       ??$_Get_proxy_allocator@V?$allocator@_W@std@@@std@@YA?AU_Fake_allocator@0@ABV?$allocator@_W@0@@Z 40099d23 f i libcpmt:wlocale.obj
 0001:00098d26       ??$_Get_size_of_n@$01@std@@YAII@Z 40099d26 f i libcpmt:wlocale.obj
 0001:00098d40       ??$_Get_unwrapped@AAPA_W@std@@YA?A_TAAPA_W@Z 40099d40 f i libcpmt:wlocale.obj
 0001:00098d4c       ??$_Get_unwrapped_n@V?$ostreambuf_iterator@GU?$char_traits@G@std@@@std@@H@std@@YA?A_T$$QAV?$ostreambuf_iterator@GU?$char_traits@G@std@@@0@H@Z 40099d4c f i libcpmt:wlocale.obj
 0001:00098d56       ??$_Get_unwrapped_n@V?$ostreambuf_iterator@_WU?$char_traits@_W@std@@@std@@H@std@@YA?A_T$$QAV?$ostreambuf_iterator@_WU?$char_traits@_W@std@@@0@H@Z 40099d56 f i libcpmt:wlocale.obj
 0001:00098d60       ??$_Getint_v2@V?$istreambuf_iterator@GU?$char_traits@G@std@@@std@@G@std@@YAHAAV?$istreambuf_iterator@GU?$char_traits@G@std@@@0@0HHAAH1ABV?$ctype@G@0@@Z 40099d60 f i libcpmt:wlocale.obj
 0001:00099027       ??$_Getint_v2@V?$istreambuf_iterator@_WU?$char_traits@_W@std@@@std@@_W@std@@YAHAAV?$istreambuf_iterator@_WU?$char_traits@_W@std@@@0@0HHAAH1ABV?$ctype@_W@0@@Z 4009a027 f i libcpmt:wlocale.obj
 0001:000992ee       ??$_Getloctxt@V?$istreambuf_iterator@GU?$char_traits@G@std@@@std@@D@std@@YAHAAV?$istreambuf_iterator@GU?$char_traits@G@std@@@0@0IPBDW4_Case_sensitive@0@@Z 4009a2ee f i libcpmt:wlocale.obj
 0001:000995aa       ??$_Getloctxt@V?$istreambuf_iterator@GU?$char_traits@G@std@@@std@@G@std@@YAHAAV?$istreambuf_iterator@GU?$char_traits@G@std@@@0@0IPBGW4_Case_sensitive@0@@Z 4009a5aa f i libcpmt:wlocale.obj
 0001:0009987c       ??$_Getloctxt@V?$istreambuf_iterator@_WU?$char_traits@_W@std@@@std@@D@std@@YAHAAV?$istreambuf_iterator@_WU?$char_traits@_W@std@@@0@0IPBDW4_Case_sensitive@0@@Z 4009a87c f i libcpmt:wlocale.obj
 0001:00099b38       ??$_Getloctxt@V?$istreambuf_iterator@_WU?$char_traits@_W@std@@@std@@_W@std@@YAHAAV?$istreambuf_iterator@_WU?$char_traits@_W@std@@@0@0IPB_WW4_Case_sensitive@0@@Z 4009ab38 f i libcpmt:wlocale.obj
 0001:00099e0a       ??$_Getvals@G@?$time_get@GV?$istreambuf_iterator@GU?$char_traits@G@std@@@std@@@std@@IAEXGABV_Locinfo@1@@Z 4009ae0a f i libcpmt:wlocale.obj
 0001:00099e8f       ??$_Getvals@_W@?$time_get@_WV?$istreambuf_iterator@_WU?$char_traits@_W@std@@@std@@@std@@IAEX_WABV_Locinfo@1@@Z 4009ae8f f i libcpmt:wlocale.obj
 0001:00099efe       ??$_Hash_array_representation@G@std@@YAIQBGI@Z 4009aefe f i libcpmt:wlocale.obj
 0001:00099f1f       ??$_Hash_array_representation@_W@std@@YAIQB_WI@Z 4009af1f f i libcpmt:wlocale.obj
 0001:00099f40       ??$_Idl_distance@PA_WPA_W@std@@YA?A_PABQA_W0@Z 4009af40 f i libcpmt:wlocale.obj
 0001:00099f55       ??$_LStrcoll@G@std@@YAHPBG000PBU_Collvec@@@Z 4009af55 f i libcpmt:wlocale.obj
 0001:00099f60       ??$_LStrcoll@_W@std@@YAHPB_W000PBU_Collvec@@@Z 4009af60 f i libcpmt:wlocale.obj
 0001:00099f6b       ??$_LStrxfrm@G@std@@YAIPAG0PBG1PBU_Collvec@@@Z 4009af6b f i libcpmt:wlocale.obj
 0001:00099f76       ??$_LStrxfrm@_W@std@@YAIPA_W0PB_W1PBU_Collvec@@@Z 4009af76 f i libcpmt:wlocale.obj
 0001:00099f81       ??$_Maklocchr@G@std@@YAGDPAGABU_Cvtvec@@@Z 4009af81 f i libcpmt:wlocale.obj
 0001:00099fc0       ??$_Maklocchr@_W@std@@YA_WDPA_WABU_Cvtvec@@@Z 4009afc0 f i libcpmt:wlocale.obj
 0001:00099fff       ??$_Maklocstr@G@std@@YAPAGPBDPAGABU_Cvtvec@@@Z 4009afff f i libcpmt:wlocale.obj
 0001:0009a0d1       ??$_Maklocstr@_W@std@@YAPA_WPBDPA_WABU_Cvtvec@@@Z 4009b0d1 f i libcpmt:wlocale.obj
 0001:0009a1a3       ??$_Parse_fp_with_locale@$0A@@?$num_get@GV?$istreambuf_iterator@GU?$char_traits@G@std@@@std@@@std@@CA?AU_Num_get_parse_result@1@QADHAAV?$istreambuf_iterator@GU?$char_traits@G@std@@@1@1ABVlocale@1@@Z 4009b1a3 f i libcpmt:wlocale.obj
 0001:0009adf1       ??$_Parse_fp_with_locale@$0A@@?$num_get@_WV?$istreambuf_iterator@_WU?$char_traits@_W@std@@@std@@@std@@CA?AU_Num_get_parse_result@1@QADHAAV?$istreambuf_iterator@_WU?$char_traits@_W@std@@@1@1ABVlocale@1@@Z 4009bdf1 f i libcpmt:wlocale.obj
 0001:0009ba3f       ??$_Parse_int_with_locale@$0A@@?$num_get@GV?$istreambuf_iterator@GU?$char_traits@G@std@@@std@@@std@@CA?AU_Num_get_parse_result@1@QADAAV?$istreambuf_iterator@GU?$char_traits@G@std@@@1@1HABVlocale@1@@Z 4009ca3f f i libcpmt:wlocale.obj
 0001:0009c05c       ??$_Parse_int_with_locale@$0A@@?$num_get@_WV?$istreambuf_iterator@_WU?$char_traits@_W@std@@@std@@@std@@CA?AU_Num_get_parse_result@1@QADAAV?$istreambuf_iterator@_WU?$char_traits@_W@std@@@1@1HABVlocale@1@@Z 4009d05c f i libcpmt:wlocale.obj
 0001:0009c679       ??$_Pocma@V?$allocator@G@std@@@std@@YAXAAV?$allocator@G@0@0@Z 4009d679 f i libcpmt:wlocale.obj
 0001:0009c67c       ??$_Pocma@V?$allocator@_W@std@@@std@@YAXAAV?$allocator@_W@0@0@Z 4009d67c f i libcpmt:wlocale.obj
 0001:0009c67f       ??$_Reallocate_grow_by@V<lambda_1>@?1???$_Append@G@?$basic_string@GU?$char_traits@G@std@@V?$allocator@G@2@@std@@AAEAAV23@QBGI@Z@PBGI@?$basic_string@GU?$char_traits@G@std@@V?$allocator@G@2@@std@@AAEAAV01@IV<lambda_1>@?1???$_Append@G@01@AAEAAV01@QBGI@Z@PBGI@Z 4009d67f f i libcpmt:wlocale.obj
 0001:0009c74d       ??$_Reallocate_grow_by@V<lambda_1>@?1???$_Append@_W@?$basic_string@_WU?$char_traits@_W@std@@V?$allocator@_W@2@@std@@AAEAAV23@QB_WI@Z@PB_WI@?$basic_string@_WU?$char_traits@_W@std@@V?$allocator@_W@2@@std@@AAEAAV01@IV<lambda_1>@?1???$_Append@_W@01@AAEAAV01@QB_WI@Z@PB_WI@Z 4009d74d f i libcpmt:wlocale.obj
 0001:0009c81b       ??$_Reallocate_grow_by@V<lambda_1>@?1??append@?$basic_string@GU?$char_traits@G@std@@V?$allocator@G@2@@std@@QAEAAV34@IG@Z@IG@?$basic_string@GU?$char_traits@G@std@@V?$allocator@G@2@@std@@AAEAAV01@IV<lambda_1>@?1??append@01@QAEAAV01@IG@Z@IG@Z 4009d81b f i libcpmt:wlocale.obj
 0001:0009c8e9       ??$_Reallocate_grow_by@V<lambda_1>@?1??append@?$basic_string@_WU?$char_traits@_W@std@@V?$allocator@_W@2@@std@@QAEAAV34@I_W@Z@I_W@?$basic_string@_WU?$char_traits@_W@std@@V?$allocator@_W@2@@std@@AAEAAV01@IV<lambda_1>@?1??append@01@QAEAAV01@I_W@Z@I_W@Z 4009d8e9 f i libcpmt:wlocale.obj
 0001:0009c9b7       ??$_Reallocate_grow_by@V<lambda_1>@?1??insert@?$basic_string@GU?$char_traits@G@std@@V?$allocator@G@2@@std@@QAEAAV34@IIG@Z@IIG@?$basic_string@GU?$char_traits@G@std@@V?$allocator@G@2@@std@@AAEAAV01@IV<lambda_1>@?1??insert@01@QAEAAV01@IIG@Z@IIG@Z 4009d9b7 f i libcpmt:wlocale.obj
 0001:0009ca8e       ??$_Reallocate_grow_by@V<lambda_1>@?1??insert@?$basic_string@_WU?$char_traits@_W@std@@V?$allocator@_W@2@@std@@QAEAAV34@II_W@Z@II_W@?$basic_string@_WU?$char_traits@_W@std@@V?$allocator@_W@2@@std@@AAEAAV01@IV<lambda_1>@?1??insert@01@QAEAAV01@II_W@Z@II_W@Z 4009da8e f i libcpmt:wlocale.obj
 0001:0009cb65       ??$_Reallocate_grow_by@V<lambda_1>@?1??push_back@?$basic_string@GU?$char_traits@G@std@@V?$allocator@G@2@@std@@QAEXG@Z@G@?$basic_string@GU?$char_traits@G@std@@V?$allocator@G@2@@std@@AAEAAV01@IV<lambda_1>@?1??push_back@01@QAEXG@Z@G@Z 4009db65 f i libcpmt:wlocale.obj
 0001:0009cc67       ??$_Reallocate_grow_by@V<lambda_1>@?1??push_back@?$basic_string@_WU?$char_traits@_W@std@@V?$allocator@_W@2@@std@@QAEX_W@Z@_W@?$basic_string@_WU?$char_traits@_W@std@@V?$allocator@_W@2@@std@@AAEAAV01@IV<lambda_1>@?1??push_back@01@QAEX_W@Z@_W@Z 4009dc67 f i libcpmt:wlocale.obj
 0001:0009cd69       ??$_Refancy@PAG$0A@@std@@YAPAGPAG@Z 4009dd69 f i libcpmt:wlocale.obj
 0001:0009cd73       ??$_Refancy@PA_W$0A@@std@@YAPA_WPA_W@Z 4009dd73 f i libcpmt:wlocale.obj
 0001:0009cd7d       ??$_Seek_wrapped@V?$ostreambuf_iterator@GU?$char_traits@G@std@@@std@@V12@@std@@YAXAAV?$ostreambuf_iterator@GU?$char_traits@G@std@@@0@$$QAV10@@Z 4009dd7d f i libcpmt:wlocale.obj
 0001:0009cd97       ??$_Seek_wrapped@V?$ostreambuf_iterator@_WU?$char_traits@_W@std@@@std@@V12@@std@@YAXAAV?$ostreambuf_iterator@_WU?$char_traits@_W@std@@@0@$$QAV10@@Z 4009dd97 f i libcpmt:wlocale.obj
 0001:0009cdb1       ??$_To_address@PBG@std@@YA?A_PABQBG@Z 4009ddb1 f i libcpmt:wlocale.obj
 0001:0009cdbd       ??$_To_address@PB_W@std@@YA?A_PABQB_W@Z 4009ddbd f i libcpmt:wlocale.obj
 0001:0009cdc9       ??$_Traits_copy_batch@U?$char_traits@G@std@@G@std@@YAXQAGQBGI@Z 4009ddc9 f i libcpmt:wlocale.obj
 0001:0009cde8       ??$_Traits_copy_batch@U?$char_traits@_W@std@@_W@std@@YAXQA_WQB_WI@Z 4009dde8 f i libcpmt:wlocale.obj
 0001:0009ce07       ??$_Traits_move_batch@U?$char_traits@G@std@@G@std@@YAXQAGQBGI@Z 4009de07 f i libcpmt:wlocale.obj
 0001:0009ce26       ??$_Traits_move_batch@U?$char_traits@_W@std@@_W@std@@YAXQA_WQB_WI@Z 4009de26 f i libcpmt:wlocale.obj
 0001:0009ce45       ??$_Unfancy@G@std@@YAPAGPAG@Z 4009de45 f i libcpmt:wlocale.obj
 0001:0009ce4f       ??$_Unfancy@_W@std@@YAPA_WPA_W@Z 4009de4f f i libcpmt:wlocale.obj
 0001:0009ce59       ??$addressof@$$CBV?$moneypunct@G$00@std@@@std@@YAPBV?$moneypunct@G$00@0@ABV10@@Z 4009de59 f i libcpmt:wlocale.obj
 0001:0009ce63       ??$addressof@$$CBV?$moneypunct@G$0A@@std@@@std@@YAPBV?$moneypunct@G$0A@@0@ABV10@@Z 4009de63 f i libcpmt:wlocale.obj
 0001:0009ce6d       ??$addressof@$$CBV?$moneypunct@_W$00@std@@@std@@YAPBV?$moneypunct@_W$00@0@ABV10@@Z 4009de6d f i libcpmt:wlocale.obj
 0001:0009ce77       ??$addressof@$$CBV?$moneypunct@_W$0A@@std@@@std@@YAPBV?$moneypunct@_W$0A@@0@ABV10@@Z 4009de77 f i libcpmt:wlocale.obj
 0001:0009ce81       ??$addressof@PAG@std@@YAPAPAGAAPAG@Z 4009de81 f i libcpmt:wlocale.obj
 0001:0009ce8b       ??$addressof@PA_W@std@@YAPAPA_WAAPA_W@Z 4009de8b f i libcpmt:wlocale.obj
 0001:0009ce95       ??$addressof@V?$_String_val@U?$_Simple_types@G@std@@@std@@@std@@YAPAV?$_String_val@U?$_Simple_types@G@std@@@0@AAV10@@Z 4009de95 f i libcpmt:wlocale.obj
 0001:0009ce9f       ??$addressof@V?$_String_val@U?$_Simple_types@_W@std@@@std@@@std@@YAPAV?$_String_val@U?$_Simple_types@_W@std@@@0@AAV10@@Z 4009de9f f i libcpmt:wlocale.obj
 0001:0009cea9       ??$addressof@V?$basic_string@GU?$char_traits@G@std@@V?$allocator@G@2@@std@@@std@@YAPAV?$basic_string@GU?$char_traits@G@std@@V?$allocator@G@2@@0@AAV10@@Z 4009dea9 f i libcpmt:wlocale.obj
 0001:0009ceb3       ??$addressof@V?$basic_string@_WU?$char_traits@_W@std@@V?$allocator@_W@2@@std@@@std@@YAPAV?$basic_string@_WU?$char_traits@_W@std@@V?$allocator@_W@2@@0@AAV10@@Z 4009deb3 f i libcpmt:wlocale.obj
 0001:0009cebd       ??$begin@$$CBD$0M@@std@@YAPBDAAY0M@$$CBD@Z 4009debd f i libcpmt:wlocale.obj
 0001:0009cec7       ??$construct_at@G$$V@std@@YAPAGQAG@Z 4009dec7 f i libcpmt:wlocale.obj
 0001:0009ced7       ??$construct_at@PAGAAPAG@std@@YAPAPAGQAPAGAAPAG@Z 4009ded7 f i libcpmt:wlocale.obj
 0001:0009cee9       ??$construct_at@PAGABQAG@std@@YAPAPAGQAPAGABQAG@Z 4009dee9 f i libcpmt:wlocale.obj
 0001:0009cefb       ??$construct_at@PA_WAAPA_W@std@@YAPAPA_WQAPA_WAAPA_W@Z 4009defb f i libcpmt:wlocale.obj
 0001:0009cf0d       ??$construct_at@PA_WABQA_W@std@@YAPAPA_WQAPA_WABQA_W@Z 4009df0d f i libcpmt:wlocale.obj
 0001:0009cf1f       ??$construct_at@_W$$V@std@@YAPA_WQA_W@Z 4009df1f f i libcpmt:wlocale.obj
 0001:0009cf2f       ??$copy@PA_WV?$ostreambuf_iterator@GU?$char_traits@G@std@@@std@@@std@@YA?AV?$ostreambuf_iterator@GU?$char_traits@G@std@@@0@PA_W0V10@@Z 4009df2f f i libcpmt:wlocale.obj
 0001:0009cf66       ??$copy@PA_WV?$ostreambuf_iterator@_WU?$char_traits@_W@std@@@std@@@std@@YA?AV?$ostreambuf_iterator@_WU?$char_traits@_W@std@@@0@PA_W0V10@@Z 4009df66 f i libcpmt:wlocale.obj
 0001:0009cf9d       ??$end@$$CBD$0M@@std@@YAPBDAAY0M@$$CBD@Z 4009df9d f i libcpmt:wlocale.obj
 0001:0009cfaa       ??$forward@AAPAG@std@@YAAAPAGAAPAG@Z 4009dfaa f i libcpmt:wlocale.obj
 0001:0009cfb4       ??$forward@AAPA_W@std@@YAAAPA_WAAPA_W@Z 4009dfb4 f i libcpmt:wlocale.obj
 0001:0009cfbe       ??$forward@ABQAG@std@@YAABQAGABQAG@Z 4009dfbe f i libcpmt:wlocale.obj
 0001:0009cfc8       ??$forward@ABQA_W@std@@YAABQA_WABQA_W@Z 4009dfc8 f i libcpmt:wlocale.obj
 0001:0009cfd2       ??$forward@V?$allocator@D@std@@@std@@YA$$QAV?$allocator@D@0@AAV10@@Z 4009dfd2 f i libcpmt:wlocale.obj
 0001:0009cfdc       ??$forward@V?$allocator@G@std@@@std@@YA$$QAV?$allocator@G@0@AAV10@@Z 4009dfdc f i libcpmt:wlocale.obj
 0001:0009cfe6       ??$forward@V?$allocator@_W@std@@@std@@YA$$QAV?$allocator@_W@0@AAV10@@Z 4009dfe6 f i libcpmt:wlocale.obj
 0001:0009cff0       ??$forward@V?$ostreambuf_iterator@GU?$char_traits@G@std@@@std@@@std@@YA$$QAV?$ostreambuf_iterator@GU?$char_traits@G@std@@@0@AAV10@@Z 4009dff0 f i libcpmt:wlocale.obj
 0001:0009cffa       ??$forward@V?$ostreambuf_iterator@_WU?$char_traits@_W@std@@@std@@@std@@YA$$QAV?$ostreambuf_iterator@_WU?$char_traits@_W@std@@@0@AAV10@@Z 4009dffa f i libcpmt:wlocale.obj
 0001:0009d004       ??$move@AAV?$allocator@G@std@@@std@@YA$$QAV?$allocator@G@0@AAV10@@Z 4009e004 f i libcpmt:wlocale.obj
 0001:0009d00e       ??$move@AAV?$allocator@_W@std@@@std@@YA$$QAV?$allocator@_W@0@AAV10@@Z 4009e00e f i libcpmt:wlocale.obj
 0001:0009d018       ??$move@AAV?$basic_string@GU?$char_traits@G@std@@V?$allocator@G@2@@std@@@std@@YA$$QAV?$basic_string@GU?$char_traits@G@std@@V?$allocator@G@2@@0@AAV10@@Z 4009e018 f i libcpmt:wlocale.obj
 0001:0009d022       ??$move@AAV?$basic_string@_WU?$char_traits@_W@std@@V?$allocator@_W@2@@std@@@std@@YA$$QAV?$basic_string@_WU?$char_traits@_W@std@@V?$allocator@_W@2@@0@AAV10@@Z 4009e022 f i libcpmt:wlocale.obj
 0001:0009d02c       ??$move@AAV?$ostreambuf_iterator@GU?$char_traits@G@std@@@std@@@std@@YA$$QAV?$ostreambuf_iterator@GU?$char_traits@G@std@@@0@AAV10@@Z 4009e02c f i libcpmt:wlocale.obj
 0001:0009d036       ??$move@AAV?$ostreambuf_iterator@_WU?$char_traits@_W@std@@@std@@@std@@YA$$QAV?$ostreambuf_iterator@_WU?$char_traits@_W@std@@@0@AAV10@@Z 4009e036 f i libcpmt:wlocale.obj
 0001:0009d040       ??$to_address@$$CBG@std@@YAPBGQBG@Z 4009e040 f i libcpmt:wlocale.obj
 0001:0009d04a       ??$to_address@$$CB_W@std@@YAPB_WQB_W@Z 4009e04a f i libcpmt:wlocale.obj
 0001:0009d054       ??$use_facet@V?$codecvt@GDU_Mbstatet@@@std@@@std@@YAABV?$codecvt@GDU_Mbstatet@@@0@ABVlocale@0@@Z 4009e054 f i libcpmt:wlocale.obj
 0001:0009d112       ??$use_facet@V?$codecvt@_WDU_Mbstatet@@@std@@@std@@YAABV?$codecvt@_WDU_Mbstatet@@@0@ABVlocale@0@@Z 4009e112 f i libcpmt:wlocale.obj
 0001:0009d1d0       ??$use_facet@V?$collate@G@std@@@std@@YAABV?$collate@G@0@ABVlocale@0@@Z 4009e1d0 f i libcpmt:wlocale.obj
 0001:0009d28e       ??$use_facet@V?$collate@_W@std@@@std@@YAABV?$collate@_W@0@ABVlocale@0@@Z 4009e28e f i libcpmt:wlocale.obj
 0001:0009d34c       ??$use_facet@V?$ctype@G@std@@@std@@YAABV?$ctype@G@0@ABVlocale@0@@Z 4009e34c f i libcpmt:wlocale.obj
 0001:0009d40a       ??$use_facet@V?$ctype@_W@std@@@std@@YAABV?$ctype@_W@0@ABVlocale@0@@Z 4009e40a f i libcpmt:wlocale.obj
 0001:0009d4c8       ??$use_facet@V?$messages@G@std@@@std@@YAABV?$messages@G@0@ABVlocale@0@@Z 4009e4c8 f i libcpmt:wlocale.obj
 0001:0009d586       ??$use_facet@V?$messages@_W@std@@@std@@YAABV?$messages@_W@0@ABVlocale@0@@Z 4009e586 f i libcpmt:wlocale.obj
 0001:0009d644       ??$use_facet@V?$money_get@GV?$istreambuf_iterator@GU?$char_traits@G@std@@@std@@@std@@@std@@YAABV?$money_get@GV?$istreambuf_iterator@GU?$char_traits@G@std@@@std@@@0@ABVlocale@0@@Z 4009e644 f i libcpmt:wlocale.obj
 0001:0009d702       ??$use_facet@V?$money_get@_WV?$istreambuf_iterator@_WU?$char_traits@_W@std@@@std@@@std@@@std@@YAABV?$money_get@_WV?$istreambuf_iterator@_WU?$char_traits@_W@std@@@std@@@0@ABVlocale@0@@Z 4009e702 f i libcpmt:wlocale.obj
 0001:0009d7c0       ??$use_facet@V?$money_put@GV?$ostreambuf_iterator@GU?$char_traits@G@std@@@std@@@std@@@std@@YAABV?$money_put@GV?$ostreambuf_iterator@GU?$char_traits@G@std@@@std@@@0@ABVlocale@0@@Z 4009e7c0 f i libcpmt:wlocale.obj
 0001:0009d87e       ??$use_facet@V?$money_put@_WV?$ostreambuf_iterator@_WU?$char_traits@_W@std@@@std@@@std@@@std@@YAABV?$money_put@_WV?$ostreambuf_iterator@_WU?$char_traits@_W@std@@@std@@@0@ABVlocale@0@@Z 4009e87e f i libcpmt:wlocale.obj
 0001:0009d93c       ??$use_facet@V?$moneypunct@G$00@std@@@std@@YAABV?$moneypunct@G$00@0@ABVlocale@0@@Z 4009e93c f i libcpmt:wlocale.obj
 0001:0009d9fa       ??$use_facet@V?$moneypunct@G$0A@@std@@@std@@YAABV?$moneypunct@G$0A@@0@ABVlocale@0@@Z 4009e9fa f i libcpmt:wlocale.obj
 0001:0009dab8       ??$use_facet@V?$moneypunct@_W$00@std@@@std@@YAABV?$moneypunct@_W$00@0@ABVlocale@0@@Z 4009eab8 f i libcpmt:wlocale.obj
 0001:0009db76       ??$use_facet@V?$moneypunct@_W$0A@@std@@@std@@YAABV?$moneypunct@_W$0A@@0@ABVlocale@0@@Z 4009eb76 f i libcpmt:wlocale.obj
 0001:0009dc34       ??$use_facet@V?$num_get@GV?$istreambuf_iterator@GU?$char_traits@G@std@@@std@@@std@@@std@@YAABV?$num_get@GV?$istreambuf_iterator@GU?$char_traits@G@std@@@std@@@0@ABVlocale@0@@Z 4009ec34 f i libcpmt:wlocale.obj
 0001:0009dcf2       ??$use_facet@V?$num_get@_WV?$istreambuf_iterator@_WU?$char_traits@_W@std@@@std@@@std@@@std@@YAABV?$num_get@_WV?$istreambuf_iterator@_WU?$char_traits@_W@std@@@std@@@0@ABVlocale@0@@Z 4009ecf2 f i libcpmt:wlocale.obj
 0001:0009ddb0       ??$use_facet@V?$num_put@GV?$ostreambuf_iterator@GU?$char_traits@G@std@@@std@@@std@@@std@@YAABV?$num_put@GV?$ostreambuf_iterator@GU?$char_traits@G@std@@@std@@@0@ABVlocale@0@@Z 4009edb0 f i libcpmt:wlocale.obj
 0001:0009de6e       ??$use_facet@V?$num_put@_WV?$ostreambuf_iterator@_WU?$char_traits@_W@std@@@std@@@std@@@std@@YAABV?$num_put@_WV?$ostreambuf_iterator@_WU?$char_traits@_W@std@@@std@@@0@ABVlocale@0@@Z 4009ee6e f i libcpmt:wlocale.obj
 0001:0009df2c       ??$use_facet@V?$numpunct@G@std@@@std@@YAABV?$numpunct@G@0@ABVlocale@0@@Z 4009ef2c f i libcpmt:wlocale.obj
 0001:0009dfea       ??$use_facet@V?$numpunct@_W@std@@@std@@YAABV?$numpunct@_W@0@ABVlocale@0@@Z 4009efea f i libcpmt:wlocale.obj
 0001:0009e0a8       ??$use_facet@V?$time_get@GV?$istreambuf_iterator@GU?$char_traits@G@std@@@std@@@std@@@std@@YAABV?$time_get@GV?$istreambuf_iterator@GU?$char_traits@G@std@@@std@@@0@ABVlocale@0@@Z 4009f0a8 f i libcpmt:wlocale.obj
 0001:0009e166       ??$use_facet@V?$time_get@_WV?$istreambuf_iterator@_WU?$char_traits@_W@std@@@std@@@std@@@std@@YAABV?$time_get@_WV?$istreambuf_iterator@_WU?$char_traits@_W@std@@@std@@@0@ABVlocale@0@@Z 4009f166 f i libcpmt:wlocale.obj
 0001:0009e224       ??$use_facet@V?$time_put@GV?$ostreambuf_iterator@GU?$char_traits@G@std@@@std@@@std@@@std@@YAABV?$time_put@GV?$ostreambuf_iterator@GU?$char_traits@G@std@@@std@@@0@ABVlocale@0@@Z 4009f224 f i libcpmt:wlocale.obj
 0001:0009e2e2       ??$use_facet@V?$time_put@_WV?$ostreambuf_iterator@_WU?$char_traits@_W@std@@@std@@@std@@@std@@YAABV?$time_put@_WV?$ostreambuf_iterator@_WU?$char_traits@_W@std@@@std@@@0@ABVlocale@0@@Z 4009f2e2 f i libcpmt:wlocale.obj
 0001:0009e3a0       ??0?$_Mpunct@G@std@@QAE@ABV_Locinfo@1@I_N1@Z 4009f3a0 f i libcpmt:wlocale.obj
 0001:0009e3ee       ??0?$_Mpunct@_W@std@@QAE@ABV_Locinfo@1@I_N1@Z 4009f3ee f i libcpmt:wlocale.obj
 0001:0009e43c       ??0?$_String_const_iterator@V?$_String_val@U?$_Simple_types@G@std@@@std@@@std@@QAE@PBGPBU_Container_base0@1@@Z 4009f43c f i libcpmt:wlocale.obj
 0001:0009e44d       ??0?$_String_const_iterator@V?$_String_val@U?$_Simple_types@G@std@@@std@@@std@@QAE@XZ 4009f44d f i libcpmt:wlocale.obj
 0001:0009e458       ??0?$_String_const_iterator@V?$_String_val@U?$_Simple_types@_W@std@@@std@@@std@@QAE@PB_WPBU_Container_base0@1@@Z 4009f458 f i libcpmt:wlocale.obj
 0001:0009e469       ??0?$_String_const_iterator@V?$_String_val@U?$_Simple_types@_W@std@@@std@@@std@@QAE@XZ 4009f469 f i libcpmt:wlocale.obj
 0001:0009e474       ??0?$_String_iterator@V?$_String_val@U?$_Simple_types@G@std@@@std@@@std@@QAE@PBGPBU_Container_base0@1@@Z 4009f474 f i libcpmt:wlocale.obj
 0001:0009e485       ??0?$_String_iterator@V?$_String_val@U?$_Simple_types@_W@std@@@std@@@std@@QAE@PB_WPBU_Container_base0@1@@Z 4009f485 f i libcpmt:wlocale.obj
 0001:0009e496       ??0?$_String_val@U?$_Simple_types@G@std@@@std@@QAE@XZ 4009f496 f i libcpmt:wlocale.obj
 0001:0009e4b7       ??0?$_String_val@U?$_Simple_types@_W@std@@@std@@QAE@XZ 4009f4b7 f i libcpmt:wlocale.obj
 0001:0009e4d8       ??0?$allocator@G@std@@QAE@XZ 4009f4d8 f i libcpmt:wlocale.obj
 0001:0009e4db       ??0?$allocator@_W@std@@QAE@XZ 4009f4db f i libcpmt:wlocale.obj
 0001:0009e4de       ??0?$basic_string@DU?$char_traits@D@std@@V?$allocator@D@2@@std@@QAE@$$QAV01@@Z 4009f4de f i libcpmt:wlocale.obj
 0001:0009e516       ??0?$basic_string@DU?$char_traits@D@std@@V?$allocator@D@2@@std@@QAE@QBDI@Z 4009f516 f i libcpmt:wlocale.obj
 0001:0009e552       ??0?$basic_string@GU?$char_traits@G@std@@V?$allocator@G@2@@std@@QAE@$$QAV01@@Z 4009f552 f i libcpmt:wlocale.obj
 0001:0009e58a       ??0?$basic_string@GU?$char_traits@G@std@@V?$allocator@G@2@@std@@QAE@ABV01@@Z 4009f58a f i libcpmt:wlocale.obj
 0001:0009e5d5       ??0?$basic_string@GU?$char_traits@G@std@@V?$allocator@G@2@@std@@QAE@IG@Z 4009f5d5 f i libcpmt:wlocale.obj
 0001:0009e611       ??0?$basic_string@GU?$char_traits@G@std@@V?$allocator@G@2@@std@@QAE@QBG@Z 4009f611 f i libcpmt:wlocale.obj
 0001:0009e65f       ??0?$basic_string@GU?$char_traits@G@std@@V?$allocator@G@2@@std@@QAE@QBGI@Z 4009f65f f i libcpmt:wlocale.obj
 0001:0009e69b       ??0?$basic_string@GU?$char_traits@G@std@@V?$allocator@G@2@@std@@QAE@XZ 4009f69b f i libcpmt:wlocale.obj
 0001:0009e6c3       ??0?$basic_string@_WU?$char_traits@_W@std@@V?$allocator@_W@2@@std@@QAE@$$QAV01@@Z 4009f6c3 f i libcpmt:wlocale.obj
 0001:0009e6fb       ??0?$basic_string@_WU?$char_traits@_W@std@@V?$allocator@_W@2@@std@@QAE@ABV01@@Z 4009f6fb f i libcpmt:wlocale.obj
 0001:0009e746       ??0?$basic_string@_WU?$char_traits@_W@std@@V?$allocator@_W@2@@std@@QAE@I_W@Z 4009f746 f i libcpmt:wlocale.obj
 0001:0009e782       ??0?$basic_string@_WU?$char_traits@_W@std@@V?$allocator@_W@2@@std@@QAE@QB_W@Z 4009f782 f i libcpmt:wlocale.obj
 0001:0009e7d0       ??0?$basic_string@_WU?$char_traits@_W@std@@V?$allocator@_W@2@@std@@QAE@QB_WI@Z 4009f7d0 f i libcpmt:wlocale.obj
 0001:0009e80c       ??0?$basic_string@_WU?$char_traits@_W@std@@V?$allocator@_W@2@@std@@QAE@XZ 4009f80c f i libcpmt:wlocale.obj
 0001:0009e834       ??0?$codecvt@GDU_Mbstatet@@@std@@QAE@ABV_Locinfo@1@I@Z 4009f834 f i libcpmt:wlocale.obj
 0001:0009e878       ??0?$codecvt@_WDU_Mbstatet@@@std@@QAE@ABV_Locinfo@1@I@Z 4009f878 f i libcpmt:wlocale.obj
 0001:0009e8bc       ??0?$collate@G@std@@QAE@ABV_Locinfo@1@I@Z 4009f8bc f i libcpmt:wlocale.obj
 0001:0009e8ee       ??0?$collate@_W@std@@QAE@ABV_Locinfo@1@I@Z 4009f8ee f i libcpmt:wlocale.obj
 0001:0009e920       ??0?$ctype@G@std@@QAE@ABV_Locinfo@1@I@Z 4009f920 f i libcpmt:wlocale.obj
 0001:0009e94e       ??0?$ctype@_W@std@@QAE@ABV_Locinfo@1@I@Z 4009f94e f i libcpmt:wlocale.obj
 0001:0009e97c       ??0?$messages@G@std@@QAE@ABV_Locinfo@1@I@Z 4009f97c f i libcpmt:wlocale.obj
 0001:0009e99b       ??0?$messages@_W@std@@QAE@ABV_Locinfo@1@I@Z 4009f99b f i libcpmt:wlocale.obj
 0001:0009e9ba       ??0?$money_get@GV?$istreambuf_iterator@GU?$char_traits@G@std@@@std@@@std@@QAE@ABV_Locinfo@1@I@Z 4009f9ba f i libcpmt:wlocale.obj
 0001:0009e9d9       ??0?$money_get@_WV?$istreambuf_iterator@_WU?$char_traits@_W@std@@@std@@@std@@QAE@ABV_Locinfo@1@I@Z 4009f9d9 f i libcpmt:wlocale.obj
 0001:0009e9f8       ??0?$money_put@GV?$ostreambuf_iterator@GU?$char_traits@G@std@@@std@@@std@@QAE@ABV_Locinfo@1@I@Z 4009f9f8 f i libcpmt:wlocale.obj
 0001:0009ea17       ??0?$money_put@_WV?$ostreambuf_iterator@_WU?$char_traits@_W@std@@@std@@@std@@QAE@ABV_Locinfo@1@I@Z 4009fa17 f i libcpmt:wlocale.obj
 0001:0009ea36       ??0?$moneypunct@G$00@std@@QAE@ABV_Locinfo@1@I_N@Z 4009fa36 f i libcpmt:wlocale.obj
 0001:0009ea66       ??0?$moneypunct@G$0A@@std@@QAE@ABV_Locinfo@1@I_N@Z 4009fa66 f i libcpmt:wlocale.obj
 0001:0009ea96       ??0?$moneypunct@_W$00@std@@QAE@ABV_Locinfo@1@I_N@Z 4009fa96 f i libcpmt:wlocale.obj
 0001:0009eac6       ??0?$moneypunct@_W$0A@@std@@QAE@ABV_Locinfo@1@I_N@Z 4009fac6 f i libcpmt:wlocale.obj
 0001:0009eaf6       ??0?$num_get@GV?$istreambuf_iterator@GU?$char_traits@G@std@@@std@@@std@@QAE@ABV_Locinfo@1@I@Z 4009faf6 f i libcpmt:wlocale.obj
 0001:0009eb15       ??0?$num_get@_WV?$istreambuf_iterator@_WU?$char_traits@_W@std@@@std@@@std@@QAE@ABV_Locinfo@1@I@Z 4009fb15 f i libcpmt:wlocale.obj
 0001:0009eb34       ??0?$num_put@GV?$ostreambuf_iterator@GU?$char_traits@G@std@@@std@@@std@@QAE@ABV_Locinfo@1@I@Z 4009fb34 f i libcpmt:wlocale.obj
 0001:0009eb53       ??0?$num_put@_WV?$ostreambuf_iterator@_WU?$char_traits@_W@std@@@std@@@std@@QAE@ABV_Locinfo@1@I@Z 4009fb53 f i libcpmt:wlocale.obj
 0001:0009eb72       ??0?$numpunct@G@std@@QAE@ABV_Locinfo@1@I_N@Z 4009fb72 f i libcpmt:wlocale.obj
 0001:0009ebb9       ??0?$numpunct@_W@std@@QAE@ABV_Locinfo@1@I_N@Z 4009fbb9 f i libcpmt:wlocale.obj
 0001:0009ec00       ??0?$time_get@GV?$istreambuf_iterator@GU?$char_traits@G@std@@@std@@@std@@QAE@ABV_Locinfo@1@I@Z 4009fc00 f i libcpmt:wlocale.obj
 0001:0009ec43       ??0?$time_get@_WV?$istreambuf_iterator@_WU?$char_traits@_W@std@@@std@@@std@@QAE@ABV_Locinfo@1@I@Z 4009fc43 f i libcpmt:wlocale.obj
 0001:0009ec86       ??0?$time_put@GV?$ostreambuf_iterator@GU?$char_traits@G@std@@@std@@@std@@QAE@ABV_Locinfo@1@I@Z 4009fc86 f i libcpmt:wlocale.obj
 0001:0009ecbd       ??0?$time_put@_WV?$ostreambuf_iterator@_WU?$char_traits@_W@std@@@std@@@std@@QAE@ABV_Locinfo@1@I@Z 4009fcbd f i libcpmt:wlocale.obj
 0001:0009ecf4       ??0_Bxty@?$_String_val@U?$_Simple_types@G@std@@@std@@QAE@XZ 4009fcf4 f i libcpmt:wlocale.obj
 0001:0009ed04       ??0_Bxty@?$_String_val@U?$_Simple_types@_W@std@@@std@@QAE@XZ 4009fd04 f i libcpmt:wlocale.obj
 0001:0009ed14       ??0_Timevec@std@@QAE@PAX@Z 4009fd14 f i libcpmt:wlocale.obj
 0001:0009ed25       ??0error_code@std@@QAE@HABVerror_category@1@@Z 4009fd25 f i libcpmt:wlocale.obj
 0001:0009ed3e       ??0error_condition@std@@QAE@HABVerror_category@1@@Z 4009fd3e f i libcpmt:wlocale.obj
 0001:0009ed57       ??0messages_base@std@@QAE@I@Z 4009fd57 f i libcpmt:wlocale.obj
 0001:0009ed71       ??0money_base@std@@QAE@I@Z 4009fd71 f i libcpmt:wlocale.obj
 0001:0009ed8b       ??0runtime_error@std@@QAE@ABV?$basic_string@DU?$char_traits@D@std@@V?$allocator@D@2@@1@@Z 4009fd8b f i libcpmt:wlocale.obj
 0001:0009edbd       ??0system_error@std@@QAE@Verror_code@1@PBD@Z 4009fdbd f i libcpmt:wlocale.obj
 0001:0009ee21       ??0time_base@std@@QAE@I@Z  4009fe21 f i libcpmt:wlocale.obj
 0001:0009ee3b       ??1?$_Compressed_pair@V?$allocator@G@std@@V?$_String_val@U?$_Simple_types@G@std@@@2@$00@std@@QAE@XZ 4009fe3b f i libcpmt:wlocale.obj
 0001:0009ee3e       ??1?$_Compressed_pair@V?$allocator@_W@std@@V?$_String_val@U?$_Simple_types@_W@std@@@2@$00@std@@QAE@XZ 4009fe3e f i libcpmt:wlocale.obj
 0001:0009ee41       ??1?$_Mpunct@G@std@@MAE@XZ 4009fe41 f i libcpmt:wlocale.obj
 0001:0009ee5c       ??1?$_Mpunct@_W@std@@MAE@XZ 4009fe5c f i libcpmt:wlocale.obj
 0001:0009ee77       ??1?$_String_val@U?$_Simple_types@G@std@@@std@@QAE@XZ 4009fe77 f i libcpmt:wlocale.obj
 0001:0009ee7a       ??1?$_String_val@U?$_Simple_types@_W@std@@@std@@QAE@XZ 4009fe7a f i libcpmt:wlocale.obj
 0001:0009ee7d       ??1?$_Tidy_guard@V?$_Mpunct@G@std@@@std@@QAE@XZ 4009fe7d f i libcpmt:wlocale.obj
 0001:0009ee8a       ??1?$_Tidy_guard@V?$_Mpunct@_W@std@@@std@@QAE@XZ 4009fe8a f i libcpmt:wlocale.obj
 0001:0009ee97       ??1?$_Tidy_guard@V?$numpunct@G@std@@@std@@QAE@XZ 4009fe97 f i libcpmt:wlocale.obj
 0001:0009eea4       ??1?$_Tidy_guard@V?$numpunct@_W@std@@@std@@QAE@XZ 4009fea4 f i libcpmt:wlocale.obj
 0001:0009eeb1       ??1?$_Tidy_guard@V?$time_get@GV?$istreambuf_iterator@GU?$char_traits@G@std@@@std@@@std@@@std@@QAE@XZ 4009feb1 f i libcpmt:wlocale.obj
 0001:0009eebe       ??1?$_Tidy_guard@V?$time_get@_WV?$istreambuf_iterator@_WU?$char_traits@_W@std@@@std@@@std@@@std@@QAE@XZ 4009febe f i libcpmt:wlocale.obj
 0001:0009eecb       ??1?$basic_string@GU?$char_traits@G@std@@V?$allocator@G@2@@std@@QAE@XZ 4009fecb f i libcpmt:wlocale.obj
 0001:0009eed0       ??1?$basic_string@_WU?$char_traits@_W@std@@V?$allocator@_W@2@@std@@QAE@XZ 4009fed0 f i libcpmt:wlocale.obj
 0001:0009eed5       ??1?$codecvt@GDU_Mbstatet@@@std@@MAE@XZ 4009fed5 f i libcpmt:wlocale.obj
 0001:0009eedc       ??1?$codecvt@_WDU_Mbstatet@@@std@@MAE@XZ 4009fedc f i libcpmt:wlocale.obj
 0001:0009eee3       ??1?$collate@G@std@@MAE@XZ 4009fee3 f i libcpmt:wlocale.obj
 0001:0009ef03       ??1?$collate@_W@std@@MAE@XZ 4009ff03 f i libcpmt:wlocale.obj
 0001:0009ef23       ??1?$ctype@G@std@@MAE@XZ   4009ff23 f i libcpmt:wlocale.obj
 0001:0009ef56       ??1?$ctype@_W@std@@MAE@XZ  4009ff56 f i libcpmt:wlocale.obj
 0001:0009ef89       ??1?$messages@G@std@@MAE@XZ 4009ff89 f i libcpmt:wlocale.obj
 0001:0009ef90       ??1?$messages@_W@std@@MAE@XZ 4009ff90 f i libcpmt:wlocale.obj
 0001:0009ef97       ??1?$money_get@GV?$istreambuf_iterator@GU?$char_traits@G@std@@@std@@@std@@MAE@XZ 4009ff97 f i libcpmt:wlocale.obj
 0001:0009ef9e       ??1?$money_get@_WV?$istreambuf_iterator@_WU?$char_traits@_W@std@@@std@@@std@@MAE@XZ 4009ff9e f i libcpmt:wlocale.obj
 0001:0009efa5       ??1?$money_put@GV?$ostreambuf_iterator@GU?$char_traits@G@std@@@std@@@std@@MAE@XZ 4009ffa5 f i libcpmt:wlocale.obj
 0001:0009efac       ??1?$money_put@_WV?$ostreambuf_iterator@_WU?$char_traits@_W@std@@@std@@@std@@MAE@XZ 4009ffac f i libcpmt:wlocale.obj
 0001:0009efb3       ??1?$moneypunct@G$00@std@@MAE@XZ 4009ffb3 f i libcpmt:wlocale.obj
 0001:0009efce       ??1?$moneypunct@G$0A@@std@@MAE@XZ 4009ffce f i libcpmt:wlocale.obj
 0001:0009efe9       ??1?$moneypunct@_W$00@std@@MAE@XZ 4009ffe9 f i libcpmt:wlocale.obj
 0001:0009f004       ??1?$moneypunct@_W$0A@@std@@MAE@XZ 400a0004 f i libcpmt:wlocale.obj
 0001:0009f01f       ??1?$num_get@GV?$istreambuf_iterator@GU?$char_traits@G@std@@@std@@@std@@MAE@XZ 400a001f f i libcpmt:wlocale.obj
 0001:0009f026       ??1?$num_get@_WV?$istreambuf_iterator@_WU?$char_traits@_W@std@@@std@@@std@@MAE@XZ 400a0026 f i libcpmt:wlocale.obj
 0001:0009f02d       ??1?$num_put@GV?$ostreambuf_iterator@GU?$char_traits@G@std@@@std@@@std@@MAE@XZ 400a002d f i libcpmt:wlocale.obj
 0001:0009f034       ??1?$num_put@_WV?$ostreambuf_iterator@_WU?$char_traits@_W@std@@@std@@@std@@MAE@XZ 400a0034 f i libcpmt:wlocale.obj
 0001:0009f03b       ??1?$numpunct@G@std@@MAE@XZ 400a003b f i libcpmt:wlocale.obj
 0001:0009f056       ??1?$numpunct@_W@std@@MAE@XZ 400a0056 f i libcpmt:wlocale.obj
 0001:0009f071       ??1?$time_get@GV?$istreambuf_iterator@GU?$char_traits@G@std@@@std@@@std@@MAE@XZ 400a0071 f i libcpmt:wlocale.obj
 0001:0009f08c       ??1?$time_get@_WV?$istreambuf_iterator@_WU?$char_traits@_W@std@@@std@@@std@@MAE@XZ 400a008c f i libcpmt:wlocale.obj
 0001:0009f0a7       ??1?$time_put@GV?$ostreambuf_iterator@GU?$char_traits@G@std@@@std@@@std@@MAE@XZ 400a00a7 f i libcpmt:wlocale.obj
 0001:0009f0c7       ??1?$time_put@_WV?$ostreambuf_iterator@_WU?$char_traits@_W@std@@@std@@@std@@MAE@XZ 400a00c7 f i libcpmt:wlocale.obj
 0001:0009f0e7       ??1_Bxty@?$_String_val@U?$_Simple_types@G@std@@@std@@QAE@XZ 400a00e7 f i libcpmt:wlocale.obj
 0001:0009f0ea       ??1_Bxty@?$_String_val@U?$_Simple_types@_W@std@@@std@@QAE@XZ 400a00ea f i libcpmt:wlocale.obj
 0001:0009f0ed       ??1_Iostream_error_category2@std@@UAE@XZ 400a00ed f i libcpmt:wlocale.obj
 0001:0009f0f0       ??1_System_error@std@@UAE@XZ 400a00f0 f i libcpmt:wlocale.obj
 0001:0009f105       ??1_Timevec@std@@QAE@XZ    400a0105 f i libcpmt:wlocale.obj
 0001:0009f110       ??1messages_base@std@@UAE@XZ 400a0110 f i libcpmt:wlocale.obj
 0001:0009f117       ??1money_base@std@@UAE@XZ  400a0117 f i libcpmt:wlocale.obj
 0001:0009f11e       ??1time_base@std@@UAE@XZ   400a011e f i libcpmt:wlocale.obj
 0001:0009f125       ??4?$_Yarn@_W@std@@QAEAAV01@PB_W@Z 400a0125 f i libcpmt:wlocale.obj
 0001:0009f18b       ??4?$basic_string@GU?$char_traits@G@std@@V?$allocator@G@2@@std@@QAEAAV01@$$QAV01@@Z 400a018b f i libcpmt:wlocale.obj
 0001:0009f1b4       ??4?$basic_string@_WU?$char_traits@_W@std@@V?$allocator@_W@2@@std@@QAEAAV01@$$QAV01@@Z 400a01b4 f i libcpmt:wlocale.obj
 0001:0009f1dd       ??4?$ostreambuf_iterator@GU?$char_traits@G@std@@@std@@QAEAAV01@G@Z 400a01dd f i libcpmt:wlocale.obj
 0001:0009f210       ??4?$ostreambuf_iterator@_WU?$char_traits@_W@std@@@std@@QAEAAV01@_W@Z 400a0210 f i libcpmt:wlocale.obj
 0001:0009f243       ??4_Timevec@std@@QAEAAV01@ABV01@@Z 400a0243 f i libcpmt:wlocale.obj
 0001:0009f275       ??8?$_String_const_iterator@V?$_String_val@U?$_Simple_types@G@std@@@std@@@std@@QBE_NABV01@@Z 400a0275 f i libcpmt:wlocale.obj
 0001:0009f28a       ??8?$_String_const_iterator@V?$_String_val@U?$_Simple_types@_W@std@@@std@@@std@@QBE_NABV01@@Z 400a028a f i libcpmt:wlocale.obj
 0001:0009f29f       ??8error_category@std@@QBE_NABV01@@Z 400a029f f i libcpmt:wlocale.obj
 0001:0009f2b6       ??8std@@YA_NABVerror_condition@0@0@Z 400a02b6 f i libcpmt:wlocale.obj
 0001:0009f2e6       ??A?$basic_string@GU?$char_traits@G@std@@V?$allocator@G@2@@std@@QAEAAGI@Z 400a02e6 f i libcpmt:wlocale.obj
 0001:0009f300       ??A?$basic_string@GU?$char_traits@G@std@@V?$allocator@G@2@@std@@QBEABGI@Z 400a0300 f i libcpmt:wlocale.obj
 0001:0009f31a       ??A?$basic_string@_WU?$char_traits@_W@std@@V?$allocator@_W@2@@std@@QAEAA_WI@Z 400a031a f i libcpmt:wlocale.obj
 0001:0009f334       ??A?$basic_string@_WU?$char_traits@_W@std@@V?$allocator@_W@2@@std@@QBEAB_WI@Z 400a0334 f i libcpmt:wlocale.obj
 0001:0009f34e       ??D?$_String_const_iterator@V?$_String_val@U?$_Simple_types@G@std@@@std@@@std@@QBEABGXZ 400a034e f i libcpmt:wlocale.obj
 0001:0009f351       ??D?$_String_const_iterator@V?$_String_val@U?$_Simple_types@_W@std@@@std@@@std@@QBEAB_WXZ 400a0351 f i libcpmt:wlocale.obj
 0001:0009f354       ??D?$_String_iterator@V?$_String_val@U?$_Simple_types@G@std@@@std@@@std@@QBEAAGXZ 400a0354 f i libcpmt:wlocale.obj
 0001:0009f357       ??D?$_String_iterator@V?$_String_val@U?$_Simple_types@_W@std@@@std@@@std@@QBEAA_WXZ 400a0357 f i libcpmt:wlocale.obj
 0001:0009f35a       ??D?$istreambuf_iterator@GU?$char_traits@G@std@@@std@@QBEGXZ 400a035a f i libcpmt:wlocale.obj
 0001:0009f373       ??D?$istreambuf_iterator@_WU?$char_traits@_W@std@@@std@@QBE_WXZ 400a0373 f i libcpmt:wlocale.obj
 0001:0009f38c       ??D?$ostreambuf_iterator@GU?$char_traits@G@std@@@std@@QAEAAV01@XZ 400a038c f i libcpmt:wlocale.obj
 0001:0009f38f       ??D?$ostreambuf_iterator@_WU?$char_traits@_W@std@@@std@@QAEAAV01@XZ 400a038f f i libcpmt:wlocale.obj
 0001:0009f392       ??E?$_String_const_iterator@V?$_String_val@U?$_Simple_types@G@std@@@std@@@std@@QAEAAV01@XZ 400a0392 f i libcpmt:wlocale.obj
 0001:0009f398       ??E?$_String_const_iterator@V?$_String_val@U?$_Simple_types@_W@std@@@std@@@std@@QAEAAV01@XZ 400a0398 f i libcpmt:wlocale.obj
 0001:0009f39e       ??E?$_String_iterator@V?$_String_val@U?$_Simple_types@G@std@@@std@@@std@@QAEAAV01@XZ 400a039e f i libcpmt:wlocale.obj
 0001:0009f3a4       ??E?$_String_iterator@V?$_String_val@U?$_Simple_types@_W@std@@@std@@@std@@QAEAAV01@XZ 400a03a4 f i libcpmt:wlocale.obj
 0001:0009f3aa       ??E?$istreambuf_iterator@GU?$char_traits@G@std@@@std@@QAEAAV01@XZ 400a03aa f i libcpmt:wlocale.obj
 0001:0009f3b9       ??E?$istreambuf_iterator@_WU?$char_traits@_W@std@@@std@@QAEAAV01@XZ 400a03b9 f i libcpmt:wlocale.obj
 0001:0009f3c8       ??E?$ostreambuf_iterator@GU?$char_traits@G@std@@@std@@QAEAAV01@H@Z 400a03c8 f i libcpmt:wlocale.obj
 0001:0009f3cd       ??E?$ostreambuf_iterator@GU?$char_traits@G@std@@@std@@QAEAAV01@XZ 400a03cd f i libcpmt:wlocale.obj
 0001:0009f3d0       ??E?$ostreambuf_iterator@_WU?$char_traits@_W@std@@@std@@QAEAAV01@H@Z 400a03d0 f i libcpmt:wlocale.obj
 0001:0009f3d5       ??E?$ostreambuf_iterator@_WU?$char_traits@_W@std@@@std@@QAEAAV01@XZ 400a03d5 f i libcpmt:wlocale.obj
 0001:0009f3d8       ??G?$_String_iterator@V?$_String_val@U?$_Simple_types@G@std@@@std@@@std@@QBE?AV01@H@Z 400a03d8 f i libcpmt:wlocale.obj
 0001:0009f3f2       ??G?$_String_iterator@V?$_String_val@U?$_Simple_types@_W@std@@@std@@@std@@QBE?AV01@H@Z 400a03f2 f i libcpmt:wlocale.obj
 0001:0009f40c       ??H?$_String_iterator@V?$_String_val@U?$_Simple_types@G@std@@@std@@@std@@QBE?AV01@H@Z 400a040c f i libcpmt:wlocale.obj
 0001:0009f425       ??H?$_String_iterator@V?$_String_val@U?$_Simple_types@_W@std@@@std@@@std@@QBE?AV01@H@Z 400a0425 f i libcpmt:wlocale.obj
 0001:0009f43e       ??R<lambda_1>@?1???$_Append@G@?$basic_string@GU?$char_traits@G@std@@V?$allocator@G@2@@std@@AAEAAV12@QBGI@Z@SA@QAG0I0I@Z 400a043e f i libcpmt:wlocale.obj
 0001:0009f48a       ??R<lambda_1>@?1???$_Append@_W@?$basic_string@_WU?$char_traits@_W@std@@V?$allocator@_W@2@@std@@AAEAAV12@QB_WI@Z@SA@QA_W0I0I@Z 400a048a f i libcpmt:wlocale.obj
 0001:0009f4d6       ??R<lambda_1>@?1??append@?$basic_string@GU?$char_traits@G@std@@V?$allocator@G@2@@std@@QAEAAV23@IG@Z@SA@QAGQBGIIG@Z 400a04d6 f i libcpmt:wlocale.obj
 0001:0009f51e       ??R<lambda_1>@?1??append@?$basic_string@_WU?$char_traits@_W@std@@V?$allocator@_W@2@@std@@QAEAAV23@I_W@Z@SA@QA_WQB_WII0@Z 400a051e f i libcpmt:wlocale.obj
 0001:0009f566       ??R<lambda_1>@?1??insert@?$basic_string@GU?$char_traits@G@std@@V?$allocator@G@2@@std@@QAEAAV23@IIG@Z@SA@QAGQBGIIIG@Z 400a0566 f i libcpmt:wlocale.obj
 0001:0009f5cb       ??R<lambda_1>@?1??insert@?$basic_string@_WU?$char_traits@_W@std@@V?$allocator@_W@2@@std@@QAEAAV23@II_W@Z@SA@QA_WQB_WIII0@Z 400a05cb f i libcpmt:wlocale.obj
 0001:0009f630       ??R<lambda_1>@?1??push_back@?$basic_string@GU?$char_traits@G@std@@V?$allocator@G@2@@std@@QAEXG@Z@SA@QAGQBGIG@Z 400a0630 f i libcpmt:wlocale.obj
 0001:0009f669       ??R<lambda_1>@?1??push_back@?$basic_string@_WU?$char_traits@_W@std@@V?$allocator@_W@2@@std@@QAEX_W@Z@SA@QA_WQB_WI0@Z 400a0669 f i libcpmt:wlocale.obj
 0001:0009f6a2       ??Y?$_String_const_iterator@V?$_String_val@U?$_Simple_types@G@std@@@std@@@std@@QAEAAV01@H@Z 400a06a2 f i libcpmt:wlocale.obj
 0001:0009f6b6       ??Y?$_String_const_iterator@V?$_String_val@U?$_Simple_types@_W@std@@@std@@@std@@QAEAAV01@H@Z 400a06b6 f i libcpmt:wlocale.obj
 0001:0009f6ca       ??Y?$_String_iterator@V?$_String_val@U?$_Simple_types@G@std@@@std@@@std@@QAEAAV01@H@Z 400a06ca f i libcpmt:wlocale.obj
 0001:0009f6de       ??Y?$_String_iterator@V?$_String_val@U?$_Simple_types@_W@std@@@std@@@std@@QAEAAV01@H@Z 400a06de f i libcpmt:wlocale.obj
 0001:0009f6f2       ??Y?$basic_string@DU?$char_traits@D@std@@V?$allocator@D@2@@std@@QAEAAV01@D@Z 400a06f2 f i libcpmt:wlocale.obj
 0001:0009f70c       ??Y?$basic_string@GU?$char_traits@G@std@@V?$allocator@G@2@@std@@QAEAAV01@ABV01@@Z 400a070c f i libcpmt:wlocale.obj
 0001:0009f717       ??Y?$basic_string@_WU?$char_traits@_W@std@@V?$allocator@_W@2@@std@@QAEAAV01@ABV01@@Z 400a0717 f i libcpmt:wlocale.obj
 0001:0009f722       ??Z?$_String_const_iterator@V?$_String_val@U?$_Simple_types@G@std@@@std@@@std@@QAEAAV01@H@Z 400a0722 f i libcpmt:wlocale.obj
 0001:0009f738       ??Z?$_String_const_iterator@V?$_String_val@U?$_Simple_types@_W@std@@@std@@@std@@QAEAAV01@H@Z 400a0738 f i libcpmt:wlocale.obj
 0001:0009f74e       ??Z?$_String_iterator@V?$_String_val@U?$_Simple_types@G@std@@@std@@@std@@QAEAAV01@H@Z 400a074e f i libcpmt:wlocale.obj
 0001:0009f764       ??Z?$_String_iterator@V?$_String_val@U?$_Simple_types@_W@std@@@std@@@std@@QAEAAV01@H@Z 400a0764 f i libcpmt:wlocale.obj
 0001:0009f77a       ??_E?$_Mpunct@G@std@@MAEPAXI@Z 400a077a f i libcpmt:wlocale.obj
 0001:0009f77a       ??_G?$_Mpunct@G@std@@MAEPAXI@Z 400a077a f i libcpmt:wlocale.obj
 0001:0009f7b3       ??_E?$_Mpunct@_W@std@@MAEPAXI@Z 400a07b3 f i libcpmt:wlocale.obj
 0001:0009f7b3       ??_G?$_Mpunct@_W@std@@MAEPAXI@Z 400a07b3 f i libcpmt:wlocale.obj
 0001:0009f7ec       ??_E?$codecvt@GDU_Mbstatet@@@std@@MAEPAXI@Z 400a07ec f i libcpmt:wlocale.obj
 0001:0009f7ec       ??_G?$codecvt@GDU_Mbstatet@@@std@@MAEPAXI@Z 400a07ec f i libcpmt:wlocale.obj
 0001:0009f817       ??_E?$codecvt@_WDU_Mbstatet@@@std@@MAEPAXI@Z 400a0817 f i libcpmt:wlocale.obj
 0001:0009f817       ??_G?$codecvt@_WDU_Mbstatet@@@std@@MAEPAXI@Z 400a0817 f i libcpmt:wlocale.obj
 0001:0009f842       ??_E?$collate@G@std@@MAEPAXI@Z 400a0842 f i libcpmt:wlocale.obj
 0001:0009f842       ??_G?$collate@G@std@@MAEPAXI@Z 400a0842 f i libcpmt:wlocale.obj
 0001:0009f86c       ??_E?$collate@_W@std@@MAEPAXI@Z 400a086c f i libcpmt:wlocale.obj
 0001:0009f86c       ??_G?$collate@_W@std@@MAEPAXI@Z 400a086c f i libcpmt:wlocale.obj
 0001:0009f896       ??_E?$ctype@G@std@@MAEPAXI@Z 400a0896 f i libcpmt:wlocale.obj
 0001:0009f896       ??_G?$ctype@G@std@@MAEPAXI@Z 400a0896 f i libcpmt:wlocale.obj
 0001:0009f8c0       ??_E?$ctype@_W@std@@MAEPAXI@Z 400a08c0 f i libcpmt:wlocale.obj
 0001:0009f8c0       ??_G?$ctype@_W@std@@MAEPAXI@Z 400a08c0 f i libcpmt:wlocale.obj
 0001:0009f8ea       ??_E?$messages@G@std@@MAEPAXI@Z 400a08ea f i libcpmt:wlocale.obj
 0001:0009f8ea       ??_G?$messages@G@std@@MAEPAXI@Z 400a08ea f i libcpmt:wlocale.obj
 0001:0009f915       ??_E?$messages@_W@std@@MAEPAXI@Z 400a0915 f i libcpmt:wlocale.obj
 0001:0009f915       ??_G?$messages@_W@std@@MAEPAXI@Z 400a0915 f i libcpmt:wlocale.obj
 0001:0009f940       ??_E?$money_get@GV?$istreambuf_iterator@GU?$char_traits@G@std@@@std@@@std@@MAEPAXI@Z 400a0940 f i libcpmt:wlocale.obj
 0001:0009f940       ??_G?$money_get@GV?$istreambuf_iterator@GU?$char_traits@G@std@@@std@@@std@@MAEPAXI@Z 400a0940 f i libcpmt:wlocale.obj
 0001:0009f96b       ??_E?$money_get@_WV?$istreambuf_iterator@_WU?$char_traits@_W@std@@@std@@@std@@MAEPAXI@Z 400a096b f i libcpmt:wlocale.obj
 0001:0009f96b       ??_G?$money_get@_WV?$istreambuf_iterator@_WU?$char_traits@_W@std@@@std@@@std@@MAEPAXI@Z 400a096b f i libcpmt:wlocale.obj
 0001:0009f996       ??_E?$money_put@GV?$ostreambuf_iterator@GU?$char_traits@G@std@@@std@@@std@@MAEPAXI@Z 400a0996 f i libcpmt:wlocale.obj
 0001:0009f996       ??_G?$money_put@GV?$ostreambuf_iterator@GU?$char_traits@G@std@@@std@@@std@@MAEPAXI@Z 400a0996 f i libcpmt:wlocale.obj
 0001:0009f9c1       ??_E?$money_put@_WV?$ostreambuf_iterator@_WU?$char_traits@_W@std@@@std@@@std@@MAEPAXI@Z 400a09c1 f i libcpmt:wlocale.obj
 0001:0009f9c1       ??_G?$money_put@_WV?$ostreambuf_iterator@_WU?$char_traits@_W@std@@@std@@@std@@MAEPAXI@Z 400a09c1 f i libcpmt:wlocale.obj
 0001:0009f9ec       ??_E?$moneypunct@G$00@std@@MAEPAXI@Z 400a09ec f i libcpmt:wlocale.obj
 0001:0009f9ec       ??_G?$moneypunct@G$00@std@@MAEPAXI@Z 400a09ec f i libcpmt:wlocale.obj
 0001:0009fa25       ??_E?$moneypunct@G$0A@@std@@MAEPAXI@Z 400a0a25 f i libcpmt:wlocale.obj
 0001:0009fa25       ??_G?$moneypunct@G$0A@@std@@MAEPAXI@Z 400a0a25 f i libcpmt:wlocale.obj
 0001:0009fa5e       ??_E?$moneypunct@_W$00@std@@MAEPAXI@Z 400a0a5e f i libcpmt:wlocale.obj
 0001:0009fa5e       ??_G?$moneypunct@_W$00@std@@MAEPAXI@Z 400a0a5e f i libcpmt:wlocale.obj
 0001:0009fa97       ??_E?$moneypunct@_W$0A@@std@@MAEPAXI@Z 400a0a97 f i libcpmt:wlocale.obj
 0001:0009fa97       ??_G?$moneypunct@_W$0A@@std@@MAEPAXI@Z 400a0a97 f i libcpmt:wlocale.obj
 0001:0009fad0       ??_E?$num_get@GV?$istreambuf_iterator@GU?$char_traits@G@std@@@std@@@std@@MAEPAXI@Z 400a0ad0 f i libcpmt:wlocale.obj
 0001:0009fad0       ??_G?$num_get@GV?$istreambuf_iterator@GU?$char_traits@G@std@@@std@@@std@@MAEPAXI@Z 400a0ad0 f i libcpmt:wlocale.obj
 0001:0009fafb       ??_E?$num_get@_WV?$istreambuf_iterator@_WU?$char_traits@_W@std@@@std@@@std@@MAEPAXI@Z 400a0afb f i libcpmt:wlocale.obj
 0001:0009fafb       ??_G?$num_get@_WV?$istreambuf_iterator@_WU?$char_traits@_W@std@@@std@@@std@@MAEPAXI@Z 400a0afb f i libcpmt:wlocale.obj
 0001:0009fb26       ??_E?$num_put@GV?$ostreambuf_iterator@GU?$char_traits@G@std@@@std@@@std@@MAEPAXI@Z 400a0b26 f i libcpmt:wlocale.obj
 0001:0009fb26       ??_G?$num_put@GV?$ostreambuf_iterator@GU?$char_traits@G@std@@@std@@@std@@MAEPAXI@Z 400a0b26 f i libcpmt:wlocale.obj
 0001:0009fb51       ??_E?$num_put@_WV?$ostreambuf_iterator@_WU?$char_traits@_W@std@@@std@@@std@@MAEPAXI@Z 400a0b51 f i libcpmt:wlocale.obj
 0001:0009fb51       ??_G?$num_put@_WV?$ostreambuf_iterator@_WU?$char_traits@_W@std@@@std@@@std@@MAEPAXI@Z 400a0b51 f i libcpmt:wlocale.obj
 0001:0009fb7c       ??_E?$numpunct@G@std@@MAEPAXI@Z 400a0b7c f i libcpmt:wlocale.obj
 0001:0009fb7c       ??_G?$numpunct@G@std@@MAEPAXI@Z 400a0b7c f i libcpmt:wlocale.obj
 0001:0009fbb5       ??_E?$numpunct@_W@std@@MAEPAXI@Z 400a0bb5 f i libcpmt:wlocale.obj
 0001:0009fbb5       ??_G?$numpunct@_W@std@@MAEPAXI@Z 400a0bb5 f i libcpmt:wlocale.obj
 0001:0009fbee       ??_E?$time_get@GV?$istreambuf_iterator@GU?$char_traits@G@std@@@std@@@std@@MAEPAXI@Z 400a0bee f i libcpmt:wlocale.obj
 0001:0009fbee       ??_G?$time_get@GV?$istreambuf_iterator@GU?$char_traits@G@std@@@std@@@std@@MAEPAXI@Z 400a0bee f i libcpmt:wlocale.obj
 0001:0009fc27       ??_E?$time_get@_WV?$istreambuf_iterator@_WU?$char_traits@_W@std@@@std@@@std@@MAEPAXI@Z 400a0c27 f i libcpmt:wlocale.obj
 0001:0009fc27       ??_G?$time_get@_WV?$istreambuf_iterator@_WU?$char_traits@_W@std@@@std@@@std@@MAEPAXI@Z 400a0c27 f i libcpmt:wlocale.obj
 0001:0009fc60       ??_E?$time_put@GV?$ostreambuf_iterator@GU?$char_traits@G@std@@@std@@@std@@MAEPAXI@Z 400a0c60 f i libcpmt:wlocale.obj
 0001:0009fc60       ??_G?$time_put@GV?$ostreambuf_iterator@GU?$char_traits@G@std@@@std@@@std@@MAEPAXI@Z 400a0c60 f i libcpmt:wlocale.obj
 0001:0009fc8a       ??_E?$time_put@_WV?$ostreambuf_iterator@_WU?$char_traits@_W@std@@@std@@@std@@MAEPAXI@Z 400a0c8a f i libcpmt:wlocale.obj
 0001:0009fc8a       ??_G?$time_put@_WV?$ostreambuf_iterator@_WU?$char_traits@_W@std@@@std@@@std@@MAEPAXI@Z 400a0c8a f i libcpmt:wlocale.obj
 0001:0009fcb4       ??_Emessages_base@std@@UAEPAXI@Z 400a0cb4 f i libcpmt:wlocale.obj
 0001:0009fcb4       ??_Gmessages_base@std@@UAEPAXI@Z 400a0cb4 f i libcpmt:wlocale.obj
 0001:0009fcdf       ??_Emoney_base@std@@UAEPAXI@Z 400a0cdf f i libcpmt:wlocale.obj
 0001:0009fcdf       ??_Gmoney_base@std@@UAEPAXI@Z 400a0cdf f i libcpmt:wlocale.obj
 0001:0009fd0a       ??_Etime_base@std@@UAEPAXI@Z 400a0d0a f i libcpmt:wlocale.obj
 0001:0009fd0a       ??_Gtime_base@std@@UAEPAXI@Z 400a0d0a f i libcpmt:wlocale.obj
 0001:0009fd35       ?_Activate_SSO_buffer@?$_String_val@U?$_Simple_types@G@std@@@std@@QAEXXZ 400a0d35 f i libcpmt:wlocale.obj
 0001:0009fd38       ?_Activate_SSO_buffer@?$_String_val@U?$_Simple_types@_W@std@@@std@@QAEXXZ 400a0d38 f i libcpmt:wlocale.obj
 0001:0009fd3b       ?_Adopt@_Iterator_base0@std@@QAEXPBX@Z 400a0d3b f i libcpmt:wlocale.obj
 0001:0009fd3e       ?_Apply_annotation@?$basic_string@GU?$char_traits@G@std@@V?$allocator@G@2@@std@@CAXQBGIII@Z 400a0d3e f i libcpmt:wlocale.obj
 0001:0009fda0       ?_Apply_annotation@?$basic_string@_WU?$char_traits@_W@std@@V?$allocator@_W@2@@std@@CAXQB_WIII@Z 400a0da0 f i libcpmt:wlocale.obj
 0001:0009fe02       ?_C_str@?$_Yarn@_W@std@@QBEPB_WXZ 400a0e02 f i libcpmt:wlocale.obj
 0001:0009fe0e       ?_Calculate_growth@?$basic_string@GU?$char_traits@G@std@@V?$allocator@G@2@@std@@ABEII@Z 400a0e0e f i libcpmt:wlocale.obj
 0001:0009fe2e       ?_Calculate_growth@?$basic_string@GU?$char_traits@G@std@@V?$allocator@G@2@@std@@CAIIII@Z 400a0e2e f i libcpmt:wlocale.obj
 0001:0009fe6b       ?_Calculate_growth@?$basic_string@_WU?$char_traits@_W@std@@V?$allocator@_W@2@@std@@ABEII@Z 400a0e6b f i libcpmt:wlocale.obj
 0001:0009fe8b       ?_Calculate_growth@?$basic_string@_WU?$char_traits@_W@std@@V?$allocator@_W@2@@std@@CAIIII@Z 400a0e8b f i libcpmt:wlocale.obj
 0001:0009fec8       ?_Check_offset@?$_String_val@U?$_Simple_types@G@std@@@std@@QBEXI@Z 400a0ec8 f i libcpmt:wlocale.obj
 0001:0009fee2       ?_Check_offset@?$_String_val@U?$_Simple_types@_W@std@@@std@@QBEXI@Z 400a0ee2 f i libcpmt:wlocale.obj
 0001:0009fefc       ?_Compat@?$_String_const_iterator@V?$_String_val@U?$_Simple_types@G@std@@@std@@@std@@QBEXABV12@@Z 400a0efc f i libcpmt:wlocale.obj
 0001:0009feff       ?_Compat@?$_String_const_iterator@V?$_String_val@U?$_Simple_types@_W@std@@@std@@@std@@QBEXABV12@@Z 400a0eff f i libcpmt:wlocale.obj
 0001:0009ff02       ?_Construct_empty@?$basic_string@GU?$char_traits@G@std@@V?$allocator@G@2@@std@@AAEXXZ 400a0f02 f i libcpmt:wlocale.obj
 0001:0009ff1b       ?_Construct_empty@?$basic_string@_WU?$char_traits@_W@std@@V?$allocator@_W@2@@std@@AAEXXZ 400a0f1b f i libcpmt:wlocale.obj
 0001:0009ff34       ?_Create_annotation@?$basic_string@GU?$char_traits@G@std@@V?$allocator@G@2@@std@@ABEXXZ 400a0f34 f i libcpmt:wlocale.obj
 0001:0009ff54       ?_Create_annotation@?$basic_string@_WU?$char_traits@_W@std@@V?$allocator@_W@2@@std@@ABEXXZ 400a0f54 f i libcpmt:wlocale.obj
 0001:0009ff74       ?_Deallocate_for_capacity@?$basic_string@GU?$char_traits@G@std@@V?$allocator@G@2@@std@@CAXAAV?$allocator@G@2@QAGI@Z 400a0f74 f i libcpmt:wlocale.obj
 0001:0009ff94       ?_Deallocate_for_capacity@?$basic_string@_WU?$char_traits@_W@std@@V?$allocator@_W@2@@std@@CAXAAV?$allocator@_W@2@QA_WI@Z 400a0f94 f i libcpmt:wlocale.obj
 0001:0009ffb4       ?_Donarrow@?$ctype@G@std@@IBEDGD@Z 400a0fb4 f i libcpmt:wlocale.obj
 0001:000a0014       ?_Donarrow@?$ctype@_W@std@@IBED_WD@Z 400a1014 f i libcpmt:wlocale.obj
 0001:000a0074       ?_Dowiden@?$ctype@G@std@@IBEGD@Z 400a1074 f i libcpmt:wlocale.obj
 0001:000a00bd       ?_Dowiden@?$ctype@_W@std@@IBE_WD@Z 400a10bd f i libcpmt:wlocale.obj
 0001:000a0109       ?_Empty@?$_Yarn@_W@std@@QBE_NXZ 400a1109 f i libcpmt:wlocale.obj
 0001:000a0110       ?_Eos@?$basic_string@GU?$char_traits@G@std@@V?$allocator@G@2@@std@@AAEXI@Z 400a1110 f i libcpmt:wlocale.obj
 0001:000a0144       ?_Eos@?$basic_string@_WU?$char_traits@_W@std@@V?$allocator@_W@2@@std@@AAEXI@Z 400a1144 f i libcpmt:wlocale.obj
 0001:000a0178       ?_Ffmt@?$num_put@GV?$ostreambuf_iterator@GU?$char_traits@G@std@@@std@@@std@@ABAPADPADDH@Z 400a1178 f i libcpmt:wlocale.obj
 0001:000a0237       ?_Ffmt@?$num_put@_WV?$ostreambuf_iterator@_WU?$char_traits@_W@std@@@std@@@std@@ABAPADPADDH@Z 400a1237 f i libcpmt:wlocale.obj
 0001:000a02f6       ?_Fnv1a_append_bytes@std@@YAIIQBEI@Z 400a12f6 f i libcpmt:wlocale.obj
 0001:000a0328       ?_Get_first@?$_Compressed_pair@V?$allocator@G@std@@V?$_String_val@U?$_Simple_types@G@std@@@2@$00@std@@QAEAAV?$allocator@G@2@XZ 400a1328 f i libcpmt:wlocale.obj
 0001:000a032b       ?_Get_first@?$_Compressed_pair@V?$allocator@G@std@@V?$_String_val@U?$_Simple_types@G@std@@@2@$00@std@@QBEABV?$allocator@G@2@XZ 400a132b f i libcpmt:wlocale.obj
 0001:000a032e       ?_Get_first@?$_Compressed_pair@V?$allocator@_W@std@@V?$_String_val@U?$_Simple_types@_W@std@@@2@$00@std@@QAEAAV?$allocator@_W@2@XZ 400a132e f i libcpmt:wlocale.obj
 0001:000a0331       ?_Get_first@?$_Compressed_pair@V?$allocator@_W@std@@V?$_String_val@U?$_Simple_types@_W@std@@@2@$00@std@@QBEABV?$allocator@_W@2@XZ 400a1331 f i libcpmt:wlocale.obj
 0001:000a0334       ?_Getal@?$basic_string@GU?$char_traits@G@std@@V?$allocator@G@2@@std@@AAEAAV?$allocator@G@2@XZ 400a1334 f i libcpmt:wlocale.obj
 0001:000a0337       ?_Getal@?$basic_string@GU?$char_traits@G@std@@V?$allocator@G@2@@std@@ABEABV?$allocator@G@2@XZ 400a1337 f i libcpmt:wlocale.obj
 0001:000a033a       ?_Getal@?$basic_string@_WU?$char_traits@_W@std@@V?$allocator@_W@2@@std@@AAEAAV?$allocator@_W@2@XZ 400a133a f i libcpmt:wlocale.obj
 0001:000a033d       ?_Getal@?$basic_string@_WU?$char_traits@_W@std@@V?$allocator@_W@2@@std@@ABEABV?$allocator@_W@2@XZ 400a133d f i libcpmt:wlocale.obj
 0001:000a0340       ?_Getcat@?$codecvt@GDU_Mbstatet@@@std@@SAIPAPBVfacet@locale@2@PBV42@@Z 400a1340 f i libcpmt:wlocale.obj
 0001:000a03bf       ?_Getcat@?$codecvt@_WDU_Mbstatet@@@std@@SAIPAPBVfacet@locale@2@PBV42@@Z 400a13bf f i libcpmt:wlocale.obj
 0001:000a043e       ?_Getcat@?$collate@G@std@@SAIPAPBVfacet@locale@2@PBV42@@Z 400a143e f i libcpmt:wlocale.obj
 0001:000a050c       ?_Getcat@?$collate@_W@std@@SAIPAPBVfacet@locale@2@PBV42@@Z 400a150c f i libcpmt:wlocale.obj
 0001:000a05da       ?_Getcat@?$ctype@G@std@@SAIPAPBVfacet@locale@2@PBV42@@Z 400a15da f i libcpmt:wlocale.obj
 0001:000a0669       ?_Getcat@?$ctype@_W@std@@SAIPAPBVfacet@locale@2@PBV42@@Z 400a1669 f i libcpmt:wlocale.obj
 0001:000a06f8       ?_Getcat@?$messages@G@std@@SAIPAPBVfacet@locale@2@PBV42@@Z 400a16f8 f i libcpmt:wlocale.obj
 0001:000a077d       ?_Getcat@?$messages@_W@std@@SAIPAPBVfacet@locale@2@PBV42@@Z 400a177d f i libcpmt:wlocale.obj
 0001:000a0802       ?_Getcat@?$money_get@GV?$istreambuf_iterator@GU?$char_traits@G@std@@@std@@@std@@SAIPAPBVfacet@locale@2@PBV42@@Z 400a1802 f i libcpmt:wlocale.obj
 0001:000a0887       ?_Getcat@?$money_get@_WV?$istreambuf_iterator@_WU?$char_traits@_W@std@@@std@@@std@@SAIPAPBVfacet@locale@2@PBV42@@Z 400a1887 f i libcpmt:wlocale.obj
 0001:000a090c       ?_Getcat@?$money_put@GV?$ostreambuf_iterator@GU?$char_traits@G@std@@@std@@@std@@SAIPAPBVfacet@locale@2@PBV42@@Z 400a190c f i libcpmt:wlocale.obj
 0001:000a0991       ?_Getcat@?$money_put@_WV?$ostreambuf_iterator@_WU?$char_traits@_W@std@@@std@@@std@@SAIPAPBVfacet@locale@2@PBV42@@Z 400a1991 f i libcpmt:wlocale.obj
 0001:000a0a16       ?_Getcat@?$moneypunct@G$00@std@@SAIPAPBVfacet@locale@2@PBV42@@Z 400a1a16 f i libcpmt:wlocale.obj
 0001:000a0aa9       ?_Getcat@?$moneypunct@G$0A@@std@@SAIPAPBVfacet@locale@2@PBV42@@Z 400a1aa9 f i libcpmt:wlocale.obj
 0001:000a0b3d       ?_Getcat@?$moneypunct@_W$00@std@@SAIPAPBVfacet@locale@2@PBV42@@Z 400a1b3d f i libcpmt:wlocale.obj
 0001:000a0bd0       ?_Getcat@?$moneypunct@_W$0A@@std@@SAIPAPBVfacet@locale@2@PBV42@@Z 400a1bd0 f i libcpmt:wlocale.obj
 0001:000a0c64       ?_Getcat@?$num_get@GV?$istreambuf_iterator@GU?$char_traits@G@std@@@std@@@std@@SAIPAPBVfacet@locale@2@PBV42@@Z 400a1c64 f i libcpmt:wlocale.obj
 0001:000a0ce9       ?_Getcat@?$num_get@_WV?$istreambuf_iterator@_WU?$char_traits@_W@std@@@std@@@std@@SAIPAPBVfacet@locale@2@PBV42@@Z 400a1ce9 f i libcpmt:wlocale.obj
 0001:000a0d6e       ?_Getcat@?$num_put@GV?$ostreambuf_iterator@GU?$char_traits@G@std@@@std@@@std@@SAIPAPBVfacet@locale@2@PBV42@@Z 400a1d6e f i libcpmt:wlocale.obj
 0001:000a0df3       ?_Getcat@?$num_put@_WV?$ostreambuf_iterator@_WU?$char_traits@_W@std@@@std@@@std@@SAIPAPBVfacet@locale@2@PBV42@@Z 400a1df3 f i libcpmt:wlocale.obj
 0001:000a0e78       ?_Getcat@?$numpunct@G@std@@SAIPAPBVfacet@locale@2@PBV42@@Z 400a1e78 f i libcpmt:wlocale.obj
 0001:000a0f00       ?_Getcat@?$numpunct@_W@std@@SAIPAPBVfacet@locale@2@PBV42@@Z 400a1f00 f i libcpmt:wlocale.obj
 0001:000a0f88       ?_Getcat@?$time_get@GV?$istreambuf_iterator@GU?$char_traits@G@std@@@std@@@std@@SAIPAPBVfacet@locale@2@PBV42@@Z 400a1f88 f i libcpmt:wlocale.obj
 0001:000a100f       ?_Getcat@?$time_get@_WV?$istreambuf_iterator@_WU?$char_traits@_W@std@@@std@@@std@@SAIPAPBVfacet@locale@2@PBV42@@Z 400a200f f i libcpmt:wlocale.obj
 0001:000a1096       ?_Getcat@?$time_put@GV?$ostreambuf_iterator@GU?$char_traits@G@std@@@std@@@std@@SAIPAPBVfacet@locale@2@PBV42@@Z 400a2096 f i libcpmt:wlocale.obj
 0001:000a112e       ?_Getcat@?$time_put@_WV?$ostreambuf_iterator@_WU?$char_traits@_W@std@@@std@@@std@@SAIPAPBVfacet@locale@2@PBV42@@Z 400a212e f i libcpmt:wlocale.obj
 0001:000a11c6       ?_Getcoll@_Locinfo@std@@QBE?AU_Collvec@@XZ 400a21c6 f i libcpmt:wlocale.obj
 0001:000a11e1       ?_Getdateorder@_Locinfo@std@@QBEHXZ 400a21e1 f i libcpmt:wlocale.obj
 0001:000a11e6       ?_Getdays@_Locinfo@std@@QBEPBDXZ 400a21e6 f i libcpmt:wlocale.obj
 0001:000a1220       ?_Getfmt@?$time_get@GV?$istreambuf_iterator@GU?$char_traits@G@std@@@std@@@std@@IBE?AV?$istreambuf_iterator@GU?$char_traits@G@std@@@2@V32@0AAVios_base@2@AAHPAUtm@@PBD@Z 400a2220 f i libcpmt:wlocale.obj
 0001:000a13ee       ?_Getfmt@?$time_get@_WV?$istreambuf_iterator@_WU?$char_traits@_W@std@@@std@@@std@@IBE?AV?$istreambuf_iterator@_WU?$char_traits@_W@std@@@2@V32@0AAVios_base@2@AAHPAUtm@@PBD@Z 400a23ee f i libcpmt:wlocale.obj
 0001:000a15bc       ?_Getint@?$time_get@GV?$istreambuf_iterator@GU?$char_traits@G@std@@@std@@@std@@ABAHAAV?$istreambuf_iterator@GU?$char_traits@G@std@@@2@0HHAAHABV?$ctype@G@2@@Z 400a25bc f i libcpmt:wlocale.obj
 0001:000a15e9       ?_Getint@?$time_get@_WV?$istreambuf_iterator@_WU?$char_traits@_W@std@@@std@@@std@@ABAHAAV?$istreambuf_iterator@_WU?$char_traits@_W@std@@@2@0HHAAHABV?$ctype@_W@2@@Z 400a25e9 f i libcpmt:wlocale.obj
 0001:000a1616       ?_Getmfld@?$money_get@GV?$istreambuf_iterator@GU?$char_traits@G@std@@@std@@@std@@ABE?AV?$basic_string@DU?$char_traits@D@std@@V?$allocator@D@2@@2@AAV?$istreambuf_iterator@GU?$char_traits@G@std@@@2@0_NAAVios_base@2@AAY0M@G@Z 400a2616 f i libcpmt:wlocale.obj
 0001:000a258b       ?_Getmfld@?$money_get@_WV?$istreambuf_iterator@_WU?$char_traits@_W@std@@@std@@@std@@ABE?AV?$basic_string@DU?$char_traits@D@std@@V?$allocator@D@2@@2@AAV?$istreambuf_iterator@_WU?$char_traits@_W@std@@@2@0_NAAVios_base@2@AAY0M@_W@Z 400a358b f i libcpmt:wlocale.obj
 0001:000a3500       ?_Getmonths@_Locinfo@std@@QBEPBDXZ 400a4500 f i libcpmt:wlocale.obj
 0001:000a353a       ?_Getptr@_Timevec@std@@QBEPAXXZ 400a453a f i libcpmt:wlocale.obj
 0001:000a353d       ?_Gnavail@?$basic_streambuf@GU?$char_traits@G@std@@@std@@IBE_JXZ 400a453d f i libcpmt:wlocale.obj
 0001:000a3553       ?_Gnavail@?$basic_streambuf@_WU?$char_traits@_W@std@@@std@@IBE_JXZ 400a4553 f i libcpmt:wlocale.obj
 0001:000a3569       ?_Gninc@?$basic_streambuf@GU?$char_traits@G@std@@@std@@IAEPAGXZ 400a4569 f i libcpmt:wlocale.obj
 0001:000a357d       ?_Gninc@?$basic_streambuf@_WU?$char_traits@_W@std@@@std@@IAEPA_WXZ 400a457d f i libcpmt:wlocale.obj
 0001:000a3591       ?_Ifmt@?$num_put@GV?$ostreambuf_iterator@GU?$char_traits@G@std@@@std@@@std@@ABAPADPADPBDH@Z 400a4591 f i libcpmt:wlocale.obj
 0001:000a3623       ?_Ifmt@?$num_put@_WV?$ostreambuf_iterator@_WU?$char_traits@_W@std@@@std@@@std@@ABAPADPADPBDH@Z 400a4623 f i libcpmt:wlocale.obj
 0001:000a36b5       ?_Inc@?$istreambuf_iterator@GU?$char_traits@G@std@@@std@@AAEXXZ 400a46b5 f i libcpmt:wlocale.obj
 0001:000a36e8       ?_Inc@?$istreambuf_iterator@_WU?$char_traits@_W@std@@@std@@AAEXXZ 400a46e8 f i libcpmt:wlocale.obj
 0001:000a371b       ?_Init@?$_Mpunct@G@std@@IAEXABV_Locinfo@2@_N@Z 400a471b f i libcpmt:wlocale.obj
 0001:000a389e       ?_Init@?$_Mpunct@_W@std@@IAEXABV_Locinfo@2@_N@Z 400a489e f i libcpmt:wlocale.obj
 0001:000a3a01       ?_Init@?$codecvt@GDU_Mbstatet@@@std@@IAEXABV_Locinfo@2@@Z 400a4a01 f i libcpmt:wlocale.obj
 0001:000a3a2e       ?_Init@?$codecvt@_WDU_Mbstatet@@@std@@IAEXABV_Locinfo@2@@Z 400a4a2e f i libcpmt:wlocale.obj
 0001:000a3a5b       ?_Init@?$collate@G@std@@IAEXABV_Locinfo@2@@Z 400a4a5b f i libcpmt:wlocale.obj
 0001:000a3a71       ?_Init@?$collate@_W@std@@IAEXABV_Locinfo@2@@Z 400a4a71 f i libcpmt:wlocale.obj
 0001:000a3a87       ?_Init@?$ctype@G@std@@IAEXABV_Locinfo@2@@Z 400a4a87 f i libcpmt:wlocale.obj
 0001:000a3ace       ?_Init@?$ctype@_W@std@@IAEXABV_Locinfo@2@@Z 400a4ace f i libcpmt:wlocale.obj
 0001:000a3b15       ?_Init@?$messages@G@std@@IAEXABV_Locinfo@2@@Z 400a4b15 f i libcpmt:wlocale.obj
 0001:000a3b18       ?_Init@?$messages@_W@std@@IAEXABV_Locinfo@2@@Z 400a4b18 f i libcpmt:wlocale.obj
 0001:000a3b1b       ?_Init@?$money_get@GV?$istreambuf_iterator@GU?$char_traits@G@std@@@std@@@std@@IAEXABV_Locinfo@2@@Z 400a4b1b f i libcpmt:wlocale.obj
 0001:000a3b1e       ?_Init@?$money_get@_WV?$istreambuf_iterator@_WU?$char_traits@_W@std@@@std@@@std@@IAEXABV_Locinfo@2@@Z 400a4b1e f i libcpmt:wlocale.obj
 0001:000a3b21       ?_Init@?$money_put@GV?$ostreambuf_iterator@GU?$char_traits@G@std@@@std@@@std@@IAEXABV_Locinfo@2@@Z 400a4b21 f i libcpmt:wlocale.obj
 0001:000a3b24       ?_Init@?$money_put@_WV?$ostreambuf_iterator@_WU?$char_traits@_W@std@@@std@@@std@@IAEXABV_Locinfo@2@@Z 400a4b24 f i libcpmt:wlocale.obj
 0001:000a3b27       ?_Init@?$num_get@GV?$istreambuf_iterator@GU?$char_traits@G@std@@@std@@@std@@IAEXABV_Locinfo@2@@Z 400a4b27 f i libcpmt:wlocale.obj
 0001:000a3b2a       ?_Init@?$num_get@_WV?$istreambuf_iterator@_WU?$char_traits@_W@std@@@std@@@std@@IAEXABV_Locinfo@2@@Z 400a4b2a f i libcpmt:wlocale.obj
 0001:000a3b2d       ?_Init@?$num_put@GV?$ostreambuf_iterator@GU?$char_traits@G@std@@@std@@@std@@IAEXABV_Locinfo@2@@Z 400a4b2d f i libcpmt:wlocale.obj
 0001:000a3b30       ?_Init@?$num_put@_WV?$ostreambuf_iterator@_WU?$char_traits@_W@std@@@std@@@std@@IAEXABV_Locinfo@2@@Z 400a4b30 f i libcpmt:wlocale.obj
 0001:000a3b33       ?_Init@?$numpunct@G@std@@IAEXABV_Locinfo@2@_N@Z 400a4b33 f i libcpmt:wlocale.obj
 0001:000a3c3a       ?_Init@?$numpunct@_W@std@@IAEXABV_Locinfo@2@_N@Z 400a4c3a f i libcpmt:wlocale.obj
 0001:000a3d32       ?_Init@?$time_get@GV?$istreambuf_iterator@GU?$char_traits@G@std@@@std@@@std@@IAEXABV_Locinfo@2@@Z 400a4d32 f i libcpmt:wlocale.obj
 0001:000a3d78       ?_Init@?$time_get@_WV?$istreambuf_iterator@_WU?$char_traits@_W@std@@@std@@@std@@IAEXABV_Locinfo@2@@Z 400a4d78 f i libcpmt:wlocale.obj
 0001:000a3dbe       ?_Init@?$time_put@GV?$ostreambuf_iterator@GU?$char_traits@G@std@@@std@@@std@@IAEXABV_Locinfo@2@@Z 400a4dbe f i libcpmt:wlocale.obj
 0001:000a3df1       ?_Init@?$time_put@_WV?$ostreambuf_iterator@_WU?$char_traits@_W@std@@@std@@@std@@IAEXABV_Locinfo@2@@Z 400a4df1 f i libcpmt:wlocale.obj
 0001:000a3e24       ?_Iput@?$num_put@GV?$ostreambuf_iterator@GU?$char_traits@G@std@@@std@@@std@@ABA?AV?$ostreambuf_iterator@GU?$char_traits@G@std@@@2@V32@AAVios_base@2@GPADI@Z 400a4e24 f i libcpmt:wlocale.obj
 0001:000a4191       ?_Iput@?$num_put@_WV?$ostreambuf_iterator@_WU?$char_traits@_W@std@@@std@@@std@@ABA?AV?$ostreambuf_iterator@_WU?$char_traits@_W@std@@@2@V32@AAVios_base@2@_WPADI@Z 400a5191 f i libcpmt:wlocale.obj
 0001:000a44fe       ?_Is_constant_evaluated@std@@YA_NXZ 400a54fe f i libcpmt:wlocale.obj
 0001:000a4501       ?_Large_mode_engaged@?$_String_val@U?$_Simple_types@G@std@@@std@@QBE_NXZ 400a5501 f i libcpmt:wlocale.obj
 0001:000a450b       ?_Large_mode_engaged@?$_String_val@U?$_Simple_types@_W@std@@@std@@QBE_NXZ 400a550b f i libcpmt:wlocale.obj
 0001:000a4515       ?_Makeushloc@_Locimp@locale@std@@CAXABV_Locinfo@3@HPAV123@PBV23@@Z 400a5515 f   libcpmt:wlocale.obj
 0001:000a4af8       ?_Makewloc@_Locimp@locale@std@@CAXABV_Locinfo@3@HPAV123@PBV23@@Z 400a5af8 f   libcpmt:wlocale.obj
 0001:000a50db       ?_Maklocwcs@std@@YAPA_WPB_W@Z 400a60db f i libcpmt:wlocale.obj
 0001:000a5136       ?_Makpat@?$_Mpunct@G@std@@AAEXAAUpattern@money_base@2@III@Z 400a6136 f i libcpmt:wlocale.obj
 0001:000a5187       ?_Makpat@?$_Mpunct@_W@std@@AAEXAAUpattern@money_base@2@III@Z 400a6187 f i libcpmt:wlocale.obj
 0001:000a51d8       ?_Modify_annotation@?$basic_string@GU?$char_traits@G@std@@V?$allocator@G@2@@std@@ABEXII@Z 400a61d8 f i libcpmt:wlocale.obj
 0001:000a5208       ?_Modify_annotation@?$basic_string@_WU?$char_traits@_W@std@@V?$allocator@_W@2@@std@@ABEXII@Z 400a6208 f i libcpmt:wlocale.obj
 0001:000a5238       ?_Myptr@?$_String_val@U?$_Simple_types@G@std@@@std@@QAEPAGXZ 400a6238 f i libcpmt:wlocale.obj
 0001:000a5245       ?_Myptr@?$_String_val@U?$_Simple_types@G@std@@@std@@QBEPBGXZ 400a6245 f i libcpmt:wlocale.obj
 0001:000a5252       ?_Myptr@?$_String_val@U?$_Simple_types@_W@std@@@std@@QAEPA_WXZ 400a6252 f i libcpmt:wlocale.obj
 0001:000a525f       ?_Myptr@?$_String_val@U?$_Simple_types@_W@std@@@std@@QBEPB_WXZ 400a625f f i libcpmt:wlocale.obj
 0001:000a526c       ?_Peek@?$istreambuf_iterator@GU?$char_traits@G@std@@@std@@ABEGXZ 400a626c f i libcpmt:wlocale.obj
 0001:000a52a9       ?_Peek@?$istreambuf_iterator@_WU?$char_traits@_W@std@@@std@@ABE_WXZ 400a62a9 f i libcpmt:wlocale.obj
 0001:000a52e6       ?_Pnavail@?$basic_streambuf@GU?$char_traits@G@std@@@std@@IBE_JXZ 400a62e6 f i libcpmt:wlocale.obj
 0001:000a52fc       ?_Pnavail@?$basic_streambuf@_WU?$char_traits@_W@std@@@std@@IBE_JXZ 400a62fc f i libcpmt:wlocale.obj
 0001:000a5312       ?_Pninc@?$basic_streambuf@GU?$char_traits@G@std@@@std@@IAEPAGXZ 400a6312 f i libcpmt:wlocale.obj
 0001:000a5326       ?_Pninc@?$basic_streambuf@_WU?$char_traits@_W@std@@@std@@IAEPA_WXZ 400a6326 f i libcpmt:wlocale.obj
 0001:000a533a       ?_Put@?$money_put@GV?$ostreambuf_iterator@GU?$char_traits@G@std@@@std@@@std@@CA?AV?$ostreambuf_iterator@GU?$char_traits@G@std@@@2@V32@V?$_String_const_iterator@V?$_String_val@U?$_Simple_types@G@std@@@std@@@2@I@Z 400a633a f i libcpmt:wlocale.obj
 0001:000a5381       ?_Put@?$money_put@_WV?$ostreambuf_iterator@_WU?$char_traits@_W@std@@@std@@@std@@CA?AV?$ostreambuf_iterator@_WU?$char_traits@_W@std@@@2@V32@V?$_String_const_iterator@V?$_String_val@U?$_Simple_types@_W@std@@@std@@@2@I@Z 400a6381 f i libcpmt:wlocale.obj
 0001:000a53c8       ?_Put@?$num_put@GV?$ostreambuf_iterator@GU?$char_traits@G@std@@@std@@@std@@ABA?AV?$ostreambuf_iterator@GU?$char_traits@G@std@@@2@V32@PBGI@Z 400a63c8 f i libcpmt:wlocale.obj
 0001:000a540a       ?_Put@?$num_put@_WV?$ostreambuf_iterator@_WU?$char_traits@_W@std@@@std@@@std@@ABA?AV?$ostreambuf_iterator@_WU?$char_traits@_W@std@@@2@V32@PB_WI@Z 400a640a f i libcpmt:wlocale.obj
 0001:000a544c       ?_Putmfld@?$money_put@GV?$ostreambuf_iterator@GU?$char_traits@G@std@@@std@@@std@@ABE?AV?$ostreambuf_iterator@GU?$char_traits@G@std@@@2@V32@_NAAVios_base@2@G1V?$basic_string@GU?$char_traits@G@std@@V?$allocator@G@2@@2@G@Z 400a644c f i libcpmt:wlocale.obj
 0001:000a5b6f       ?_Putmfld@?$money_put@_WV?$ostreambuf_iterator@_WU?$char_traits@_W@std@@@std@@@std@@ABE?AV?$ostreambuf_iterator@_WU?$char_traits@_W@std@@@2@V32@_NAAVios_base@2@_W1V?$basic_string@_WU?$char_traits@_W@std@@V?$allocator@_W@2@@2@3@Z 400a6b6f f i libcpmt:wlocale.obj
 0001:000a6292       ?_Remove_annotation@?$basic_string@GU?$char_traits@G@std@@V?$allocator@G@2@@std@@ABEXXZ 400a7292 f i libcpmt:wlocale.obj
 0001:000a62b2       ?_Remove_annotation@?$basic_string@_WU?$char_traits@_W@std@@V?$allocator@_W@2@@std@@ABEXXZ 400a72b2 f i libcpmt:wlocale.obj
 0001:000a62d2       ?_Rep@?$money_put@GV?$ostreambuf_iterator@GU?$char_traits@G@std@@@std@@@std@@CA?AV?$ostreambuf_iterator@GU?$char_traits@G@std@@@2@V32@GI@Z 400a72d2 f i libcpmt:wlocale.obj
 0001:000a6309       ?_Rep@?$money_put@_WV?$ostreambuf_iterator@_WU?$char_traits@_W@std@@@std@@@std@@CA?AV?$ostreambuf_iterator@_WU?$char_traits@_W@std@@@2@V32@_WI@Z 400a7309 f i libcpmt:wlocale.obj
 0001:000a6340       ?_Rep@?$num_put@GV?$ostreambuf_iterator@GU?$char_traits@G@std@@@std@@@std@@ABA?AV?$ostreambuf_iterator@GU?$char_traits@G@std@@@2@V32@GI@Z 400a7340 f i libcpmt:wlocale.obj
 0001:000a6377       ?_Rep@?$num_put@_WV?$ostreambuf_iterator@_WU?$char_traits@_W@std@@@std@@@std@@ABA?AV?$ostreambuf_iterator@_WU?$char_traits@_W@std@@@2@V32@_WI@Z 400a7377 f i libcpmt:wlocale.obj
 0001:000a63ae       ?_Swap_proxy_and_iterators@?$basic_string@GU?$char_traits@G@std@@V?$allocator@G@2@@std@@AAEXAAV12@@Z 400a73ae f i libcpmt:wlocale.obj
 0001:000a63b1       ?_Swap_proxy_and_iterators@?$basic_string@_WU?$char_traits@_W@std@@V?$allocator@_W@2@@std@@AAEXAAV12@@Z 400a73b1 f i libcpmt:wlocale.obj
 0001:000a63b4       ?_Switch_to_buf@_Bxty@?$_String_val@U?$_Simple_types@G@std@@@std@@QAEXXZ 400a73b4 f i libcpmt:wlocale.obj
 0001:000a63b7       ?_Switch_to_buf@_Bxty@?$_String_val@U?$_Simple_types@_W@std@@@std@@QAEXXZ 400a73b7 f i libcpmt:wlocale.obj
 0001:000a63ba       ?_Take_contents@?$basic_string@GU?$char_traits@G@std@@V?$allocator@G@2@@std@@AAEXAAV12@@Z 400a73ba f i libcpmt:wlocale.obj
 0001:000a641e       ?_Take_contents@?$basic_string@_WU?$char_traits@_W@std@@V?$allocator@_W@2@@std@@AAEXAAV12@@Z 400a741e f i libcpmt:wlocale.obj
 0001:000a6482       ?_Tidy@?$_Mpunct@G@std@@AAEXXZ 400a7482 f i libcpmt:wlocale.obj
 0001:000a64b4       ?_Tidy@?$_Mpunct@_W@std@@AAEXXZ 400a74b4 f i libcpmt:wlocale.obj
 0001:000a64e6       ?_Tidy@?$numpunct@G@std@@AAEXXZ 400a74e6 f i libcpmt:wlocale.obj
 0001:000a650e       ?_Tidy@?$numpunct@_W@std@@AAEXXZ 400a750e f i libcpmt:wlocale.obj
 0001:000a6536       ?_Tidy@?$time_get@GV?$istreambuf_iterator@GU?$char_traits@G@std@@@std@@@std@@AAEXXZ 400a7536 f i libcpmt:wlocale.obj
 0001:000a655e       ?_Tidy@?$time_get@_WV?$istreambuf_iterator@_WU?$char_traits@_W@std@@@std@@@std@@AAEXXZ 400a755e f i libcpmt:wlocale.obj
 0001:000a6586       ?_Tidy_deallocate@?$basic_string@GU?$char_traits@G@std@@V?$allocator@G@2@@std@@AAEXXZ 400a7586 f i libcpmt:wlocale.obj
 0001:000a65ca       ?_Tidy_deallocate@?$basic_string@_WU?$char_traits@_W@std@@V?$allocator@_W@2@@std@@AAEXXZ 400a75ca f i libcpmt:wlocale.obj
 0001:000a660e       ?_W_Getdays@_Locinfo@std@@QBEPBGXZ 400a760e f i libcpmt:wlocale.obj
 0001:000a6648       ?_W_Getmonths@_Locinfo@std@@QBEPBGXZ 400a7648 f i libcpmt:wlocale.obj
 0001:000a6682       ?_W_Gettnames@_Locinfo@std@@QBE?AV_Timevec@2@XZ 400a7682 f i libcpmt:wlocale.obj
 0001:000a669b       ?_Xran@?$_String_val@U?$_Simple_types@G@std@@@std@@SAXXZ 400a769b f i libcpmt:wlocale.obj
 0001:000a66a8       ?_Xran@?$_String_val@U?$_Simple_types@_W@std@@@std@@SAXXZ 400a76a8 f i libcpmt:wlocale.obj
 0001:000a66b5       ?allocate@?$allocator@G@std@@QAEPAGI@Z 400a76b5 f i libcpmt:wlocale.obj
 0001:000a66dd       ?allocate@?$allocator@_W@std@@QAEPA_WI@Z 400a76dd f i libcpmt:wlocale.obj
 0001:000a6705       ?append@?$basic_string@DU?$char_traits@D@std@@V?$allocator@D@2@@std@@QAEAAV12@QBD@Z 400a7705 f i libcpmt:wlocale.obj
 0001:000a672e       ?append@?$basic_string@GU?$char_traits@G@std@@V?$allocator@G@2@@std@@QAEAAV12@ABV12@@Z 400a772e f i libcpmt:wlocale.obj
 0001:000a6751       ?append@?$basic_string@GU?$char_traits@G@std@@V?$allocator@G@2@@std@@QAEAAV12@IG@Z 400a7751 f i libcpmt:wlocale.obj
 0001:000a67da       ?append@?$basic_string@_WU?$char_traits@_W@std@@V?$allocator@_W@2@@std@@QAEAAV12@ABV12@@Z 400a77da f i libcpmt:wlocale.obj
 0001:000a67fd       ?append@?$basic_string@_WU?$char_traits@_W@std@@V?$allocator@_W@2@@std@@QAEAAV12@I_W@Z 400a77fd f i libcpmt:wlocale.obj
 0001:000a6886       ?assign@?$_Char_traits@GG@std@@SAPAGQAGIG@Z 400a7886 f i libcpmt:wlocale.obj
 0001:000a68c3       ?assign@?$_Char_traits@_WG@std@@SAPA_WQA_WI_W@Z 400a78c3 f i libcpmt:wlocale.obj
 0001:000a6900       ?assign@?$_WChar_traits@G@std@@SAPAGQAGIG@Z 400a7900 f i libcpmt:wlocale.obj
 0001:000a691b       ?assign@?$_WChar_traits@G@std@@SAXAAGABG@Z 400a791b f i libcpmt:wlocale.obj
 0001:000a6930       ?assign@?$_WChar_traits@_W@std@@SAPA_WQA_WI_W@Z 400a7930 f i libcpmt:wlocale.obj
 0001:000a694b       ?assign@?$_WChar_traits@_W@std@@SAXAA_WAB_W@Z 400a794b f i libcpmt:wlocale.obj
 0001:000a6960       ?assign@?$basic_string@GU?$char_traits@G@std@@V?$allocator@G@2@@std@@QAEAAV12@$$QAV12@@Z 400a7960 f i libcpmt:wlocale.obj
 0001:000a697a       ?assign@?$basic_string@_WU?$char_traits@_W@std@@V?$allocator@_W@2@@std@@QAEAAV12@$$QAV12@@Z 400a797a f i libcpmt:wlocale.obj
 0001:000a6994       ?begin@?$basic_string@GU?$char_traits@G@std@@V?$allocator@G@2@@std@@QAE?AV?$_String_iterator@V?$_String_val@U?$_Simple_types@G@std@@@std@@@2@XZ 400a7994 f i libcpmt:wlocale.obj
 0001:000a69ad       ?begin@?$basic_string@_WU?$char_traits@_W@std@@V?$allocator@_W@2@@std@@QAE?AV?$_String_iterator@V?$_String_val@U?$_Simple_types@_W@std@@@std@@@2@XZ 400a79ad f i libcpmt:wlocale.obj
 0001:000a69c6       ?c_str@?$basic_string@GU?$char_traits@G@std@@V?$allocator@G@2@@std@@QBEPBGXZ 400a79c6 f i libcpmt:wlocale.obj
 0001:000a69d3       ?c_str@?$basic_string@_WU?$char_traits@_W@std@@V?$allocator@_W@2@@std@@QBEPB_WXZ 400a79d3 f i libcpmt:wlocale.obj
 0001:000a69e0       ?category@error_code@std@@QBEABVerror_category@2@XZ 400a79e0 f i libcpmt:wlocale.obj
 0001:000a69e4       ?category@error_condition@std@@QBEABVerror_category@2@XZ 400a79e4 f i libcpmt:wlocale.obj
 0001:000a69e8       ?copy@?$_Char_traits@GG@std@@SAPAGQAGQBGI@Z 400a79e8 f i libcpmt:wlocale.obj
 0001:000a6a0b       ?copy@?$_Char_traits@_WG@std@@SAPA_WQA_WQB_WI@Z 400a7a0b f i libcpmt:wlocale.obj
 0001:000a6a2e       ?curr_symbol@?$_Mpunct@G@std@@QBE?AV?$basic_string@GU?$char_traits@G@std@@V?$allocator@G@2@@2@XZ 400a7a2e f i libcpmt:wlocale.obj
 0001:000a6a5c       ?curr_symbol@?$_Mpunct@_W@std@@QBE?AV?$basic_string@_WU?$char_traits@_W@std@@V?$allocator@_W@2@@2@XZ 400a7a5c f i libcpmt:wlocale.obj
 0001:000a6a8a       ?data@?$basic_string@GU?$char_traits@G@std@@V?$allocator@G@2@@std@@QBEPBGXZ 400a7a8a f i libcpmt:wlocale.obj
 0001:000a6a97       ?data@?$basic_string@_WU?$char_traits@_W@std@@V?$allocator@_W@2@@std@@QBEPB_WXZ 400a7a97 f i libcpmt:wlocale.obj
 0001:000a6aa4       ?date_order@?$time_get@GV?$istreambuf_iterator@GU?$char_traits@G@std@@@std@@@std@@QBE?AW4dateorder@time_base@2@XZ 400a7aa4 f i libcpmt:wlocale.obj
 0001:000a6ac2       ?date_order@?$time_get@_WV?$istreambuf_iterator@_WU?$char_traits@_W@std@@@std@@@std@@QBE?AW4dateorder@time_base@2@XZ 400a7ac2 f i libcpmt:wlocale.obj
 0001:000a6ae0       ?deallocate@?$allocator@G@std@@QAEXQAGI@Z 400a7ae0 f i libcpmt:wlocale.obj
 0001:000a6afc       ?deallocate@?$allocator@_W@std@@QAEXQA_WI@Z 400a7afc f i libcpmt:wlocale.obj
 0001:000a6b18       ?decimal_point@?$_Mpunct@G@std@@QBEGXZ 400a7b18 f i libcpmt:wlocale.obj
 0001:000a6b36       ?decimal_point@?$_Mpunct@_W@std@@QBE_WXZ 400a7b36 f i libcpmt:wlocale.obj
 0001:000a6b54       ?decimal_point@?$numpunct@G@std@@QBEGXZ 400a7b54 f i libcpmt:wlocale.obj
 0001:000a6b72       ?decimal_point@?$numpunct@_W@std@@QBE_WXZ 400a7b72 f i libcpmt:wlocale.obj
 0001:000a6b90       ?do_always_noconv@?$codecvt@GDU_Mbstatet@@@std@@MBE_NXZ 400a7b90 f i libcpmt:wlocale.obj
 0001:000a6b93       ?do_always_noconv@?$codecvt@_WDU_Mbstatet@@@std@@MBE_NXZ 400a7b93 f i libcpmt:wlocale.obj
 0001:000a6b96       ?do_close@?$messages@G@std@@MBEXH@Z 400a7b96 f i libcpmt:wlocale.obj
 0001:000a6b99       ?do_close@?$messages@_W@std@@MBEXH@Z 400a7b99 f i libcpmt:wlocale.obj
 0001:000a6b9c       ?do_compare@?$collate@G@std@@MBEHPBG000@Z 400a7b9c f i libcpmt:wlocale.obj
 0001:000a6bd8       ?do_compare@?$collate@_W@std@@MBEHPB_W000@Z 400a7bd8 f i libcpmt:wlocale.obj
 0001:000a6c14       ?do_curr_symbol@?$_Mpunct@G@std@@MBE?AV?$basic_string@GU?$char_traits@G@std@@V?$allocator@G@2@@2@XZ 400a7c14 f i libcpmt:wlocale.obj
 0001:000a6c2f       ?do_curr_symbol@?$_Mpunct@_W@std@@MBE?AV?$basic_string@_WU?$char_traits@_W@std@@V?$allocator@_W@2@@2@XZ 400a7c2f f i libcpmt:wlocale.obj
 0001:000a6c4a       ?do_date_order@?$time_get@GV?$istreambuf_iterator@GU?$char_traits@G@std@@@std@@@std@@MBE?AW4dateorder@time_base@2@XZ 400a7c4a f i libcpmt:wlocale.obj
 0001:000a6c4e       ?do_date_order@?$time_get@_WV?$istreambuf_iterator@_WU?$char_traits@_W@std@@@std@@@std@@MBE?AW4dateorder@time_base@2@XZ 400a7c4e f i libcpmt:wlocale.obj
 0001:000a6c52       ?do_decimal_point@?$_Mpunct@G@std@@MBEGXZ 400a7c52 f i libcpmt:wlocale.obj
 0001:000a6c57       ?do_decimal_point@?$_Mpunct@_W@std@@MBE_WXZ 400a7c57 f i libcpmt:wlocale.obj
 0001:000a6c5c       ?do_decimal_point@?$numpunct@G@std@@MBEGXZ 400a7c5c f i libcpmt:wlocale.obj
 0001:000a6c61       ?do_decimal_point@?$numpunct@_W@std@@MBE_WXZ 400a7c61 f i libcpmt:wlocale.obj
 0001:000a6c66       ?do_encoding@?$codecvt@GDU_Mbstatet@@@std@@MBEHXZ 400a7c66 f i libcpmt:wlocale.obj
 0001:000a6c72       ?do_encoding@?$codecvt@_WDU_Mbstatet@@@std@@MBEHXZ 400a7c72 f i libcpmt:wlocale.obj
 0001:000a6c7e       ?do_falsename@?$numpunct@G@std@@MBE?AV?$basic_string@GU?$char_traits@G@std@@V?$allocator@G@2@@2@XZ 400a7c7e f i libcpmt:wlocale.obj
 0001:000a6c99       ?do_falsename@?$numpunct@_W@std@@MBE?AV?$basic_string@_WU?$char_traits@_W@std@@V?$allocator@_W@2@@2@XZ 400a7c99 f i libcpmt:wlocale.obj
 0001:000a6cb4       ?do_frac_digits@?$_Mpunct@G@std@@MBEHXZ 400a7cb4 f i libcpmt:wlocale.obj
 0001:000a6cb8       ?do_frac_digits@?$_Mpunct@_W@std@@MBEHXZ 400a7cb8 f i libcpmt:wlocale.obj
 0001:000a6cbc       ?do_get@?$messages@G@std@@MBE?AV?$basic_string@GU?$char_traits@G@std@@V?$allocator@G@2@@2@HHHABV32@@Z 400a7cbc f i libcpmt:wlocale.obj
 0001:000a6cd7       ?do_get@?$messages@_W@std@@MBE?AV?$basic_string@_WU?$char_traits@_W@std@@V?$allocator@_W@2@@2@HHHABV32@@Z 400a7cd7 f i libcpmt:wlocale.obj
 0001:000a6cf2       ?do_get@?$money_get@GV?$istreambuf_iterator@GU?$char_traits@G@std@@@std@@@std@@MBE?AV?$istreambuf_iterator@GU?$char_traits@G@std@@@2@V32@0_NAAVios_base@2@AAHAAO@Z 400a7cf2 f i libcpmt:wlocale.obj
 0001:000a6dd1       ?do_get@?$money_get@GV?$istreambuf_iterator@GU?$char_traits@G@std@@@std@@@std@@MBE?AV?$istreambuf_iterator@GU?$char_traits@G@std@@@2@V32@0_NAAVios_base@2@AAHAAV?$basic_string@GU?$char_traits@G@std@@V?$allocator@G@2@@2@@Z 400a7dd1 f i libcpmt:wlocale.obj
 0001:000a6edf       ?do_get@?$money_get@_WV?$istreambuf_iterator@_WU?$char_traits@_W@std@@@std@@@std@@MBE?AV?$istreambuf_iterator@_WU?$char_traits@_W@std@@@2@V32@0_NAAVios_base@2@AAHAAO@Z 400a7edf f i libcpmt:wlocale.obj
 0001:000a6fbe       ?do_get@?$money_get@_WV?$istreambuf_iterator@_WU?$char_traits@_W@std@@@std@@@std@@MBE?AV?$istreambuf_iterator@_WU?$char_traits@_W@std@@@2@V32@0_NAAVios_base@2@AAHAAV?$basic_string@_WU?$char_traits@_W@std@@V?$allocator@_W@2@@2@@Z 400a7fbe f i libcpmt:wlocale.obj
 0001:000a70cc       ?do_get@?$num_get@GV?$istreambuf_iterator@GU?$char_traits@G@std@@@std@@@std@@MBE?AV?$istreambuf_iterator@GU?$char_traits@G@std@@@2@V32@0AAVios_base@2@AAHAAG@Z 400a80cc f i libcpmt:wlocale.obj
 0001:000a7203       ?do_get@?$num_get@GV?$istreambuf_iterator@GU?$char_traits@G@std@@@std@@@std@@MBE?AV?$istreambuf_iterator@GU?$char_traits@G@std@@@2@V32@0AAVios_base@2@AAHAAI@Z 400a8203 f i libcpmt:wlocale.obj
 0001:000a7253       ?do_get@?$num_get@GV?$istreambuf_iterator@GU?$char_traits@G@std@@@std@@@std@@MBE?AV?$istreambuf_iterator@GU?$char_traits@G@std@@@2@V32@0AAVios_base@2@AAHAAJ@Z 400a8253 f i libcpmt:wlocale.obj
 0001:000a735a       ?do_get@?$num_get@GV?$istreambuf_iterator@GU?$char_traits@G@std@@@std@@@std@@MBE?AV?$istreambuf_iterator@GU?$char_traits@G@std@@@2@V32@0AAVios_base@2@AAHAAK@Z 400a835a f i libcpmt:wlocale.obj
 0001:000a7461       ?do_get@?$num_get@GV?$istreambuf_iterator@GU?$char_traits@G@std@@@std@@@std@@MBE?AV?$istreambuf_iterator@GU?$char_traits@G@std@@@2@V32@0AAVios_base@2@AAHAAM@Z 400a8461 f i libcpmt:wlocale.obj
 0001:000a758d       ?do_get@?$num_get@GV?$istreambuf_iterator@GU?$char_traits@G@std@@@std@@@std@@MBE?AV?$istreambuf_iterator@GU?$char_traits@G@std@@@2@V32@0AAVios_base@2@AAHAAN@Z 400a858d f i libcpmt:wlocale.obj
 0001:000a76ba       ?do_get@?$num_get@GV?$istreambuf_iterator@GU?$char_traits@G@std@@@std@@@std@@MBE?AV?$istreambuf_iterator@GU?$char_traits@G@std@@@2@V32@0AAVios_base@2@AAHAAO@Z 400a86ba f i libcpmt:wlocale.obj
 0001:000a770c       ?do_get@?$num_get@GV?$istreambuf_iterator@GU?$char_traits@G@std@@@std@@@std@@MBE?AV?$istreambuf_iterator@GU?$char_traits@G@std@@@2@V32@0AAVios_base@2@AAHAAPAX@Z 400a870c f i libcpmt:wlocale.obj
 0001:000a7813       ?do_get@?$num_get@GV?$istreambuf_iterator@GU?$char_traits@G@std@@@std@@@std@@MBE?AV?$istreambuf_iterator@GU?$char_traits@G@std@@@2@V32@0AAVios_base@2@AAHAA_J@Z 400a8813 f i libcpmt:wlocale.obj
 0001:000a7921       ?do_get@?$num_get@GV?$istreambuf_iterator@GU?$char_traits@G@std@@@std@@@std@@MBE?AV?$istreambuf_iterator@GU?$char_traits@G@std@@@2@V32@0AAVios_base@2@AAHAA_K@Z 400a8921 f i libcpmt:wlocale.obj
 0001:000a7a2f       ?do_get@?$num_get@GV?$istreambuf_iterator@GU?$char_traits@G@std@@@std@@@std@@MBE?AV?$istreambuf_iterator@GU?$char_traits@G@std@@@2@V32@0AAVios_base@2@AAHAA_N@Z 400a8a2f f i libcpmt:wlocale.obj
 0001:000a7cac       ?do_get@?$num_get@_WV?$istreambuf_iterator@_WU?$char_traits@_W@std@@@std@@@std@@MBE?AV?$istreambuf_iterator@_WU?$char_traits@_W@std@@@2@V32@0AAVios_base@2@AAHAAG@Z 400a8cac f i libcpmt:wlocale.obj
 0001:000a7de3       ?do_get@?$num_get@_WV?$istreambuf_iterator@_WU?$char_traits@_W@std@@@std@@@std@@MBE?AV?$istreambuf_iterator@_WU?$char_traits@_W@std@@@2@V32@0AAVios_base@2@AAHAAI@Z 400a8de3 f i libcpmt:wlocale.obj
 0001:000a7e33       ?do_get@?$num_get@_WV?$istreambuf_iterator@_WU?$char_traits@_W@std@@@std@@@std@@MBE?AV?$istreambuf_iterator@_WU?$char_traits@_W@std@@@2@V32@0AAVios_base@2@AAHAAJ@Z 400a8e33 f i libcpmt:wlocale.obj
 0001:000a7f3a       ?do_get@?$num_get@_WV?$istreambuf_iterator@_WU?$char_traits@_W@std@@@std@@@std@@MBE?AV?$istreambuf_iterator@_WU?$char_traits@_W@std@@@2@V32@0AAVios_base@2@AAHAAK@Z 400a8f3a f i libcpmt:wlocale.obj
 0001:000a8041       ?do_get@?$num_get@_WV?$istreambuf_iterator@_WU?$char_traits@_W@std@@@std@@@std@@MBE?AV?$istreambuf_iterator@_WU?$char_traits@_W@std@@@2@V32@0AAVios_base@2@AAHAAM@Z 400a9041 f i libcpmt:wlocale.obj
 0001:000a816d       ?do_get@?$num_get@_WV?$istreambuf_iterator@_WU?$char_traits@_W@std@@@std@@@std@@MBE?AV?$istreambuf_iterator@_WU?$char_traits@_W@std@@@2@V32@0AAVios_base@2@AAHAAN@Z 400a916d f i libcpmt:wlocale.obj
 0001:000a829a       ?do_get@?$num_get@_WV?$istreambuf_iterator@_WU?$char_traits@_W@std@@@std@@@std@@MBE?AV?$istreambuf_iterator@_WU?$char_traits@_W@std@@@2@V32@0AAVios_base@2@AAHAAO@Z 400a929a f i libcpmt:wlocale.obj
 0001:000a82ec       ?do_get@?$num_get@_WV?$istreambuf_iterator@_WU?$char_traits@_W@std@@@std@@@std@@MBE?AV?$istreambuf_iterator@_WU?$char_traits@_W@std@@@2@V32@0AAVios_base@2@AAHAAPAX@Z 400a92ec f i libcpmt:wlocale.obj
 0001:000a83f3       ?do_get@?$num_get@_WV?$istreambuf_iterator@_WU?$char_traits@_W@std@@@std@@@std@@MBE?AV?$istreambuf_iterator@_WU?$char_traits@_W@std@@@2@V32@0AAVios_base@2@AAHAA_J@Z 400a93f3 f i libcpmt:wlocale.obj
 0001:000a8501       ?do_get@?$num_get@_WV?$istreambuf_iterator@_WU?$char_traits@_W@std@@@std@@@std@@MBE?AV?$istreambuf_iterator@_WU?$char_traits@_W@std@@@2@V32@0AAVios_base@2@AAHAA_K@Z 400a9501 f i libcpmt:wlocale.obj
 0001:000a860f       ?do_get@?$num_get@_WV?$istreambuf_iterator@_WU?$char_traits@_W@std@@@std@@@std@@MBE?AV?$istreambuf_iterator@_WU?$char_traits@_W@std@@@2@V32@0AAVios_base@2@AAHAA_N@Z 400a960f f i libcpmt:wlocale.obj
 0001:000a888c       ?do_get@?$time_get@GV?$istreambuf_iterator@GU?$char_traits@G@std@@@std@@@std@@MBE?AV?$istreambuf_iterator@GU?$char_traits@G@std@@@2@V32@0AAVios_base@2@AAHPAUtm@@DD@Z 400a988c f i libcpmt:wlocale.obj
 0001:000a8d7b       ?do_get@?$time_get@_WV?$istreambuf_iterator@_WU?$char_traits@_W@std@@@std@@@std@@MBE?AV?$istreambuf_iterator@_WU?$char_traits@_W@std@@@2@V32@0AAVios_base@2@AAHPAUtm@@DD@Z 400a9d7b f i libcpmt:wlocale.obj
 0001:000a926a       ?do_get_date@?$time_get@GV?$istreambuf_iterator@GU?$char_traits@G@std@@@std@@@std@@MBE?AV?$istreambuf_iterator@GU?$char_traits@G@std@@@2@V32@0AAVios_base@2@AAHPAUtm@@@Z 400aa26a f i libcpmt:wlocale.obj
 0001:000a9860       ?do_get_date@?$time_get@_WV?$istreambuf_iterator@_WU?$char_traits@_W@std@@@std@@@std@@MBE?AV?$istreambuf_iterator@_WU?$char_traits@_W@std@@@2@V32@0AAVios_base@2@AAHPAUtm@@@Z 400aa860 f i libcpmt:wlocale.obj
 0001:000a9e56       ?do_get_monthname@?$time_get@GV?$istreambuf_iterator@GU?$char_traits@G@std@@@std@@@std@@MBE?AV?$istreambuf_iterator@GU?$char_traits@G@std@@@2@V32@0AAVios_base@2@AAHPAUtm@@@Z 400aae56 f i libcpmt:wlocale.obj
 0001:000a9ea8       ?do_get_monthname@?$time_get@_WV?$istreambuf_iterator@_WU?$char_traits@_W@std@@@std@@@std@@MBE?AV?$istreambuf_iterator@_WU?$char_traits@_W@std@@@2@V32@0AAVios_base@2@AAHPAUtm@@@Z 400aaea8 f i libcpmt:wlocale.obj
 0001:000a9efa       ?do_get_time@?$time_get@GV?$istreambuf_iterator@GU?$char_traits@G@std@@@std@@@std@@MBE?AV?$istreambuf_iterator@GU?$char_traits@G@std@@@2@V32@0AAVios_base@2@AAHPAUtm@@@Z 400aaefa f i libcpmt:wlocale.obj
 0001:000aa071       ?do_get_time@?$time_get@_WV?$istreambuf_iterator@_WU?$char_traits@_W@std@@@std@@@std@@MBE?AV?$istreambuf_iterator@_WU?$char_traits@_W@std@@@2@V32@0AAVios_base@2@AAHPAUtm@@@Z 400ab071 f i libcpmt:wlocale.obj
 0001:000aa1e8       ?do_get_weekday@?$time_get@GV?$istreambuf_iterator@GU?$char_traits@G@std@@@std@@@std@@MBE?AV?$istreambuf_iterator@GU?$char_traits@G@std@@@2@V32@0AAVios_base@2@AAHPAUtm@@@Z 400ab1e8 f i libcpmt:wlocale.obj
 0001:000aa23a       ?do_get_weekday@?$time_get@_WV?$istreambuf_iterator@_WU?$char_traits@_W@std@@@std@@@std@@MBE?AV?$istreambuf_iterator@_WU?$char_traits@_W@std@@@2@V32@0AAVios_base@2@AAHPAUtm@@@Z 400ab23a f i libcpmt:wlocale.obj
 0001:000aa28c       ?do_get_year@?$time_get@GV?$istreambuf_iterator@GU?$char_traits@G@std@@@std@@@std@@MBE?AV?$istreambuf_iterator@GU?$char_traits@G@std@@@2@V32@0AAVios_base@2@AAHPAUtm@@@Z 400ab28c f i libcpmt:wlocale.obj
 0001:000aa35e       ?do_get_year@?$time_get@_WV?$istreambuf_iterator@_WU?$char_traits@_W@std@@@std@@@std@@MBE?AV?$istreambuf_iterator@_WU?$char_traits@_W@std@@@2@V32@0AAVios_base@2@AAHPAUtm@@@Z 400ab35e f i libcpmt:wlocale.obj
 0001:000aa430       ?do_grouping@?$_Mpunct@G@std@@MBE?AV?$basic_string@DU?$char_traits@D@std@@V?$allocator@D@2@@2@XZ 400ab430 f i libcpmt:wlocale.obj
 0001:000aa44b       ?do_grouping@?$_Mpunct@_W@std@@MBE?AV?$basic_string@DU?$char_traits@D@std@@V?$allocator@D@2@@2@XZ 400ab44b f i libcpmt:wlocale.obj
 0001:000aa466       ?do_grouping@?$numpunct@G@std@@MBE?AV?$basic_string@DU?$char_traits@D@std@@V?$allocator@D@2@@2@XZ 400ab466 f i libcpmt:wlocale.obj
 0001:000aa481       ?do_grouping@?$numpunct@_W@std@@MBE?AV?$basic_string@DU?$char_traits@D@std@@V?$allocator@D@2@@2@XZ 400ab481 f i libcpmt:wlocale.obj
 0001:000aa49c       ?do_hash@?$collate@G@std@@MBEJPBG0@Z 400ab49c f i libcpmt:wlocale.obj
 0001:000aa50f       ?do_hash@?$collate@_W@std@@MBEJPB_W0@Z 400ab50f f i libcpmt:wlocale.obj
 0001:000aa582       ?do_in@?$codecvt@GDU_Mbstatet@@@std@@MBEHAAU_Mbstatet@@PBD1AAPBDPAG3AAPAG@Z 400ab582 f i libcpmt:wlocale.obj
 0001:000aa613       ?do_in@?$codecvt@_WDU_Mbstatet@@@std@@MBEHAAU_Mbstatet@@PBD1AAPBDPA_W3AAPA_W@Z 400ab613 f i libcpmt:wlocale.obj
 0001:000aa6a4       ?do_is@?$ctype@G@std@@MBEPBGPBG0PAF@Z 400ab6a4 f i libcpmt:wlocale.obj
 0001:000aa6c7       ?do_is@?$ctype@G@std@@MBE_NFG@Z 400ab6c7 f i libcpmt:wlocale.obj
 0001:000aa6ea       ?do_is@?$ctype@_W@std@@MBEPB_WPB_W0PAF@Z 400ab6ea f i libcpmt:wlocale.obj
 0001:000aa70d       ?do_is@?$ctype@_W@std@@MBE_NF_W@Z 400ab70d f i libcpmt:wlocale.obj
 0001:000aa730       ?do_length@?$codecvt@GDU_Mbstatet@@@std@@MBEHAAU_Mbstatet@@PBD1I@Z 400ab730 f i libcpmt:wlocale.obj
 0001:000aa79e       ?do_length@?$codecvt@_WDU_Mbstatet@@@std@@MBEHAAU_Mbstatet@@PBD1I@Z 400ab79e f i libcpmt:wlocale.obj
 0001:000aa80c       ?do_max_length@?$codecvt@GDU_Mbstatet@@@std@@MBEHXZ 400ab80c f i libcpmt:wlocale.obj
 0001:000aa810       ?do_max_length@?$codecvt@_WDU_Mbstatet@@@std@@MBEHXZ 400ab810 f i libcpmt:wlocale.obj
 0001:000aa814       ?do_narrow@?$ctype@G@std@@MBEDGD@Z 400ab814 f i libcpmt:wlocale.obj
 0001:000aa81f       ?do_narrow@?$ctype@G@std@@MBEPBGPBG0DPAD@Z 400ab81f f i libcpmt:wlocale.obj
 0001:000aa861       ?do_narrow@?$ctype@_W@std@@MBED_WD@Z 400ab861 f i libcpmt:wlocale.obj
 0001:000aa86c       ?do_narrow@?$ctype@_W@std@@MBEPB_WPB_W0DPAD@Z 400ab86c f i libcpmt:wlocale.obj
 0001:000aa8ae       ?do_neg_format@?$_Mpunct@G@std@@MBE?AUpattern@money_base@2@XZ 400ab8ae f i libcpmt:wlocale.obj
 0001:000aa8c0       ?do_neg_format@?$_Mpunct@_W@std@@MBE?AUpattern@money_base@2@XZ 400ab8c0 f i libcpmt:wlocale.obj
 0001:000aa8d2       ?do_negative_sign@?$_Mpunct@G@std@@MBE?AV?$basic_string@GU?$char_traits@G@std@@V?$allocator@G@2@@2@XZ 400ab8d2 f i libcpmt:wlocale.obj
 0001:000aa8ed       ?do_negative_sign@?$_Mpunct@_W@std@@MBE?AV?$basic_string@_WU?$char_traits@_W@std@@V?$allocator@_W@2@@2@XZ 400ab8ed f i libcpmt:wlocale.obj
 0001:000aa908       ?do_open@?$messages@G@std@@MBEHABV?$basic_string@DU?$char_traits@D@std@@V?$allocator@D@2@@2@ABVlocale@2@@Z 400ab908 f i libcpmt:wlocale.obj
 0001:000aa90e       ?do_open@?$messages@_W@std@@MBEHABV?$basic_string@DU?$char_traits@D@std@@V?$allocator@D@2@@2@ABVlocale@2@@Z 400ab90e f i libcpmt:wlocale.obj
 0001:000aa914       ?do_out@?$codecvt@GDU_Mbstatet@@@std@@MBEHAAU_Mbstatet@@PBG1AAPBGPAD3AAPAD@Z 400ab914 f i libcpmt:wlocale.obj
 0001:000aaa33       ?do_out@?$codecvt@_WDU_Mbstatet@@@std@@MBEHAAU_Mbstatet@@PB_W1AAPB_WPAD3AAPAD@Z 400aba33 f i libcpmt:wlocale.obj
 0001:000aab52       ?do_pos_format@?$_Mpunct@G@std@@MBE?AUpattern@money_base@2@XZ 400abb52 f i libcpmt:wlocale.obj
 0001:000aab64       ?do_pos_format@?$_Mpunct@_W@std@@MBE?AUpattern@money_base@2@XZ 400abb64 f i libcpmt:wlocale.obj
 0001:000aab76       ?do_positive_sign@?$_Mpunct@G@std@@MBE?AV?$basic_string@GU?$char_traits@G@std@@V?$allocator@G@2@@2@XZ 400abb76 f i libcpmt:wlocale.obj
 0001:000aab91       ?do_positive_sign@?$_Mpunct@_W@std@@MBE?AV?$basic_string@_WU?$char_traits@_W@std@@V?$allocator@_W@2@@2@XZ 400abb91 f i libcpmt:wlocale.obj
 0001:000aabac       ?do_put@?$money_put@GV?$ostreambuf_iterator@GU?$char_traits@G@std@@@std@@@std@@MBE?AV?$ostreambuf_iterator@GU?$char_traits@G@std@@@2@V32@_NAAVios_base@2@GABV?$basic_string@GU?$char_traits@G@std@@V?$allocator@G@2@@2@@Z 400abbac f i libcpmt:wlocale.obj
 0001:000aad29       ?do_put@?$money_put@GV?$ostreambuf_iterator@GU?$char_traits@G@std@@@std@@@std@@MBE?AV?$ostreambuf_iterator@GU?$char_traits@G@std@@@2@V32@_NAAVios_base@2@GO@Z 400abd29 f i libcpmt:wlocale.obj
 0001:000aaeec       ?do_put@?$money_put@_WV?$ostreambuf_iterator@_WU?$char_traits@_W@std@@@std@@@std@@MBE?AV?$ostreambuf_iterator@_WU?$char_traits@_W@std@@@2@V32@_NAAVios_base@2@_WABV?$basic_string@_WU?$char_traits@_W@std@@V?$allocator@_W@2@@2@@Z 400abeec f i libcpmt:wlocale.obj
 0001:000ab069       ?do_put@?$money_put@_WV?$ostreambuf_iterator@_WU?$char_traits@_W@std@@@std@@@std@@MBE?AV?$ostreambuf_iterator@_WU?$char_traits@_W@std@@@2@V32@_NAAVios_base@2@_WO@Z 400ac069 f i libcpmt:wlocale.obj
 0001:000ab22c       ?do_put@?$num_put@GV?$ostreambuf_iterator@GU?$char_traits@G@std@@@std@@@std@@MBE?AV?$ostreambuf_iterator@GU?$char_traits@G@std@@@2@V32@AAVios_base@2@GJ@Z 400ac22c f i libcpmt:wlocale.obj
 0001:000ab2b1       ?do_put@?$num_put@GV?$ostreambuf_iterator@GU?$char_traits@G@std@@@std@@@std@@MBE?AV?$ostreambuf_iterator@GU?$char_traits@G@std@@@2@V32@AAVios_base@2@GK@Z 400ac2b1 f i libcpmt:wlocale.obj
 0001:000ab336       ?do_put@?$num_put@GV?$ostreambuf_iterator@GU?$char_traits@G@std@@@std@@@std@@MBE?AV?$ostreambuf_iterator@GU?$char_traits@G@std@@@2@V32@AAVios_base@2@GN@Z 400ac336 f i libcpmt:wlocale.obj
 0001:000ab5ee       ?do_put@?$num_put@GV?$ostreambuf_iterator@GU?$char_traits@G@std@@@std@@@std@@MBE?AV?$ostreambuf_iterator@GU?$char_traits@G@std@@@2@V32@AAVios_base@2@GO@Z 400ac5ee f i libcpmt:wlocale.obj
 0001:000ab8a6       ?do_put@?$num_put@GV?$ostreambuf_iterator@GU?$char_traits@G@std@@@std@@@std@@MBE?AV?$ostreambuf_iterator@GU?$char_traits@G@std@@@2@V32@AAVios_base@2@GPBX@Z 400ac8a6 f i libcpmt:wlocale.obj
 0001:000ab917       ?do_put@?$num_put@GV?$ostreambuf_iterator@GU?$char_traits@G@std@@@std@@@std@@MBE?AV?$ostreambuf_iterator@GU?$char_traits@G@std@@@2@V32@AAVios_base@2@G_J@Z 400ac917 f i libcpmt:wlocale.obj
 0001:000ab9a0       ?do_put@?$num_put@GV?$ostreambuf_iterator@GU?$char_traits@G@std@@@std@@@std@@MBE?AV?$ostreambuf_iterator@GU?$char_traits@G@std@@@2@V32@AAVios_base@2@G_K@Z 400ac9a0 f i libcpmt:wlocale.obj
 0001:000aba29       ?do_put@?$num_put@GV?$ostreambuf_iterator@GU?$char_traits@G@std@@@std@@@std@@MBE?AV?$ostreambuf_iterator@GU?$char_traits@G@std@@@2@V32@AAVios_base@2@G_N@Z 400aca29 f i libcpmt:wlocale.obj
 0001:000abcba       ?do_put@?$num_put@_WV?$ostreambuf_iterator@_WU?$char_traits@_W@std@@@std@@@std@@MBE?AV?$ostreambuf_iterator@_WU?$char_traits@_W@std@@@2@V32@AAVios_base@2@_WJ@Z 400accba f i libcpmt:wlocale.obj
 0001:000abd3f       ?do_put@?$num_put@_WV?$ostreambuf_iterator@_WU?$char_traits@_W@std@@@std@@@std@@MBE?AV?$ostreambuf_iterator@_WU?$char_traits@_W@std@@@2@V32@AAVios_base@2@_WK@Z 400acd3f f i libcpmt:wlocale.obj
 0001:000abdc4       ?do_put@?$num_put@_WV?$ostreambuf_iterator@_WU?$char_traits@_W@std@@@std@@@std@@MBE?AV?$ostreambuf_iterator@_WU?$char_traits@_W@std@@@2@V32@AAVios_base@2@_WN@Z 400acdc4 f i libcpmt:wlocale.obj
 0001:000ac07c       ?do_put@?$num_put@_WV?$ostreambuf_iterator@_WU?$char_traits@_W@std@@@std@@@std@@MBE?AV?$ostreambuf_iterator@_WU?$char_traits@_W@std@@@2@V32@AAVios_base@2@_WO@Z 400ad07c f i libcpmt:wlocale.obj
 0001:000ac334       ?do_put@?$num_put@_WV?$ostreambuf_iterator@_WU?$char_traits@_W@std@@@std@@@std@@MBE?AV?$ostreambuf_iterator@_WU?$char_traits@_W@std@@@2@V32@AAVios_base@2@_WPBX@Z 400ad334 f i libcpmt:wlocale.obj
 0001:000ac3a5       ?do_put@?$num_put@_WV?$ostreambuf_iterator@_WU?$char_traits@_W@std@@@std@@@std@@MBE?AV?$ostreambuf_iterator@_WU?$char_traits@_W@std@@@2@V32@AAVios_base@2@_W_J@Z 400ad3a5 f i libcpmt:wlocale.obj
 0001:000ac42e       ?do_put@?$num_put@_WV?$ostreambuf_iterator@_WU?$char_traits@_W@std@@@std@@@std@@MBE?AV?$ostreambuf_iterator@_WU?$char_traits@_W@std@@@2@V32@AAVios_base@2@_W_K@Z 400ad42e f i libcpmt:wlocale.obj
 0001:000ac4b7       ?do_put@?$num_put@_WV?$ostreambuf_iterator@_WU?$char_traits@_W@std@@@std@@@std@@MBE?AV?$ostreambuf_iterator@_WU?$char_traits@_W@std@@@2@V32@AAVios_base@2@_W_N@Z 400ad4b7 f i libcpmt:wlocale.obj
 0001:000ac748       ?do_put@?$time_put@GV?$ostreambuf_iterator@GU?$char_traits@G@std@@@std@@@std@@MBE?AV?$ostreambuf_iterator@GU?$char_traits@G@std@@@2@V32@AAVios_base@2@GPBUtm@@DD@Z 400ad748 f i libcpmt:wlocale.obj
 0001:000ac9d3       ?do_put@?$time_put@_WV?$ostreambuf_iterator@_WU?$char_traits@_W@std@@@std@@@std@@MBE?AV?$ostreambuf_iterator@_WU?$char_traits@_W@std@@@2@V32@AAVios_base@2@_WPBUtm@@DD@Z 400ad9d3 f i libcpmt:wlocale.obj
 0001:000acc5e       ?do_scan_is@?$ctype@G@std@@MBEPBGFPBG0@Z 400adc5e f i libcpmt:wlocale.obj
 0001:000accaa       ?do_scan_is@?$ctype@_W@std@@MBEPB_WFPB_W0@Z 400adcaa f i libcpmt:wlocale.obj
 0001:000accf6       ?do_scan_not@?$ctype@G@std@@MBEPBGFPBG0@Z 400adcf6 f i libcpmt:wlocale.obj
 0001:000acd42       ?do_scan_not@?$ctype@_W@std@@MBEPB_WFPB_W0@Z 400add42 f i libcpmt:wlocale.obj
 0001:000acd8e       ?do_thousands_sep@?$_Mpunct@G@std@@MBEGXZ 400add8e f i libcpmt:wlocale.obj
 0001:000acd93       ?do_thousands_sep@?$_Mpunct@_W@std@@MBE_WXZ 400add93 f i libcpmt:wlocale.obj
 0001:000acd98       ?do_thousands_sep@?$numpunct@G@std@@MBEGXZ 400add98 f i libcpmt:wlocale.obj
 0001:000acd9d       ?do_thousands_sep@?$numpunct@_W@std@@MBE_WXZ 400add9d f i libcpmt:wlocale.obj
 0001:000acda2       ?do_tolower@?$ctype@G@std@@MBEGG@Z 400adda2 f i libcpmt:wlocale.obj
 0001:000acdbc       ?do_tolower@?$ctype@G@std@@MBEPBGPAGPBG@Z 400addbc f i libcpmt:wlocale.obj
 0001:000acdf6       ?do_tolower@?$ctype@_W@std@@MBEPB_WPA_WPB_W@Z 400addf6 f i libcpmt:wlocale.obj
 0001:000ace30       ?do_tolower@?$ctype@_W@std@@MBE_W_W@Z 400ade30 f i libcpmt:wlocale.obj
 0001:000ace4a       ?do_toupper@?$ctype@G@std@@MBEGG@Z 400ade4a f i libcpmt:wlocale.obj
 0001:000ace64       ?do_toupper@?$ctype@G@std@@MBEPBGPAGPBG@Z 400ade64 f i libcpmt:wlocale.obj
 0001:000ace9e       ?do_toupper@?$ctype@_W@std@@MBEPB_WPA_WPB_W@Z 400ade9e f i libcpmt:wlocale.obj
 0001:000aced8       ?do_toupper@?$ctype@_W@std@@MBE_W_W@Z 400aded8 f i libcpmt:wlocale.obj
 0001:000acef2       ?do_transform@?$collate@G@std@@MBE?AV?$basic_string@GU?$char_traits@G@std@@V?$allocator@G@2@@2@PBG0@Z 400adef2 f i libcpmt:wlocale.obj
 0001:000acf9c       ?do_transform@?$collate@_W@std@@MBE?AV?$basic_string@_WU?$char_traits@_W@std@@V?$allocator@_W@2@@2@PB_W0@Z 400adf9c f i libcpmt:wlocale.obj
 0001:000ad046       ?do_truename@?$numpunct@G@std@@MBE?AV?$basic_string@GU?$char_traits@G@std@@V?$allocator@G@2@@2@XZ 400ae046 f i libcpmt:wlocale.obj
 0001:000ad061       ?do_truename@?$numpunct@_W@std@@MBE?AV?$basic_string@_WU?$char_traits@_W@std@@V?$allocator@_W@2@@2@XZ 400ae061 f i libcpmt:wlocale.obj
 0001:000ad07c       ?do_unshift@?$codecvt@GDU_Mbstatet@@@std@@MBEHAAU_Mbstatet@@PAD1AAPAD@Z 400ae07c f i libcpmt:wlocale.obj
 0001:000ad130       ?do_unshift@?$codecvt@_WDU_Mbstatet@@@std@@MBEHAAU_Mbstatet@@PAD1AAPAD@Z 400ae130 f i libcpmt:wlocale.obj
 0001:000ad1e4       ?do_widen@?$ctype@G@std@@MBEGD@Z 400ae1e4 f i libcpmt:wlocale.obj
 0001:000ad1ef       ?do_widen@?$ctype@G@std@@MBEPBDPBD0PAG@Z 400ae1ef f i libcpmt:wlocale.obj
 0001:000ad22e       ?do_widen@?$ctype@_W@std@@MBEPBDPBD0PA_W@Z 400ae22e f i libcpmt:wlocale.obj
 0001:000ad26d       ?do_widen@?$ctype@_W@std@@MBE_WD@Z 400ae26d f i libcpmt:wlocale.obj
 0001:000ad278       ?empty@?$basic_string@GU?$char_traits@G@std@@V?$allocator@G@2@@std@@QBE_NXZ 400ae278 f i libcpmt:wlocale.obj
 0001:000ad282       ?empty@?$basic_string@_WU?$char_traits@_W@std@@V?$allocator@_W@2@@std@@QBE_NXZ 400ae282 f i libcpmt:wlocale.obj
 0001:000ad28c       ?end@?$basic_string@GU?$char_traits@G@std@@V?$allocator@G@2@@std@@QAE?AV?$_String_iterator@V?$_String_val@U?$_Simple_types@G@std@@@std@@@2@XZ 400ae28c f i libcpmt:wlocale.obj
 0001:000ad2af       ?end@?$basic_string@_WU?$char_traits@_W@std@@V?$allocator@_W@2@@std@@QAE?AV?$_String_iterator@V?$_String_val@U?$_Simple_types@_W@std@@@std@@@2@XZ 400ae2af f i libcpmt:wlocale.obj
 0001:000ad2d2       ?eof@?$_WChar_traits@G@std@@SAGXZ 400ae2d2 f i libcpmt:wlocale.obj
 0001:000ad2d8       ?eof@?$_WChar_traits@_W@std@@SAGXZ 400ae2d8 f i libcpmt:wlocale.obj
 0001:000ad2de       ?eq_int_type@?$_WChar_traits@G@std@@SA_NGG@Z 400ae2de f i libcpmt:wlocale.obj
 0001:000ad2f2       ?eq_int_type@?$_WChar_traits@_W@std@@SA_NGG@Z 400ae2f2 f i libcpmt:wlocale.obj
 0001:000ad306       ?equal@?$istreambuf_iterator@GU?$char_traits@G@std@@@std@@QBE_NABV12@@Z 400ae306 f i libcpmt:wlocale.obj
 0001:000ad34e       ?equal@?$istreambuf_iterator@_WU?$char_traits@_W@std@@@std@@QBE_NABV12@@Z 400ae34e f i libcpmt:wlocale.obj
 0001:000ad396       ?erase@?$basic_string@DU?$char_traits@D@std@@V?$allocator@D@2@@std@@QAEAAV12@I@Z 400ae396 f i libcpmt:wlocale.obj
 0001:000ad3bf       ?erase@?$basic_string@GU?$char_traits@G@std@@V?$allocator@G@2@@std@@QAEAAV12@I@Z 400ae3bf f i libcpmt:wlocale.obj
 0001:000ad3e8       ?erase@?$basic_string@_WU?$char_traits@_W@std@@V?$allocator@_W@2@@std@@QAEAAV12@I@Z 400ae3e8 f i libcpmt:wlocale.obj
 0001:000ad411       ?falsename@?$numpunct@G@std@@QBE?AV?$basic_string@GU?$char_traits@G@std@@V?$allocator@G@2@@2@XZ 400ae411 f i libcpmt:wlocale.obj
 0001:000ad43f       ?falsename@?$numpunct@_W@std@@QBE?AV?$basic_string@_WU?$char_traits@_W@std@@V?$allocator@_W@2@@2@XZ 400ae43f f i libcpmt:wlocale.obj
 0001:000ad46d       ?frac_digits@?$_Mpunct@G@std@@QBEHXZ 400ae46d f i libcpmt:wlocale.obj
 0001:000ad48b       ?frac_digits@?$_Mpunct@_W@std@@QBEHXZ 400ae48b f i libcpmt:wlocale.obj
 0001:000ad4a9       ?get_monthname@?$time_get@GV?$istreambuf_iterator@GU?$char_traits@G@std@@@std@@@std@@QBE?AV?$istreambuf_iterator@GU?$char_traits@G@std@@@2@V32@0AAVios_base@2@AAHPAUtm@@@Z 400ae4a9 f i libcpmt:wlocale.obj
 0001:000ad4ef       ?get_monthname@?$time_get@_WV?$istreambuf_iterator@_WU?$char_traits@_W@std@@@std@@@std@@QBE?AV?$istreambuf_iterator@_WU?$char_traits@_W@std@@@2@V32@0AAVios_base@2@AAHPAUtm@@@Z 400ae4ef f i libcpmt:wlocale.obj
 0001:000ad535       ?get_weekday@?$time_get@GV?$istreambuf_iterator@GU?$char_traits@G@std@@@std@@@std@@QBE?AV?$istreambuf_iterator@GU?$char_traits@G@std@@@2@V32@0AAVios_base@2@AAHPAUtm@@@Z 400ae535 f i libcpmt:wlocale.obj
 0001:000ad57b       ?get_weekday@?$time_get@_WV?$istreambuf_iterator@_WU?$char_traits@_W@std@@@std@@@std@@QBE?AV?$istreambuf_iterator@_WU?$char_traits@_W@std@@@2@V32@0AAVios_base@2@AAHPAUtm@@@Z 400ae57b f i libcpmt:wlocale.obj
 0001:000ad5c1       ?get_year@?$time_get@GV?$istreambuf_iterator@GU?$char_traits@G@std@@@std@@@std@@QBE?AV?$istreambuf_iterator@GU?$char_traits@G@std@@@2@V32@0AAVios_base@2@AAHPAUtm@@@Z 400ae5c1 f i libcpmt:wlocale.obj
 0001:000ad607       ?get_year@?$time_get@_WV?$istreambuf_iterator@_WU?$char_traits@_W@std@@@std@@@std@@QBE?AV?$istreambuf_iterator@_WU?$char_traits@_W@std@@@2@V32@0AAVios_base@2@AAHPAUtm@@@Z 400ae607 f i libcpmt:wlocale.obj
 0001:000ad64d       ?gptr@?$basic_streambuf@GU?$char_traits@G@std@@@std@@IBEPAGXZ 400ae64d f i libcpmt:wlocale.obj
 0001:000ad653       ?gptr@?$basic_streambuf@_WU?$char_traits@_W@std@@@std@@IBEPA_WXZ 400ae653 f i libcpmt:wlocale.obj
 0001:000ad659       ?grouping@?$_Mpunct@G@std@@QBE?AV?$basic_string@DU?$char_traits@D@std@@V?$allocator@D@2@@2@XZ 400ae659 f i libcpmt:wlocale.obj
 0001:000ad687       ?grouping@?$_Mpunct@_W@std@@QBE?AV?$basic_string@DU?$char_traits@D@std@@V?$allocator@D@2@@2@XZ 400ae687 f i libcpmt:wlocale.obj
 0001:000ad6b5       ?grouping@?$numpunct@G@std@@QBE?AV?$basic_string@DU?$char_traits@D@std@@V?$allocator@D@2@@2@XZ 400ae6b5 f i libcpmt:wlocale.obj
 0001:000ad6e3       ?grouping@?$numpunct@_W@std@@QBE?AV?$basic_string@DU?$char_traits@D@std@@V?$allocator@D@2@@2@XZ 400ae6e3 f i libcpmt:wlocale.obj
 0001:000ad711       ?insert@?$basic_string@GU?$char_traits@G@std@@V?$allocator@G@2@@std@@QAEAAV12@IIG@Z 400ae711 f i libcpmt:wlocale.obj
 0001:000ad7b7       ?insert@?$basic_string@_WU?$char_traits@_W@std@@V?$allocator@_W@2@@std@@QAEAAV12@II_W@Z 400ae7b7 f i libcpmt:wlocale.obj
 0001:000ad85d       ?iostream_category@std@@YAABVerror_category@1@XZ 400ae85d f i libcpmt:wlocale.obj
 0001:000ad863       ?is@?$ctype@G@std@@QBE_NFG@Z 400ae863 f i libcpmt:wlocale.obj
 0001:000ad890       ?is@?$ctype@_W@std@@QBE_NF_W@Z 400ae890 f i libcpmt:wlocale.obj
 0001:000ad8bd       ?length@?$_Char_traits@GG@std@@SAIPBG@Z 400ae8bd f i libcpmt:wlocale.obj
 0001:000ad8d9       ?length@?$_WChar_traits@G@std@@SAIPBG@Z 400ae8d9 f i libcpmt:wlocale.obj
 0001:000ad8f9       ?length@?$_WChar_traits@_W@std@@SAIPB_W@Z 400ae8f9 f i libcpmt:wlocale.obj
 0001:000ad919       ?max_size@?$_Default_allocator_traits@V?$allocator@G@std@@@std@@SAIABV?$allocator@G@2@@Z 400ae919 f i libcpmt:wlocale.obj
 0001:000ad91f       ?max_size@?$_Default_allocator_traits@V?$allocator@_W@std@@@std@@SAIABV?$allocator@_W@2@@Z 400ae91f f i libcpmt:wlocale.obj
 0001:000ad925       ?max_size@?$basic_string@GU?$char_traits@G@std@@V?$allocator@G@2@@std@@QBEIXZ 400ae925 f i libcpmt:wlocale.obj
 0001:000ad92b       ?max_size@?$basic_string@_WU?$char_traits@_W@std@@V?$allocator@_W@2@@std@@QBEIXZ 400ae92b f i libcpmt:wlocale.obj
 0001:000ad931       ?message@error_code@std@@QBE?AV?$basic_string@DU?$char_traits@D@std@@V?$allocator@D@2@@2@XZ 400ae931 f i libcpmt:wlocale.obj
 0001:000ad963       ?move@?$_Char_traits@GG@std@@SAPAGQAGQBGI@Z 400ae963 f i libcpmt:wlocale.obj
 0001:000ad986       ?move@?$_Char_traits@_WG@std@@SAPA_WQA_WQB_WI@Z 400ae986 f i libcpmt:wlocale.obj
 0001:000ad9a9       ?name@locale@std@@QBE?AV?$basic_string@DU?$char_traits@D@std@@V?$allocator@D@2@@2@XZ 400ae9a9 f i libcpmt:wlocale.obj
 0001:000adb03       ?narrow@?$ctype@G@std@@QBEDGD@Z 400aeb03 f i libcpmt:wlocale.obj
 0001:000adb30       ?narrow@?$ctype@_W@std@@QBED_WD@Z 400aeb30 f i libcpmt:wlocale.obj
 0001:000adb5d       ?neg_format@?$_Mpunct@G@std@@QBE?AUpattern@money_base@2@XZ 400aeb5d f i libcpmt:wlocale.obj
 0001:000adb8a       ?neg_format@?$_Mpunct@_W@std@@QBE?AUpattern@money_base@2@XZ 400aeb8a f i libcpmt:wlocale.obj
 0001:000adbb7       ?negative_sign@?$_Mpunct@G@std@@QBE?AV?$basic_string@GU?$char_traits@G@std@@V?$allocator@G@2@@2@XZ 400aebb7 f i libcpmt:wlocale.obj
 0001:000adbe5       ?negative_sign@?$_Mpunct@_W@std@@QBE?AV?$basic_string@_WU?$char_traits@_W@std@@V?$allocator@_W@2@@2@XZ 400aebe5 f i libcpmt:wlocale.obj
 0001:000adc13       ?pos_format@?$_Mpunct@G@std@@QBE?AUpattern@money_base@2@XZ 400aec13 f i libcpmt:wlocale.obj
 0001:000adc40       ?pos_format@?$_Mpunct@_W@std@@QBE?AUpattern@money_base@2@XZ 400aec40 f i libcpmt:wlocale.obj
 0001:000adc6d       ?positive_sign@?$_Mpunct@G@std@@QBE?AV?$basic_string@GU?$char_traits@G@std@@V?$allocator@G@2@@2@XZ 400aec6d f i libcpmt:wlocale.obj
 0001:000adc9b       ?positive_sign@?$_Mpunct@_W@std@@QBE?AV?$basic_string@_WU?$char_traits@_W@std@@V?$allocator@_W@2@@2@XZ 400aec9b f i libcpmt:wlocale.obj
 0001:000adcc9       ?push_back@?$basic_string@GU?$char_traits@G@std@@V?$allocator@G@2@@std@@QAEXG@Z 400aecc9 f i libcpmt:wlocale.obj
 0001:000add26       ?push_back@?$basic_string@_WU?$char_traits@_W@std@@V?$allocator@_W@2@@std@@QAEX_W@Z 400aed26 f i libcpmt:wlocale.obj
 0001:000add83       ?rdstate@ios_base@std@@QBEHXZ 400aed83 f i libcpmt:wlocale.obj
 0001:000add87       ?resize@?$basic_string@GU?$char_traits@G@std@@V?$allocator@G@2@@std@@QAEXIG@Z 400aed87 f i libcpmt:wlocale.obj
 0001:000addb2       ?resize@?$basic_string@_WU?$char_traits@_W@std@@V?$allocator@_W@2@@std@@QAEXI_W@Z 400aedb2 f i libcpmt:wlocale.obj
 0001:000adddd       ?sbumpc@?$basic_streambuf@GU?$char_traits@G@std@@@std@@QAEGXZ 400aeddd f i libcpmt:wlocale.obj
 0001:000ade28       ?sbumpc@?$basic_streambuf@_WU?$char_traits@_W@std@@@std@@QAEGXZ 400aee28 f i libcpmt:wlocale.obj
 0001:000ade73       ?select_on_container_copy_construction@?$_Default_allocator_traits@V?$allocator@D@std@@@std@@SA?AV?$allocator@D@2@ABV32@@Z 400aee73 f i libcpmt:wlocale.obj
 0001:000ade7d       ?select_on_container_copy_construction@?$_Default_allocator_traits@V?$allocator@G@std@@@std@@SA?AV?$allocator@G@2@ABV32@@Z 400aee7d f i libcpmt:wlocale.obj
 0001:000ade87       ?select_on_container_copy_construction@?$_Default_allocator_traits@V?$allocator@_W@std@@@std@@SA?AV?$allocator@_W@2@ABV32@@Z 400aee87 f i libcpmt:wlocale.obj
 0001:000ade91       ?setstate@ios_base@std@@QAEXH@Z 400aee91 f i libcpmt:wlocale.obj
 0001:000adeab       ?sgetc@?$basic_streambuf@GU?$char_traits@G@std@@@std@@QAEGXZ 400aeeab f i libcpmt:wlocale.obj
 0001:000adee8       ?sgetc@?$basic_streambuf@_WU?$char_traits@_W@std@@@std@@QAEGXZ 400aeee8 f i libcpmt:wlocale.obj
 0001:000adf25       ?size@?$basic_string@GU?$char_traits@G@std@@V?$allocator@G@2@@std@@QBEIXZ 400aef25 f i libcpmt:wlocale.obj
 0001:000adf29       ?size@?$basic_string@_WU?$char_traits@_W@std@@V?$allocator@_W@2@@std@@QBEIXZ 400aef29 f i libcpmt:wlocale.obj
 0001:000adf2d       ?sputc@?$basic_streambuf@GU?$char_traits@G@std@@@std@@QAEGG@Z 400aef2d f i libcpmt:wlocale.obj
 0001:000adf87       ?sputc@?$basic_streambuf@_WU?$char_traits@_W@std@@@std@@QAEG_W@Z 400aef87 f i libcpmt:wlocale.obj
 0001:000adfe1       ?thousands_sep@?$_Mpunct@G@std@@QBEGXZ 400aefe1 f i libcpmt:wlocale.obj
 0001:000adfff       ?thousands_sep@?$_Mpunct@_W@std@@QBE_WXZ 400aefff f i libcpmt:wlocale.obj
 0001:000ae01d       ?thousands_sep@?$numpunct@G@std@@QBEGXZ 400af01d f i libcpmt:wlocale.obj
 0001:000ae03b       ?thousands_sep@?$numpunct@_W@std@@QBE_WXZ 400af03b f i libcpmt:wlocale.obj
 0001:000ae059       ?to_char_type@?$_WChar_traits@G@std@@SAGG@Z 400af059 f i libcpmt:wlocale.obj
 0001:000ae064       ?to_char_type@?$_WChar_traits@_W@std@@SA_WG@Z 400af064 f i libcpmt:wlocale.obj
 0001:000ae06f       ?to_int_type@?$_WChar_traits@G@std@@SAGG@Z 400af06f f i libcpmt:wlocale.obj
 0001:000ae07a       ?to_int_type@?$_WChar_traits@_W@std@@SAG_W@Z 400af07a f i libcpmt:wlocale.obj
 0001:000ae085       ?tolower@?$ctype@G@std@@QBEGG@Z 400af085 f i libcpmt:wlocale.obj
 0001:000ae0ae       ?tolower@?$ctype@_W@std@@QBE_W_W@Z 400af0ae f i libcpmt:wlocale.obj
 0001:000ae0d7       ?truename@?$numpunct@G@std@@QBE?AV?$basic_string@GU?$char_traits@G@std@@V?$allocator@G@2@@2@XZ 400af0d7 f i libcpmt:wlocale.obj
 0001:000ae105       ?truename@?$numpunct@_W@std@@QBE?AV?$basic_string@_WU?$char_traits@_W@std@@V?$allocator@_W@2@@2@XZ 400af105 f i libcpmt:wlocale.obj
 0001:000ae133       ?value@error_code@std@@QBEHXZ 400af133 f i libcpmt:wlocale.obj
 0001:000ae136       ?value@error_condition@std@@QBEHXZ 400af136 f i libcpmt:wlocale.obj
 0001:000ae139       ?widen@?$ctype@G@std@@QBEGD@Z 400af139 f i libcpmt:wlocale.obj
 0001:000ae162       ?widen@?$ctype@G@std@@QBEPBDPBD0PAG@Z 400af162 f i libcpmt:wlocale.obj
 0001:000ae192       ?widen@?$ctype@_W@std@@QBEPBDPBD0PA_W@Z 400af192 f i libcpmt:wlocale.obj
 0001:000ae1c2       ?widen@?$ctype@_W@std@@QBE_WD@Z 400af1c2 f i libcpmt:wlocale.obj
 0001:000ae1eb       _wmemcpy                   400af1eb f i libcpmt:wlocale.obj
 0001:000ae20a       _wmemset                   400af20a f i libcpmt:wlocale.obj
 0001:000ae247       ??$_Copy_unchecked@PADPADV?$ostreambuf_iterator@DU?$char_traits@D@std@@@std@@@std@@YA?AV?$ostreambuf_iterator@DU?$char_traits@D@std@@@0@PAD0V10@@Z 400af247 f i libcpmt:xlocale.obj
 0001:000ae27e       ??$_Find_elem@D$0M@@std@@YAIAAY0M@$$CBDD@Z 400af27e f i libcpmt:xlocale.obj
 0001:000ae29d       ??$_Get_unwrapped@AAPAD@std@@YA?A_TAAPAD@Z 400af29d f i libcpmt:xlocale.obj
 0001:000ae2a9       ??$_Get_unwrapped_n@V?$ostreambuf_iterator@DU?$char_traits@D@std@@@std@@H@std@@YA?A_T$$QAV?$ostreambuf_iterator@DU?$char_traits@D@std@@@0@H@Z 400af2a9 f i libcpmt:xlocale.obj
 0001:000ae2b3       ??$_Getint_v2@V?$istreambuf_iterator@DU?$char_traits@D@std@@@std@@D@std@@YAHAAV?$istreambuf_iterator@DU?$char_traits@D@std@@@0@0HHAAH1ABV?$ctype@D@0@@Z 400af2b3 f i libcpmt:xlocale.obj
 0001:000ae56a       ??$_Getvals@D@?$time_get@DV?$istreambuf_iterator@DU?$char_traits@D@std@@@std@@@std@@IAEXDABV_Locinfo@1@@Z 400af56a f i libcpmt:xlocale.obj
 0001:000ae5ef       ??$_Hash_array_representation@D@std@@YAIQBDI@Z 400af5ef f i libcpmt:xlocale.obj
 0001:000ae60d       ??$_Idl_distance@PADPAD@std@@YA?A_PABQAD0@Z 400af60d f i libcpmt:xlocale.obj
 0001:000ae61f       ??$_LStrcoll@D@std@@YAHPBD000PBU_Collvec@@@Z 400af61f f i libcpmt:xlocale.obj
 0001:000ae62a       ??$_LStrxfrm@D@std@@YAIPAD0PBD1PBU_Collvec@@@Z 400af62a f i libcpmt:xlocale.obj
 0001:000ae635       ??$_Refancy@PAD$0A@@std@@YAPADPAD@Z 400af635 f i libcpmt:xlocale.obj
 0001:000ae63f       ??$_Seek_wrapped@V?$ostreambuf_iterator@DU?$char_traits@D@std@@@std@@V12@@std@@YAXAAV?$ostreambuf_iterator@DU?$char_traits@D@std@@@0@$$QAV10@@Z 400af63f f i libcpmt:xlocale.obj
 0001:000ae659       ??$addressof@$$CBV?$moneypunct@D$00@std@@@std@@YAPBV?$moneypunct@D$00@0@ABV10@@Z 400af659 f i libcpmt:xlocale.obj
 0001:000ae663       ??$addressof@$$CBV?$moneypunct@D$0A@@std@@@std@@YAPBV?$moneypunct@D$0A@@0@ABV10@@Z 400af663 f i libcpmt:xlocale.obj
 0001:000ae66d       ??$addressof@V?$_String_val@U?$_Simple_types@D@std@@@std@@@std@@YAPAV?$_String_val@U?$_Simple_types@D@std@@@0@AAV10@@Z 400af66d f i libcpmt:xlocale.obj
 0001:000ae677       ??$copy@PADV?$ostreambuf_iterator@DU?$char_traits@D@std@@@std@@@std@@YA?AV?$ostreambuf_iterator@DU?$char_traits@D@std@@@0@PAD0V10@@Z 400af677 f i libcpmt:xlocale.obj
 0001:000ae6ae       ??$forward@V?$ostreambuf_iterator@DU?$char_traits@D@std@@@std@@@std@@YA$$QAV?$ostreambuf_iterator@DU?$char_traits@D@std@@@0@AAV10@@Z 400af6ae f i libcpmt:xlocale.obj
 0001:000ae6b8       ??$move@AAV?$ostreambuf_iterator@DU?$char_traits@D@std@@@std@@@std@@YA$$QAV?$ostreambuf_iterator@DU?$char_traits@D@std@@@0@AAV10@@Z 400af6b8 f i libcpmt:xlocale.obj
 0001:000ae6c2       ??$use_facet@V?$collate@D@std@@@std@@YAABV?$collate@D@0@ABVlocale@0@@Z 400af6c2 f i libcpmt:xlocale.obj
 0001:000ae780       ??$use_facet@V?$messages@D@std@@@std@@YAABV?$messages@D@0@ABVlocale@0@@Z 400af780 f i libcpmt:xlocale.obj
 0001:000ae83e       ??$use_facet@V?$money_get@DV?$istreambuf_iterator@DU?$char_traits@D@std@@@std@@@std@@@std@@YAABV?$money_get@DV?$istreambuf_iterator@DU?$char_traits@D@std@@@std@@@0@ABVlocale@0@@Z 400af83e f i libcpmt:xlocale.obj
 0001:000ae8fc       ??$use_facet@V?$money_put@DV?$ostreambuf_iterator@DU?$char_traits@D@std@@@std@@@std@@@std@@YAABV?$money_put@DV?$ostreambuf_iterator@DU?$char_traits@D@std@@@std@@@0@ABVlocale@0@@Z 400af8fc f i libcpmt:xlocale.obj
 0001:000ae9ba       ??$use_facet@V?$moneypunct@D$00@std@@@std@@YAABV?$moneypunct@D$00@0@ABVlocale@0@@Z 400af9ba f i libcpmt:xlocale.obj
 0001:000aea78       ??$use_facet@V?$moneypunct@D$0A@@std@@@std@@YAABV?$moneypunct@D$0A@@0@ABVlocale@0@@Z 400afa78 f i libcpmt:xlocale.obj
 0001:000aeb36       ??$use_facet@V?$time_get@DV?$istreambuf_iterator@DU?$char_traits@D@std@@@std@@@std@@@std@@YAABV?$time_get@DV?$istreambuf_iterator@DU?$char_traits@D@std@@@std@@@0@ABVlocale@0@@Z 400afb36 f i libcpmt:xlocale.obj
 0001:000aebf4       ??$use_facet@V?$time_put@DV?$ostreambuf_iterator@DU?$char_traits@D@std@@@std@@@std@@@std@@YAABV?$time_put@DV?$ostreambuf_iterator@DU?$char_traits@D@std@@@std@@@0@ABVlocale@0@@Z 400afbf4 f i libcpmt:xlocale.obj
 0001:000aecb2       ??0?$_Mpunct@D@std@@QAE@ABV_Locinfo@1@I_N1@Z 400afcb2 f i libcpmt:xlocale.obj
 0001:000aed00       ??0?$_String_const_iterator@V?$_String_val@U?$_Simple_types@D@std@@@std@@@std@@QAE@PBDPBU_Container_base0@1@@Z 400afd00 f i libcpmt:xlocale.obj
 0001:000aed11       ??0?$_String_const_iterator@V?$_String_val@U?$_Simple_types@D@std@@@std@@@std@@QAE@XZ 400afd11 f i libcpmt:xlocale.obj
 0001:000aed1c       ??0?$_String_iterator@V?$_String_val@U?$_Simple_types@D@std@@@std@@@std@@QAE@PBDPBU_Container_base0@1@@Z 400afd1c f i libcpmt:xlocale.obj
 0001:000aed2d       ??0?$collate@D@std@@QAE@ABV_Locinfo@1@I@Z 400afd2d f i libcpmt:xlocale.obj
 0001:000aed5f       ??0?$messages@D@std@@QAE@ABV_Locinfo@1@I@Z 400afd5f f i libcpmt:xlocale.obj
 0001:000aed7e       ??0?$money_get@DV?$istreambuf_iterator@DU?$char_traits@D@std@@@std@@@std@@QAE@ABV_Locinfo@1@I@Z 400afd7e f i libcpmt:xlocale.obj
 0001:000aed9d       ??0?$money_put@DV?$ostreambuf_iterator@DU?$char_traits@D@std@@@std@@@std@@QAE@ABV_Locinfo@1@I@Z 400afd9d f i libcpmt:xlocale.obj
 0001:000aedbc       ??0?$moneypunct@D$00@std@@QAE@ABV_Locinfo@1@I_N@Z 400afdbc f i libcpmt:xlocale.obj
 0001:000aedec       ??0?$moneypunct@D$0A@@std@@QAE@ABV_Locinfo@1@I_N@Z 400afdec f i libcpmt:xlocale.obj
 0001:000aee1c       ??0?$time_get@DV?$istreambuf_iterator@DU?$char_traits@D@std@@@std@@@std@@QAE@ABV_Locinfo@1@I@Z 400afe1c f i libcpmt:xlocale.obj
 0001:000aee5f       ??0?$time_put@DV?$ostreambuf_iterator@DU?$char_traits@D@std@@@std@@@std@@QAE@ABV_Locinfo@1@I@Z 400afe5f f i libcpmt:xlocale.obj
 0001:000aee96       ??1?$_Mpunct@D@std@@MAE@XZ 400afe96 f i libcpmt:xlocale.obj
 0001:000aeeb1       ??1?$_Tidy_guard@V?$_Mpunct@D@std@@@std@@QAE@XZ 400afeb1 f i libcpmt:xlocale.obj
 0001:000aeebe       ??1?$_Tidy_guard@V?$time_get@DV?$istreambuf_iterator@DU?$char_traits@D@std@@@std@@@std@@@std@@QAE@XZ 400afebe f i libcpmt:xlocale.obj
 0001:000aeecb       ??1?$collate@D@std@@MAE@XZ 400afecb f i libcpmt:xlocale.obj
 0001:000aeeeb       ??1?$messages@D@std@@MAE@XZ 400afeeb f i libcpmt:xlocale.obj
 0001:000aeef2       ??1?$money_get@DV?$istreambuf_iterator@DU?$char_traits@D@std@@@std@@@std@@MAE@XZ 400afef2 f i libcpmt:xlocale.obj
 0001:000aeef9       ??1?$money_put@DV?$ostreambuf_iterator@DU?$char_traits@D@std@@@std@@@std@@MAE@XZ 400afef9 f i libcpmt:xlocale.obj
 0001:000aef00       ??1?$moneypunct@D$00@std@@MAE@XZ 400aff00 f i libcpmt:xlocale.obj
 0001:000aef1b       ??1?$moneypunct@D$0A@@std@@MAE@XZ 400aff1b f i libcpmt:xlocale.obj
 0001:000aef36       ??1?$time_get@DV?$istreambuf_iterator@DU?$char_traits@D@std@@@std@@@std@@MAE@XZ 400aff36 f i libcpmt:xlocale.obj
 0001:000aef51       ??1?$time_put@DV?$ostreambuf_iterator@DU?$char_traits@D@std@@@std@@@std@@MAE@XZ 400aff51 f i libcpmt:xlocale.obj
 0001:000aef71       ??8?$_String_const_iterator@V?$_String_val@U?$_Simple_types@D@std@@@std@@@std@@QBE_NABV01@@Z 400aff71 f i libcpmt:xlocale.obj
 0001:000aef86       ??D?$_String_const_iterator@V?$_String_val@U?$_Simple_types@D@std@@@std@@@std@@QBEABDXZ 400aff86 f i libcpmt:xlocale.obj
 0001:000aef89       ??D?$_String_iterator@V?$_String_val@U?$_Simple_types@D@std@@@std@@@std@@QBEAADXZ 400aff89 f i libcpmt:xlocale.obj
 0001:000aef8c       ??E?$_String_const_iterator@V?$_String_val@U?$_Simple_types@D@std@@@std@@@std@@QAEAAV01@XZ 400aff8c f i libcpmt:xlocale.obj
 0001:000aef91       ??E?$_String_iterator@V?$_String_val@U?$_Simple_types@D@std@@@std@@@std@@QAEAAV01@XZ 400aff91 f i libcpmt:xlocale.obj
 0001:000aef96       ??E?$ostreambuf_iterator@DU?$char_traits@D@std@@@std@@QAEAAV01@H@Z 400aff96 f i libcpmt:xlocale.obj
 0001:000aef9b       ??G?$_String_iterator@V?$_String_val@U?$_Simple_types@D@std@@@std@@@std@@QBE?AV01@H@Z 400aff9b f i libcpmt:xlocale.obj
 0001:000aefb0       ??H?$_String_iterator@V?$_String_val@U?$_Simple_types@D@std@@@std@@@std@@QBE?AV01@H@Z 400affb0 f i libcpmt:xlocale.obj
 0001:000aefc5       ??Y?$_String_const_iterator@V?$_String_val@U?$_Simple_types@D@std@@@std@@@std@@QAEAAV01@H@Z 400affc5 f i libcpmt:xlocale.obj
 0001:000aefd6       ??Y?$_String_iterator@V?$_String_val@U?$_Simple_types@D@std@@@std@@@std@@QAEAAV01@H@Z 400affd6 f i libcpmt:xlocale.obj
 0001:000aefe7       ??Z?$_String_const_iterator@V?$_String_val@U?$_Simple_types@D@std@@@std@@@std@@QAEAAV01@H@Z 400affe7 f i libcpmt:xlocale.obj
 0001:000aeff8       ??Z?$_String_iterator@V?$_String_val@U?$_Simple_types@D@std@@@std@@@std@@QAEAAV01@H@Z 400afff8 f i libcpmt:xlocale.obj
 0001:000af009       ??_E?$_Mpunct@D@std@@MAEPAXI@Z 400b0009 f i libcpmt:xlocale.obj
 0001:000af009       ??_G?$_Mpunct@D@std@@MAEPAXI@Z 400b0009 f i libcpmt:xlocale.obj
 0001:000af042       ??_E?$collate@D@std@@MAEPAXI@Z 400b0042 f i libcpmt:xlocale.obj
 0001:000af042       ??_G?$collate@D@std@@MAEPAXI@Z 400b0042 f i libcpmt:xlocale.obj
 0001:000af06c       ??_E?$messages@D@std@@MAEPAXI@Z 400b006c f i libcpmt:xlocale.obj
 0001:000af06c       ??_G?$messages@D@std@@MAEPAXI@Z 400b006c f i libcpmt:xlocale.obj
 0001:000af097       ??_E?$money_get@DV?$istreambuf_iterator@DU?$char_traits@D@std@@@std@@@std@@MAEPAXI@Z 400b0097 f i libcpmt:xlocale.obj
 0001:000af097       ??_G?$money_get@DV?$istreambuf_iterator@DU?$char_traits@D@std@@@std@@@std@@MAEPAXI@Z 400b0097 f i libcpmt:xlocale.obj
 0001:000af0c2       ??_E?$money_put@DV?$ostreambuf_iterator@DU?$char_traits@D@std@@@std@@@std@@MAEPAXI@Z 400b00c2 f i libcpmt:xlocale.obj
 0001:000af0c2       ??_G?$money_put@DV?$ostreambuf_iterator@DU?$char_traits@D@std@@@std@@@std@@MAEPAXI@Z 400b00c2 f i libcpmt:xlocale.obj
 0001:000af0ed       ??_E?$moneypunct@D$00@std@@MAEPAXI@Z 400b00ed f i libcpmt:xlocale.obj
 0001:000af0ed       ??_G?$moneypunct@D$00@std@@MAEPAXI@Z 400b00ed f i libcpmt:xlocale.obj
 0001:000af126       ??_E?$moneypunct@D$0A@@std@@MAEPAXI@Z 400b0126 f i libcpmt:xlocale.obj
 0001:000af126       ??_G?$moneypunct@D$0A@@std@@MAEPAXI@Z 400b0126 f i libcpmt:xlocale.obj
 0001:000af15f       ??_E?$time_get@DV?$istreambuf_iterator@DU?$char_traits@D@std@@@std@@@std@@MAEPAXI@Z 400b015f f i libcpmt:xlocale.obj
 0001:000af15f       ??_G?$time_get@DV?$istreambuf_iterator@DU?$char_traits@D@std@@@std@@@std@@MAEPAXI@Z 400b015f f i libcpmt:xlocale.obj
 0001:000af198       ??_E?$time_put@DV?$ostreambuf_iterator@DU?$char_traits@D@std@@@std@@@std@@MAEPAXI@Z 400b0198 f i libcpmt:xlocale.obj
 0001:000af198       ??_G?$time_put@DV?$ostreambuf_iterator@DU?$char_traits@D@std@@@std@@@std@@MAEPAXI@Z 400b0198 f i libcpmt:xlocale.obj
 0001:000af1c2       ?_Compat@?$_String_const_iterator@V?$_String_val@U?$_Simple_types@D@std@@@std@@@std@@QBEXABV12@@Z 400b01c2 f i libcpmt:xlocale.obj
 0001:000af1c5       ?_Getcat@?$collate@D@std@@SAIPAPBVfacet@locale@2@PBV42@@Z 400b01c5 f i libcpmt:xlocale.obj
 0001:000af293       ?_Getcat@?$messages@D@std@@SAIPAPBVfacet@locale@2@PBV42@@Z 400b0293 f i libcpmt:xlocale.obj
 0001:000af318       ?_Getcat@?$money_get@DV?$istreambuf_iterator@DU?$char_traits@D@std@@@std@@@std@@SAIPAPBVfacet@locale@2@PBV42@@Z 400b0318 f i libcpmt:xlocale.obj
 0001:000af39d       ?_Getcat@?$money_put@DV?$ostreambuf_iterator@DU?$char_traits@D@std@@@std@@@std@@SAIPAPBVfacet@locale@2@PBV42@@Z 400b039d f i libcpmt:xlocale.obj
 0001:000af422       ?_Getcat@?$moneypunct@D$00@std@@SAIPAPBVfacet@locale@2@PBV42@@Z 400b0422 f i libcpmt:xlocale.obj
 0001:000af4b5       ?_Getcat@?$moneypunct@D$0A@@std@@SAIPAPBVfacet@locale@2@PBV42@@Z 400b04b5 f i libcpmt:xlocale.obj
 0001:000af549       ?_Getcat@?$time_get@DV?$istreambuf_iterator@DU?$char_traits@D@std@@@std@@@std@@SAIPAPBVfacet@locale@2@PBV42@@Z 400b0549 f i libcpmt:xlocale.obj
 0001:000af5d0       ?_Getcat@?$time_put@DV?$ostreambuf_iterator@DU?$char_traits@D@std@@@std@@@std@@SAIPAPBVfacet@locale@2@PBV42@@Z 400b05d0 f i libcpmt:xlocale.obj
 0001:000af668       ?_Getfmt@?$time_get@DV?$istreambuf_iterator@DU?$char_traits@D@std@@@std@@@std@@IBE?AV?$istreambuf_iterator@DU?$char_traits@D@std@@@2@V32@0AAVios_base@2@AAHPAUtm@@PBD@Z 400b0668 f i libcpmt:xlocale.obj
 0001:000af80e       ?_Getint@?$time_get@DV?$istreambuf_iterator@DU?$char_traits@D@std@@@std@@@std@@ABAHAAV?$istreambuf_iterator@DU?$char_traits@D@std@@@2@0HHAAHABV?$ctype@D@2@@Z 400b080e f i libcpmt:xlocale.obj
 0001:000af83b       ?_Getmfld@?$money_get@DV?$istreambuf_iterator@DU?$char_traits@D@std@@@std@@@std@@ABE?AV?$basic_string@DU?$char_traits@D@std@@V?$allocator@D@2@@2@AAV?$istreambuf_iterator@DU?$char_traits@D@std@@@2@0_NAAVios_base@2@AAY0M@D@Z 400b083b f i libcpmt:xlocale.obj
 0001:000b0895       ?_Gettnames@_Locinfo@std@@QBE?AV_Timevec@2@XZ 400b1895 f i libcpmt:xlocale.obj
 0001:000b08ae       ?_Init@?$_Mpunct@D@std@@IAEXABV_Locinfo@2@_N@Z 400b18ae f i libcpmt:xlocale.obj
 0001:000b0a16       ?_Init@?$collate@D@std@@IAEXABV_Locinfo@2@@Z 400b1a16 f i libcpmt:xlocale.obj
 0001:000b0a2c       ?_Init@?$messages@D@std@@IAEXABV_Locinfo@2@@Z 400b1a2c f i libcpmt:xlocale.obj
 0001:000b0a2f       ?_Init@?$money_get@DV?$istreambuf_iterator@DU?$char_traits@D@std@@@std@@@std@@IAEXABV_Locinfo@2@@Z 400b1a2f f i libcpmt:xlocale.obj
 0001:000b0a32       ?_Init@?$money_put@DV?$ostreambuf_iterator@DU?$char_traits@D@std@@@std@@@std@@IAEXABV_Locinfo@2@@Z 400b1a32 f i libcpmt:xlocale.obj
 0001:000b0a35       ?_Init@?$time_get@DV?$istreambuf_iterator@DU?$char_traits@D@std@@@std@@@std@@IAEXABV_Locinfo@2@@Z 400b1a35 f i libcpmt:xlocale.obj
 0001:000b0a7b       ?_Init@?$time_put@DV?$ostreambuf_iterator@DU?$char_traits@D@std@@@std@@@std@@IAEXABV_Locinfo@2@@Z 400b1a7b f i libcpmt:xlocale.obj
 0001:000b0aae       ?_Makexloc@_Locimp@locale@std@@CAXABV_Locinfo@3@HPAV123@PBV23@@Z 400b1aae f   libcpmt:xlocale.obj
 0001:000b0e6c       ?_Makpat@?$_Mpunct@D@std@@AAEXAAUpattern@money_base@2@III@Z 400b1e6c f i libcpmt:xlocale.obj
 0001:000b0ebd       ?_Put@?$money_put@DV?$ostreambuf_iterator@DU?$char_traits@D@std@@@std@@@std@@CA?AV?$ostreambuf_iterator@DU?$char_traits@D@std@@@2@V32@V?$_String_const_iterator@V?$_String_val@U?$_Simple_types@D@std@@@std@@@2@I@Z 400b1ebd f i libcpmt:xlocale.obj
 0001:000b0f01       ?_Putmfld@?$money_put@DV?$ostreambuf_iterator@DU?$char_traits@D@std@@@std@@@std@@ABE?AV?$ostreambuf_iterator@DU?$char_traits@D@std@@@2@V32@_NAAVios_base@2@D1V?$basic_string@DU?$char_traits@D@std@@V?$allocator@D@2@@2@D@Z 400b1f01 f i libcpmt:xlocale.obj
 0001:000b16d3       ?_Rep@?$money_put@DV?$ostreambuf_iterator@DU?$char_traits@D@std@@@std@@@std@@CA?AV?$ostreambuf_iterator@DU?$char_traits@D@std@@@2@V32@DI@Z 400b26d3 f i libcpmt:xlocale.obj
 0001:000b170a       ?_Tidy@?$_Mpunct@D@std@@AAEXXZ 400b270a f i libcpmt:xlocale.obj
 0001:000b173c       ?_Tidy@?$time_get@DV?$istreambuf_iterator@DU?$char_traits@D@std@@@std@@@std@@AAEXXZ 400b273c f i libcpmt:xlocale.obj
 0001:000b1764       ?begin@?$basic_string@DU?$char_traits@D@std@@V?$allocator@D@2@@std@@QAE?AV?$_String_iterator@V?$_String_val@U?$_Simple_types@D@std@@@std@@@2@XZ 400b2764 f i libcpmt:xlocale.obj
 0001:000b177d       ?curr_symbol@?$_Mpunct@D@std@@QBE?AV?$basic_string@DU?$char_traits@D@std@@V?$allocator@D@2@@2@XZ 400b277d f i libcpmt:xlocale.obj
 0001:000b17ab       ?date_order@?$time_get@DV?$istreambuf_iterator@DU?$char_traits@D@std@@@std@@@std@@QBE?AW4dateorder@time_base@2@XZ 400b27ab f i libcpmt:xlocale.obj
 0001:000b17c9       ?decimal_point@?$_Mpunct@D@std@@QBEDXZ 400b27c9 f i libcpmt:xlocale.obj
 0001:000b17e7       ?do_close@?$messages@D@std@@MBEXH@Z 400b27e7 f i libcpmt:xlocale.obj
 0001:000b17ea       ?do_compare@?$collate@D@std@@MBEHPBD000@Z 400b27ea f i libcpmt:xlocale.obj
 0001:000b1826       ?do_curr_symbol@?$_Mpunct@D@std@@MBE?AV?$basic_string@DU?$char_traits@D@std@@V?$allocator@D@2@@2@XZ 400b2826 f i libcpmt:xlocale.obj
 0001:000b1841       ?do_date_order@?$time_get@DV?$istreambuf_iterator@DU?$char_traits@D@std@@@std@@@std@@MBE?AW4dateorder@time_base@2@XZ 400b2841 f i libcpmt:xlocale.obj
 0001:000b1845       ?do_decimal_point@?$_Mpunct@D@std@@MBEDXZ 400b2845 f i libcpmt:xlocale.obj
 0001:000b1849       ?do_frac_digits@?$_Mpunct@D@std@@MBEHXZ 400b2849 f i libcpmt:xlocale.obj
 0001:000b184d       ?do_get@?$messages@D@std@@MBE?AV?$basic_string@DU?$char_traits@D@std@@V?$allocator@D@2@@2@HHHABV32@@Z 400b284d f i libcpmt:xlocale.obj
 0001:000b1868       ?do_get@?$money_get@DV?$istreambuf_iterator@DU?$char_traits@D@std@@@std@@@std@@MBE?AV?$istreambuf_iterator@DU?$char_traits@D@std@@@2@V32@0_NAAVios_base@2@AAHAAO@Z 400b2868 f i libcpmt:xlocale.obj
 0001:000b1947       ?do_get@?$money_get@DV?$istreambuf_iterator@DU?$char_traits@D@std@@@std@@@std@@MBE?AV?$istreambuf_iterator@DU?$char_traits@D@std@@@2@V32@0_NAAVios_base@2@AAHAAV?$basic_string@DU?$char_traits@D@std@@V?$allocator@D@2@@2@@Z 400b2947 f i libcpmt:xlocale.obj
 0001:000b1a4b       ?do_get@?$time_get@DV?$istreambuf_iterator@DU?$char_traits@D@std@@@std@@@std@@MBE?AV?$istreambuf_iterator@DU?$char_traits@D@std@@@2@V32@0AAVios_base@2@AAHPAUtm@@DD@Z 400b2a4b f i libcpmt:xlocale.obj
 0001:000b1f3a       ?do_get_date@?$time_get@DV?$istreambuf_iterator@DU?$char_traits@D@std@@@std@@@std@@MBE?AV?$istreambuf_iterator@DU?$char_traits@D@std@@@2@V32@0AAVios_base@2@AAHPAUtm@@@Z 400b2f3a f i libcpmt:xlocale.obj
 0001:000b24c2       ?do_get_monthname@?$time_get@DV?$istreambuf_iterator@DU?$char_traits@D@std@@@std@@@std@@MBE?AV?$istreambuf_iterator@DU?$char_traits@D@std@@@2@V32@0AAVios_base@2@AAHPAUtm@@@Z 400b34c2 f i libcpmt:xlocale.obj
 0001:000b2514       ?do_get_time@?$time_get@DV?$istreambuf_iterator@DU?$char_traits@D@std@@@std@@@std@@MBE?AV?$istreambuf_iterator@DU?$char_traits@D@std@@@2@V32@0AAVios_base@2@AAHPAUtm@@@Z 400b3514 f i libcpmt:xlocale.obj
 0001:000b2695       ?do_get_weekday@?$time_get@DV?$istreambuf_iterator@DU?$char_traits@D@std@@@std@@@std@@MBE?AV?$istreambuf_iterator@DU?$char_traits@D@std@@@2@V32@0AAVios_base@2@AAHPAUtm@@@Z 400b3695 f i libcpmt:xlocale.obj
 0001:000b26e7       ?do_get_year@?$time_get@DV?$istreambuf_iterator@DU?$char_traits@D@std@@@std@@@std@@MBE?AV?$istreambuf_iterator@DU?$char_traits@D@std@@@2@V32@0AAVios_base@2@AAHPAUtm@@@Z 400b36e7 f i libcpmt:xlocale.obj
 0001:000b27b9       ?do_grouping@?$_Mpunct@D@std@@MBE?AV?$basic_string@DU?$char_traits@D@std@@V?$allocator@D@2@@2@XZ 400b37b9 f i libcpmt:xlocale.obj
 0001:000b27d4       ?do_hash@?$collate@D@std@@MBEJPBD0@Z 400b37d4 f i libcpmt:xlocale.obj
 0001:000b2843       ?do_neg_format@?$_Mpunct@D@std@@MBE?AUpattern@money_base@2@XZ 400b3843 f i libcpmt:xlocale.obj
 0001:000b2855       ?do_negative_sign@?$_Mpunct@D@std@@MBE?AV?$basic_string@DU?$char_traits@D@std@@V?$allocator@D@2@@2@XZ 400b3855 f i libcpmt:xlocale.obj
 0001:000b2870       ?do_open@?$messages@D@std@@MBEHABV?$basic_string@DU?$char_traits@D@std@@V?$allocator@D@2@@2@ABVlocale@2@@Z 400b3870 f i libcpmt:xlocale.obj
 0001:000b2876       ?do_pos_format@?$_Mpunct@D@std@@MBE?AUpattern@money_base@2@XZ 400b3876 f i libcpmt:xlocale.obj
 0001:000b2888       ?do_positive_sign@?$_Mpunct@D@std@@MBE?AV?$basic_string@DU?$char_traits@D@std@@V?$allocator@D@2@@2@XZ 400b3888 f i libcpmt:xlocale.obj
 0001:000b28a3       ?do_put@?$money_put@DV?$ostreambuf_iterator@DU?$char_traits@D@std@@@std@@@std@@MBE?AV?$ostreambuf_iterator@DU?$char_traits@D@std@@@2@V32@_NAAVios_base@2@DABV?$basic_string@DU?$char_traits@D@std@@V?$allocator@D@2@@2@@Z 400b38a3 f i libcpmt:xlocale.obj
 0001:000b2a1d       ?do_put@?$money_put@DV?$ostreambuf_iterator@DU?$char_traits@D@std@@@std@@@std@@MBE?AV?$ostreambuf_iterator@DU?$char_traits@D@std@@@2@V32@_NAAVios_base@2@DO@Z 400b3a1d f i libcpmt:xlocale.obj
 0001:000b2bdc       ?do_put@?$time_put@DV?$ostreambuf_iterator@DU?$char_traits@D@std@@@std@@@std@@MBE?AV?$ostreambuf_iterator@DU?$char_traits@D@std@@@2@V32@AAVios_base@2@DPBUtm@@DD@Z 400b3bdc f i libcpmt:xlocale.obj
 0001:000b2e49       ?do_thousands_sep@?$_Mpunct@D@std@@MBEDXZ 400b3e49 f i libcpmt:xlocale.obj
 0001:000b2e4d       ?do_transform@?$collate@D@std@@MBE?AV?$basic_string@DU?$char_traits@D@std@@V?$allocator@D@2@@2@PBD0@Z 400b3e4d f i libcpmt:xlocale.obj
 0001:000b2f02       ?end@?$basic_string@DU?$char_traits@D@std@@V?$allocator@D@2@@std@@QAE?AV?$_String_iterator@V?$_String_val@U?$_Simple_types@D@std@@@std@@@2@XZ 400b3f02 f i libcpmt:xlocale.obj
 0001:000b2f23       ?frac_digits@?$_Mpunct@D@std@@QBEHXZ 400b3f23 f i libcpmt:xlocale.obj
 0001:000b2f41       ?get_monthname@?$time_get@DV?$istreambuf_iterator@DU?$char_traits@D@std@@@std@@@std@@QBE?AV?$istreambuf_iterator@DU?$char_traits@D@std@@@2@V32@0AAVios_base@2@AAHPAUtm@@@Z 400b3f41 f i libcpmt:xlocale.obj
 0001:000b2f87       ?get_weekday@?$time_get@DV?$istreambuf_iterator@DU?$char_traits@D@std@@@std@@@std@@QBE?AV?$istreambuf_iterator@DU?$char_traits@D@std@@@2@V32@0AAVios_base@2@AAHPAUtm@@@Z 400b3f87 f i libcpmt:xlocale.obj
 0001:000b2fcd       ?get_year@?$time_get@DV?$istreambuf_iterator@DU?$char_traits@D@std@@@std@@@std@@QBE?AV?$istreambuf_iterator@DU?$char_traits@D@std@@@2@V32@0AAVios_base@2@AAHPAUtm@@@Z 400b3fcd f i libcpmt:xlocale.obj
 0001:000b3013       ?grouping@?$_Mpunct@D@std@@QBE?AV?$basic_string@DU?$char_traits@D@std@@V?$allocator@D@2@@2@XZ 400b4013 f i libcpmt:xlocale.obj
 0001:000b3041       ?is@?$ctype@D@std@@QBE_NFD@Z 400b4041 f i libcpmt:xlocale.obj
 0001:000b3060       ?narrow@?$ctype@D@std@@QBEDDD@Z 400b4060 f i libcpmt:xlocale.obj
 0001:000b308d       ?neg_format@?$_Mpunct@D@std@@QBE?AUpattern@money_base@2@XZ 400b408d f i libcpmt:xlocale.obj
 0001:000b30ba       ?negative_sign@?$_Mpunct@D@std@@QBE?AV?$basic_string@DU?$char_traits@D@std@@V?$allocator@D@2@@2@XZ 400b40ba f i libcpmt:xlocale.obj
 0001:000b30e8       ?pos_format@?$_Mpunct@D@std@@QBE?AUpattern@money_base@2@XZ 400b40e8 f i libcpmt:xlocale.obj
 0001:000b3115       ?positive_sign@?$_Mpunct@D@std@@QBE?AV?$basic_string@DU?$char_traits@D@std@@V?$allocator@D@2@@2@XZ 400b4115 f i libcpmt:xlocale.obj
 0001:000b3143       ?thousands_sep@?$_Mpunct@D@std@@QBEDXZ 400b4143 f i libcpmt:xlocale.obj
 0001:000b3161       ?widen@?$ctype@D@std@@QBEDD@Z 400b4161 f i libcpmt:xlocale.obj
 0001:000b318a       __Stolx                    400b418a f   libcpmt:xstol.obj
 0001:000b3269       __Stoul                    400b4269 f   libcpmt:xstoul.obj
 0001:000b3287       __Stoulx                   400b4287 f   libcpmt:xstoul.obj
 0001:000b3458       __Stoll                    400b4458 f   libcpmt:xstoll.obj
 0001:000b3476       __Stollx                   400b4476 f   libcpmt:xstoll.obj
 0001:000b358e       __Stoull                   400b458e f   libcpmt:xstoull.obj
 0001:000b35ac       __Stoullx                  400b45ac f   libcpmt:xstoull.obj
 0001:000b382e       __Getcoll                  400b482e f   libcpmt:xstrcoll.obj
 0001:000b3857       __Strcoll                  400b4857 f   libcpmt:xstrcoll.obj
 0001:000b3909       __Getdateorder             400b4909 f   libcpmt:xdateord.obj
 0001:000b3999       __Mbrtowc                  400b4999 f   libcpmt:xmbtowc.obj
 0001:000b3b83       __Wcscoll                  400b4b83 f   libcpmt:xwcscoll.obj
 0001:000b3c28       _wmemcmp                   400b4c28 f i libcpmt:xwcscoll.obj
 0001:000b3d6b       ??$?RE@__crt_internal_free_policy@@QBEXQBE@Z 400b4d6b f i libcpmt:xwcsxfrm.obj
 0001:000b3d7f       ??0?$__crt_unique_heap_ptr@EU__crt_internal_free_policy@@@@QAE@QAE@Z 400b4d7f f i libcpmt:xwcsxfrm.obj
 0001:000b3d90       ??1?$__crt_unique_heap_ptr@EU__crt_internal_free_policy@@@@QAE@XZ 400b4d90 f i libcpmt:xwcsxfrm.obj
 0001:000b3da7       ??B?$__crt_unique_heap_ptr@EU__crt_internal_free_policy@@@@QBE_NXZ 400b4da7 f i libcpmt:xwcsxfrm.obj
 0001:000b3dae       ?get@?$__crt_unique_heap_ptr@EU__crt_internal_free_policy@@@@QBEPAEXZ 400b4dae f i libcpmt:xwcsxfrm.obj
 0001:000b3db1       ?is_valid@?$__crt_unique_heap_ptr@EU__crt_internal_free_policy@@@@QBE_NXZ 400b4db1 f i libcpmt:xwcsxfrm.obj
 0001:000b3db8       ?release@?$__crt_unique_heap_ptr@EU__crt_internal_free_policy@@@@QAEXXZ 400b4db8 f i libcpmt:xwcsxfrm.obj
 0001:000b3dcf       __Wcsxfrm                  400b4dcf f   libcpmt:xwcsxfrm.obj
 0001:000b3ec5       __Getwctype                400b4ec5 f   libcpmt:xgetwctype.obj
 0001:000b3eed       __Getwctypes               400b4eed f   libcpmt:xgetwctype.obj
 0001:000b3f13       __Towlower                 400b4f13 f   libcpmt:xtowlower.obj
 0001:000b3f8b       __Towupper                 400b4f8b f   libcpmt:xtowupper.obj
 0001:000b4008       __Strxfrm                  400b5008 f   libcpmt:xstrxfrm.obj
 0001:000b40dc       ___crtCompareStringA       400b50dc f   libcpmt:StlCompareStringA.obj
 0001:000b43ee       ___crtCompareStringW       400b53ee f   libcpmt:StlCompareStringW.obj
 0001:000b446c       ___crtLCMapStringW         400b546c f   libcpmt:StlLCMapStringW.obj
 0001:000b44c0       __alloca_probe             400b54c0 f   LIBCMT:chkstk.obj
 0001:000b44c0       __chkstk                   400b54c0 f   LIBCMT:chkstk.obj
 0001:000b4500       __ftol2_sse_excpt          400b5500 f   LIBCMT:ftol2.obj
 0001:000b4510       __ftol2_sse                400b5510 f   LIBCMT:ftol2.obj
 0001:000b4520       __ftoi2                    400b5520 f   LIBCMT:ftol2.obj
 0001:000b45c0       __ftoui2                   400b55c0 f   LIBCMT:ftol2.obj
 0001:000b4690       __ftol2                    400b5690 f   LIBCMT:ftol2.obj
 0001:000b4770       __ftoul2                   400b5770 f   LIBCMT:ftol2.obj
 0001:000b4860       __ftoul2_legacy            400b5860 f   LIBCMT:ftol2.obj
 0001:000b487b       ??1type_info@@UAE@XZ       400b587b f   LIBCMT:std_type_info_static.obj
 0001:000b4882       ??_Etype_info@@UAEPAXI@Z   400b5882 f i LIBCMT:std_type_info_static.obj
 0001:000b4882       ??_Gtype_info@@UAEPAXI@Z   400b5882 f i LIBCMT:std_type_info_static.obj
 0001:000b48ad       ??2@YAPAXI@Z               400b58ad f   LIBCMT:new_scalar.obj
 0001:000b48e9       ??3@YAXPAXI@Z              400b58e9 f   LIBCMT:delete_scalar_size.obj
 0001:000b48fa       ?configure_argv@__scrt_narrow_argv_policy@@SAHXZ 400b58fa f i LIBCMT:utility.obj
 0001:000b495c       ?initialize_environment@__scrt_narrow_environment_policy@@SAHXZ 400b595c f i LIBCMT:utility.obj
 0001:000b49a0       _NtCurrentTeb              400b59a0 f i LIBCMT:utility.obj
 0001:000b49a7       ___scrt_acquire_startup_lock 400b59a7 f   LIBCMT:utility.obj
 0001:000b49e5       ___scrt_dllmain_after_initialize_c 400b59e5 f   LIBCMT:utility.obj
 0001:000b4a1a       ___scrt_dllmain_before_initialize_c 400b5a1a f   LIBCMT:utility.obj
 0001:000b4a2b       ___scrt_dllmain_crt_thread_attach 400b5a2b f   LIBCMT:utility.obj
 0001:000b4a51       ___scrt_dllmain_crt_thread_detach 400b5a51 f   LIBCMT:utility.obj
 0001:000b4a61       ___scrt_dllmain_exception_filter 400b5a61 f   LIBCMT:utility.obj
 0001:000b4aa2       ___scrt_dllmain_uninitialize_c 400b5aa2 f   LIBCMT:utility.obj
 0001:000b4acd       ___scrt_dllmain_uninitialize_critical 400b5acd f   LIBCMT:utility.obj
 0001:000b4add       ___scrt_initialize_crt     400b5add f   LIBCMT:utility.obj
 0001:000b4b24       ___scrt_initialize_onexit_tables 400b5b24 f   LIBCMT:utility.obj
 0001:000b4bcc       ___scrt_is_nonwritable_in_current_image 400b5bcc f   LIBCMT:utility.obj
 0001:000b4c88       ___scrt_release_startup_lock 400b5c88 f   LIBCMT:utility.obj
 0001:000b4cac       ___scrt_uninitialize_crt   400b5cac f   LIBCMT:utility.obj
 0001:000b4cde       __onexit                   400b5cde f   LIBCMT:utility.obj
 0001:000b4d17       _at_quick_exit             400b5d17 f   LIBCMT:utility.obj
 0001:000b4d42       _atexit                    400b5d42 f   LIBCMT:utility.obj
 0001:000b4d5c       ??_V@YAXPAX@Z              400b5d5c f   LIBCMT:delete_array.obj
 0001:000b517e       __CRT_INIT@12              400b617e f   LIBCMT:dll_dllmain.obj
 0001:000b5189       __DllMainCRTStartup@12     400b6189 f   LIBCMT:dll_dllmain.obj
 0001:000b51b4       @__security_check_cookie@4 400b61b4 f   LIBCMT:secchk.obj
 0001:000b51c5       __EH_epilog3               400b61c5 f   LIBCMT:ehprolg3.obj
 0001:000b51de       __EH_epilog3_GS            400b61de f   LIBCMT:ehprolg3.obj
 0001:000b51f0       __EH_epilog3_catch_GS      400b61f0 f   LIBCMT:ehprolg3.obj
 0001:000b5202       __EH_prolog3               400b6202 f   LIBCMT:ehprolg3.obj
 0001:000b5241       __EH_prolog3_GS            400b6241 f   LIBCMT:ehprolg3.obj
 0001:000b5284       __EH_prolog3_catch         400b6284 f   LIBCMT:ehprolg3.obj
 0001:000b52c7       __EH_prolog3_catch_GS      400b62c7 f   LIBCMT:ehprolg3.obj
 0001:000b530e       @_guard_check_icall_nop@4  400b630e f i LIBCMT:guard_support.obj
 0001:000b5311       _ReadNoFence               400b6311 f i LIBCMT:guard_support.obj
 0001:000b531d       _ReadPointerNoFence        400b631d f i LIBCMT:guard_support.obj
 0001:000b5329       __InlineInterlockedExchangePointer 400b6329 f i LIBCMT:guard_support.obj
 0001:000b5339       ___castguard_check_failure_debugbreak 400b6339 f i LIBCMT:guard_support.obj
 0001:000b535a       ___castguard_check_failure_fastfail 400b635a f i LIBCMT:guard_support.obj
 0001:000b5380       ___castguard_check_failure_nop 400b6380 f i LIBCMT:guard_support.obj
 0001:000b5383       ___castguard_check_failure_os_handled 400b6383 f i LIBCMT:guard_support.obj
 0001:000b53c7       ___castguard_check_failure_user_handled 400b63c7 f i LIBCMT:guard_support.obj
 0001:000b544f       ___castguard_set_user_handler 400b644f f i LIBCMT:guard_support.obj
 0001:000b5461       ___castguard_slow_path_check_debugbreak 400b6461 f i LIBCMT:guard_support.obj
 0001:000b5499       ___castguard_slow_path_check_fastfail 400b6499 f i LIBCMT:guard_support.obj
 0001:000b54d6       ___castguard_slow_path_check_nop 400b64d6 f i LIBCMT:guard_support.obj
 0001:000b54d9       ___castguard_slow_path_check_os_handled 400b64d9 f i LIBCMT:guard_support.obj
 0001:000b5524       ___castguard_slow_path_check_user_handled 400b6524 f i LIBCMT:guard_support.obj
 0001:000b559c       __guard_icall_checks_enforced 400b659c f i LIBCMT:guard_support.obj
 0001:000b55c0       __alloca_probe_16          400b65c0 f   LIBCMT:alloca16.obj
 0001:000b55d6       __alloca_probe_8           400b65d6     LIBCMT:alloca16.obj
 0001:000b55f7       ___isa_available_init      400b65f7 f   LIBCMT:cpu_disp.obj
 0001:000b59e0       __allmul                   400b69e0 f   LIBCMT:llmul.obj
 0001:000b5a30       __aulldiv                  400b6a30 f   LIBCMT:ulldiv.obj
 0001:000b5ab2       ?__scrt_throw_std_bad_alloc@@YAXXZ 400b6ab2 f   LIBCMT:throw_bad_alloc.obj
 0001:000b5ad6       ?__scrt_throw_std_bad_array_new_length@@YAXXZ 400b6ad6 f   LIBCMT:throw_bad_alloc.obj
 0001:000b5afa       ??3@YAXPAX@Z               400b6afa f   LIBCMT:delete_scalar.obj
 0001:000b5aff       __get_startup_argv_mode    400b6aff f   LIBCMT:argv_mode.obj
 0001:000b5b03       ___scrt_is_ucrt_dll_in_use 400b6b03 f   LIBCMT:ucrt_detection.obj
 0001:000b5b12       ___scrt_fastfail           400b6b12 f   LIBCMT:utility_desktop.obj
 0001:000b5b1e       ___scrt_get_show_window_mode 400b6b1e f   LIBCMT:utility_desktop.obj
 0001:000b5b5a       ___scrt_initialize_mta     400b6b5a f   LIBCMT:utility_desktop.obj
 0001:000b5b5f       ___scrt_initialize_winrt   400b6b5f f   LIBCMT:utility_desktop.obj
 0001:000b5b62       ___scrt_is_managed_app     400b6b62 f   LIBCMT:utility_desktop.obj
 0001:000b5bb4       ___scrt_set_unhandled_exception_filter 400b6bb4 f   LIBCMT:utility_desktop.obj
 0001:000b5bc3       ___scrt_exe_initialize_mta 400b6bc3 f   LIBCMT:utility_desktop.obj
 0001:000b5bc3       ___scrt_stub_for_initialize_mta 400b6bc3 f   LIBCMT:utility_desktop.obj
 0001:000b5bc6       ___scrt_unhandled_exception_filter@4 400b6bc6 f   LIBCMT:utility_desktop.obj
 0001:000b5c31       __crt_debugger_hook        400b6c31 f   LIBCMT:utility_desktop.obj
 0001:000b5c40       __SEH_prolog4              400b6c40 f   LIBCMT:sehprolg4.obj
 0001:000b5ca0       __SEH_epilog4              400b6ca0 f   LIBCMT:sehprolg4.obj
 0001:000b5d19       ___security_init_cookie    400b6d19 f   LIBCMT:gs_support.obj
 0001:000b5d76       _DllMain@12                400b6d76 f   LIBCMT:dll_dllmain_stub.obj
 0001:000b5d7c       ?__scrt_initialize_type_info@@YAXXZ 400b6d7c f   LIBCMT:tncleanup.obj
 0001:000b5d8b       ?__scrt_uninitialize_type_info@@YAXXZ 400b6d8b f   LIBCMT:tncleanup.obj
 0001:000b5d9a       ___local_stdio_scanf_options 400b6d9a f i LIBCMT:default_local_stdio_options.obj
 0001:000b5da0       ___scrt_initialize_default_local_stdio_options 400b6da0 f   LIBCMT:default_local_stdio_options.obj
 0001:000b5dc4       ___scrt_get_dyn_tls_init_callback 400b6dc4 f   LIBCMT:dyn_tls_init.obj
 0001:000b5dca       __RTC_Initialize           400b6dca f   LIBCMT:initsect.obj
 0001:000b5e01       __RTC_Terminate            400b6e01 f   LIBCMT:initsect.obj
 0001:000b5e38       ___report_gsfailure        400b6e38 f   LIBCMT:gs_report.obj
 0001:000b5e3e       ___report_rangecheckfailure 400b6e3e f   LIBCMT:gs_report.obj
 0001:000b5e44       ___report_securityfailure  400b6e44 f   LIBCMT:gs_report.obj
 0001:000b5e50       ___report_securityfailureEx 400b6e50 f   LIBCMT:gs_report.obj
 0001:000b5e60       _strchr                    400b6e60 f   libvcruntime:strchr.obj
 0001:000b5ece       ___from_strstr_to_strchr   400b6ece     libvcruntime:strchr.obj
 0001:000b5fe0       _strstr                    400b6fe0 f   libvcruntime:strstr.obj
 0001:000b62f0       _memset                    400b72f0 f   libvcruntime:memset.obj
 0001:000b64a0       ??$?RD@__crt_public_free_policy@@QBEXQBD@Z 400b74a0 f i libvcruntime:std_exception.obj
 0001:000b64b4       ??0?$__crt_unique_heap_ptr@DU__crt_public_free_policy@@@@QAE@QAD@Z 400b74b4 f i libvcruntime:std_exception.obj
 0001:000b64c5       ??1?$__crt_unique_heap_ptr@DU__crt_public_free_policy@@@@QAE@XZ 400b74c5 f i libvcruntime:std_exception.obj
 0001:000b64dc       ??B?$__crt_unique_heap_ptr@DU__crt_public_free_policy@@@@QBE_NXZ 400b74dc f i libvcruntime:std_exception.obj
 0001:000b64e3       ?detach@?$__crt_unique_heap_ptr@DU__crt_public_free_policy@@@@QAEPADXZ 400b74e3 f i libvcruntime:std_exception.obj
 0001:000b64ee       ?get@?$__crt_unique_heap_ptr@DU__crt_public_free_policy@@@@QBEPADXZ 400b74ee f i libvcruntime:std_exception.obj
 0001:000b64f1       ?is_valid@?$__crt_unique_heap_ptr@DU__crt_public_free_policy@@@@QBE_NXZ 400b74f1 f i libvcruntime:std_exception.obj
 0001:000b64f8       ?release@?$__crt_unique_heap_ptr@DU__crt_public_free_policy@@@@QAEXXZ 400b74f8 f i libvcruntime:std_exception.obj
 0001:000b650f       ___std_exception_copy      400b750f f   libvcruntime:std_exception.obj
 0001:000b658a       ___std_exception_destroy   400b758a f   libvcruntime:std_exception.obj
 0001:000b65b4       __CxxThrowException@8      400b75b4 f   libvcruntime:throw.obj
 0001:000b663c       ??$?0AAViterator@TryBlockMap@__FrameHandler3@@AAV012@$0A@@?$pair@Viterator@TryBlockMap@__FrameHandler3@@V123@@std@@QAE@AAViterator@TryBlockMap@__FrameHandler3@@0@Z 400b763c f i libvcruntime:trnsctrl.obj
 0001:000b6669       ??$forward@AAViterator@TryBlockMap@__FrameHandler3@@@std@@YAAAViterator@TryBlockMap@__FrameHandler3@@AAV123@@Z 400b7669 f i libvcruntime:trnsctrl.obj
 0001:000b6673       ??0iterator@TryBlockMap@__FrameHandler3@@QAE@AAV12@I@Z 400b7673 f i libvcruntime:trnsctrl.obj
 0001:000b668c       ?GetRangeOfTrysToCheck@__FrameHandler3@@SA?AU?$pair@Viterator@TryBlockMap@__FrameHandler3@@V123@@std@@AAVTryBlockMap@1@HPAXPBU_s_FuncInfo@@H@Z 400b768c f   libvcruntime:trnsctrl.obj
 0001:000b672a       ?_CallCatchBlock2@@YAPAXPAUEHRegistrationNode@@PBU_s_FuncInfo@@PAXHK@Z 400b772a f   libvcruntime:trnsctrl.obj
 0001:000b67a2       ?_CallSETranslator@@YAHPAUEHExceptionRecord@@PAUEHRegistrationNode@@PAX2PBU_s_FuncInfo@@H1@Z 400b77a2 f   libvcruntime:trnsctrl.obj
 0001:000b68e0       ?_JumpToContinuation@@YGXPAXPAUEHRegistrationNode@@@Z 400b78e0 f   libvcruntime:trnsctrl.obj
 0001:000b691c       ?_UnwindNestedFrames@@YGXPAUEHRegistrationNode@@PAUEHExceptionRecord@@@Z 400b791c f   libvcruntime:trnsctrl.obj
 0001:000b6985       __CatchGuardHandler        400b7985 f   libvcruntime:trnsctrl.obj
 0001:000b69c2       __CreateFrameInfo          400b79c2 f   libvcruntime:trnsctrl.obj
 0001:000b69ef       __FindAndUnlinkFrame       400b79ef f   libvcruntime:trnsctrl.obj
 0001:000b6a47       __TranslatorGuardHandler   400b7a47 f   libvcruntime:trnsctrl.obj
 0001:000b6b0d       ___CxxFrameHandler         400b7b0d f   libvcruntime:trnsctrl.obj
 0001:000b6b50       ___CxxFrameHandler2        400b7b50 f   libvcruntime:trnsctrl.obj
 0001:000b6b93       ___CxxFrameHandler3        400b7b93 f   libvcruntime:trnsctrl.obj
 0001:000b6bd6       ___CxxLongjmpUnwind@4      400b7bd6 f   libvcruntime:trnsctrl.obj
 0001:000b6c10       _memcpy                    400b7c10 f   libvcruntime:memcpy.obj
 0001:000b72f0       _memmove                   400b82f0 f   libvcruntime:memmove.obj
 0001:000b79c1       ??$__crt_interlocked_exchange_pointer@$$A6AXXZP6AXXZ@@YAP6AXXZPDS6AXXZQ6AXXZ@Z 400b89c1 f i libvcruntime:purevirt.obj
 0001:000b79d1       ??$__crt_interlocked_read_pointer@$$A6AXXZ@@YAP6AXXZPDS6AXXZ@Z 400b89d1 f i libvcruntime:purevirt.obj
 0001:000b79de       ?__crt_interlocked_read_32@@YAHPDH@Z 400b89de f i libvcruntime:purevirt.obj
 0001:000b79eb       __get_purecall_handler     400b89eb f   libvcruntime:purevirt.obj
 0001:000b79f2       __purecall                 400b89f2 f   libvcruntime:purevirt.obj
 0001:000b7a15       __set_purecall_handler     400b8a15 f   libvcruntime:purevirt.obj
 0001:000b7a27       ___DestructExceptionObject 400b8a27 f   libvcruntime:ehhelpers.obj
 0001:000b7af9       ?_CallMemberFunction0@@YGXQAX0@Z 400b8af9 f i libvcruntime:ehhelpers.obj
 0001:000b7b77       ?raw_name@type_info@@QBEPBDXZ 400b8b77 f i libvcruntime:ehhelpers.obj
 0001:000b7b7b       __IsExceptionObjectToBeDestroyed 400b8b7b f   libvcruntime:ehhelpers.obj
 0001:000b7baa       __SetWinRTOutOfMemoryExceptionCallback 400b8baa f   libvcruntime:ehhelpers.obj
 0001:000b7bba       ___AdjustPointer           400b8bba f   libvcruntime:ehhelpers.obj
 0001:000b7be8       ___FrameUnwindFilter       400b8be8 f   libvcruntime:ehhelpers.obj
 0001:000b7c53       ___GetPlatformExceptionInfo 400b8c53 f   libvcruntime:ehhelpers.obj
 0001:000b7cb9       ___current_exception       400b8cb9 f   libvcruntime:ehhelpers.obj
 0001:000b7cc4       ___current_exception_context 400b8cc4 f   libvcruntime:ehhelpers.obj
 0001:000b7ccf       ___processing_throw        400b8ccf f   libvcruntime:ehhelpers.obj
 0001:000b7cda       ___std_terminate           400b8cda f   libvcruntime:ehhelpers.obj
 0001:000b7cdf       __is_exception_typeof      400b8cdf f   libvcruntime:ehhelpers.obj
 0001:000b7dae       ___uncaught_exception      400b8dae f   libvcruntime:uncaught_exception.obj
 0001:000b7dd0       _memchr                    400b8dd0 f   libvcruntime:memchr.obj
 0001:000b7ff6       _memcmp                    400b8ff6 f   libvcruntime:memcmp.obj
 0001:000bb19c       ___vcrt_initialize         400bc19c f   libvcruntime:initialization.obj
 0001:000bb1c2       ___vcrt_thread_attach      400bc1c2 f   libvcruntime:initialization.obj
 0001:000bb1cf       ___vcrt_thread_detach      400bc1cf f   libvcruntime:initialization.obj
 0001:000bb1d9       ___vcrt_uninitialize       400bc1d9 f   libvcruntime:initialization.obj
 0001:000bb1f5       ___vcrt_uninitialize_critical 400bc1f5 f   libvcruntime:initialization.obj
 0001:000bb240       __except_handler4          400bc240 f   libvcruntime:chandler4.obj
 0001:000bb410       ??$?RD@__crt_internal_free_policy@@QBEXQBD@Z 400bc410 f i libvcruntime:std_type_info.obj
 0001:000bb424       ??$?RX@__crt_internal_free_policy@@QBEXQBX@Z 400bc424 f i libvcruntime:std_type_info.obj
 0001:000bb438       ??$__crt_interlocked_compare_exchange_pointer@$$CBDPAD$$T@@YAPBDPDSBDQAD$$T@Z 400bc438 f i libvcruntime:std_type_info.obj
 0001:000bb44e       ??$__crt_interlocked_read_pointer@$$CBD@@YAPBDPDSBD@Z 400bc44e f i libvcruntime:std_type_info.obj
 0001:000bb45b       ??0?$__crt_unique_heap_ptr@DU__crt_internal_free_policy@@@@QAE@QAD@Z 400bc45b f i libvcruntime:std_type_info.obj
 0001:000bb46c       ??0?$__crt_unique_heap_ptr@XU__crt_internal_free_policy@@@@QAE@QAX@Z 400bc46c f i libvcruntime:std_type_info.obj
 0001:000bb47d       ??1?$__crt_unique_heap_ptr@DU__crt_internal_free_policy@@@@QAE@XZ 400bc47d f i libvcruntime:std_type_info.obj
 0001:000bb494       ??1?$__crt_unique_heap_ptr@XU__crt_internal_free_policy@@@@QAE@XZ 400bc494 f i libvcruntime:std_type_info.obj
 0001:000bb4ab       ??B?$__crt_unique_heap_ptr@DU__crt_internal_free_policy@@@@QBE_NXZ 400bc4ab f i libvcruntime:std_type_info.obj
 0001:000bb4b2       ??B?$__crt_unique_heap_ptr@XU__crt_internal_free_policy@@@@QBE_NXZ 400bc4b2 f i libvcruntime:std_type_info.obj
 0001:000bb4e1       ?detach@?$__crt_unique_heap_ptr@XU__crt_internal_free_policy@@@@QAEPAXXZ 400bc4e1 f i libvcruntime:std_type_info.obj
 0001:000bb4ec       ?get@?$__crt_unique_heap_ptr@DU__crt_internal_free_policy@@@@QBEPADXZ 400bc4ec f i libvcruntime:std_type_info.obj
 0001:000bb4ef       ?get@?$__crt_unique_heap_ptr@XU__crt_internal_free_policy@@@@QBEPAXXZ 400bc4ef f i libvcruntime:std_type_info.obj
 0001:000bb4f2       ?is_valid@?$__crt_unique_heap_ptr@DU__crt_internal_free_policy@@@@QBE_NXZ 400bc4f2 f i libvcruntime:std_type_info.obj
 0001:000bb4f9       ?is_valid@?$__crt_unique_heap_ptr@XU__crt_internal_free_policy@@@@QBE_NXZ 400bc4f9 f i libvcruntime:std_type_info.obj
 0001:000bb500       ?release@?$__crt_unique_heap_ptr@DU__crt_internal_free_policy@@@@QAEXXZ 400bc500 f i libvcruntime:std_type_info.obj
 0001:000bb517       ?release@?$__crt_unique_heap_ptr@XU__crt_internal_free_policy@@@@QAEXXZ 400bc517 f i libvcruntime:std_type_info.obj
 0001:000bb52e       ___std_type_info_compare   400bc52e f   libvcruntime:std_type_info.obj
 0001:000bb579       ___std_type_info_destroy_list 400bc579 f   libvcruntime:std_type_info.obj
 0001:000bb5a4       ___std_type_info_hash      400bc5a4 f   libvcruntime:std_type_info.obj
 0001:000bb5d3       ___std_type_info_name      400bc5d3 f   libvcruntime:std_type_info.obj
 0001:000bb6c8       ??$?RU__vcrt_ptd@@@__crt_internal_free_policy@@QBEXQBU__vcrt_ptd@@@Z 400bc6c8 f i libvcruntime:per_thread_data.obj
 0001:000bb6dc       ??0?$__crt_unique_heap_ptr@U__vcrt_ptd@@U__crt_internal_free_policy@@@@QAE@QAU__vcrt_ptd@@@Z 400bc6dc f i libvcruntime:per_thread_data.obj
 0001:000bb6ff       ??1?$__crt_unique_heap_ptr@U__vcrt_ptd@@U__crt_internal_free_policy@@@@QAE@XZ 400bc6ff f i libvcruntime:per_thread_data.obj
 0001:000bb721       ??B?$__crt_unique_heap_ptr@U__vcrt_ptd@@U__crt_internal_free_policy@@@@QBE_NXZ 400bc721 f i libvcruntime:per_thread_data.obj
 0001:000bb728       ?detach@?$__crt_unique_heap_ptr@U__vcrt_ptd@@U__crt_internal_free_policy@@@@QAEPAU__vcrt_ptd@@XZ 400bc728 f i libvcruntime:per_thread_data.obj
 0001:000bb733       ?get@?$__crt_unique_heap_ptr@U__vcrt_ptd@@U__crt_internal_free_policy@@@@QBEPAU__vcrt_ptd@@XZ 400bc733 f i libvcruntime:per_thread_data.obj
 0001:000bb736       ?is_valid@?$__crt_unique_heap_ptr@U__vcrt_ptd@@U__crt_internal_free_policy@@@@QBE_NXZ 400bc736 f i libvcruntime:per_thread_data.obj
 0001:000bb73d       ?release@?$__crt_unique_heap_ptr@U__vcrt_ptd@@U__crt_internal_free_policy@@@@QAEXXZ 400bc73d f i libvcruntime:per_thread_data.obj
 0001:000bb773       ___vcrt_freefls@4          400bc773 f   libvcruntime:per_thread_data.obj
 0001:000bb796       ___vcrt_freeptd_for_this_thread 400bc796 f   libvcruntime:per_thread_data.obj
 0001:000bb7ca       ___vcrt_getptd             400bc7ca f   libvcruntime:per_thread_data.obj
 0001:000bb7db       ___vcrt_getptd_noexit      400bc7db f   libvcruntime:per_thread_data.obj
 0001:000bb88d       ___vcrt_getptd_noinit      400bc88d f   libvcruntime:per_thread_data.obj
 0001:000bb8d3       ___vcrt_initialize_ptd     400bc8d3 f   libvcruntime:per_thread_data.obj
 0001:000bb911       ___vcrt_uninitialize_ptd   400bc911 f   libvcruntime:per_thread_data.obj
 0001:000bc210       ??$TypeMatchHelper@V__FrameHandler3@@@@YAHPBU_s_HandlerType@@PBU_s_CatchableType@@PBU_s_ThrowInfo@@@Z 400bd210 f i libvcruntime:frame.obj
 0001:000bc2c1       ??$__InternalCxxFrameHandler@V__FrameHandler3@@@@YA?AW4_EXCEPTION_DISPOSITION@@PAUEHExceptionRecord@@PAUEHRegistrationNode@@PAU_CONTEXT@@PAXPBU_s_FuncInfo@@H1E@Z 400bd2c1 f i libvcruntime:frame.obj
 0001:000bc403       ??$__InternalCxxFrameHandlerWrapper@V__FrameHandler3@@@@YA?AW4_EXCEPTION_DISPOSITION@@PAUEHExceptionRecord@@PAUEHRegistrationNode@@PAU_CONTEXT@@PAXPBU_s_FuncInfo@@H1E@Z 400bd403 f i libvcruntime:frame.obj
 0001:000bc40e       ??0HandlerMap@__FrameHandler3@@QAE@PBU_s_TryBlockMapEntry@@II@Z 400bd40e f i libvcruntime:frame.obj
 0001:000bc42a       ??0TryBlockMap@__FrameHandler3@@QAE@PBU_s_FuncInfo@@I@Z 400bd42a f i libvcruntime:frame.obj
 0001:000bc443       ??0bad_exception@std@@QAE@ABV01@@Z 400bd443 f i libvcruntime:frame.obj
 0001:000bc464       ??0bad_exception@std@@QAE@XZ 400bd464 f i libvcruntime:frame.obj
 0001:000bc489       ??0iterator@HandlerMap@__FrameHandler3@@QAE@AAV12@I@Z 400bd489 f i libvcruntime:frame.obj
 0001:000bc4a2       ??1bad_exception@std@@UAE@XZ 400bd4a2 f i libvcruntime:frame.obj
 0001:000bc4b7       ??8iterator@HandlerMap@__FrameHandler3@@QBE_NABV012@@Z 400bd4b7 f i libvcruntime:frame.obj
 0001:000bc4ce       ??8type_info@@QBE_NABV0@@Z 400bd4ce f i libvcruntime:frame.obj
 0001:000bc4f4       ??9iterator@HandlerMap@__FrameHandler3@@QBE_NABV012@@Z 400bd4f4 f i libvcruntime:frame.obj
 0001:000bc50b       ??Diterator@HandlerMap@__FrameHandler3@@QAE?BU_s_HandlerType@@XZ 400bd50b f i libvcruntime:frame.obj
 0001:000bc531       ??Diterator@TryBlockMap@__FrameHandler3@@QAE?BU_s_TryBlockMapEntry@@XZ 400bd531 f i libvcruntime:frame.obj
 0001:000bc55b       ??Eiterator@HandlerMap@__FrameHandler3@@QAEAAV012@XZ 400bd55b f i libvcruntime:frame.obj
 0001:000bc561       ??Eiterator@TryBlockMap@__FrameHandler3@@QAEAAV012@XZ 400bd561 f i libvcruntime:frame.obj
 0001:000bc567       ??Miterator@TryBlockMap@__FrameHandler3@@QBE_NABV012@@Z 400bd567 f i libvcruntime:frame.obj
 0001:000bc57e       ??_Ebad_exception@std@@UAEPAXI@Z 400bd57e f i libvcruntime:frame.obj
 0001:000bc57e       ??_Gbad_exception@std@@UAEPAXI@Z 400bd57e f i libvcruntime:frame.obj
 0001:000bc5b6       ?BuildCatchObject@__FrameHandler3@@SAXPAUEHExceptionRecord@@PAXPBU_s_HandlerType@@PBU_s_CatchableType@@@Z 400bd5b6 f   libvcruntime:frame.obj
 0001:000bc5bb       ?BuildCatchObjectHelper@__FrameHandler3@@SAHPAUEHExceptionRecord@@PAXPBU_s_HandlerType@@PBU_s_CatchableType@@@Z 400bd5bb f   libvcruntime:frame.obj
 0001:000bc8c5       ?FrameUnwindToEmptyState@__FrameHandler3@@SAXPAUEHRegistrationNode@@PAXPBU_s_FuncInfo@@@Z 400bd8c5 f   libvcruntime:frame.obj
 0001:000bc8e3       ?FrameUnwindToState@__FrameHandler3@@SAXPAUEHRegistrationNode@@PAXPBU_s_FuncInfo@@H@Z 400bd8e3 f   libvcruntime:frame.obj
 0001:000bca14       ?GetMaxState@__FrameHandler3@@SAHPAXPBU_s_FuncInfo@@@Z 400bda14 f i libvcruntime:frame.obj
 0001:000bcb13       ?TypeMatch@__FrameHandler3@@SAHPBU_s_HandlerType@@PBU_s_CatchableType@@PBU_s_ThrowInfo@@@Z 400bdb13 f   libvcruntime:frame.obj
 0001:000bcb1e       ?_CallMemberFunction1@@YGXQAX00@Z 400bdb1e f i libvcruntime:frame.obj
 0001:000bcb32       ?_CallMemberFunction2@@YGXQAX00H@Z 400bdb32 f i libvcruntime:frame.obj
 0001:000bcb49       ?begin@HandlerMap@__FrameHandler3@@QAE?AViterator@12@XZ 400bdb49 f i libvcruntime:frame.obj
 0001:000bcb60       ?end@HandlerMap@__FrameHandler3@@QAE?AViterator@12@XZ 400bdb60 f i libvcruntime:frame.obj
 0001:000bcb75       ?getESTypes@__FrameHandler3@@SAPBU_s_ESTypeList@@PBU_s_FuncInfo@@@Z 400bdb75 f i libvcruntime:frame.obj
 0001:000bcb82       ?getLastEntry@HandlerMap@__FrameHandler3@@QAEPBU_s_HandlerType@@XZ 400bdb82 f i libvcruntime:frame.obj
 0001:000bcb93       ?getMagicNum@__FrameHandler3@@SAIPBU_s_FuncInfo@@@Z 400bdb93 f i libvcruntime:frame.obj
 0001:000bcba5       ?getNumTryBlocks@TryBlockMap@__FrameHandler3@@QAEIXZ 400bdba5 f i libvcruntime:frame.obj
 0001:000bcbab       ?isEHs@__FrameHandler3@@SA_NPBU_s_FuncInfo@@@Z 400bdbab f i libvcruntime:frame.obj
 0001:000bcbbb       ?isNoExcept@__FrameHandler3@@SA_NPBU_s_FuncInfo@@@Z 400bdbbb f i libvcruntime:frame.obj
 0001:000bcbcf       ___BuildCatchObject        400bdbcf f   libvcruntime:frame.obj
 0001:000bcbd4       ___BuildCatchObjectHelper  400bdbd4 f   libvcruntime:frame.obj
 0001:000bcbdf       ___TypeMatch               400bdbdf f   libvcruntime:frame.obj
 0001:000bcbf0       __CallSettingFrame@12      400bdbf0 f   libvcruntime:lowhelpr.obj
 0001:000bcc17       __NLG_Return               400bdc17     libvcruntime:lowhelpr.obj
 0001:000bcc5c       ___except_validate_context_record 400bdc5c f   libvcruntime:jbcxrval.obj
 0001:000bcc98       ___except_validate_jump_buffer 400bdc98 f   libvcruntime:jbcxrval.obj
 0001:000bccd0       ___except_validate_jump_buffer_common 400bdcd0 f i libvcruntime:jbcxrval.obj
 0001:000bcd17       ___vcrt_initialize_locks   400bdd17 f   libvcruntime:locks.obj
 0001:000bcd5a       ___vcrt_lock               400bdd5a f   libvcruntime:locks.obj
 0001:000bcd74       ___vcrt_uninitialize_locks 400bdd74 f   libvcruntime:locks.obj
 0001:000bcda8       ___vcrt_unlock             400bdda8 f   libvcruntime:locks.obj
 0001:000bcdd0       __local_unwind4            400bddd0 f   libvcruntime:exsup4.obj
 0001:000bcf00       __seh_longjmp_unwind4@4    400bdf00 f   libvcruntime:exsup4.obj
 0001:000bcf40       @_EH4_CallFilterFunc@8     400bdf40 f   libvcruntime:exsup4.obj
 0001:000bcf60       @_EH4_TransferToHandler@8  400bdf60 f   libvcruntime:exsup4.obj
 0001:000bcf80       @_EH4_GlobalUnwind2@8      400bdf80 f   libvcruntime:exsup4.obj
 0001:000bcfa0       @_EH4_LocalUnwind@16       400bdfa0 f   libvcruntime:exsup4.obj
 0001:000bcfbc       ??$?0$00@DName@@QAE@PAVUnDecorator@@PBDU?$StringLifeSelector@$00@@@Z 400bdfbc f i libvcruntime:undname.obj
 0001:000bd005       ??$?0$00@pcharNode@@QAE@PBDHU?$StringLifeSelector@$00@@AAV_HeapManager@@@Z 400be005 f i libvcruntime:undname.obj
 0001:000bd026       ??$?0$01@DName@@QAE@PAVUnDecorator@@PBDU?$StringLifeSelector@$01@@@Z 400be026 f i libvcruntime:undname.obj
 0001:000bd06f       ??$?0$01@pcharNode@@QAE@PBDHU?$StringLifeSelector@$01@@AAV_HeapManager@@@Z 400be06f f i libvcruntime:undname.obj
 0001:000bd0ce       ??$?0$0A@@DName@@QAE@PAVUnDecorator@@PBDU?$StringLifeSelector@$0A@@@@Z 400be0ce f i libvcruntime:undname.obj
 0001:000bd117       ??$?0$0A@@pcharNode@@QAE@PBDHU?$StringLifeSelector@$0A@@@AAV_HeapManager@@@Z 400be117 f i libvcruntime:undname.obj
 0001:000bd176       ??$?0_K$0A@@?$optional@_K@std@@QAE@$$QA_K@Z 400be176 f i libvcruntime:undname.obj
 0001:000bd196       ??$?0_K@?$_Optional_construct_base@_K@std@@QAE@Uin_place_t@1@$$QA_K@Z 400be196 f i libvcruntime:undname.obj
 0001:000bd1b6       ??$?0_K@?$_Optional_destruct_base@_K$00@std@@QAE@Uin_place_t@1@$$QA_K@Z 400be1b6 f i libvcruntime:undname.obj
 0001:000bd1d6       ??$append@VDNameNode@@@DName@@AAEXPBVDNameNode@@@Z 400be1d6 f i libvcruntime:undname.obj
 0001:000bd230       ??$append@VDNameStatusNode@@@DName@@AAEXPBVDNameStatusNode@@@Z 400be230 f i libvcruntime:undname.obj
 0001:000bd28a       ??$append@VcharNode@@@DName@@AAEXPBVcharNode@@@Z 400be28a f i libvcruntime:undname.obj
 0001:000bd2e4       ??$append@VpDNameNode@@@DName@@AAEXPBVpDNameNode@@@Z 400be2e4 f i libvcruntime:undname.obj
 0001:000bd33e       ??$append@VpcharNode@@@DName@@AAEXPBVpcharNode@@@Z 400be33e f i libvcruntime:undname.obj
 0001:000bd398       ??$doPchar@$00@DName@@AAEXPBDH@Z 400be398 f i libvcruntime:undname.obj
 0001:000bd420       ??$doPchar@$01@DName@@AAEXPBDH@Z 400be420 f i libvcruntime:undname.obj
 0001:000bd4b7       ??$doPchar@$0A@@DName@@AAEXPBDH@Z 400be4b7 f i libvcruntime:undname.obj
 0001:000bd54e       ??$forward@_K@std@@YA$$QA_KAA_K@Z 400be54e f i libvcruntime:undname.obj
 0001:000bd676       ??0?$_Optional_construct_base@_K@std@@QAE@XZ 400be676 f i libvcruntime:undname.obj
 0001:000bd67d       ??0?$_Optional_destruct_base@_K$00@std@@QAE@XZ 400be67d f i libvcruntime:undname.obj
 0001:000bd684       ??0?$optional@_K@std@@QAE@XZ 400be684 f i libvcruntime:undname.obj
 0001:000bd68b       ??0Block@_HeapManager@@QAE@XZ 400be68b f i libvcruntime:undname.obj
 0001:000bd696       ??0DName@@QAE@ABV0@@Z      400be696 f i libvcruntime:undname.obj
 0001:000bd6b9       ??0DName@@QAE@PAVUnDecorator@@@Z 400be6b9 f i libvcruntime:undname.obj
 0001:000bd6dc       ??0DName@@QAE@PAVUnDecorator@@AAPBDD@Z 400be6dc f   libvcruntime:undname.obj
 0001:000bd792       ??0DName@@QAE@PAVUnDecorator@@ABUStringLiteral@@@Z 400be792 f   libvcruntime:undname.obj
 0001:000bd7d1       ??0DName@@QAE@PAVUnDecorator@@D@Z 400be7d1 f   libvcruntime:undname.obj
 0001:000bd803       ??0DName@@QAE@PAVUnDecorator@@PAV0@@Z 400be803 f   libvcruntime:undname.obj
 0001:000bd860       ??0DName@@QAE@PAVUnDecorator@@W4DNameStatus@@@Z 400be860 f   libvcruntime:undname.obj
 0001:000bd8bf       ??0DName@@QAE@PAVUnDecorator@@_J@Z 400be8bf f   libvcruntime:undname.obj
 0001:000bd970       ??0DName@@QAE@PAVUnDecorator@@_K@Z 400be970 f   libvcruntime:undname.obj
 0001:000bd9fc       ??0DNameNode@@IAE@XZ       400be9fc f i libvcruntime:undname.obj
 0001:000bda07       ??0Replicator@@QAE@PAVUnDecorator@@@Z 400bea07 f i libvcruntime:undname.obj
 0001:000bda46       ??0UnDecorator@@QAE@PBDP6APADJ@ZKP6APAXI@ZP6AXPAX@Z@Z 400bea46 f i libvcruntime:undname.obj
 0001:000bdaf2       ??0_HeapManager@@QAE@P6APAXI@ZP6AXPAX@Z@Z 400beaf2 f i libvcruntime:undname.obj
 0001:000bdb18       ??0_Nontrivial_dummy_type@std@@QAE@XZ 400beb18 f i libvcruntime:undname.obj
 0001:000bdb1b       ??0charNode@@QAE@D@Z       400beb1b f i libvcruntime:undname.obj
 0001:000bdb35       ??0pDNameNode@@QAE@PAVDName@@@Z 400beb35 f   libvcruntime:undname.obj
 0001:000bdb67       ??0pairNode@@QAE@PBVDNameNode@@0@Z 400beb67 f i libvcruntime:undname.obj
 0001:000bdb96       ??2@YAPAXIAAV_HeapManager@@H@Z 400beb96 f   libvcruntime:undname.obj
 0001:000bdbba       ??4DName@@QAEAAV0@ABUStringLiteral@@@Z 400bebba f   libvcruntime:undname.obj
 0001:000bdbea       ??4DName@@QAEAAV0@ABV0@@Z  400bebea f   libvcruntime:undname.obj
 0001:000bdc05       ??4DName@@QAEAAV0@D@Z      400bec05 f i libvcruntime:undname.obj
 0001:000bdc2f       ??4DName@@QAEAAV0@PAV0@@Z  400bec2f f   libvcruntime:undname.obj
 0001:000bdc8f       ??4DName@@QAEAAV0@W4DNameStatus@@@Z 400bec8f f   libvcruntime:undname.obj
 0001:000bdcd5       ??AReplicator@@QBE?AVDName@@H@Z 400becd5 f   libvcruntime:undname.obj
 0001:000bdd2b       ??B?$optional@_K@std@@QBE_NXZ 400bed2b f i libvcruntime:undname.obj
 0001:000bdd2f       ??D?$_Optional_construct_base@_K@std@@QGAEAA_KXZ 400bed2f f i libvcruntime:undname.obj
 0001:000bdd32       ??H@YA?AVDName@@ABUStringLiteral@@ABV0@@Z 400bed32 f i libvcruntime:undname.obj
 0001:000bdd65       ??H@YA?AVDName@@DABV0@@Z   400bed65 f i libvcruntime:undname.obj
 0001:000bdd98       ??H@YA?AVDName@@W4DNameStatus@@ABV0@@Z 400bed98 f i libvcruntime:undname.obj
 0001:000bddcb       ??HDName@@QBE?AV0@ABUStringLiteral@@@Z 400bedcb f   libvcruntime:undname.obj
 0001:000bddfd       ??HDName@@QBE?AV0@ABV0@@Z  400bedfd f   libvcruntime:undname.obj
 0001:000bde2f       ??HDName@@QBE?AV0@D@Z      400bee2f f   libvcruntime:undname.obj
 0001:000bde61       ??HDName@@QBE?AV0@PAV0@@Z  400bee61 f   libvcruntime:undname.obj
 0001:000bde93       ??HDName@@QBE?AV0@W4DNameStatus@@@Z 400bee93 f   libvcruntime:undname.obj
 0001:000bdec5       ??HStringLiteral@@QBE?AU0@H@Z 400beec5 f i libvcruntime:undname.obj
 0001:000bdf53       ??YDName@@QAEAAV0@ABUStringLiteral@@@Z 400bef53 f   libvcruntime:undname.obj
 0001:000bdfc2       ??YDName@@QAEAAV0@ABV0@@Z  400befc2 f   libvcruntime:undname.obj
 0001:000be02e       ??YDName@@QAEAAV0@D@Z      400bf02e f   libvcruntime:undname.obj
 0001:000be090       ??YDName@@QAEAAV0@PAV0@@Z  400bf090 f   libvcruntime:undname.obj
 0001:000be10e       ??YDName@@QAEAAV0@W4DNameStatus@@@Z 400bf10e f   libvcruntime:undname.obj
 0001:000be15e       ??YReplicator@@QAEAAV0@ABVDName@@@Z 400bf15e f   libvcruntime:undname.obj
 0001:000be1b6       ??_5DName@@QAEAAV0@ABV0@@Z 400bf1b6 f   libvcruntime:undname.obj
 0001:000be1e0       ??__K_l@@YA?AUStringLiteral@@PBDI@Z 400bf1e0 f i libvcruntime:undname.obj
 0001:000be1ed       ?Destructor@UnDecorator@@QAEXXZ 400bf1ed f i libvcruntime:undname.obj
 0001:000be1f7       ?Destructor@_HeapManager@@QAEXXZ 400bf1f7 f i libvcruntime:undname.obj
 0001:000be24b       ?UScore@UnDecorator@@QAE?AUStringLiteral@@W4Tokens@@@Z 400bf24b f   libvcruntime:undname.obj
 0001:000be29b       ?composeDeclaration@UnDecorator@@AAE?AVDName@@ABV2@@Z 400bf29b f i libvcruntime:undname.obj
 0001:000bf1ee       ?doAccessSpecifiers@UnDecorator@@QAEHXZ 400c01ee f i libvcruntime:undname.obj
 0001:000bf200       ?doAllocationLanguage@UnDecorator@@QAEHXZ 400c0200 f i libvcruntime:undname.obj
 0001:000bf212       ?doAllocationModel@UnDecorator@@QAEHXZ 400c0212 f i libvcruntime:undname.obj
 0001:000bf224       ?doEcsu@UnDecorator@@QAEHXZ 400c0224 f i libvcruntime:undname.obj
 0001:000bf236       ?doEllipsis@UnDecorator@@QAEHXZ 400c0236 f i libvcruntime:undname.obj
 0001:000bf248       ?doFunctionReturns@UnDecorator@@QAEHXZ 400c0248 f i libvcruntime:undname.obj
 0001:000bf25a       ?doMSKeywords@UnDecorator@@QAEHXZ 400c025a f i libvcruntime:undname.obj
 0001:000bf26b       ?doMemberTypes@UnDecorator@@QAEHXZ 400c026b f i libvcruntime:undname.obj
 0001:000bf27d       ?doNameOnly@UnDecorator@@QAEHXZ 400c027d f i libvcruntime:undname.obj
 0001:000bf28c       ?doNoIdentCharCheck@UnDecorator@@QAEHXZ 400c028c f i libvcruntime:undname.obj
 0001:000bf29b       ?doPchar@DName@@AAEXD@Z    400c029b f   libvcruntime:undname.obj
 0001:000bf2e6       ?doPtr64@UnDecorator@@QAEHXZ 400c02e6 f i libvcruntime:undname.obj
 0001:000bf2f8       ?doRestrictionSpec@UnDecorator@@QAEHXZ 400c02f8 f i libvcruntime:undname.obj
 0001:000bf30a       ?doThisTypes@UnDecorator@@QAEHXZ 400c030a f i libvcruntime:undname.obj
 0001:000bf320       ?doThrowTypes@UnDecorator@@QAEHXZ 400c0320 f i libvcruntime:undname.obj
 0001:000bf332       ?doTypeOnly@UnDecorator@@QAEHXZ 400c0332 f i libvcruntime:undname.obj
 0001:000bf341       ?doUnderScore@UnDecorator@@QAEHXZ 400c0341 f i libvcruntime:undname.obj
 0001:000bf350       ?getAddressOf@UnDecorator@@AAE?AVDName@@XZ 400c0350 f   libvcruntime:undname.obj
 0001:000bf3de       ?getArgumentList@UnDecorator@@AAE?AVDName@@XZ 400c03de f   libvcruntime:undname.obj
 0001:000bf584       ?getArgumentTypes@UnDecorator@@AAE?AVDName@@XZ 400c0584 f   libvcruntime:undname.obj
 0001:000bf6f2       ?getArrayAccess@UnDecorator@@AAE?AVDName@@XZ 400c06f2 f   libvcruntime:undname.obj
 0001:000bf797       ?getArrayObject@UnDecorator@@AAE?AVDName@@XZ 400c0797 f   libvcruntime:undname.obj
 0001:000bf876       ?getArrayType@UnDecorator@@AAE?AVDName@@ABV2@@Z 400c0876 f i libvcruntime:undname.obj
 0001:000bfab3       ?getBasedType@UnDecorator@@AAE?AVDName@@XZ 400c0ab3 f   libvcruntime:undname.obj
 0001:000bfb9b       ?getBasicDataType@UnDecorator@@AAE?AVDName@@ABV2@@Z 400c0b9b f   libvcruntime:undname.obj
 0001:000c02c6       ?getCHPEName@UnDecorator@@QAEPADPADH@Z 400c12c6 f i libvcruntime:undname.obj
 0001:000c03e4       ?getCallIndex@UnDecorator@@AAE?AVDName@@XZ 400c13e4 f i libvcruntime:undname.obj
 0001:000c03fd       ?getCallingConvention@UnDecorator@@AAE?AVDName@@XZ 400c13fd f   libvcruntime:undname.obj
 0001:000c0512       ?getDataIndirectType@UnDecorator@@AAE?AVDName@@ABV2@W4IndirectionKind@@0H@Z 400c1512 f   libvcruntime:undname.obj
 0001:000c0d70       ?getDataIndirectType@UnDecorator@@AAE?AVDName@@XZ 400c1d70 f i libvcruntime:undname.obj
 0001:000c0daf       ?getDataType@UnDecorator@@AAE?AVDName@@PAV2@@Z 400c1daf f   libvcruntime:undname.obj
 0001:000c0ec4       ?getDecoratedName@UnDecorator@@AAE?AVDName@@XZ 400c1ec4 f   libvcruntime:undname.obj
 0001:000c1204       ?getDimension@UnDecorator@@AAE?AVDName@@_N@Z 400c2204 f   libvcruntime:undname.obj
 0001:000c133f       ?getDispatchTarget@UnDecorator@@AAE?AVDName@@XZ 400c233f f   libvcruntime:undname.obj
 0001:000c13b7       ?getDisplacement@UnDecorator@@AAE?AVDName@@XZ 400c23b7 f i libvcruntime:undname.obj
 0001:000c13d0       ?getECSUDataType@UnDecorator@@AAE?AVDName@@XZ 400c23d0 f   libvcruntime:undname.obj
 0001:000c15ef       ?getECSUName@UnDecorator@@AAE?AVDName@@XZ 400c25ef f i libvcruntime:undname.obj
 0001:000c1605       ?getEnumEncoding@UnDecorator@@AAE?AVDName@@XZ 400c2605 f   libvcruntime:undname.obj
 0001:000c16a2       ?getEnumType@UnDecorator@@AAE?AVDName@@XZ 400c26a2 f i libvcruntime:undname.obj
 0001:000c181e       ?getExtendedDataIndirectType@UnDecorator@@AAE?AVDName@@AAW4IndirectionKind@@AA_NH@Z 400c281e f   libvcruntime:undname.obj
 0001:000c1aa0       ?getExternalDataType@UnDecorator@@AAE?AVDName@@ABV2@@Z 400c2aa0 f i libvcruntime:undname.obj
 0001:000c1b2f       ?getFloatingPoint@UnDecorator@@AAE?AVDName@@H@Z 400c2b2f f   libvcruntime:undname.obj
 0001:000c1c09       ?getFunctionIndirectType@UnDecorator@@AAE?AVDName@@ABV2@@Z 400c2c09 f   libvcruntime:undname.obj
 0001:000c20d5       ?getGuardNumber@UnDecorator@@AAE?AVDName@@XZ 400c30d5 f i libvcruntime:undname.obj
 0001:000c20ee       ?getHeap@UnDecorator@@QAEAAV_HeapManager@@XZ 400c30ee f i libvcruntime:undname.obj
 0001:000c20f2       ?getLastChar@DName@@QBEDXZ 400c30f2 f i libvcruntime:undname.obj
 0001:000c211a       ?getLastChar@DNameStatusNode@@UBEDXZ 400c311a f i libvcruntime:undname.obj
 0001:000c2129       ?getLastChar@charNode@@UBEDXZ 400c3129 f i libvcruntime:undname.obj
 0001:000c212d       ?getLastChar@pDNameNode@@UBEDXZ 400c312d f i libvcruntime:undname.obj
 0001:000c213e       ?getLastChar@pairNode@@UBEDXZ 400c313e f i libvcruntime:undname.obj
 0001:000c2180       ?getLastChar@pcharNode@@UBEDXZ 400c3180 f i libvcruntime:undname.obj
 0001:000c2196       ?getLexicalFrame@UnDecorator@@AAE?AVDName@@XZ 400c3196 f i libvcruntime:undname.obj
 0001:000c21d5       ?getMemberAccess@UnDecorator@@AAE?AVDName@@XZ 400c31d5 f   libvcruntime:undname.obj
 0001:000c2272       ?getMemoryWithBuffer@_HeapManager@@QAEPAXI@Z 400c3272 f   libvcruntime:undname.obj
 0001:000c22f6       ?getMemoryWithoutBuffer@_HeapManager@@QAEPAXI@Z 400c32f6 f   libvcruntime:undname.obj
 0001:000c231e       ?getModuleOwner@UnDecorator@@AAE?AVDName@@ABV2@@Z 400c331e f   libvcruntime:undname.obj
 0001:000c241f       ?getNoexcept@UnDecorator@@AAE?AVDName@@XZ 400c341f f   libvcruntime:undname.obj
 0001:000c248a       ?getNumberOfDimensions@UnDecorator@@AAEHXZ 400c348a f   libvcruntime:undname.obj
 0001:000c2507       ?getOperatorName@UnDecorator@@AAE?AVDName@@_NPA_N@Z 400c3507 f i libvcruntime:undname.obj
 0001:000c2f4a       ?getPointerToMember@UnDecorator@@AAE?AVDName@@XZ 400c3f4a f   libvcruntime:undname.obj
 0001:000c3038       ?getPointerType@UnDecorator@@AAE?AVDName@@ABV2@0@Z 400c4038 f i libvcruntime:undname.obj
 0001:000c3058       ?getPointerTypeArray@UnDecorator@@AAE?AVDName@@ABV2@0@Z 400c4058 f i libvcruntime:undname.obj
 0001:000c3078       ?getPrimaryDataType@UnDecorator@@AAE?AVDName@@ABV2@@Z 400c4078 f   libvcruntime:undname.obj
 0001:000c3686       ?getPtrRefDataType@UnDecorator@@AAE?AVDName@@ABV2@H@Z 400c4686 f   libvcruntime:undname.obj
 0001:000c386b       ?getPtrRefType@UnDecorator@@AAE?AVDName@@ABV2@0W4IndirectionKind@@@Z 400c486b f   libvcruntime:undname.obj
 0001:000c39cf       ?getReferenceType@UnDecorator@@AAE?AVDName@@ABV2@0W4IndirectionKind@@@Z 400c49cf f i libvcruntime:undname.obj
 0001:000c39f0       ?getRestrictionSpec@UnDecorator@@AAE?AVDName@@XZ 400c49f0 f   libvcruntime:undname.obj
 0001:000c3bc2       ?getReturnType@UnDecorator@@AAE?AVDName@@PAV2@@Z 400c4bc2 f   libvcruntime:undname.obj
 0001:000c3c00       ?getScope@UnDecorator@@AAE?AVDName@@XZ 400c4c00 f   libvcruntime:undname.obj
 0001:000c40b7       ?getScopedName@UnDecorator@@AAE?AVDName@@XZ 400c50b7 f   libvcruntime:undname.obj
 0001:000c41fe       ?getSignedDimension@UnDecorator@@AAE?AVDName@@XZ 400c51fe f   libvcruntime:undname.obj
 0001:000c4269       ?getStorageConvention@UnDecorator@@AAE?AVDName@@XZ 400c5269 f i libvcruntime:undname.obj
 0001:000c427f       ?getString@DName@@QBEPADPAD0@Z 400c527f f i libvcruntime:undname.obj
 0001:000c42b7       ?getString@DName@@QBEPADPADH@Z 400c52b7 f i libvcruntime:undname.obj
 0001:000c4322       ?getString@DNameStatusNode@@UBEPADPAD0@Z 400c5322 f i libvcruntime:undname.obj
 0001:000c436a       ?getString@charNode@@UBEPADPAD0@Z 400c536a f i libvcruntime:undname.obj
 0001:000c4384       ?getString@pDNameNode@@UBEPADPAD0@Z 400c5384 f i libvcruntime:undname.obj
 0001:000c43a0       ?getString@pairNode@@UBEPADPAD0@Z 400c53a0 f i libvcruntime:undname.obj
 0001:000c43f7       ?getString@pcharNode@@UBEPADPAD0@Z 400c53f7 f i libvcruntime:undname.obj
 0001:000c4418       ?getStringEncoding@UnDecorator@@AAE?AVDName@@W4PrefixKind@@H@Z 400c5418 f   libvcruntime:undname.obj
 0001:000c450f       ?getStringHelper@@YAPADPADPBD1H@Z 400c550f f i libvcruntime:undname.obj
 0001:000c454b       ?getStringObject@UnDecorator@@AAE?AVDName@@XZ 400c554b f   libvcruntime:undname.obj
 0001:000c45ec       ?getSymbolName@UnDecorator@@AAE?AVDName@@XZ 400c55ec f i libvcruntime:undname.obj
 0001:000c4644       ?getTemplateArgumentList@UnDecorator@@AAE?AVDName@@XZ 400c5644 f   libvcruntime:undname.obj
 0001:000c4886       ?getTemplateName@UnDecorator@@AAE?AVDName@@_N@Z 400c5886 f   libvcruntime:undname.obj
 0001:000c4b47       ?getTemplateNonTypeArgument@UnDecorator@@AAE?AVDName@@XZ 400c5b47 f   libvcruntime:undname.obj
 0001:000c5056       ?getTemplateTypeArgument@UnDecorator@@AAE?AVDName@@XZ 400c6056 f   libvcruntime:undname.obj
 0001:000c5211       ?getThisType@UnDecorator@@AAE?AVDName@@XZ 400c6211 f i libvcruntime:undname.obj
 0001:000c5252       ?getThrowTypes@UnDecorator@@AAE?AVDName@@XZ 400c6252 f   libvcruntime:undname.obj
 0001:000c5289       ?getTypeEncoding@UnDecorator@@AAEHXZ 400c6289 f i libvcruntime:undname.obj
 0001:000c56f3       ?getUndecoratedName@UnDecorator@@QAEPADPADH@Z 400c66f3 f i libvcruntime:undname.obj
 0001:000c5867       ?getUnionObject@UnDecorator@@AAE?AVDName@@XZ 400c6867 f   libvcruntime:undname.obj
 0001:000c594b       ?getVCallThunkType@UnDecorator@@AAE?AVDName@@XZ 400c694b f i libvcruntime:undname.obj
 0001:000c59b0       ?getValue@UnDecorator@@AAE?AV?$optional@_K@std@@XZ 400c69b0 f   libvcruntime:undname.obj
 0001:000c5a2f       ?getValueObject@UnDecorator@@AAE?AVDName@@XZ 400c6a2f f   libvcruntime:undname.obj
 0001:000c5be2       ?getVbTableType@UnDecorator@@AAE?AVDName@@ABV2@@Z 400c6be2 f i libvcruntime:undname.obj
 0001:000c5bfc       ?getVdispMapType@UnDecorator@@AAE?AVDName@@ABV2@@Z 400c6bfc f i libvcruntime:undname.obj
 0001:000c5c86       ?getVfTableType@UnDecorator@@AAE?AVDName@@ABV2@@Z 400c6c86 f i libvcruntime:undname.obj
 0001:000c5e3f       ?getZName@UnDecorator@@AAE?AVDName@@_N0@Z 400c6e3f f   libvcruntime:undname.obj
 0001:000c611f       ?get_current_character_and_increment_buffer@UnDecorator@@AAEDXZ 400c711f f i libvcruntime:undname.obj
 0001:000c6138       ?haveTemplateParameters@UnDecorator@@QAEHXZ 400c7138 f i libvcruntime:undname.obj
 0001:000c6147       ?increment_buffer@UnDecorator@@AAE_NI@Z 400c7147 f i libvcruntime:undname.obj
 0001:000c617e       ?increment_buffer_no_check@UnDecorator@@AAEXI@Z 400c717e f i libvcruntime:undname.obj
 0001:000c6192       ?increment_buffer_no_check@UnDecorator@@AAEXXZ 400c7192 f i libvcruntime:undname.obj
 0001:000c6199       ?isArray@DName@@QBEHXZ     400c7199 f i libvcruntime:undname.obj
 0001:000c61a5       ?isComArray@DName@@QBEHXZ  400c71a5 f i libvcruntime:undname.obj
 0001:000c61b1       ?isEmpty@DName@@QBEHXZ     400c71b1 f i libvcruntime:undname.obj
 0001:000c61bb       ?isFull@Replicator@@QBEHXZ 400c71bb f i libvcruntime:undname.obj
 0001:000c61c6       ?isNoTE@DName@@QBEHXZ      400c71c6 f i libvcruntime:undname.obj
 0001:000c61d2       ?isPinPtr@DName@@QBEHXZ    400c71d2 f i libvcruntime:undname.obj
 0001:000c61de       ?isPtrRef@DName@@QBEHXZ    400c71de f i libvcruntime:undname.obj
 0001:000c61ea       ?isUDC@DName@@QBEHXZ       400c71ea f i libvcruntime:undname.obj
 0001:000c61ff       ?isUDTThunk@DName@@QBEHXZ  400c71ff f i libvcruntime:undname.obj
 0001:000c6214       ?isVCallThunk@DName@@QBEHXZ 400c7214 f i libvcruntime:undname.obj
 0001:000c6220       ?isValid@DName@@QBEHXZ     400c7220 f i libvcruntime:undname.obj
 0001:000c622c       ?length@DName@@QBEHXZ      400c722c f i libvcruntime:undname.obj
 0001:000c6252       ?length@DNameStatusNode@@UBEHXZ 400c7252 f i libvcruntime:undname.obj
 0001:000c6256       ?length@charNode@@UBEHXZ   400c7256 f i libvcruntime:undname.obj
 0001:000c625a       ?length@pDNameNode@@UBEHXZ 400c725a f i libvcruntime:undname.obj
 0001:000c626b       ?length@pairNode@@UBEHXZ   400c726b f i libvcruntime:undname.obj
 0001:000c62c6       ?length@pcharNode@@UBEHXZ  400c72c6 f i libvcruntime:undname.obj
 0001:000c62ca       ?make@DNameStatusNode@@SAPBV1@W4DNameStatus@@@Z 400c72ca f i libvcruntime:undname.obj
 0001:000c62ed       ?parseDecoratedName@UnDecorator@@AAE?AVDName@@XZ 400c72ed f   libvcruntime:undname.obj
 0001:000c6426       ?raw_length@DNameStatusNode@@UBEHXZ 400c7426 f i libvcruntime:undname.obj
 0001:000c642a       ?raw_length@charNode@@UBEHXZ 400c742a f i libvcruntime:undname.obj
 0001:000c642e       ?raw_length@pDNameNode@@UBEHXZ 400c742e f i libvcruntime:undname.obj
 0001:000c6432       ?raw_length@pairNode@@UBEHXZ 400c7432 f i libvcruntime:undname.obj
 0001:000c6436       ?raw_length@pcharNode@@UBEHXZ 400c7436 f i libvcruntime:undname.obj
 0001:000c643a       ?setIsArray@DName@@QAEXXZ  400c743a f i libvcruntime:undname.obj
 0001:000c6444       ?setIsComArray@DName@@QAEXXZ 400c7444 f i libvcruntime:undname.obj
 0001:000c644e       ?setIsNoTE@DName@@QAEXXZ   400c744e f i libvcruntime:undname.obj
 0001:000c6458       ?setIsPinPtr@DName@@QAEXXZ 400c7458 f i libvcruntime:undname.obj
 0001:000c6462       ?setIsUDC@DName@@QAEXXZ    400c7462 f i libvcruntime:undname.obj
 0001:000c6472       ?setIsVCallThunk@DName@@QAEXXZ 400c7472 f i libvcruntime:undname.obj
 0001:000c647c       ?setPtrRef@DName@@QAEAAV1@XZ 400c747c f i libvcruntime:undname.obj
 0001:000c6488       ?status@DName@@QBE?AW4DNameStatus@@XZ 400c7488 f i libvcruntime:undname.obj
 0001:000c650c       ___unDName                 400c750c f   libvcruntime:undname.obj
 0001:000c6537       ___unDNameEx               400c7537 f   libvcruntime:undname.obj
 0001:000c65ec       _snprintf                  400c75ec f i libvcruntime:undname.obj
 0001:000c660c       _unDNameGenerateCHPE       400c760c f   libvcruntime:undname.obj
 0001:000c666c       _vsnprintf                 400c766c f i libvcruntime:undname.obj
 0001:000c66c5       __get_unexpected           400c76c5 f   libvcruntime:unexpected.obj
 0001:000c66df       _set_unexpected            400c76df f   libvcruntime:unexpected.obj
 0001:000c6705       _unexpected                400c7705 f   libvcruntime:unexpected.obj
 0001:000c6729       ?GetCurrentState@__FrameHandler3@@SAHPAUEHRegistrationNode@@PAXPBU_s_FuncInfo@@@Z 400c7729 f   libvcruntime:ehstate.obj
 0001:000c674d       ?SetState@__FrameHandler3@@SAXPAUEHRegistrationNode@@PAXPBU_s_FuncInfo@@H@Z 400c774d f   libvcruntime:ehstate.obj
 0001:000c6760       __global_unwind2           400c7760 f   libvcruntime:exsup.obj
 0001:000c67f0       __local_unwind2            400c77f0 f   libvcruntime:exsup.obj
 0001:000c68b0       __abnormal_termination     400c78b0 f   libvcruntime:exsup.obj
 0001:000c68f0       __NLG_Notify1              400c78f0 f   libvcruntime:exsup.obj
 0001:000c6900       __NLG_Notify               400c7900 f   libvcruntime:exsup.obj
 0001:000c6917       __NLG_Dispatch             400c7917     libvcruntime:exsup.obj
 0001:000c6917       __NLG_Dispatch2            400c7917     libvcruntime:exsup.obj
 0001:000c6930       __NLG_Call                 400c7930 f   libvcruntime:exsup.obj
 0001:000c6932       __NLG_Return2              400c7932     libvcruntime:exsup.obj
 0001:000c6933       ??1scoped_global_state_reset@__crt_state_management@@QAE@XZ 400c7933 f i libucrt:qsort.obj
 0001:000c6a30       _qsort                     400c7a30 f   libucrt:qsort.obj
 0001:000c6f7b       ??$is_overflow_condition@K@__crt_strtox@@YA_NIK@Z 400c7f7b f i libucrt:atox.obj
 0001:000c6fbc       ??$is_overflow_condition@_K@__crt_strtox@@YA_NI_K@Z 400c7fbc f i libucrt:atox.obj
 0001:000c700d       ??$make_c_string_character_source@D$$T@__crt_strtox@@YA?AV?$c_string_character_source@D@0@QBD$$T@Z 400c800d f i libucrt:atox.obj
 0001:000c702e       ??$make_c_string_character_source@_W$$T@__crt_strtox@@YA?AV?$c_string_character_source@_W@0@QB_W$$T@Z 400c802e f i libucrt:atox.obj
 0001:000c704f       ??$parse_integer@KV?$c_string_character_source@D@__crt_strtox@@$00@__crt_strtox@@YAKAAV__crt_cached_ptd_host@@V?$c_string_character_source@D@0@H_N@Z 400c804f f i libucrt:atox.obj
 0001:000c732c       ??$parse_integer@KV?$c_string_character_source@_W@__crt_strtox@@$00@__crt_strtox@@YAKAAV__crt_cached_ptd_host@@V?$c_string_character_source@_W@0@H_N@Z 400c832c f i libucrt:atox.obj
 0001:000c7ad7       ??$parse_integer@_KV?$c_string_character_source@D@__crt_strtox@@$00@__crt_strtox@@YA_KAAV__crt_cached_ptd_host@@V?$c_string_character_source@D@0@H_N@Z 400c8ad7 f i libucrt:atox.obj
 0001:000c7e33       ??$parse_integer@_KV?$c_string_character_source@_W@__crt_strtox@@$00@__crt_strtox@@YA_KAAV__crt_cached_ptd_host@@V?$c_string_character_source@_W@0@H_N@Z 400c8e33 f i libucrt:atox.obj
 0001:000c8575       ??$parse_integer_from_string@JD$$T@__crt_strtox@@YAJQBD$$THQAU__crt_locale_pointers@@@Z 400c9575 f i libucrt:atox.obj
 0001:000c85cd       ??$parse_integer_from_string@J_W$$T@__crt_strtox@@YAJQB_W$$THQAU__crt_locale_pointers@@@Z 400c95cd f i libucrt:atox.obj
 0001:000c8625       ??$parse_integer_from_string@_JD$$T@__crt_strtox@@YA_JQBD$$THQAU__crt_locale_pointers@@@Z 400c9625 f i libucrt:atox.obj
 0001:000c8685       ??$parse_integer_from_string@_J_W$$T@__crt_strtox@@YA_JQB_W$$THQAU__crt_locale_pointers@@@Z 400c9685 f i libucrt:atox.obj
 0001:000c86e5       ??0?$c_string_character_source@D@__crt_strtox@@QAE@QBDQAPBD@Z 400c96e5 f i libucrt:atox.obj
 0001:000c8708       ??0?$c_string_character_source@_W@__crt_strtox@@QAE@QB_WQAPB_W@Z 400c9708 f i libucrt:atox.obj
 0001:000c872b       ??0?$cached@H@__crt_cached_ptd_host@@QAE@XZ 400c972b f i libucrt:atox.obj
 0001:000c8732       ??0?$cached@K@__crt_cached_ptd_host@@QAE@XZ 400c9732 f i libucrt:atox.obj
 0001:000c8740       ??0__crt_cached_ptd_host@@QAE@QAU__crt_locale_pointers@@@Z 400c9740 f i libucrt:atox.obj
 0001:000c87b4       ??0__crt_scoped_get_last_error_reset@@QAE@XZ 400c97b4 f i libucrt:atox.obj
 0001:000c87c9       ??1?$c_string_character_source@D@__crt_strtox@@QAE@XZ 400c97c9 f i libucrt:atox.obj
 0001:000c87d8       ??1?$c_string_character_source@_W@__crt_strtox@@QAE@XZ 400c97d8 f i libucrt:atox.obj
 0001:000c87f0       ??1__crt_cached_ptd_host@@QAE@XZ 400c97f0 f i libucrt:atox.obj
 0001:000c883b       ??1__crt_scoped_get_last_error_reset@@QAE@XZ 400c983b f i libucrt:atox.obj
 0001:000c8850       ?check_synchronize_global_state_index@__crt_cached_ptd_host@@AAEIABV__crt_scoped_get_last_error_reset@@@Z 400c9850 f i libucrt:atox.obj
 0001:000c8880       ?check_synchronize_per_thread_data@__crt_cached_ptd_host@@AAEPAU__acrt_ptd@@XZ 400c9880 f i libucrt:atox.obj
 0001:000c8900       ?force_synchronize_global_state_index@__crt_cached_ptd_host@@AAEIABV__crt_scoped_get_last_error_reset@@@Z 400c9900 f i libucrt:atox.obj
 0001:000c8920       ?force_synchronize_per_thread_data@__crt_cached_ptd_host@@AAEPAU__acrt_ptd@@XZ 400c9920 f i libucrt:atox.obj
 0001:000c8980       ?get@?$c_string_character_source@D@__crt_strtox@@QAEDXZ 400c9980 f i libucrt:atox.obj
 0001:000c898a       ?get@?$c_string_character_source@_W@__crt_strtox@@QAE_WXZ 400c998a f i libucrt:atox.obj
 0001:000c8997       ?get_current_state_index@__crt_state_management@@YAIABV__crt_scoped_get_last_error_reset@@@Z 400c9997 f i libucrt:atox.obj
 0001:000c89a0       ?get_errno@__crt_cached_ptd_host@@QAE@XZ 400c99a0 f i libucrt:atox.obj
 0001:000c89b0       ?get_locale@__crt_cached_ptd_host@@QAEPAU__crt_locale_pointers@@XZ 400c99b0 f i libucrt:atox.obj
 0001:000c89d0       ?get_raw_ptd@__crt_cached_ptd_host@@QAEPAU__acrt_ptd@@XZ 400c99d0 f i libucrt:atox.obj
 0001:000c8a43       ?is_space@__crt_strtox@@YA_NDQAU__crt_locale_pointers@@@Z 400c9a43 f i libucrt:atox.obj
 0001:000c8a68       ?is_space@__crt_strtox@@YA_N_WPAU__crt_locale_pointers@@@Z 400c9a68 f i libucrt:atox.obj
 0001:000c8a86       ?maximum_signed_value@__crt_strtox@@YAJK@Z 400c9a86 f i libucrt:atox.obj
 0001:000c8a8c       ?maximum_signed_value@__crt_strtox@@YA_J_K@Z 400c9a8c f i libucrt:atox.obj
 0001:000c8a97       ?minimum_signed_value@__crt_strtox@@YAJK@Z 400c9a97 f i libucrt:atox.obj
 0001:000c8a9d       ?minimum_signed_value@__crt_strtox@@YA_J_K@Z 400c9a9d f i libucrt:atox.obj
 0001:000c8aa7       ?parse_digit@__crt_strtox@@YAID@Z 400c9aa7 f i libucrt:atox.obj
 0001:000c8aef       ?parse_digit@__crt_strtox@@YAI_W@Z 400c9aef f i libucrt:atox.obj
 0001:000c8d2a       ?restore_state@?$c_string_character_source@D@__crt_strtox@@QAE_NQBD@Z 400c9d2a f i libucrt:atox.obj
 0001:000c8d3e       ?restore_state@?$c_string_character_source@_W@__crt_strtox@@QAE_NQB_W@Z 400c9d3e f i libucrt:atox.obj
 0001:000c8d52       ?save_state@?$c_string_character_source@D@__crt_strtox@@QBEPBDXZ 400c9d52 f i libucrt:atox.obj
 0001:000c8d55       ?save_state@?$c_string_character_source@_W@__crt_strtox@@QBEPB_WXZ 400c9d55 f i libucrt:atox.obj
 0001:000c8d58       ?set@?$cached@H@__crt_cached_ptd_host@@QAEHH@Z 400c9d58 f i libucrt:atox.obj
 0001:000c8d6e       ?unget@?$c_string_character_source@D@__crt_strtox@@QAEXD@Z 400c9d6e f i libucrt:atox.obj
 0001:000c8da1       ?unget@?$c_string_character_source@_W@__crt_strtox@@QAEX_W@Z 400c9da1 f i libucrt:atox.obj
 0001:000c8dda       ?unsafe_value@?$cached@H@__crt_cached_ptd_host@@QAEHXZ 400c9dda f i libucrt:atox.obj
 0001:000c8ddd       ?unsafe_value@?$cached@K@__crt_cached_ptd_host@@QAEKXZ 400c9ddd f i libucrt:atox.obj
 0001:000c8de0       ?update_locale@__crt_cached_ptd_host@@AAEXXZ 400c9de0 f i libucrt:atox.obj
 0001:000c8df0       ?update_locale_slow@__crt_cached_ptd_host@@AAEXXZ 400c9df0 f i libucrt:atox.obj
 0001:000c8e61       ?valid@?$cached@H@__crt_cached_ptd_host@@QBE_NXZ 400c9e61 f i libucrt:atox.obj
 0001:000c8e65       ?valid@?$cached@K@__crt_cached_ptd_host@@QBE_NXZ 400c9e65 f i libucrt:atox.obj
 0001:000c8e69       ?validate@?$c_string_character_source@D@__crt_strtox@@QBE_NXZ 400c9e69 f i libucrt:atox.obj
 0001:000c8e8a       ?validate@?$c_string_character_source@_W@__crt_strtox@@QBE_NXZ 400c9e8a f i libucrt:atox.obj
 0001:000c8eab       ?wide_character_to_digit@__crt_strtox@@YAH_W@Z 400c9eab f i libucrt:atox.obj
 0001:000c90b4       ___acrt_disable_global_locale_sync 400ca0b4 f i libucrt:atox.obj
 0001:000c90cb       ___acrt_enable_global_locale_sync 400ca0cb f i libucrt:atox.obj
 0001:000c90e5       ___acrt_get_locale_data_prefix 400ca0e5 f i libucrt:atox.obj
 0001:000c90f4       ___acrt_locale_changed     400ca0f4 f i libucrt:atox.obj
 0001:000c9101       ___acrt_locale_get_ctype_array_value 400ca101 f i libucrt:atox.obj
 0001:000c912b       ___ascii_iswalpha          400ca12b f i libucrt:atox.obj
 0001:000c9156       ___ascii_toupper           400ca156 f i libucrt:atox.obj
 0001:000c9171       ___ascii_towupper          400ca171 f i libucrt:atox.obj
 0001:000c918c       __atoi64                   400ca18c f   libucrt:atox.obj
 0001:000c91e2       __atoi64_l                 400ca1e2 f   libucrt:atox.obj
 0001:000c9239       __atoi_l                   400ca239 f   libucrt:atox.obj
 0001:000c9289       __atol_l                   400ca289 f   libucrt:atox.obj
 0001:000c92d9       __atoll_l                  400ca2d9 f   libucrt:atox.obj
 0001:000c9330       __chvalidchk_l             400ca330 f i libucrt:atox.obj
 0001:000c9362       __ischartype_l             400ca362 f i libucrt:atox.obj
 0001:000c93ce       __wtoi                     400ca3ce f   libucrt:atox.obj
 0001:000c941c       __wtoi64                   400ca41c f   libucrt:atox.obj
 0001:000c9472       __wtoi64_l                 400ca472 f   libucrt:atox.obj
 0001:000c94c9       __wtoi_l                   400ca4c9 f   libucrt:atox.obj
 0001:000c9519       __wtol                     400ca519 f   libucrt:atox.obj
 0001:000c9567       __wtol_l                   400ca567 f   libucrt:atox.obj
 0001:000c95b7       __wtoll                    400ca5b7 f   libucrt:atox.obj
 0001:000c960d       __wtoll_l                  400ca60d f   libucrt:atox.obj
 0001:000c9664       _atoi                      400ca664 f   libucrt:atox.obj
 0001:000c96b2       _atol                      400ca6b2 f   libucrt:atox.obj
 0001:000c9700       _atoll                     400ca700 f   libucrt:atox.obj
 0001:000c99c2       ??0_LocaleUpdate@@QAE@QAU__crt_locale_pointers@@@Z 400ca9c2 f i libucrt:tolower_toupper.obj
 0001:000c9a64       ??1_LocaleUpdate@@QAE@XZ   400caa64 f i libucrt:tolower_toupper.obj
 0001:000c9a78       ?GetLocaleT@_LocaleUpdate@@QAEPAU__crt_locale_pointers@@XZ 400caa78 f i libucrt:tolower_toupper.obj
 0001:000c9b41       ___ascii_tolower           400cab41 f i libucrt:tolower_toupper.obj
 0001:000c9b5c       __ctype_fast_check_internal 400cab5c f i libucrt:tolower_toupper.obj
 0001:000c9b7c       __isleadbyte_fast_internal 400cab7c f i libucrt:tolower_toupper.obj
 0001:000c9ba1       __tolower                  400caba1 f   libucrt:tolower_toupper.obj
 0001:000c9bb1       __tolower_fast_internal    400cabb1 f i libucrt:tolower_toupper.obj
 0001:000c9bd0       __tolower_l                400cabd0 f   libucrt:tolower_toupper.obj
 0001:000c9d0d       __toupper                  400cad0d f   libucrt:tolower_toupper.obj
 0001:000c9d1d       __toupper_fast_internal    400cad1d f i libucrt:tolower_toupper.obj
 0001:000c9d3c       __toupper_l                400cad3c f   libucrt:tolower_toupper.obj
 0001:000c9e79       _tolower                   400cae79 f   libucrt:tolower_toupper.obj
 0001:000c9eb5       _toupper                   400caeb5 f   libucrt:tolower_toupper.obj
 0001:000c9f00       __libm_sse2_sin_precise    400caf00 f   libucrt:sin_sse2_precise.obj
 0001:000ca140       __libm_sse2_cos_precise    400cb140 f   libucrt:cos_sse2_precise.obj
 0001:000ca366       ??$assemble_floating_point_ind@M@__crt_strtox@@YAXAAM@Z 400cb366 f i libucrt:atof.obj
 0001:000ca37a       ??$assemble_floating_point_ind@N@__crt_strtox@@YAXAAN@Z 400cb37a f i libucrt:atof.obj
 0001:000ca393       ??$assemble_floating_point_infinity@M@__crt_strtox@@YAX_NAAM@Z 400cb393 f i libucrt:atof.obj
 0001:000ca3b2       ??$assemble_floating_point_infinity@N@__crt_strtox@@YAX_NAAN@Z 400cb3b2 f i libucrt:atof.obj
 0001:000ca3d6       ??$assemble_floating_point_qnan@M@__crt_strtox@@YAX_NAAM@Z 400cb3d6 f i libucrt:atof.obj
 0001:000ca3f5       ??$assemble_floating_point_qnan@N@__crt_strtox@@YAX_NAAN@Z 400cb3f5 f i libucrt:atof.obj
 0001:000ca419       ??$assemble_floating_point_snan@M@__crt_strtox@@YAX_NAAM@Z 400cb419 f i libucrt:atof.obj
 0001:000ca438       ??$assemble_floating_point_snan@N@__crt_strtox@@YAX_NAAN@Z 400cb438 f i libucrt:atof.obj
 0001:000ca461       ??$assemble_floating_point_value_t@M@__crt_strtox@@YA?AW4SLD_STATUS@@_NH_KAAM@Z 400cb461 f i libucrt:atof.obj
 0001:000ca4af       ??$assemble_floating_point_value_t@N@__crt_strtox@@YA?AW4SLD_STATUS@@_NH_KAAN@Z 400cb4af f i libucrt:atof.obj
 0001:000ca501       ??$assemble_floating_point_zero@M@__crt_strtox@@YAX_NAAM@Z 400cb501 f i libucrt:atof.obj
 0001:000ca518       ??$assemble_floating_point_zero@N@__crt_strtox@@YAX_NAAN@Z 400cb518 f i libucrt:atof.obj
 0001:000ca7bc       ??$convert_decimal_string_to_floating_type@M@__crt_strtox@@YA?AW4SLD_STATUS@@ABUfloating_point_string@0@AAM@Z 400cb7bc f i libucrt:atof.obj
 0001:000ca7e5       ??$convert_decimal_string_to_floating_type@N@__crt_strtox@@YA?AW4SLD_STATUS@@ABUfloating_point_string@0@AAN@Z 400cb7e5 f i libucrt:atof.obj
 0001:000ca80e       ??$convert_hexadecimal_string_to_floating_type@M@__crt_strtox@@YA?AW4SLD_STATUS@@ABUfloating_point_string@0@AAM@Z 400cb80e f i libucrt:atof.obj
 0001:000ca837       ??$convert_hexadecimal_string_to_floating_type@N@__crt_strtox@@YA?AW4SLD_STATUS@@ABUfloating_point_string@0@AAN@Z 400cb837 f i libucrt:atof.obj
 0001:000ca860       ??$parse_floating_point@V?$c_string_character_source@D@__crt_strtox@@M@__crt_strtox@@YA?AW4SLD_STATUS@@QAU__crt_locale_pointers@@V?$c_string_character_source@D@0@QAM@Z 400cb860 f i libucrt:atof.obj
 0001:000ca900       ??$parse_floating_point@V?$c_string_character_source@D@__crt_strtox@@N@__crt_strtox@@YA?AW4SLD_STATUS@@QAU__crt_locale_pointers@@V?$c_string_character_source@D@0@QAN@Z 400cb900 f i libucrt:atof.obj
 0001:000ca9a0       ??$parse_floating_point@V?$c_string_character_source@_W@__crt_strtox@@N@__crt_strtox@@YA?AW4SLD_STATUS@@QAU__crt_locale_pointers@@V?$c_string_character_source@_W@0@QAN@Z 400cb9a0 f i libucrt:atof.obj
 0001:000caa40       ??$parse_floating_point_from_source@V?$c_string_character_source@D@__crt_strtox@@@__crt_strtox@@YA?AW4floating_point_parse_result@0@QAU__crt_locale_pointers@@AAV?$c_string_character_source@D@0@AAUfloating_point_string@0@@Z 400cba40 f i libucrt:atof.obj
 0001:000caf72       ??$parse_floating_point_from_source@V?$c_string_character_source@_W@__crt_strtox@@@__crt_strtox@@YA?AW4floating_point_parse_result@0@QAU__crt_locale_pointers@@AAV?$c_string_character_source@_W@0@AAUfloating_point_string@0@@Z 400cbf72 f i libucrt:atof.obj
 0001:000cbd30       ??$parse_floating_point_possible_infinity@DV?$c_string_character_source@D@__crt_strtox@@PBD@__crt_strtox@@YA?AW4floating_point_parse_result@0@AADAAV?$c_string_character_source@D@0@PBD@Z 400ccd30 f i libucrt:atof.obj
 0001:000cbe0e       ??$parse_floating_point_possible_infinity@_WV?$c_string_character_source@_W@__crt_strtox@@PB_W@__crt_strtox@@YA?AW4floating_point_parse_result@0@AA_WAAV?$c_string_character_source@_W@0@PB_W@Z 400cce0e f i libucrt:atof.obj
 0001:000cbeff       ??$parse_floating_point_possible_nan@DV?$c_string_character_source@D@__crt_strtox@@PBD@__crt_strtox@@YA?AW4floating_point_parse_result@0@AADAAV?$c_string_character_source@D@0@PBD@Z 400cceff f i libucrt:atof.obj
 0001:000cc044       ??$parse_floating_point_possible_nan@_WV?$c_string_character_source@_W@__crt_strtox@@PB_W@__crt_strtox@@YA?AW4floating_point_parse_result@0@AA_WAAV?$c_string_character_source@_W@0@PB_W@Z 400cd044 f i libucrt:atof.obj
 0001:000cc1ca       ??$parse_floating_point_possible_nan_is_ind@DV?$c_string_character_source@D@__crt_strtox@@@__crt_strtox@@YA_NAADAAV?$c_string_character_source@D@0@@Z 400cd1ca f i libucrt:atof.obj
 0001:000cc215       ??$parse_floating_point_possible_nan_is_ind@_WV?$c_string_character_source@_W@__crt_strtox@@@__crt_strtox@@YA_NAA_WAAV?$c_string_character_source@_W@0@@Z 400cd215 f i libucrt:atof.obj
 0001:000cc26b       ??$parse_floating_point_possible_nan_is_snan@DV?$c_string_character_source@D@__crt_strtox@@@__crt_strtox@@YA_NAADAAV?$c_string_character_source@D@0@@Z 400cd26b f i libucrt:atof.obj
 0001:000cc2b6       ??$parse_floating_point_possible_nan_is_snan@_WV?$c_string_character_source@_W@__crt_strtox@@@__crt_strtox@@YA_NAA_WAAV?$c_string_character_source@_W@0@@Z 400cd2b6 f i libucrt:atof.obj
 0001:000cc30c       ??$parse_floating_point_write_result@M@__crt_strtox@@YA?AW4SLD_STATUS@@W4floating_point_parse_result@0@ABUfloating_point_string@0@QAM@Z 400cd30c f i libucrt:atof.obj
 0001:000cc4a6       ??$parse_floating_point_write_result@N@__crt_strtox@@YA?AW4SLD_STATUS@@W4floating_point_parse_result@0@ABUfloating_point_string@0@QAN@Z 400cd4a6 f i libucrt:atof.obj
 0001:000cc613       ??$parse_next_characters_from_source@DV?$c_string_character_source@D@__crt_strtox@@@__crt_strtox@@YA_NQBD0IAADAAV?$c_string_character_source@D@0@@Z 400cd613 f i libucrt:atof.obj
 0001:000cc66e       ??$parse_next_characters_from_source@_WV?$c_string_character_source@_W@__crt_strtox@@@__crt_strtox@@YA_NQB_W0IAA_WAAV?$c_string_character_source@_W@0@@Z 400cd66e f i libucrt:atof.obj
 0001:000cc6d4       ??0<lambda_32aa245da1b5b882fa96db788295c8b2>@@QAE@AAV?$c_string_character_source@D@__crt_strtox@@AADAAPBD@Z 400cd6d4 f i libucrt:atof.obj
 0001:000cc6f7       ??0<lambda_41cd6f1065410257e3b5bd447328b23e>@@QAE@AAV?$c_string_character_source@_W@__crt_strtox@@AA_WAAPB_W@Z 400cd6f7 f i libucrt:atof.obj
 0001:000cc71a       ??0<lambda_690cf26ff5d754c94c32cf642e9f01bc>@@QAE@AAV?$c_string_character_source@D@__crt_strtox@@AADAAPBD@Z 400cd71a f i libucrt:atof.obj
 0001:000cc73d       ??0<lambda_cbd1988beab104251e16e78b336a674a>@@QAE@AAV?$c_string_character_source@_W@__crt_strtox@@AA_WAAPB_W@Z 400cd73d f i libucrt:atof.obj
 0001:000cc760       ??0<lambda_e128a58a467199df1f46ac2193393add>@@QAE@AAV?$c_string_character_source@_W@__crt_strtox@@AA_WAAPB_W@Z 400cd760 f i libucrt:atof.obj
 0001:000cc783       ??0<lambda_e51f7abad2595a5950d3223319845217>@@QAE@AAV?$c_string_character_source@D@__crt_strtox@@AADAAPBD@Z 400cd783 f i libucrt:atof.obj
 0001:000cc7b0       ??0big_integer@__crt_strtox@@QAE@ABU01@@Z 400cd7b0 f i libucrt:atof.obj
 0001:000cc7f0       ??0big_integer@__crt_strtox@@QAE@XZ 400cd7f0 f i libucrt:atof.obj
 0001:000cc7fb       ??0floating_point_value@__crt_strtox@@QAE@QAM@Z 400cd7fb f i libucrt:atof.obj
 0001:000cc814       ??0floating_point_value@__crt_strtox@@QAE@QAN@Z 400cd814 f i libucrt:atof.obj
 0001:000cc830       ??4big_integer@__crt_strtox@@QAEAAU01@ABU01@@Z 400cd830 f i libucrt:atof.obj
 0001:000cc870       ??M__crt_strtox@@YA_NABUbig_integer@0@0@Z 400cd870 f i libucrt:atof.obj
 0001:000cc8db       ??R<lambda_32aa245da1b5b882fa96db788295c8b2>@@QBE@XZ 400cd8db f i libucrt:atof.obj
 0001:000cc90a       ??R<lambda_41cd6f1065410257e3b5bd447328b23e>@@QBE@XZ 400cd90a f i libucrt:atof.obj
 0001:000cc93c       ??R<lambda_690cf26ff5d754c94c32cf642e9f01bc>@@QBE@XZ 400cd93c f i libucrt:atof.obj
 0001:000cc96b       ??R<lambda_cbd1988beab104251e16e78b336a674a>@@QBE@XZ 400cd96b f i libucrt:atof.obj
 0001:000cc99d       ??R<lambda_e128a58a467199df1f46ac2193393add>@@QBE@XZ 400cd99d f i libucrt:atof.obj
 0001:000cc9cf       ??R<lambda_e51f7abad2595a5950d3223319845217>@@QBE@XZ 400cd9cf f i libucrt:atof.obj
 0001:000cc9fe       ?accumulate_decimal_digits_into_big_integer@__crt_strtox@@YAXQBE0AAUbig_integer@1@@Z 400cd9fe f i libucrt:atof.obj
 0001:000cd230       ?add@__crt_strtox@@YA_NAAUbig_integer@1@I@Z 400ce230 f i libucrt:atof.obj
 0001:000cd2d0       ?add_carry@__crt_strtox@@YAIAAIII@Z 400ce2d0 f i libucrt:atof.obj
 0001:000cd300       ?add_multiply_carry@__crt_strtox@@YAIAAIIII@Z 400ce300 f i libucrt:atof.obj
 0001:000cd32d       ?as_double@floating_point_value@__crt_strtox@@QBEAANXZ 400ce32d f i libucrt:atof.obj
 0001:000cd35b       ?as_float@floating_point_value@__crt_strtox@@QBEAAMXZ 400ce35b f i libucrt:atof.obj
 0001:000cd389       ?assemble_floating_point_infinity@__crt_strtox@@YAX_NABVfloating_point_value@1@@Z 400ce389 f i libucrt:atof.obj
 0001:000cd3d9       ?assemble_floating_point_value@__crt_strtox@@YA?AW4SLD_STATUS@@_KH_N1ABVfloating_point_value@1@@Z 400ce3d9 f i libucrt:atof.obj
 0001:000cd858       ?assemble_floating_point_value_from_big_integer@__crt_strtox@@YA?AW4SLD_STATUS@@ABUbig_integer@1@I_N1ABVfloating_point_value@1@@Z 400ce858 f i libucrt:atof.obj
 0001:000cda5c       ?assemble_floating_point_zero@__crt_strtox@@YAX_NABVfloating_point_value@1@@Z 400cea5c f i libucrt:atof.obj
 0001:000cdaa0       ?bit_scan_reverse@__crt_strtox@@YAIABUbig_integer@1@@Z 400ceaa0 f i libucrt:atof.obj
 0001:000cdaf0       ?bit_scan_reverse@__crt_strtox@@YAII@Z 400ceaf0 f i libucrt:atof.obj
 0001:000cdb20       ?bit_scan_reverse@__crt_strtox@@YAI_K@Z 400ceb20 f i libucrt:atof.obj
 0001:000cdb78       ?convert_decimal_string_to_floating_type_common@__crt_strtox@@YA?AW4SLD_STATUS@@ABUfloating_point_string@1@ABVfloating_point_value@1@@Z 400ceb78 f i libucrt:atof.obj
 0001:000cffb6       ?convert_hexadecimal_string_to_floating_type_common@__crt_strtox@@YA?AW4SLD_STATUS@@ABUfloating_point_string@1@ABVfloating_point_value@1@@Z 400d0fb6 f i libucrt:atof.obj
 0001:000d00a0       ?count_sequential_high_zeroes@__crt_strtox@@YAII@Z 400d10a0 f i libucrt:atof.obj
 0001:000d00c1       ?denormal_mantissa_mask@floating_point_value@__crt_strtox@@QBE_KXZ 400d10c1 f i libucrt:atof.obj
 0001:000d00e0       ?divide@__crt_strtox@@YA_KAAUbig_integer@1@ABU21@@Z 400d10e0 f i libucrt:atof.obj
 0001:000d06ec       ?exponent_bias@floating_point_value@__crt_strtox@@QBEHXZ 400d16ec f i libucrt:atof.obj
 0001:000d0700       ?is_digit_or_nondigit@__crt_strtox@@YA_NH@Z 400d1700 f i libucrt:atof.obj
 0001:000d0737       ?is_double@floating_point_value@__crt_strtox@@QBE_NXZ 400d1737 f i libucrt:atof.obj
 0001:000d0740       ?make_big_integer@__crt_strtox@@YA?AUbig_integer@1@_K@Z 400d1740 f i libucrt:atof.obj
 0001:000d0768       ?mantissa_bits@floating_point_value@__crt_strtox@@QBEHXZ 400d1768 f i libucrt:atof.obj
 0001:000d0779       ?maximum_binary_exponent@floating_point_value@__crt_strtox@@QBEHXZ 400d1779 f i libucrt:atof.obj
 0001:000d078d       ?minimum_binary_exponent@floating_point_value@__crt_strtox@@QBEHXZ 400d178d f i libucrt:atof.obj
 0001:000d07b0       ?multiply@__crt_strtox@@YA_NAAUbig_integer@1@ABU21@@Z 400d17b0 f i libucrt:atof.obj
 0001:000d0bd0       ?multiply@__crt_strtox@@YA_NAAUbig_integer@1@I@Z 400d1bd0 f i libucrt:atof.obj
 0001:000d0cd0       ?multiply_64_32@__crt_strtox@@YA_K_KI@Z 400d1cd0 f i libucrt:atof.obj
 0001:000d0cf0       ?multiply_by_power_of_ten@__crt_strtox@@YA_NAAUbig_integer@1@I@Z 400d1cf0 f i libucrt:atof.obj
 0001:000d1440       ?multiply_core@__crt_strtox@@YAIQAIII@Z 400d2440 f i libucrt:atof.obj
 0001:000d148d       ?normal_mantissa_mask@floating_point_value@__crt_strtox@@QBE_KXZ 400d248d f i libucrt:atof.obj
 0001:000d14a9       ?right_shift_with_rounding@__crt_strtox@@YA_K_N_KI0@Z 400d24a9 f i libucrt:atof.obj
 0001:000d15f0       ?shift_left@__crt_strtox@@YA_NAAUbig_integer@1@I@Z 400d25f0 f i libucrt:atof.obj
 0001:000d176a       ?should_round_up@__crt_strtox@@YA_N_N000@Z 400d276a f i libucrt:atof.obj
 0001:000d17cb       __atodbl                   400d27cb f   libucrt:atof.obj
 0001:000d17e7       __atodbl_l                 400d27e7 f   libucrt:atof.obj
 0001:000d17f4       __atof_l                   400d27f4 f   libucrt:atof.obj
 0001:000d1801       __atoflt                   400d2801 f   libucrt:atof.obj
 0001:000d181d       __atoflt_l                 400d281d f   libucrt:atof.obj
 0001:000d182a       __wtof                     400d282a f   libucrt:atof.obj
 0001:000d1841       __wtof_l                   400d2841 f   libucrt:atof.obj
 0001:000d184e       _atof                      400d284e f   libucrt:atof.obj
 0001:000d1906       _rand                      400d2906 f   libucrt:rand.obj
 0001:000d192f       _srand                     400d292f f   libucrt:rand.obj
 0001:000d1950       __CIatan2                  400d2950 f   libucrt:87ctriga.obj
 0001:000d1960       __libm_sse2_tan_precise    400d2960 f   libucrt:tan_sse2_precise.obj
 0001:000d1c70       _strncpy                   400d2c70 f   libucrt:strncpy.obj
 0001:000d1de0       __libm_sse2_sqrt_precise   400d2de0 f   libucrt:sqrt_sse2_precise.obj
 0001:000d1f20       ??$?0ABV?$stream_output_adapter@D@__crt_stdio_output@@AB_KABQBDAAV__crt_cached_ptd_host@@ABQAD@?$format_validation_base@DV?$stream_output_adapter@D@__crt_stdio_output@@@__crt_stdio_output@@IAE@ABV?$stream_output_adapter@D@1@AB_KABQBDAAV__crt_cached_ptd_host@@ABQAD@Z 400d2f20 f i libucrt:output.obj
 0001:000d1f4b       ??$?0ABV?$stream_output_adapter@D@__crt_stdio_output@@AB_KABQBDAAV__crt_cached_ptd_host@@ABQAD@?$positional_parameter_base@DV?$stream_output_adapter@D@__crt_stdio_output@@@__crt_stdio_output@@IAE@ABV?$stream_output_adapter@D@1@AB_KABQBDAAV__crt_cached_ptd_host@@ABQAD@Z 400d2f4b f i libucrt:output.obj
 0001:000d1fa5       ??$?0ABV?$stream_output_adapter@D@__crt_stdio_output@@AB_KABQBDAAV__crt_cached_ptd_host@@ABQAD@?$standard_base@DV?$stream_output_adapter@D@__crt_stdio_output@@@__crt_stdio_output@@IAE@ABV?$stream_output_adapter@D@1@AB_KABQBDAAV__crt_cached_ptd_host@@ABQAD@Z 400d2fa5 f i libucrt:output.obj
 0001:000d1fe4       ??$?0ABV?$stream_output_adapter@_W@__crt_stdio_output@@AB_KABQB_WAAV__crt_cached_ptd_host@@ABQAD@?$format_validation_base@_WV?$stream_output_adapter@_W@__crt_stdio_output@@@__crt_stdio_output@@IAE@ABV?$stream_output_adapter@_W@1@AB_KABQB_WAAV__crt_cached_ptd_host@@ABQAD@Z 400d2fe4 f i libucrt:output.obj
 0001:000d200f       ??$?0ABV?$stream_output_adapter@_W@__crt_stdio_output@@AB_KABQB_WAAV__crt_cached_ptd_host@@ABQAD@?$positional_parameter_base@_WV?$stream_output_adapter@_W@__crt_stdio_output@@@__crt_stdio_output@@IAE@ABV?$stream_output_adapter@_W@1@AB_KABQB_WAAV__crt_cached_ptd_host@@ABQAD@Z 400d300f f i libucrt:output.obj
 0001:000d2069       ??$?0ABV?$stream_output_adapter@_W@__crt_stdio_output@@AB_KABQB_WAAV__crt_cached_ptd_host@@ABQAD@?$standard_base@_WV?$stream_output_adapter@_W@__crt_stdio_output@@@__crt_stdio_output@@IAE@ABV?$stream_output_adapter@_W@1@AB_KABQB_WAAV__crt_cached_ptd_host@@ABQAD@Z 400d3069 f i libucrt:output.obj
 0001:000d20a8       ??$?0ABV?$string_output_adapter@D@__crt_stdio_output@@AB_KABQBDAAV__crt_cached_ptd_host@@ABQAD@?$format_validation_base@DV?$string_output_adapter@D@__crt_stdio_output@@@__crt_stdio_output@@IAE@ABV?$string_output_adapter@D@1@AB_KABQBDAAV__crt_cached_ptd_host@@ABQAD@Z 400d30a8 f i libucrt:output.obj
 0001:000d20d3       ??$?0ABV?$string_output_adapter@D@__crt_stdio_output@@AB_KABQBDAAV__crt_cached_ptd_host@@ABQAD@?$positional_parameter_base@DV?$string_output_adapter@D@__crt_stdio_output@@@__crt_stdio_output@@IAE@ABV?$string_output_adapter@D@1@AB_KABQBDAAV__crt_cached_ptd_host@@ABQAD@Z 400d30d3 f i libucrt:output.obj
 0001:000d212d       ??$?0ABV?$string_output_adapter@D@__crt_stdio_output@@AB_KABQBDAAV__crt_cached_ptd_host@@ABQAD@?$standard_base@DV?$string_output_adapter@D@__crt_stdio_output@@@__crt_stdio_output@@IAE@ABV?$string_output_adapter@D@1@AB_KABQBDAAV__crt_cached_ptd_host@@ABQAD@Z 400d312d f i libucrt:output.obj
 0001:000d216c       ??$?0ABV?$string_output_adapter@_W@__crt_stdio_output@@AB_KABQB_WAAV__crt_cached_ptd_host@@ABQAD@?$format_validation_base@_WV?$string_output_adapter@_W@__crt_stdio_output@@@__crt_stdio_output@@IAE@ABV?$string_output_adapter@_W@1@AB_KABQB_WAAV__crt_cached_ptd_host@@ABQAD@Z 400d316c f i libucrt:output.obj
 0001:000d2197       ??$?0ABV?$string_output_adapter@_W@__crt_stdio_output@@AB_KABQB_WAAV__crt_cached_ptd_host@@ABQAD@?$positional_parameter_base@_WV?$string_output_adapter@_W@__crt_stdio_output@@@__crt_stdio_output@@IAE@ABV?$string_output_adapter@_W@1@AB_KABQB_WAAV__crt_cached_ptd_host@@ABQAD@Z 400d3197 f i libucrt:output.obj
 0001:000d21f1       ??$?0ABV?$string_output_adapter@_W@__crt_stdio_output@@AB_KABQB_WAAV__crt_cached_ptd_host@@ABQAD@?$standard_base@_WV?$string_output_adapter@_W@__crt_stdio_output@@@__crt_stdio_output@@IAE@ABV?$string_output_adapter@_W@1@AB_KABQB_WAAV__crt_cached_ptd_host@@ABQAD@Z 400d31f1 f i libucrt:output.obj
 0001:000d25f0       ??$__crt_interlocked_read@J@@YAJPDJ@Z 400d35f0 f i libucrt:output.obj
 0001:000d2600       ??$_tcstol_internal@DPAPAD$0A@@@YAJAAV__crt_cached_ptd_host@@QBDQAPADH@Z 400d3600 f i libucrt:output.obj
 0001:000d2635       ??$_tcstol_internal@_WPAPA_W$0A@@@YAJAAV__crt_cached_ptd_host@@QB_WQAPA_WH@Z 400d3635 f i libucrt:output.obj
 0001:000d395e       ??$count@D@formatting_buffer@__crt_stdio_output@@QBEIXZ 400d495e f i libucrt:output.obj
 0001:000d397c       ??$count@_W@formatting_buffer@__crt_stdio_output@@QBEIXZ 400d497c f i libucrt:output.obj
 0001:000d399b       ??$data@D@formatting_buffer@__crt_stdio_output@@QAEPADXZ 400d499b f i libucrt:output.obj
 0001:000d39aa       ??$data@_W@formatting_buffer@__crt_stdio_output@@QAEPA_WXZ 400d49aa f i libucrt:output.obj
 0001:000d39b9       ??$ensure_buffer_is_big_enough@D@formatting_buffer@__crt_stdio_output@@QAE_NIAAV__crt_cached_ptd_host@@@Z 400d49b9 f i libucrt:output.obj
 0001:000d3a59       ??$ensure_buffer_is_big_enough@_W@formatting_buffer@__crt_stdio_output@@QAE_NIAAV__crt_cached_ptd_host@@@Z 400d4a59 f i libucrt:output.obj
 0001:000d3afa       ??$extract_argument_from_va_list@C_J@?$positional_parameter_base@DV?$stream_output_adapter@D@__crt_stdio_output@@@__crt_stdio_output@@IAE_NAA_J@Z 400d4afa f i libucrt:output.obj
 0001:000d3bac       ??$extract_argument_from_va_list@C_J@?$positional_parameter_base@DV?$string_output_adapter@D@__crt_stdio_output@@@__crt_stdio_output@@IAE_NAA_J@Z 400d4bac f i libucrt:output.obj
 0001:000d3c5e       ??$extract_argument_from_va_list@C_J@?$positional_parameter_base@_WV?$stream_output_adapter@_W@__crt_stdio_output@@@__crt_stdio_output@@IAE_NAA_J@Z 400d4c5e f i libucrt:output.obj
 0001:000d3d12       ??$extract_argument_from_va_list@C_J@?$positional_parameter_base@_WV?$string_output_adapter@_W@__crt_stdio_output@@@__crt_stdio_output@@IAE_NAA_J@Z 400d4d12 f i libucrt:output.obj
 0001:000d3dc6       ??$extract_argument_from_va_list@C_J@?$standard_base@DV?$stream_output_adapter@D@__crt_stdio_output@@@__crt_stdio_output@@IAE_NAA_J@Z 400d4dc6 f i libucrt:output.obj
 0001:000d3dee       ??$extract_argument_from_va_list@C_J@?$standard_base@DV?$string_output_adapter@D@__crt_stdio_output@@@__crt_stdio_output@@IAE_NAA_J@Z 400d4dee f i libucrt:output.obj
 0001:000d3e16       ??$extract_argument_from_va_list@C_J@?$standard_base@_WV?$stream_output_adapter@_W@__crt_stdio_output@@@__crt_stdio_output@@IAE_NAA_J@Z 400d4e16 f i libucrt:output.obj
 0001:000d3e3e       ??$extract_argument_from_va_list@C_J@?$standard_base@_WV?$string_output_adapter@_W@__crt_stdio_output@@@__crt_stdio_output@@IAE_NAA_J@Z 400d4e3e f i libucrt:output.obj
 0001:000d3e66       ??$extract_argument_from_va_list@E_J@?$positional_parameter_base@DV?$stream_output_adapter@D@__crt_stdio_output@@@__crt_stdio_output@@IAE_NAA_J@Z 400d4e66 f i libucrt:output.obj
 0001:000d3f18       ??$extract_argument_from_va_list@E_J@?$positional_parameter_base@DV?$string_output_adapter@D@__crt_stdio_output@@@__crt_stdio_output@@IAE_NAA_J@Z 400d4f18 f i libucrt:output.obj
 0001:000d3fca       ??$extract_argument_from_va_list@E_J@?$positional_parameter_base@_WV?$stream_output_adapter@_W@__crt_stdio_output@@@__crt_stdio_output@@IAE_NAA_J@Z 400d4fca f i libucrt:output.obj
 0001:000d407e       ??$extract_argument_from_va_list@E_J@?$positional_parameter_base@_WV?$string_output_adapter@_W@__crt_stdio_output@@@__crt_stdio_output@@IAE_NAA_J@Z 400d507e f i libucrt:output.obj
 0001:000d4132       ??$extract_argument_from_va_list@E_J@?$standard_base@DV?$stream_output_adapter@D@__crt_stdio_output@@@__crt_stdio_output@@IAE_NAA_J@Z 400d5132 f i libucrt:output.obj
 0001:000d415a       ??$extract_argument_from_va_list@E_J@?$standard_base@DV?$string_output_adapter@D@__crt_stdio_output@@@__crt_stdio_output@@IAE_NAA_J@Z 400d515a f i libucrt:output.obj
 0001:000d4182       ??$extract_argument_from_va_list@E_J@?$standard_base@_WV?$stream_output_adapter@_W@__crt_stdio_output@@@__crt_stdio_output@@IAE_NAA_J@Z 400d5182 f i libucrt:output.obj
 0001:000d41aa       ??$extract_argument_from_va_list@E_J@?$standard_base@_WV?$string_output_adapter@_W@__crt_stdio_output@@@__crt_stdio_output@@IAE_NAA_J@Z 400d51aa f i libucrt:output.obj
 0001:000d41d2       ??$extract_argument_from_va_list@F_J@?$positional_parameter_base@DV?$stream_output_adapter@D@__crt_stdio_output@@@__crt_stdio_output@@IAE_NAA_J@Z 400d51d2 f i libucrt:output.obj
 0001:000d4284       ??$extract_argument_from_va_list@F_J@?$positional_parameter_base@DV?$string_output_adapter@D@__crt_stdio_output@@@__crt_stdio_output@@IAE_NAA_J@Z 400d5284 f i libucrt:output.obj
 0001:000d4336       ??$extract_argument_from_va_list@F_J@?$positional_parameter_base@_WV?$stream_output_adapter@_W@__crt_stdio_output@@@__crt_stdio_output@@IAE_NAA_J@Z 400d5336 f i libucrt:output.obj
 0001:000d43ea       ??$extract_argument_from_va_list@F_J@?$positional_parameter_base@_WV?$string_output_adapter@_W@__crt_stdio_output@@@__crt_stdio_output@@IAE_NAA_J@Z 400d53ea f i libucrt:output.obj
 0001:000d449e       ??$extract_argument_from_va_list@F_J@?$standard_base@DV?$stream_output_adapter@D@__crt_stdio_output@@@__crt_stdio_output@@IAE_NAA_J@Z 400d549e f i libucrt:output.obj
 0001:000d44c6       ??$extract_argument_from_va_list@F_J@?$standard_base@DV?$string_output_adapter@D@__crt_stdio_output@@@__crt_stdio_output@@IAE_NAA_J@Z 400d54c6 f i libucrt:output.obj
 0001:000d44ee       ??$extract_argument_from_va_list@F_J@?$standard_base@_WV?$stream_output_adapter@_W@__crt_stdio_output@@@__crt_stdio_output@@IAE_NAA_J@Z 400d54ee f i libucrt:output.obj
 0001:000d4516       ??$extract_argument_from_va_list@F_J@?$standard_base@_WV?$string_output_adapter@_W@__crt_stdio_output@@@__crt_stdio_output@@IAE_NAA_J@Z 400d5516 f i libucrt:output.obj
 0001:000d453e       ??$extract_argument_from_va_list@GD@?$positional_parameter_base@DV?$stream_output_adapter@D@__crt_stdio_output@@@__crt_stdio_output@@IAE_NAAD@Z 400d553e f i libucrt:output.obj
 0001:000d45ef       ??$extract_argument_from_va_list@GD@?$positional_parameter_base@DV?$string_output_adapter@D@__crt_stdio_output@@@__crt_stdio_output@@IAE_NAAD@Z 400d55ef f i libucrt:output.obj
 0001:000d46a0       ??$extract_argument_from_va_list@GD@?$standard_base@DV?$stream_output_adapter@D@__crt_stdio_output@@@__crt_stdio_output@@IAE_NAAD@Z 400d56a0 f i libucrt:output.obj
 0001:000d46c4       ??$extract_argument_from_va_list@GD@?$standard_base@DV?$string_output_adapter@D@__crt_stdio_output@@@__crt_stdio_output@@IAE_NAAD@Z 400d56c4 f i libucrt:output.obj
 0001:000d46e8       ??$extract_argument_from_va_list@G_J@?$positional_parameter_base@DV?$stream_output_adapter@D@__crt_stdio_output@@@__crt_stdio_output@@IAE_NAA_J@Z 400d56e8 f i libucrt:output.obj
 0001:000d479a       ??$extract_argument_from_va_list@G_J@?$positional_parameter_base@DV?$string_output_adapter@D@__crt_stdio_output@@@__crt_stdio_output@@IAE_NAA_J@Z 400d579a f i libucrt:output.obj
 0001:000d484c       ??$extract_argument_from_va_list@G_J@?$positional_parameter_base@_WV?$stream_output_adapter@_W@__crt_stdio_output@@@__crt_stdio_output@@IAE_NAA_J@Z 400d584c f i libucrt:output.obj
 0001:000d4900       ??$extract_argument_from_va_list@G_J@?$positional_parameter_base@_WV?$string_output_adapter@_W@__crt_stdio_output@@@__crt_stdio_output@@IAE_NAA_J@Z 400d5900 f i libucrt:output.obj
 0001:000d49b4       ??$extract_argument_from_va_list@G_J@?$standard_base@DV?$stream_output_adapter@D@__crt_stdio_output@@@__crt_stdio_output@@IAE_NAA_J@Z 400d59b4 f i libucrt:output.obj
 0001:000d49dc       ??$extract_argument_from_va_list@G_J@?$standard_base@DV?$string_output_adapter@D@__crt_stdio_output@@@__crt_stdio_output@@IAE_NAA_J@Z 400d59dc f i libucrt:output.obj
 0001:000d4a04       ??$extract_argument_from_va_list@G_J@?$standard_base@_WV?$stream_output_adapter@_W@__crt_stdio_output@@@__crt_stdio_output@@IAE_NAA_J@Z 400d5a04 f i libucrt:output.obj
 0001:000d4a2c       ??$extract_argument_from_va_list@G_J@?$standard_base@_WV?$string_output_adapter@_W@__crt_stdio_output@@@__crt_stdio_output@@IAE_NAA_J@Z 400d5a2c f i libucrt:output.obj
 0001:000d4a54       ??$extract_argument_from_va_list@H_J@?$positional_parameter_base@DV?$stream_output_adapter@D@__crt_stdio_output@@@__crt_stdio_output@@IAE_NAA_J@Z 400d5a54 f i libucrt:output.obj
 0001:000d4aff       ??$extract_argument_from_va_list@H_J@?$positional_parameter_base@DV?$string_output_adapter@D@__crt_stdio_output@@@__crt_stdio_output@@IAE_NAA_J@Z 400d5aff f i libucrt:output.obj
 0001:000d4baa       ??$extract_argument_from_va_list@H_J@?$positional_parameter_base@_WV?$stream_output_adapter@_W@__crt_stdio_output@@@__crt_stdio_output@@IAE_NAA_J@Z 400d5baa f i libucrt:output.obj
 0001:000d4c56       ??$extract_argument_from_va_list@H_J@?$positional_parameter_base@_WV?$string_output_adapter@_W@__crt_stdio_output@@@__crt_stdio_output@@IAE_NAA_J@Z 400d5c56 f i libucrt:output.obj
 0001:000d4d02       ??$extract_argument_from_va_list@H_J@?$standard_base@DV?$stream_output_adapter@D@__crt_stdio_output@@@__crt_stdio_output@@IAE_NAA_J@Z 400d5d02 f i libucrt:output.obj
 0001:000d4d28       ??$extract_argument_from_va_list@H_J@?$standard_base@DV?$string_output_adapter@D@__crt_stdio_output@@@__crt_stdio_output@@IAE_NAA_J@Z 400d5d28 f i libucrt:output.obj
 0001:000d4d4e       ??$extract_argument_from_va_list@H_J@?$standard_base@_WV?$stream_output_adapter@_W@__crt_stdio_output@@@__crt_stdio_output@@IAE_NAA_J@Z 400d5d4e f i libucrt:output.obj
 0001:000d4d74       ??$extract_argument_from_va_list@H_J@?$standard_base@_WV?$string_output_adapter@_W@__crt_stdio_output@@@__crt_stdio_output@@IAE_NAA_J@Z 400d5d74 f i libucrt:output.obj
 0001:000d4d9a       ??$extract_argument_from_va_list@I_J@?$positional_parameter_base@DV?$stream_output_adapter@D@__crt_stdio_output@@@__crt_stdio_output@@IAE_NAA_J@Z 400d5d9a f i libucrt:output.obj
 0001:000d4e55       ??$extract_argument_from_va_list@I_J@?$positional_parameter_base@DV?$string_output_adapter@D@__crt_stdio_output@@@__crt_stdio_output@@IAE_NAA_J@Z 400d5e55 f i libucrt:output.obj
 0001:000d4f10       ??$extract_argument_from_va_list@I_J@?$positional_parameter_base@_WV?$stream_output_adapter@_W@__crt_stdio_output@@@__crt_stdio_output@@IAE_NAA_J@Z 400d5f10 f i libucrt:output.obj
 0001:000d4fcc       ??$extract_argument_from_va_list@I_J@?$positional_parameter_base@_WV?$string_output_adapter@_W@__crt_stdio_output@@@__crt_stdio_output@@IAE_NAA_J@Z 400d5fcc f i libucrt:output.obj
 0001:000d5088       ??$extract_argument_from_va_list@I_J@?$standard_base@DV?$stream_output_adapter@D@__crt_stdio_output@@@__crt_stdio_output@@IAE_NAA_J@Z 400d6088 f i libucrt:output.obj
 0001:000d50ae       ??$extract_argument_from_va_list@I_J@?$standard_base@DV?$string_output_adapter@D@__crt_stdio_output@@@__crt_stdio_output@@IAE_NAA_J@Z 400d60ae f i libucrt:output.obj
 0001:000d50d4       ??$extract_argument_from_va_list@I_J@?$standard_base@_WV?$stream_output_adapter@_W@__crt_stdio_output@@@__crt_stdio_output@@IAE_NAA_J@Z 400d60d4 f i libucrt:output.obj
 0001:000d50fa       ??$extract_argument_from_va_list@I_J@?$standard_base@_WV?$string_output_adapter@_W@__crt_stdio_output@@@__crt_stdio_output@@IAE_NAA_J@Z 400d60fa f i libucrt:output.obj
 0001:000d5120       ??$extract_argument_from_va_list@PADPAD@?$positional_parameter_base@DV?$stream_output_adapter@D@__crt_stdio_output@@@__crt_stdio_output@@IAE_NAAPAD@Z 400d6120 f i libucrt:output.obj
 0001:000d51d1       ??$extract_argument_from_va_list@PADPAD@?$positional_parameter_base@DV?$string_output_adapter@D@__crt_stdio_output@@@__crt_stdio_output@@IAE_NAAPAD@Z 400d61d1 f i libucrt:output.obj
 0001:000d5282       ??$extract_argument_from_va_list@PADPAD@?$positional_parameter_base@_WV?$stream_output_adapter@_W@__crt_stdio_output@@@__crt_stdio_output@@IAE_NAAPAD@Z 400d6282 f i libucrt:output.obj
 0001:000d5334       ??$extract_argument_from_va_list@PADPAD@?$positional_parameter_base@_WV?$string_output_adapter@_W@__crt_stdio_output@@@__crt_stdio_output@@IAE_NAAPAD@Z 400d6334 f i libucrt:output.obj
 0001:000d53e6       ??$extract_argument_from_va_list@PADPAD@?$standard_base@DV?$stream_output_adapter@D@__crt_stdio_output@@@__crt_stdio_output@@IAE_NAAPAD@Z 400d63e6 f i libucrt:output.obj
 0001:000d540a       ??$extract_argument_from_va_list@PADPAD@?$standard_base@DV?$string_output_adapter@D@__crt_stdio_output@@@__crt_stdio_output@@IAE_NAAPAD@Z 400d640a f i libucrt:output.obj
 0001:000d542e       ??$extract_argument_from_va_list@PADPAD@?$standard_base@_WV?$stream_output_adapter@_W@__crt_stdio_output@@@__crt_stdio_output@@IAE_NAAPAD@Z 400d642e f i libucrt:output.obj
 0001:000d5452       ??$extract_argument_from_va_list@PADPAD@?$standard_base@_WV?$string_output_adapter@_W@__crt_stdio_output@@@__crt_stdio_output@@IAE_NAAPAD@Z 400d6452 f i libucrt:output.obj
 0001:000d5476       ??$extract_argument_from_va_list@PAUansi_string@?1??type_case_Z@?$output_processor@DV?$stream_output_adapter@D@__crt_stdio_output@@V?$format_validation_base@DV?$stream_output_adapter@D@__crt_stdio_output@@@2@@__crt_stdio_output@@AAE_NXZ@PAU1?1??234@AAE_NXZ@@?$standard_base@DV?$stream_output_adapter@D@__crt_stdio_output@@@__crt_stdio_output@@IAE_NAAPAUansi_string@?1??type_case_Z@?$output_processor@DV?$stream_output_adapter@D@__crt_stdio_output@@V?$format_validation_base@DV?$stream_output_adapter@D@__crt_stdio_output@@@2@@1@AAE_NXZ@@Z 400d6476 f i libucrt:output.obj
 0001:000d549a       ??$extract_argument_from_va_list@PAUansi_string@?1??type_case_Z@?$output_processor@DV?$stream_output_adapter@D@__crt_stdio_output@@V?$positional_parameter_base@DV?$stream_output_adapter@D@__crt_stdio_output@@@2@@__crt_stdio_output@@AAE_NXZ@PAU1?1??234@AAE_NXZ@@?$positional_parameter_base@DV?$stream_output_adapter@D@__crt_stdio_output@@@__crt_stdio_output@@IAE_NAAPAUansi_string@?1??type_case_Z@?$output_processor@DV?$stream_output_adapter@D@__crt_stdio_output@@V?$positional_parameter_base@DV?$stream_output_adapter@D@__crt_stdio_output@@@2@@1@AAE_NXZ@@Z 400d649a f i libucrt:output.obj
 0001:000d554b       ??$extract_argument_from_va_list@PAUansi_string@?1??type_case_Z@?$output_processor@DV?$stream_output_adapter@D@__crt_stdio_output@@V?$positional_parameter_base@DV?$stream_output_adapter@D@__crt_stdio_output@@@2@@__crt_stdio_output@@AAE_NXZ@PAU1?1??234@AAE_NXZ@@?$standard_base@DV?$stream_output_adapter@D@__crt_stdio_output@@@__crt_stdio_output@@IAE_NAAPAUansi_string@?1??type_case_Z@?$output_processor@DV?$stream_output_adapter@D@__crt_stdio_output@@V?$positional_parameter_base@DV?$stream_output_adapter@D@__crt_stdio_output@@@2@@1@AAE_NXZ@@Z 400d654b f i libucrt:output.obj
 0001:000d556f       ??$extract_argument_from_va_list@PAUansi_string@?1??type_case_Z@?$output_processor@DV?$stream_output_adapter@D@__crt_stdio_output@@V?$standard_base@DV?$stream_output_adapter@D@__crt_stdio_output@@@2@@__crt_stdio_output@@AAE_NXZ@PAU1?1??234@AAE_NXZ@@?$standard_base@DV?$stream_output_adapter@D@__crt_stdio_output@@@__crt_stdio_output@@IAE_NAAPAUansi_string@?1??type_case_Z@?$output_processor@DV?$stream_output_adapter@D@__crt_stdio_output@@V?$standard_base@DV?$stream_output_adapter@D@__crt_stdio_output@@@2@@1@AAE_NXZ@@Z 400d656f f i libucrt:output.obj
 0001:000d5593       ??$extract_argument_from_va_list@PAUansi_string@?1??type_case_Z@?$output_processor@DV?$string_output_adapter@D@__crt_stdio_output@@V?$format_validation_base@DV?$string_output_adapter@D@__crt_stdio_output@@@2@@__crt_stdio_output@@AAE_NXZ@PAU1?1??234@AAE_NXZ@@?$standard_base@DV?$string_output_adapter@D@__crt_stdio_output@@@__crt_stdio_output@@IAE_NAAPAUansi_string@?1??type_case_Z@?$output_processor@DV?$string_output_adapter@D@__crt_stdio_output@@V?$format_validation_base@DV?$string_output_adapter@D@__crt_stdio_output@@@2@@1@AAE_NXZ@@Z 400d6593 f i libucrt:output.obj
 0001:000d55b7       ??$extract_argument_from_va_list@PAUansi_string@?1??type_case_Z@?$output_processor@DV?$string_output_adapter@D@__crt_stdio_output@@V?$positional_parameter_base@DV?$string_output_adapter@D@__crt_stdio_output@@@2@@__crt_stdio_output@@AAE_NXZ@PAU1?1??234@AAE_NXZ@@?$positional_parameter_base@DV?$string_output_adapter@D@__crt_stdio_output@@@__crt_stdio_output@@IAE_NAAPAUansi_string@?1??type_case_Z@?$output_processor@DV?$string_output_adapter@D@__crt_stdio_output@@V?$positional_parameter_base@DV?$string_output_adapter@D@__crt_stdio_output@@@2@@1@AAE_NXZ@@Z 400d65b7 f i libucrt:output.obj
 0001:000d5668       ??$extract_argument_from_va_list@PAUansi_string@?1??type_case_Z@?$output_processor@DV?$string_output_adapter@D@__crt_stdio_output@@V?$positional_parameter_base@DV?$string_output_adapter@D@__crt_stdio_output@@@2@@__crt_stdio_output@@AAE_NXZ@PAU1?1??234@AAE_NXZ@@?$standard_base@DV?$string_output_adapter@D@__crt_stdio_output@@@__crt_stdio_output@@IAE_NAAPAUansi_string@?1??type_case_Z@?$output_processor@DV?$string_output_adapter@D@__crt_stdio_output@@V?$positional_parameter_base@DV?$string_output_adapter@D@__crt_stdio_output@@@2@@1@AAE_NXZ@@Z 400d6668 f i libucrt:output.obj
 0001:000d568c       ??$extract_argument_from_va_list@PAUansi_string@?1??type_case_Z@?$output_processor@DV?$string_output_adapter@D@__crt_stdio_output@@V?$standard_base@DV?$string_output_adapter@D@__crt_stdio_output@@@2@@__crt_stdio_output@@AAE_NXZ@PAU1?1??234@AAE_NXZ@@?$standard_base@DV?$string_output_adapter@D@__crt_stdio_output@@@__crt_stdio_output@@IAE_NAAPAUansi_string@?1??type_case_Z@?$output_processor@DV?$string_output_adapter@D@__crt_stdio_output@@V?$standard_base@DV?$string_output_adapter@D@__crt_stdio_output@@@2@@1@AAE_NXZ@@Z 400d668c f i libucrt:output.obj
 0001:000d56b0       ??$extract_argument_from_va_list@PAUansi_string@?1??type_case_Z@?$output_processor@_WV?$stream_output_adapter@_W@__crt_stdio_output@@V?$format_validation_base@_WV?$stream_output_adapter@_W@__crt_stdio_output@@@2@@__crt_stdio_output@@AAE_NXZ@PAU1?1??234@AAE_NXZ@@?$standard_base@_WV?$stream_output_adapter@_W@__crt_stdio_output@@@__crt_stdio_output@@IAE_NAAPAUansi_string@?1??type_case_Z@?$output_processor@_WV?$stream_output_adapter@_W@__crt_stdio_output@@V?$format_validation_base@_WV?$stream_output_adapter@_W@__crt_stdio_output@@@2@@1@AAE_NXZ@@Z 400d66b0 f i libucrt:output.obj
 0001:000d56d4       ??$extract_argument_from_va_list@PAUansi_string@?1??type_case_Z@?$output_processor@_WV?$stream_output_adapter@_W@__crt_stdio_output@@V?$positional_parameter_base@_WV?$stream_output_adapter@_W@__crt_stdio_output@@@2@@__crt_stdio_output@@AAE_NXZ@PAU1?1??234@AAE_NXZ@@?$positional_parameter_base@_WV?$stream_output_adapter@_W@__crt_stdio_output@@@__crt_stdio_output@@IAE_NAAPAUansi_string@?1??type_case_Z@?$output_processor@_WV?$stream_output_adapter@_W@__crt_stdio_output@@V?$positional_parameter_base@_WV?$stream_output_adapter@_W@__crt_stdio_output@@@2@@1@AAE_NXZ@@Z 400d66d4 f i libucrt:output.obj
 0001:000d5786       ??$extract_argument_from_va_list@PAUansi_string@?1??type_case_Z@?$output_processor@_WV?$stream_output_adapter@_W@__crt_stdio_output@@V?$positional_parameter_base@_WV?$stream_output_adapter@_W@__crt_stdio_output@@@2@@__crt_stdio_output@@AAE_NXZ@PAU1?1??234@AAE_NXZ@@?$standard_base@_WV?$stream_output_adapter@_W@__crt_stdio_output@@@__crt_stdio_output@@IAE_NAAPAUansi_string@?1??type_case_Z@?$output_processor@_WV?$stream_output_adapter@_W@__crt_stdio_output@@V?$positional_parameter_base@_WV?$stream_output_adapter@_W@__crt_stdio_output@@@2@@1@AAE_NXZ@@Z 400d6786 f i libucrt:output.obj
 0001:000d57aa       ??$extract_argument_from_va_list@PAUansi_string@?1??type_case_Z@?$output_processor@_WV?$stream_output_adapter@_W@__crt_stdio_output@@V?$standard_base@_WV?$stream_output_adapter@_W@__crt_stdio_output@@@2@@__crt_stdio_output@@AAE_NXZ@PAU1?1??234@AAE_NXZ@@?$standard_base@_WV?$stream_output_adapter@_W@__crt_stdio_output@@@__crt_stdio_output@@IAE_NAAPAUansi_string@?1??type_case_Z@?$output_processor@_WV?$stream_output_adapter@_W@__crt_stdio_output@@V?$standard_base@_WV?$stream_output_adapter@_W@__crt_stdio_output@@@2@@1@AAE_NXZ@@Z 400d67aa f i libucrt:output.obj
 0001:000d57ce       ??$extract_argument_from_va_list@PAUansi_string@?1??type_case_Z@?$output_processor@_WV?$string_output_adapter@_W@__crt_stdio_output@@V?$format_validation_base@_WV?$string_output_adapter@_W@__crt_stdio_output@@@2@@__crt_stdio_output@@AAE_NXZ@PAU1?1??234@AAE_NXZ@@?$standard_base@_WV?$string_output_adapter@_W@__crt_stdio_output@@@__crt_stdio_output@@IAE_NAAPAUansi_string@?1??type_case_Z@?$output_processor@_WV?$string_output_adapter@_W@__crt_stdio_output@@V?$format_validation_base@_WV?$string_output_adapter@_W@__crt_stdio_output@@@2@@1@AAE_NXZ@@Z 400d67ce f i libucrt:output.obj
 0001:000d57f2       ??$extract_argument_from_va_list@PAUansi_string@?1??type_case_Z@?$output_processor@_WV?$string_output_adapter@_W@__crt_stdio_output@@V?$positional_parameter_base@_WV?$string_output_adapter@_W@__crt_stdio_output@@@2@@__crt_stdio_output@@AAE_NXZ@PAU1?1??234@AAE_NXZ@@?$positional_parameter_base@_WV?$string_output_adapter@_W@__crt_stdio_output@@@__crt_stdio_output@@IAE_NAAPAUansi_string@?1??type_case_Z@?$output_processor@_WV?$string_output_adapter@_W@__crt_stdio_output@@V?$positional_parameter_base@_WV?$string_output_adapter@_W@__crt_stdio_output@@@2@@1@AAE_NXZ@@Z 400d67f2 f i libucrt:output.obj
 0001:000d58a4       ??$extract_argument_from_va_list@PAUansi_string@?1??type_case_Z@?$output_processor@_WV?$string_output_adapter@_W@__crt_stdio_output@@V?$positional_parameter_base@_WV?$string_output_adapter@_W@__crt_stdio_output@@@2@@__crt_stdio_output@@AAE_NXZ@PAU1?1??234@AAE_NXZ@@?$standard_base@_WV?$string_output_adapter@_W@__crt_stdio_output@@@__crt_stdio_output@@IAE_NAAPAUansi_string@?1??type_case_Z@?$output_processor@_WV?$string_output_adapter@_W@__crt_stdio_output@@V?$positional_parameter_base@_WV?$string_output_adapter@_W@__crt_stdio_output@@@2@@1@AAE_NXZ@@Z 400d68a4 f i libucrt:output.obj
 0001:000d58c8       ??$extract_argument_from_va_list@PAUansi_string@?1??type_case_Z@?$output_processor@_WV?$string_output_adapter@_W@__crt_stdio_output@@V?$standard_base@_WV?$string_output_adapter@_W@__crt_stdio_output@@@2@@__crt_stdio_output@@AAE_NXZ@PAU1?1??234@AAE_NXZ@@?$standard_base@_WV?$string_output_adapter@_W@__crt_stdio_output@@@__crt_stdio_output@@IAE_NAAPAUansi_string@?1??type_case_Z@?$output_processor@_WV?$string_output_adapter@_W@__crt_stdio_output@@V?$standard_base@_WV?$string_output_adapter@_W@__crt_stdio_output@@@2@@1@AAE_NXZ@@Z 400d68c8 f i libucrt:output.obj
 0001:000d58ec       ??$extract_argument_from_va_list@PAXPAX@?$positional_parameter_base@DV?$stream_output_adapter@D@__crt_stdio_output@@@__crt_stdio_output@@IAE_NAAPAX@Z 400d68ec f i libucrt:output.obj
 0001:000d599d       ??$extract_argument_from_va_list@PAXPAX@?$positional_parameter_base@DV?$string_output_adapter@D@__crt_stdio_output@@@__crt_stdio_output@@IAE_NAAPAX@Z 400d699d f i libucrt:output.obj
 0001:000d5a4e       ??$extract_argument_from_va_list@PAXPAX@?$positional_parameter_base@_WV?$stream_output_adapter@_W@__crt_stdio_output@@@__crt_stdio_output@@IAE_NAAPAX@Z 400d6a4e f i libucrt:output.obj
 0001:000d5b00       ??$extract_argument_from_va_list@PAXPAX@?$positional_parameter_base@_WV?$string_output_adapter@_W@__crt_stdio_output@@@__crt_stdio_output@@IAE_NAAPAX@Z 400d6b00 f i libucrt:output.obj
 0001:000d5bb2       ??$extract_argument_from_va_list@PAXPAX@?$standard_base@DV?$stream_output_adapter@D@__crt_stdio_output@@@__crt_stdio_output@@IAE_NAAPAX@Z 400d6bb2 f i libucrt:output.obj
 0001:000d5bd6       ??$extract_argument_from_va_list@PAXPAX@?$standard_base@DV?$string_output_adapter@D@__crt_stdio_output@@@__crt_stdio_output@@IAE_NAAPAX@Z 400d6bd6 f i libucrt:output.obj
 0001:000d5bfa       ??$extract_argument_from_va_list@PAXPAX@?$standard_base@_WV?$stream_output_adapter@_W@__crt_stdio_output@@@__crt_stdio_output@@IAE_NAAPAX@Z 400d6bfa f i libucrt:output.obj
 0001:000d5c1e       ??$extract_argument_from_va_list@PAXPAX@?$standard_base@_WV?$string_output_adapter@_W@__crt_stdio_output@@@__crt_stdio_output@@IAE_NAAPAX@Z 400d6c1e f i libucrt:output.obj
 0001:000d5c42       ??$extract_argument_from_va_list@U_CRT_DOUBLE@@U1@@?$positional_parameter_base@DV?$stream_output_adapter@D@__crt_stdio_output@@@__crt_stdio_output@@IAE_NAAU_CRT_DOUBLE@@@Z 400d6c42 f i libucrt:output.obj
 0001:000d5cfd       ??$extract_argument_from_va_list@U_CRT_DOUBLE@@U1@@?$positional_parameter_base@DV?$string_output_adapter@D@__crt_stdio_output@@@__crt_stdio_output@@IAE_NAAU_CRT_DOUBLE@@@Z 400d6cfd f i libucrt:output.obj
 0001:000d5db8       ??$extract_argument_from_va_list@U_CRT_DOUBLE@@U1@@?$positional_parameter_base@_WV?$stream_output_adapter@_W@__crt_stdio_output@@@__crt_stdio_output@@IAE_NAAU_CRT_DOUBLE@@@Z 400d6db8 f i libucrt:output.obj
 0001:000d5e74       ??$extract_argument_from_va_list@U_CRT_DOUBLE@@U1@@?$positional_parameter_base@_WV?$string_output_adapter@_W@__crt_stdio_output@@@__crt_stdio_output@@IAE_NAAU_CRT_DOUBLE@@@Z 400d6e74 f i libucrt:output.obj
 0001:000d5f30       ??$extract_argument_from_va_list@U_CRT_DOUBLE@@U1@@?$standard_base@DV?$stream_output_adapter@D@__crt_stdio_output@@@__crt_stdio_output@@IAE_NAAU_CRT_DOUBLE@@@Z 400d6f30 f i libucrt:output.obj
 0001:000d5f59       ??$extract_argument_from_va_list@U_CRT_DOUBLE@@U1@@?$standard_base@DV?$string_output_adapter@D@__crt_stdio_output@@@__crt_stdio_output@@IAE_NAAU_CRT_DOUBLE@@@Z 400d6f59 f i libucrt:output.obj
 0001:000d5f82       ??$extract_argument_from_va_list@U_CRT_DOUBLE@@U1@@?$standard_base@_WV?$stream_output_adapter@_W@__crt_stdio_output@@@__crt_stdio_output@@IAE_NAAU_CRT_DOUBLE@@@Z 400d6f82 f i libucrt:output.obj
 0001:000d5fab       ??$extract_argument_from_va_list@U_CRT_DOUBLE@@U1@@?$standard_base@_WV?$string_output_adapter@_W@__crt_stdio_output@@@__crt_stdio_output@@IAE_NAAU_CRT_DOUBLE@@@Z 400d6fab f i libucrt:output.obj
 0001:000d5fd4       ??$extract_argument_from_va_list@_J_J@?$positional_parameter_base@DV?$stream_output_adapter@D@__crt_stdio_output@@@__crt_stdio_output@@IAE_NAA_J@Z 400d6fd4 f i libucrt:output.obj
 0001:000d6094       ??$extract_argument_from_va_list@_J_J@?$positional_parameter_base@DV?$string_output_adapter@D@__crt_stdio_output@@@__crt_stdio_output@@IAE_NAA_J@Z 400d7094 f i libucrt:output.obj
 0001:000d6154       ??$extract_argument_from_va_list@_J_J@?$positional_parameter_base@_WV?$stream_output_adapter@_W@__crt_stdio_output@@@__crt_stdio_output@@IAE_NAA_J@Z 400d7154 f i libucrt:output.obj
 0001:000d6215       ??$extract_argument_from_va_list@_J_J@?$positional_parameter_base@_WV?$string_output_adapter@_W@__crt_stdio_output@@@__crt_stdio_output@@IAE_NAA_J@Z 400d7215 f i libucrt:output.obj
 0001:000d62d6       ??$extract_argument_from_va_list@_J_J@?$standard_base@DV?$stream_output_adapter@D@__crt_stdio_output@@@__crt_stdio_output@@IAE_NAA_J@Z 400d72d6 f i libucrt:output.obj
 0001:000d62ff       ??$extract_argument_from_va_list@_J_J@?$standard_base@DV?$string_output_adapter@D@__crt_stdio_output@@@__crt_stdio_output@@IAE_NAA_J@Z 400d72ff f i libucrt:output.obj
 0001:000d6328       ??$extract_argument_from_va_list@_J_J@?$standard_base@_WV?$stream_output_adapter@_W@__crt_stdio_output@@@__crt_stdio_output@@IAE_NAA_J@Z 400d7328 f i libucrt:output.obj
 0001:000d6351       ??$extract_argument_from_va_list@_J_J@?$standard_base@_WV?$string_output_adapter@_W@__crt_stdio_output@@@__crt_stdio_output@@IAE_NAA_J@Z 400d7351 f i libucrt:output.obj
 0001:000d637a       ??$extract_argument_from_va_list@_K_J@?$positional_parameter_base@DV?$stream_output_adapter@D@__crt_stdio_output@@@__crt_stdio_output@@IAE_NAA_J@Z 400d737a f i libucrt:output.obj
 0001:000d643a       ??$extract_argument_from_va_list@_K_J@?$positional_parameter_base@DV?$string_output_adapter@D@__crt_stdio_output@@@__crt_stdio_output@@IAE_NAA_J@Z 400d743a f i libucrt:output.obj
 0001:000d64fa       ??$extract_argument_from_va_list@_K_J@?$positional_parameter_base@_WV?$stream_output_adapter@_W@__crt_stdio_output@@@__crt_stdio_output@@IAE_NAA_J@Z 400d74fa f i libucrt:output.obj
 0001:000d65bb       ??$extract_argument_from_va_list@_K_J@?$positional_parameter_base@_WV?$string_output_adapter@_W@__crt_stdio_output@@@__crt_stdio_output@@IAE_NAA_J@Z 400d75bb f i libucrt:output.obj
 0001:000d667c       ??$extract_argument_from_va_list@_K_J@?$standard_base@DV?$stream_output_adapter@D@__crt_stdio_output@@@__crt_stdio_output@@IAE_NAA_J@Z 400d767c f i libucrt:output.obj
 0001:000d66a5       ??$extract_argument_from_va_list@_K_J@?$standard_base@DV?$string_output_adapter@D@__crt_stdio_output@@@__crt_stdio_output@@IAE_NAA_J@Z 400d76a5 f i libucrt:output.obj
 0001:000d66ce       ??$extract_argument_from_va_list@_K_J@?$standard_base@_WV?$stream_output_adapter@_W@__crt_stdio_output@@@__crt_stdio_output@@IAE_NAA_J@Z 400d76ce f i libucrt:output.obj
 0001:000d66f7       ??$extract_argument_from_va_list@_K_J@?$standard_base@_WV?$string_output_adapter@_W@__crt_stdio_output@@@__crt_stdio_output@@IAE_NAA_J@Z 400d76f7 f i libucrt:output.obj
 0001:000d6720       ??$extract_argument_from_va_list@_W_W@?$positional_parameter_base@DV?$stream_output_adapter@D@__crt_stdio_output@@@__crt_stdio_output@@IAE_NAA_W@Z 400d7720 f i libucrt:output.obj
 0001:000d67d6       ??$extract_argument_from_va_list@_W_W@?$positional_parameter_base@DV?$string_output_adapter@D@__crt_stdio_output@@@__crt_stdio_output@@IAE_NAA_W@Z 400d77d6 f i libucrt:output.obj
 0001:000d688c       ??$extract_argument_from_va_list@_W_W@?$positional_parameter_base@_WV?$stream_output_adapter@_W@__crt_stdio_output@@@__crt_stdio_output@@IAE_NAA_W@Z 400d788c f i libucrt:output.obj
 0001:000d6943       ??$extract_argument_from_va_list@_W_W@?$positional_parameter_base@_WV?$string_output_adapter@_W@__crt_stdio_output@@@__crt_stdio_output@@IAE_NAA_W@Z 400d7943 f i libucrt:output.obj
 0001:000d69fa       ??$extract_argument_from_va_list@_W_W@?$standard_base@DV?$stream_output_adapter@D@__crt_stdio_output@@@__crt_stdio_output@@IAE_NAA_W@Z 400d79fa f i libucrt:output.obj
 0001:000d6a20       ??$extract_argument_from_va_list@_W_W@?$standard_base@DV?$string_output_adapter@D@__crt_stdio_output@@@__crt_stdio_output@@IAE_NAA_W@Z 400d7a20 f i libucrt:output.obj
 0001:000d6a46       ??$extract_argument_from_va_list@_W_W@?$standard_base@_WV?$stream_output_adapter@_W@__crt_stdio_output@@@__crt_stdio_output@@IAE_NAA_W@Z 400d7a46 f i libucrt:output.obj
 0001:000d6a6c       ??$extract_argument_from_va_list@_W_W@?$standard_base@_WV?$string_output_adapter@_W@__crt_stdio_output@@@__crt_stdio_output@@IAE_NAA_W@Z 400d7a6c f i libucrt:output.obj
 0001:000d6a92       ??$get_parameter_type@D@?$positional_parameter_base@DV?$stream_output_adapter@D@__crt_stdio_output@@@__crt_stdio_output@@CA?AW4parameter_type@01@PAD@Z 400d7a92 f i libucrt:output.obj
 0001:000d6a96       ??$get_parameter_type@D@?$positional_parameter_base@DV?$string_output_adapter@D@__crt_stdio_output@@@__crt_stdio_output@@CA?AW4parameter_type@01@PAD@Z 400d7a96 f i libucrt:output.obj
 0001:000d6a9a       ??$get_parameter_type@D@?$positional_parameter_base@_WV?$stream_output_adapter@_W@__crt_stdio_output@@@__crt_stdio_output@@CA?AW4parameter_type@01@PAD@Z 400d7a9a f i libucrt:output.obj
 0001:000d6a9e       ??$get_parameter_type@D@?$positional_parameter_base@_WV?$string_output_adapter@_W@__crt_stdio_output@@@__crt_stdio_output@@CA?AW4parameter_type@01@PAD@Z 400d7a9e f i libucrt:output.obj
 0001:000d6aa2       ??$get_parameter_type@Uansi_string@?1??type_case_Z@?$output_processor@DV?$stream_output_adapter@D@__crt_stdio_output@@V?$positional_parameter_base@DV?$stream_output_adapter@D@__crt_stdio_output@@@2@@__crt_stdio_output@@AAE_NXZ@@?$positional_parameter_base@DV?$stream_output_adapter@D@__crt_stdio_output@@@__crt_stdio_output@@CA?AW4parameter_type@01@PAUansi_string@?1??type_case_Z@?$output_processor@DV?$stream_output_adapter@D@__crt_stdio_output@@V?$positional_parameter_base@DV?$stream_output_adapter@D@__crt_stdio_output@@@2@@1@AAE_NXZ@@Z 400d7aa2 f i libucrt:output.obj
 0001:000d6aa6       ??$get_parameter_type@Uansi_string@?1??type_case_Z@?$output_processor@DV?$string_output_adapter@D@__crt_stdio_output@@V?$positional_parameter_base@DV?$string_output_adapter@D@__crt_stdio_output@@@2@@__crt_stdio_output@@AAE_NXZ@@?$positional_parameter_base@DV?$string_output_adapter@D@__crt_stdio_output@@@__crt_stdio_output@@CA?AW4parameter_type@01@PAUansi_string@?1??type_case_Z@?$output_processor@DV?$string_output_adapter@D@__crt_stdio_output@@V?$positional_parameter_base@DV?$string_output_adapter@D@__crt_stdio_output@@@2@@1@AAE_NXZ@@Z 400d7aa6 f i libucrt:output.obj
 0001:000d6aaa       ??$get_parameter_type@Uansi_string@?1??type_case_Z@?$output_processor@_WV?$stream_output_adapter@_W@__crt_stdio_output@@V?$positional_parameter_base@_WV?$stream_output_adapter@_W@__crt_stdio_output@@@2@@__crt_stdio_output@@AAE_NXZ@@?$positional_parameter_base@_WV?$stream_output_adapter@_W@__crt_stdio_output@@@__crt_stdio_output@@CA?AW4parameter_type@01@PAUansi_string@?1??type_case_Z@?$output_processor@_WV?$stream_output_adapter@_W@__crt_stdio_output@@V?$positional_parameter_base@_WV?$stream_output_adapter@_W@__crt_stdio_output@@@2@@1@AAE_NXZ@@Z 400d7aaa f i libucrt:output.obj
 0001:000d6aae       ??$get_parameter_type@Uansi_string@?1??type_case_Z@?$output_processor@_WV?$string_output_adapter@_W@__crt_stdio_output@@V?$positional_parameter_base@_WV?$string_output_adapter@_W@__crt_stdio_output@@@2@@__crt_stdio_output@@AAE_NXZ@@?$positional_parameter_base@_WV?$string_output_adapter@_W@__crt_stdio_output@@@__crt_stdio_output@@CA?AW4parameter_type@01@PAUansi_string@?1??type_case_Z@?$output_processor@_WV?$string_output_adapter@_W@__crt_stdio_output@@V?$positional_parameter_base@_WV?$string_output_adapter@_W@__crt_stdio_output@@@2@@1@AAE_NXZ@@Z 400d7aae f i libucrt:output.obj
 0001:000d6ab2       ??$get_parameter_type@X@?$positional_parameter_base@DV?$stream_output_adapter@D@__crt_stdio_output@@@__crt_stdio_output@@CA?AW4parameter_type@01@PAX@Z 400d7ab2 f i libucrt:output.obj
 0001:000d6ab6       ??$get_parameter_type@X@?$positional_parameter_base@DV?$string_output_adapter@D@__crt_stdio_output@@@__crt_stdio_output@@CA?AW4parameter_type@01@PAX@Z 400d7ab6 f i libucrt:output.obj
 0001:000d6aba       ??$get_parameter_type@X@?$positional_parameter_base@_WV?$stream_output_adapter@_W@__crt_stdio_output@@@__crt_stdio_output@@CA?AW4parameter_type@01@PAX@Z 400d7aba f i libucrt:output.obj
 0001:000d6abe       ??$get_parameter_type@X@?$positional_parameter_base@_WV?$string_output_adapter@_W@__crt_stdio_output@@@__crt_stdio_output@@CA?AW4parameter_type@01@PAX@Z 400d7abe f i libucrt:output.obj
 0001:000d6ac2       ??$is_character_specifier@D@?$positional_parameter_base@DV?$stream_output_adapter@D@__crt_stdio_output@@@__crt_stdio_output@@CA_ND@Z 400d7ac2 f i libucrt:output.obj
 0001:000d6ae0       ??$is_character_specifier@D@?$positional_parameter_base@DV?$string_output_adapter@D@__crt_stdio_output@@@__crt_stdio_output@@CA_ND@Z 400d7ae0 f i libucrt:output.obj
 0001:000d6afe       ??$is_character_specifier@_W@?$positional_parameter_base@_WV?$stream_output_adapter@_W@__crt_stdio_output@@@__crt_stdio_output@@CA_N_W@Z 400d7afe f i libucrt:output.obj
 0001:000d6b1f       ??$is_character_specifier@_W@?$positional_parameter_base@_WV?$string_output_adapter@_W@__crt_stdio_output@@@__crt_stdio_output@@CA_N_W@Z 400d7b1f f i libucrt:output.obj
 0001:000d6b40       ??$is_integral_specifier@D@?$positional_parameter_base@DV?$stream_output_adapter@D@__crt_stdio_output@@@__crt_stdio_output@@CA_ND@Z 400d7b40 f i libucrt:output.obj
 0001:000d6b77       ??$is_integral_specifier@D@?$positional_parameter_base@DV?$string_output_adapter@D@__crt_stdio_output@@@__crt_stdio_output@@CA_ND@Z 400d7b77 f i libucrt:output.obj
 0001:000d6bae       ??$is_integral_specifier@_W@?$positional_parameter_base@_WV?$stream_output_adapter@_W@__crt_stdio_output@@@__crt_stdio_output@@CA_N_W@Z 400d7bae f i libucrt:output.obj
 0001:000d6bf7       ??$is_integral_specifier@_W@?$positional_parameter_base@_WV?$string_output_adapter@_W@__crt_stdio_output@@@__crt_stdio_output@@CA_N_W@Z 400d7bf7 f i libucrt:output.obj
 0001:000d6c40       ??$is_pointer_specifier@D@?$positional_parameter_base@DV?$stream_output_adapter@D@__crt_stdio_output@@@__crt_stdio_output@@CA_ND@Z 400d7c40 f i libucrt:output.obj
 0001:000d6c51       ??$is_pointer_specifier@D@?$positional_parameter_base@DV?$string_output_adapter@D@__crt_stdio_output@@@__crt_stdio_output@@CA_ND@Z 400d7c51 f i libucrt:output.obj
 0001:000d6c62       ??$is_pointer_specifier@_W@?$positional_parameter_base@_WV?$stream_output_adapter@_W@__crt_stdio_output@@@__crt_stdio_output@@CA_N_W@Z 400d7c62 f i libucrt:output.obj
 0001:000d6c74       ??$is_pointer_specifier@_W@?$positional_parameter_base@_WV?$string_output_adapter@_W@__crt_stdio_output@@@__crt_stdio_output@@CA_N_W@Z 400d7c74 f i libucrt:output.obj
 0001:000d6c86       ??$is_string_specifier@D@?$positional_parameter_base@DV?$stream_output_adapter@D@__crt_stdio_output@@@__crt_stdio_output@@CA_ND@Z 400d7c86 f i libucrt:output.obj
 0001:000d6ca4       ??$is_string_specifier@D@?$positional_parameter_base@DV?$string_output_adapter@D@__crt_stdio_output@@@__crt_stdio_output@@CA_ND@Z 400d7ca4 f i libucrt:output.obj
 0001:000d6cc2       ??$is_string_specifier@_W@?$positional_parameter_base@_WV?$stream_output_adapter@_W@__crt_stdio_output@@@__crt_stdio_output@@CA_N_W@Z 400d7cc2 f i libucrt:output.obj
 0001:000d6ce3       ??$is_string_specifier@_W@?$positional_parameter_base@_WV?$string_output_adapter@_W@__crt_stdio_output@@@__crt_stdio_output@@CA_N_W@Z 400d7ce3 f i libucrt:output.obj
 0001:000d6d04       ??$is_wide_character_specifier@D@__crt_stdio_output@@YA_N_KDW4length_modifier@0@@Z 400d7d04 f i libucrt:output.obj
 0001:000d6d41       ??$is_wide_character_specifier@_W@__crt_stdio_output@@YA_N_K_WW4length_modifier@0@@Z 400d7d41 f i libucrt:output.obj
 0001:000d6da2       ??$make_c_string_character_source@DPAPAD@__crt_strtox@@YA?AV?$c_string_character_source@D@0@QBDQAPAD@Z 400d7da2 f i libucrt:output.obj
 0001:000d6dc3       ??$make_c_string_character_source@_WPAPA_W@__crt_strtox@@YA?AV?$c_string_character_source@_W@0@QB_WQAPA_W@Z 400d7dc3 f i libucrt:output.obj
 0001:000d6de4       ??$parse_integer@KV?$c_string_character_source@D@__crt_strtox@@$0A@@__crt_strtox@@YAKAAV__crt_cached_ptd_host@@V?$c_string_character_source@D@0@H_N@Z 400d7de4 f i libucrt:output.obj
 0001:000d707b       ??$parse_integer@KV?$c_string_character_source@_W@__crt_strtox@@$0A@@__crt_strtox@@YAKAAV__crt_cached_ptd_host@@V?$c_string_character_source@_W@0@H_N@Z 400d807b f i libucrt:output.obj
 0001:000d77d8       ??$peek_va_arg@C@__crt_stdio_output@@YACPAD@Z 400d87d8 f i libucrt:output.obj
 0001:000d77e7       ??$peek_va_arg@E@__crt_stdio_output@@YAEPAD@Z 400d87e7 f i libucrt:output.obj
 0001:000d77f6       ??$peek_va_arg@F@__crt_stdio_output@@YAFPAD@Z 400d87f6 f i libucrt:output.obj
 0001:000d7806       ??$peek_va_arg@G@__crt_stdio_output@@YAGPAD@Z 400d8806 f i libucrt:output.obj
 0001:000d7816       ??$peek_va_arg@H@__crt_stdio_output@@YAHPAD@Z 400d8816 f i libucrt:output.obj
 0001:000d7825       ??$peek_va_arg@I@__crt_stdio_output@@YAIPAD@Z 400d8825 f i libucrt:output.obj
 0001:000d7834       ??$peek_va_arg@PAD@__crt_stdio_output@@YAPADPAD@Z 400d8834 f i libucrt:output.obj
 0001:000d7843       ??$peek_va_arg@PAUansi_string@?1??type_case_Z@?$output_processor@DV?$stream_output_adapter@D@__crt_stdio_output@@V?$positional_parameter_base@DV?$stream_output_adapter@D@__crt_stdio_output@@@2@@__crt_stdio_output@@AAE_NXZ@@__crt_stdio_output@@YAPAUansi_string@?1??type_case_Z@?$output_processor@DV?$stream_output_adapter@D@__crt_stdio_output@@V?$positional_parameter_base@DV?$stream_output_adapter@D@__crt_stdio_output@@@2@@0@AAE_NXZ@PAD@Z 400d8843 f i libucrt:output.obj
 0001:000d7852       ??$peek_va_arg@PAUansi_string@?1??type_case_Z@?$output_processor@DV?$string_output_adapter@D@__crt_stdio_output@@V?$positional_parameter_base@DV?$string_output_adapter@D@__crt_stdio_output@@@2@@__crt_stdio_output@@AAE_NXZ@@__crt_stdio_output@@YAPAUansi_string@?1??type_case_Z@?$output_processor@DV?$string_output_adapter@D@__crt_stdio_output@@V?$positional_parameter_base@DV?$string_output_adapter@D@__crt_stdio_output@@@2@@0@AAE_NXZ@PAD@Z 400d8852 f i libucrt:output.obj
 0001:000d7861       ??$peek_va_arg@PAUansi_string@?1??type_case_Z@?$output_processor@_WV?$stream_output_adapter@_W@__crt_stdio_output@@V?$positional_parameter_base@_WV?$stream_output_adapter@_W@__crt_stdio_output@@@2@@__crt_stdio_output@@AAE_NXZ@@__crt_stdio_output@@YAPAUansi_string@?1??type_case_Z@?$output_processor@_WV?$stream_output_adapter@_W@__crt_stdio_output@@V?$positional_parameter_base@_WV?$stream_output_adapter@_W@__crt_stdio_output@@@2@@0@AAE_NXZ@PAD@Z 400d8861 f i libucrt:output.obj
 0001:000d7870       ??$peek_va_arg@PAUansi_string@?1??type_case_Z@?$output_processor@_WV?$string_output_adapter@_W@__crt_stdio_output@@V?$positional_parameter_base@_WV?$string_output_adapter@_W@__crt_stdio_output@@@2@@__crt_stdio_output@@AAE_NXZ@@__crt_stdio_output@@YAPAUansi_string@?1??type_case_Z@?$output_processor@_WV?$string_output_adapter@_W@__crt_stdio_output@@V?$positional_parameter_base@_WV?$string_output_adapter@_W@__crt_stdio_output@@@2@@0@AAE_NXZ@PAD@Z 400d8870 f i libucrt:output.obj
 0001:000d787f       ??$peek_va_arg@PAX@__crt_stdio_output@@YAPAXPAD@Z 400d887f f i libucrt:output.obj
 0001:000d788e       ??$peek_va_arg@U_CRT_DOUBLE@@@__crt_stdio_output@@YA?AU_CRT_DOUBLE@@PAD@Z 400d888e f i libucrt:output.obj
 0001:000d78a0       ??$peek_va_arg@_J@__crt_stdio_output@@YA_JPAD@Z 400d88a0 f i libucrt:output.obj
 0001:000d78b2       ??$peek_va_arg@_K@__crt_stdio_output@@YA_KPAD@Z 400d88b2 f i libucrt:output.obj
 0001:000d78c4       ??$peek_va_arg@_W@__crt_stdio_output@@YA_WPAD@Z 400d88c4 f i libucrt:output.obj
 0001:000d78d4       ??$puttc_nolock_internal@ABDPAU_iobuf@@AAV__crt_cached_ptd_host@@@?$__crt_char_traits@D@@SAHABD$$QAPAU_iobuf@@AAV__crt_cached_ptd_host@@@Z 400d88d4 f i libucrt:output.obj
 0001:000d78f9       ??$puttc_nolock_internal@AB_WPAU_iobuf@@AAV__crt_cached_ptd_host@@@?$__crt_char_traits@_W@@SAGAB_W$$QAPAU_iobuf@@AAV__crt_cached_ptd_host@@@Z 400d88f9 f i libucrt:output.obj
 0001:000d791e       ??$read_va_arg@C@__crt_stdio_output@@YACAAPAD@Z 400d891e f i libucrt:output.obj
 0001:000d7935       ??$read_va_arg@E@__crt_stdio_output@@YAEAAPAD@Z 400d8935 f i libucrt:output.obj
 0001:000d794c       ??$read_va_arg@F@__crt_stdio_output@@YAFAAPAD@Z 400d894c f i libucrt:output.obj
 0001:000d7965       ??$read_va_arg@G@__crt_stdio_output@@YAGAAPAD@Z 400d8965 f i libucrt:output.obj
 0001:000d797e       ??$read_va_arg@H@__crt_stdio_output@@YAHAAPAD@Z 400d897e f i libucrt:output.obj
 0001:000d7995       ??$read_va_arg@I@__crt_stdio_output@@YAIAAPAD@Z 400d8995 f i libucrt:output.obj
 0001:000d79ac       ??$read_va_arg@PAD@__crt_stdio_output@@YAPADAAPAD@Z 400d89ac f i libucrt:output.obj
 0001:000d79c3       ??$read_va_arg@PAUansi_string@?1??type_case_Z@?$output_processor@DV?$stream_output_adapter@D@__crt_stdio_output@@V?$format_validation_base@DV?$stream_output_adapter@D@__crt_stdio_output@@@2@@__crt_stdio_output@@AAE_NXZ@@__crt_stdio_output@@YAPAUansi_string@?1??type_case_Z@?$output_processor@DV?$stream_output_adapter@D@__crt_stdio_output@@V?$format_validation_base@DV?$stream_output_adapter@D@__crt_stdio_output@@@2@@0@AAE_NXZ@AAPAD@Z 400d89c3 f i libucrt:output.obj
 0001:000d79da       ??$read_va_arg@PAUansi_string@?1??type_case_Z@?$output_processor@DV?$stream_output_adapter@D@__crt_stdio_output@@V?$positional_parameter_base@DV?$stream_output_adapter@D@__crt_stdio_output@@@2@@__crt_stdio_output@@AAE_NXZ@@__crt_stdio_output@@YAPAUansi_string@?1??type_case_Z@?$output_processor@DV?$stream_output_adapter@D@__crt_stdio_output@@V?$positional_parameter_base@DV?$stream_output_adapter@D@__crt_stdio_output@@@2@@0@AAE_NXZ@AAPAD@Z 400d89da f i libucrt:output.obj
 0001:000d79f1       ??$read_va_arg@PAUansi_string@?1??type_case_Z@?$output_processor@DV?$stream_output_adapter@D@__crt_stdio_output@@V?$standard_base@DV?$stream_output_adapter@D@__crt_stdio_output@@@2@@__crt_stdio_output@@AAE_NXZ@@__crt_stdio_output@@YAPAUansi_string@?1??type_case_Z@?$output_processor@DV?$stream_output_adapter@D@__crt_stdio_output@@V?$standard_base@DV?$stream_output_adapter@D@__crt_stdio_output@@@2@@0@AAE_NXZ@AAPAD@Z 400d89f1 f i libucrt:output.obj
 0001:000d7a08       ??$read_va_arg@PAUansi_string@?1??type_case_Z@?$output_processor@DV?$string_output_adapter@D@__crt_stdio_output@@V?$format_validation_base@DV?$string_output_adapter@D@__crt_stdio_output@@@2@@__crt_stdio_output@@AAE_NXZ@@__crt_stdio_output@@YAPAUansi_string@?1??type_case_Z@?$output_processor@DV?$string_output_adapter@D@__crt_stdio_output@@V?$format_validation_base@DV?$string_output_adapter@D@__crt_stdio_output@@@2@@0@AAE_NXZ@AAPAD@Z 400d8a08 f i libucrt:output.obj
 0001:000d7a1f       ??$read_va_arg@PAUansi_string@?1??type_case_Z@?$output_processor@DV?$string_output_adapter@D@__crt_stdio_output@@V?$positional_parameter_base@DV?$string_output_adapter@D@__crt_stdio_output@@@2@@__crt_stdio_output@@AAE_NXZ@@__crt_stdio_output@@YAPAUansi_string@?1??type_case_Z@?$output_processor@DV?$string_output_adapter@D@__crt_stdio_output@@V?$positional_parameter_base@DV?$string_output_adapter@D@__crt_stdio_output@@@2@@0@AAE_NXZ@AAPAD@Z 400d8a1f f i libucrt:output.obj
 0001:000d7a36       ??$read_va_arg@PAUansi_string@?1??type_case_Z@?$output_processor@DV?$string_output_adapter@D@__crt_stdio_output@@V?$standard_base@DV?$string_output_adapter@D@__crt_stdio_output@@@2@@__crt_stdio_output@@AAE_NXZ@@__crt_stdio_output@@YAPAUansi_string@?1??type_case_Z@?$output_processor@DV?$string_output_adapter@D@__crt_stdio_output@@V?$standard_base@DV?$string_output_adapter@D@__crt_stdio_output@@@2@@0@AAE_NXZ@AAPAD@Z 400d8a36 f i libucrt:output.obj
 0001:000d7a4d       ??$read_va_arg@PAUansi_string@?1??type_case_Z@?$output_processor@_WV?$stream_output_adapter@_W@__crt_stdio_output@@V?$format_validation_base@_WV?$stream_output_adapter@_W@__crt_stdio_output@@@2@@__crt_stdio_output@@AAE_NXZ@@__crt_stdio_output@@YAPAUansi_string@?1??type_case_Z@?$output_processor@_WV?$stream_output_adapter@_W@__crt_stdio_output@@V?$format_validation_base@_WV?$stream_output_adapter@_W@__crt_stdio_output@@@2@@0@AAE_NXZ@AAPAD@Z 400d8a4d f i libucrt:output.obj
 0001:000d7a64       ??$read_va_arg@PAUansi_string@?1??type_case_Z@?$output_processor@_WV?$stream_output_adapter@_W@__crt_stdio_output@@V?$positional_parameter_base@_WV?$stream_output_adapter@_W@__crt_stdio_output@@@2@@__crt_stdio_output@@AAE_NXZ@@__crt_stdio_output@@YAPAUansi_string@?1??type_case_Z@?$output_processor@_WV?$stream_output_adapter@_W@__crt_stdio_output@@V?$positional_parameter_base@_WV?$stream_output_adapter@_W@__crt_stdio_output@@@2@@0@AAE_NXZ@AAPAD@Z 400d8a64 f i libucrt:output.obj
 0001:000d7a7b       ??$read_va_arg@PAUansi_string@?1??type_case_Z@?$output_processor@_WV?$stream_output_adapter@_W@__crt_stdio_output@@V?$standard_base@_WV?$stream_output_adapter@_W@__crt_stdio_output@@@2@@__crt_stdio_output@@AAE_NXZ@@__crt_stdio_output@@YAPAUansi_string@?1??type_case_Z@?$output_processor@_WV?$stream_output_adapter@_W@__crt_stdio_output@@V?$standard_base@_WV?$stream_output_adapter@_W@__crt_stdio_output@@@2@@0@AAE_NXZ@AAPAD@Z 400d8a7b f i libucrt:output.obj
 0001:000d7a92       ??$read_va_arg@PAUansi_string@?1??type_case_Z@?$output_processor@_WV?$string_output_adapter@_W@__crt_stdio_output@@V?$format_validation_base@_WV?$string_output_adapter@_W@__crt_stdio_output@@@2@@__crt_stdio_output@@AAE_NXZ@@__crt_stdio_output@@YAPAUansi_string@?1??type_case_Z@?$output_processor@_WV?$string_output_adapter@_W@__crt_stdio_output@@V?$format_validation_base@_WV?$string_output_adapter@_W@__crt_stdio_output@@@2@@0@AAE_NXZ@AAPAD@Z 400d8a92 f i libucrt:output.obj
 0001:000d7aa9       ??$read_va_arg@PAUansi_string@?1??type_case_Z@?$output_processor@_WV?$string_output_adapter@_W@__crt_stdio_output@@V?$positional_parameter_base@_WV?$string_output_adapter@_W@__crt_stdio_output@@@2@@__crt_stdio_output@@AAE_NXZ@@__crt_stdio_output@@YAPAUansi_string@?1??type_case_Z@?$output_processor@_WV?$string_output_adapter@_W@__crt_stdio_output@@V?$positional_parameter_base@_WV?$string_output_adapter@_W@__crt_stdio_output@@@2@@0@AAE_NXZ@AAPAD@Z 400d8aa9 f i libucrt:output.obj
 0001:000d7ac0       ??$read_va_arg@PAUansi_string@?1??type_case_Z@?$output_processor@_WV?$string_output_adapter@_W@__crt_stdio_output@@V?$standard_base@_WV?$string_output_adapter@_W@__crt_stdio_output@@@2@@__crt_stdio_output@@AAE_NXZ@@__crt_stdio_output@@YAPAUansi_string@?1??type_case_Z@?$output_processor@_WV?$string_output_adapter@_W@__crt_stdio_output@@V?$standard_base@_WV?$string_output_adapter@_W@__crt_stdio_output@@@2@@0@AAE_NXZ@AAPAD@Z 400d8ac0 f i libucrt:output.obj
 0001:000d7ad7       ??$read_va_arg@PAX@__crt_stdio_output@@YAPAXAAPAD@Z 400d8ad7 f i libucrt:output.obj
 0001:000d7aee       ??$read_va_arg@U_CRT_DOUBLE@@@__crt_stdio_output@@YA?AU_CRT_DOUBLE@@AAPAD@Z 400d8aee f i libucrt:output.obj
 0001:000d7b09       ??$read_va_arg@_J@__crt_stdio_output@@YA_JAAPAD@Z 400d8b09 f i libucrt:output.obj
 0001:000d7b24       ??$read_va_arg@_K@__crt_stdio_output@@YA_KAAPAD@Z 400d8b24 f i libucrt:output.obj
 0001:000d7b3f       ??$read_va_arg@_W@__crt_stdio_output@@YA_WAAPAD@Z 400d8b3f f i libucrt:output.obj
 0001:000d7b58       ??$scratch_count@D@formatting_buffer@__crt_stdio_output@@QBEIXZ 400d8b58 f i libucrt:output.obj
 0001:000d7b5d       ??$scratch_data@D@formatting_buffer@__crt_stdio_output@@QAEPADXZ 400d8b5d f i libucrt:output.obj
 0001:000d7b82       ??$type_case_integer@$07@?$output_processor@DV?$stream_output_adapter@D@__crt_stdio_output@@V?$format_validation_base@DV?$stream_output_adapter@D@__crt_stdio_output@@@2@@__crt_stdio_output@@AAE_N_N@Z 400d8b82 f i libucrt:output.obj
 0001:000d7d72       ??$type_case_integer@$07@?$output_processor@DV?$stream_output_adapter@D@__crt_stdio_output@@V?$positional_parameter_base@DV?$stream_output_adapter@D@__crt_stdio_output@@@2@@__crt_stdio_output@@AAE_N_N@Z 400d8d72 f i libucrt:output.obj
 0001:000d7f87       ??$type_case_integer@$07@?$output_processor@DV?$stream_output_adapter@D@__crt_stdio_output@@V?$standard_base@DV?$stream_output_adapter@D@__crt_stdio_output@@@2@@__crt_stdio_output@@AAE_N_N@Z 400d8f87 f i libucrt:output.obj
 0001:000d8177       ??$type_case_integer@$07@?$output_processor@DV?$string_output_adapter@D@__crt_stdio_output@@V?$format_validation_base@DV?$string_output_adapter@D@__crt_stdio_output@@@2@@__crt_stdio_output@@AAE_N_N@Z 400d9177 f i libucrt:output.obj
 0001:000d8367       ??$type_case_integer@$07@?$output_processor@DV?$string_output_adapter@D@__crt_stdio_output@@V?$positional_parameter_base@DV?$string_output_adapter@D@__crt_stdio_output@@@2@@__crt_stdio_output@@AAE_N_N@Z 400d9367 f i libucrt:output.obj
 0001:000d857c       ??$type_case_integer@$07@?$output_processor@DV?$string_output_adapter@D@__crt_stdio_output@@V?$standard_base@DV?$string_output_adapter@D@__crt_stdio_output@@@2@@__crt_stdio_output@@AAE_N_N@Z 400d957c f i libucrt:output.obj
 0001:000d876c       ??$type_case_integer@$07@?$output_processor@_WV?$stream_output_adapter@_W@__crt_stdio_output@@V?$format_validation_base@_WV?$stream_output_adapter@_W@__crt_stdio_output@@@2@@__crt_stdio_output@@AAE_N_N@Z 400d976c f i libucrt:output.obj
 0001:000d8962       ??$type_case_integer@$07@?$output_processor@_WV?$stream_output_adapter@_W@__crt_stdio_output@@V?$positional_parameter_base@_WV?$stream_output_adapter@_W@__crt_stdio_output@@@2@@__crt_stdio_output@@AAE_N_N@Z 400d9962 f i libucrt:output.obj
 0001:000d8b7e       ??$type_case_integer@$07@?$output_processor@_WV?$stream_output_adapter@_W@__crt_stdio_output@@V?$standard_base@_WV?$stream_output_adapter@_W@__crt_stdio_output@@@2@@__crt_stdio_output@@AAE_N_N@Z 400d9b7e f i libucrt:output.obj
 0001:000d8d74       ??$type_case_integer@$07@?$output_processor@_WV?$string_output_adapter@_W@__crt_stdio_output@@V?$format_validation_base@_WV?$string_output_adapter@_W@__crt_stdio_output@@@2@@__crt_stdio_output@@AAE_N_N@Z 400d9d74 f i libucrt:output.obj
 0001:000d8f6a       ??$type_case_integer@$07@?$output_processor@_WV?$string_output_adapter@_W@__crt_stdio_output@@V?$positional_parameter_base@_WV?$string_output_adapter@_W@__crt_stdio_output@@@2@@__crt_stdio_output@@AAE_N_N@Z 400d9f6a f i libucrt:output.obj
 0001:000d9186       ??$type_case_integer@$07@?$output_processor@_WV?$string_output_adapter@_W@__crt_stdio_output@@V?$standard_base@_WV?$string_output_adapter@_W@__crt_stdio_output@@@2@@__crt_stdio_output@@AAE_N_N@Z 400da186 f i libucrt:output.obj
 0001:000d937c       ??$type_case_integer@$09@?$output_processor@DV?$stream_output_adapter@D@__crt_stdio_output@@V?$format_validation_base@DV?$stream_output_adapter@D@__crt_stdio_output@@@2@@__crt_stdio_output@@AAE_N_N@Z 400da37c f i libucrt:output.obj
 0001:000d956c       ??$type_case_integer@$09@?$output_processor@DV?$stream_output_adapter@D@__crt_stdio_output@@V?$positional_parameter_base@DV?$stream_output_adapter@D@__crt_stdio_output@@@2@@__crt_stdio_output@@AAE_N_N@Z 400da56c f i libucrt:output.obj
 0001:000d9781       ??$type_case_integer@$09@?$output_processor@DV?$stream_output_adapter@D@__crt_stdio_output@@V?$standard_base@DV?$stream_output_adapter@D@__crt_stdio_output@@@2@@__crt_stdio_output@@AAE_N_N@Z 400da781 f i libucrt:output.obj
 0001:000d9971       ??$type_case_integer@$09@?$output_processor@DV?$string_output_adapter@D@__crt_stdio_output@@V?$format_validation_base@DV?$string_output_adapter@D@__crt_stdio_output@@@2@@__crt_stdio_output@@AAE_N_N@Z 400da971 f i libucrt:output.obj
 0001:000d9b61       ??$type_case_integer@$09@?$output_processor@DV?$string_output_adapter@D@__crt_stdio_output@@V?$positional_parameter_base@DV?$string_output_adapter@D@__crt_stdio_output@@@2@@__crt_stdio_output@@AAE_N_N@Z 400dab61 f i libucrt:output.obj
 0001:000d9d76       ??$type_case_integer@$09@?$output_processor@DV?$string_output_adapter@D@__crt_stdio_output@@V?$standard_base@DV?$string_output_adapter@D@__crt_stdio_output@@@2@@__crt_stdio_output@@AAE_N_N@Z 400dad76 f i libucrt:output.obj
 0001:000d9f66       ??$type_case_integer@$09@?$output_processor@_WV?$stream_output_adapter@_W@__crt_stdio_output@@V?$format_validation_base@_WV?$stream_output_adapter@_W@__crt_stdio_output@@@2@@__crt_stdio_output@@AAE_N_N@Z 400daf66 f i libucrt:output.obj
 0001:000da15c       ??$type_case_integer@$09@?$output_processor@_WV?$stream_output_adapter@_W@__crt_stdio_output@@V?$positional_parameter_base@_WV?$stream_output_adapter@_W@__crt_stdio_output@@@2@@__crt_stdio_output@@AAE_N_N@Z 400db15c f i libucrt:output.obj
 0001:000da378       ??$type_case_integer@$09@?$output_processor@_WV?$stream_output_adapter@_W@__crt_stdio_output@@V?$standard_base@_WV?$stream_output_adapter@_W@__crt_stdio_output@@@2@@__crt_stdio_output@@AAE_N_N@Z 400db378 f i libucrt:output.obj
 0001:000da56e       ??$type_case_integer@$09@?$output_processor@_WV?$string_output_adapter@_W@__crt_stdio_output@@V?$format_validation_base@_WV?$string_output_adapter@_W@__crt_stdio_output@@@2@@__crt_stdio_output@@AAE_N_N@Z 400db56e f i libucrt:output.obj
 0001:000da764       ??$type_case_integer@$09@?$output_processor@_WV?$string_output_adapter@_W@__crt_stdio_output@@V?$positional_parameter_base@_WV?$string_output_adapter@_W@__crt_stdio_output@@@2@@__crt_stdio_output@@AAE_N_N@Z 400db764 f i libucrt:output.obj
 0001:000da980       ??$type_case_integer@$09@?$output_processor@_WV?$string_output_adapter@_W@__crt_stdio_output@@V?$standard_base@_WV?$string_output_adapter@_W@__crt_stdio_output@@@2@@__crt_stdio_output@@AAE_N_N@Z 400db980 f i libucrt:output.obj
 0001:000dab76       ??$type_case_integer@$0BA@@?$output_processor@DV?$stream_output_adapter@D@__crt_stdio_output@@V?$format_validation_base@DV?$stream_output_adapter@D@__crt_stdio_output@@@2@@__crt_stdio_output@@AAE_N_N@Z 400dbb76 f i libucrt:output.obj
 0001:000dad66       ??$type_case_integer@$0BA@@?$output_processor@DV?$stream_output_adapter@D@__crt_stdio_output@@V?$positional_parameter_base@DV?$stream_output_adapter@D@__crt_stdio_output@@@2@@__crt_stdio_output@@AAE_N_N@Z 400dbd66 f i libucrt:output.obj
 0001:000daf7b       ??$type_case_integer@$0BA@@?$output_processor@DV?$stream_output_adapter@D@__crt_stdio_output@@V?$standard_base@DV?$stream_output_adapter@D@__crt_stdio_output@@@2@@__crt_stdio_output@@AAE_N_N@Z 400dbf7b f i libucrt:output.obj
 0001:000db16b       ??$type_case_integer@$0BA@@?$output_processor@DV?$string_output_adapter@D@__crt_stdio_output@@V?$format_validation_base@DV?$string_output_adapter@D@__crt_stdio_output@@@2@@__crt_stdio_output@@AAE_N_N@Z 400dc16b f i libucrt:output.obj
 0001:000db35b       ??$type_case_integer@$0BA@@?$output_processor@DV?$string_output_adapter@D@__crt_stdio_output@@V?$positional_parameter_base@DV?$string_output_adapter@D@__crt_stdio_output@@@2@@__crt_stdio_output@@AAE_N_N@Z 400dc35b f i libucrt:output.obj
 0001:000db570       ??$type_case_integer@$0BA@@?$output_processor@DV?$string_output_adapter@D@__crt_stdio_output@@V?$standard_base@DV?$string_output_adapter@D@__crt_stdio_output@@@2@@__crt_stdio_output@@AAE_N_N@Z 400dc570 f i libucrt:output.obj
 0001:000db760       ??$type_case_integer@$0BA@@?$output_processor@_WV?$stream_output_adapter@_W@__crt_stdio_output@@V?$format_validation_base@_WV?$stream_output_adapter@_W@__crt_stdio_output@@@2@@__crt_stdio_output@@AAE_N_N@Z 400dc760 f i libucrt:output.obj
 0001:000db956       ??$type_case_integer@$0BA@@?$output_processor@_WV?$stream_output_adapter@_W@__crt_stdio_output@@V?$positional_parameter_base@_WV?$stream_output_adapter@_W@__crt_stdio_output@@@2@@__crt_stdio_output@@AAE_N_N@Z 400dc956 f i libucrt:output.obj
 0001:000dbb72       ??$type_case_integer@$0BA@@?$output_processor@_WV?$stream_output_adapter@_W@__crt_stdio_output@@V?$standard_base@_WV?$stream_output_adapter@_W@__crt_stdio_output@@@2@@__crt_stdio_output@@AAE_N_N@Z 400dcb72 f i libucrt:output.obj
 0001:000dbd68       ??$type_case_integer@$0BA@@?$output_processor@_WV?$string_output_adapter@_W@__crt_stdio_output@@V?$format_validation_base@_WV?$string_output_adapter@_W@__crt_stdio_output@@@2@@__crt_stdio_output@@AAE_N_N@Z 400dcd68 f i libucrt:output.obj
 0001:000dbf5e       ??$type_case_integer@$0BA@@?$output_processor@_WV?$string_output_adapter@_W@__crt_stdio_output@@V?$positional_parameter_base@_WV?$string_output_adapter@_W@__crt_stdio_output@@@2@@__crt_stdio_output@@AAE_N_N@Z 400dcf5e f i libucrt:output.obj
 0001:000dc17a       ??$type_case_integer@$0BA@@?$output_processor@_WV?$string_output_adapter@_W@__crt_stdio_output@@V?$standard_base@_WV?$string_output_adapter@_W@__crt_stdio_output@@@2@@__crt_stdio_output@@AAE_N_N@Z 400dd17a f i libucrt:output.obj
 0001:000dc370       ??$type_case_integer_parse_into_buffer@I$07@?$output_processor@DV?$stream_output_adapter@D@__crt_stdio_output@@V?$format_validation_base@DV?$stream_output_adapter@D@__crt_stdio_output@@@2@@__crt_stdio_output@@AAEXI_N@Z 400dd370 f i libucrt:output.obj
 0001:000dc3ea       ??$type_case_integer_parse_into_buffer@I$07@?$output_processor@DV?$stream_output_adapter@D@__crt_stdio_output@@V?$positional_parameter_base@DV?$stream_output_adapter@D@__crt_stdio_output@@@2@@__crt_stdio_output@@AAEXI_N@Z 400dd3ea f i libucrt:output.obj
 0001:000dc464       ??$type_case_integer_parse_into_buffer@I$07@?$output_processor@DV?$stream_output_adapter@D@__crt_stdio_output@@V?$standard_base@DV?$stream_output_adapter@D@__crt_stdio_output@@@2@@__crt_stdio_output@@AAEXI_N@Z 400dd464 f i libucrt:output.obj
 0001:000dc4de       ??$type_case_integer_parse_into_buffer@I$07@?$output_processor@DV?$string_output_adapter@D@__crt_stdio_output@@V?$format_validation_base@DV?$string_output_adapter@D@__crt_stdio_output@@@2@@__crt_stdio_output@@AAEXI_N@Z 400dd4de f i libucrt:output.obj
 0001:000dc558       ??$type_case_integer_parse_into_buffer@I$07@?$output_processor@DV?$string_output_adapter@D@__crt_stdio_output@@V?$positional_parameter_base@DV?$string_output_adapter@D@__crt_stdio_output@@@2@@__crt_stdio_output@@AAEXI_N@Z 400dd558 f i libucrt:output.obj
 0001:000dc5d2       ??$type_case_integer_parse_into_buffer@I$07@?$output_processor@DV?$string_output_adapter@D@__crt_stdio_output@@V?$standard_base@DV?$string_output_adapter@D@__crt_stdio_output@@@2@@__crt_stdio_output@@AAEXI_N@Z 400dd5d2 f i libucrt:output.obj
 0001:000dc64c       ??$type_case_integer_parse_into_buffer@I$07@?$output_processor@_WV?$stream_output_adapter@_W@__crt_stdio_output@@V?$format_validation_base@_WV?$stream_output_adapter@_W@__crt_stdio_output@@@2@@__crt_stdio_output@@AAEXI_N@Z 400dd64c f i libucrt:output.obj
 0001:000dc6d9       ??$type_case_integer_parse_into_buffer@I$07@?$output_processor@_WV?$stream_output_adapter@_W@__crt_stdio_output@@V?$positional_parameter_base@_WV?$stream_output_adapter@_W@__crt_stdio_output@@@2@@__crt_stdio_output@@AAEXI_N@Z 400dd6d9 f i libucrt:output.obj
 0001:000dc766       ??$type_case_integer_parse_into_buffer@I$07@?$output_processor@_WV?$stream_output_adapter@_W@__crt_stdio_output@@V?$standard_base@_WV?$stream_output_adapter@_W@__crt_stdio_output@@@2@@__crt_stdio_output@@AAEXI_N@Z 400dd766 f i libucrt:output.obj
 0001:000dc7f3       ??$type_case_integer_parse_into_buffer@I$07@?$output_processor@_WV?$string_output_adapter@_W@__crt_stdio_output@@V?$format_validation_base@_WV?$string_output_adapter@_W@__crt_stdio_output@@@2@@__crt_stdio_output@@AAEXI_N@Z 400dd7f3 f i libucrt:output.obj
 0001:000dc880       ??$type_case_integer_parse_into_buffer@I$07@?$output_processor@_WV?$string_output_adapter@_W@__crt_stdio_output@@V?$positional_parameter_base@_WV?$string_output_adapter@_W@__crt_stdio_output@@@2@@__crt_stdio_output@@AAEXI_N@Z 400dd880 f i libucrt:output.obj
 0001:000dc90d       ??$type_case_integer_parse_into_buffer@I$07@?$output_processor@_WV?$string_output_adapter@_W@__crt_stdio_output@@V?$standard_base@_WV?$string_output_adapter@_W@__crt_stdio_output@@@2@@__crt_stdio_output@@AAEXI_N@Z 400dd90d f i libucrt:output.obj
 0001:000dc99a       ??$type_case_integer_parse_into_buffer@I$09@?$output_processor@DV?$stream_output_adapter@D@__crt_stdio_output@@V?$format_validation_base@DV?$stream_output_adapter@D@__crt_stdio_output@@@2@@__crt_stdio_output@@AAEXI_N@Z 400dd99a f i libucrt:output.obj
 0001:000dca38       ??$type_case_integer_parse_into_buffer@I$09@?$output_processor@DV?$stream_output_adapter@D@__crt_stdio_output@@V?$positional_parameter_base@DV?$stream_output_adapter@D@__crt_stdio_output@@@2@@__crt_stdio_output@@AAEXI_N@Z 400dda38 f i libucrt:output.obj
 0001:000dcad6       ??$type_case_integer_parse_into_buffer@I$09@?$output_processor@DV?$stream_output_adapter@D@__crt_stdio_output@@V?$standard_base@DV?$stream_output_adapter@D@__crt_stdio_output@@@2@@__crt_stdio_output@@AAEXI_N@Z 400ddad6 f i libucrt:output.obj
 0001:000dcb74       ??$type_case_integer_parse_into_buffer@I$09@?$output_processor@DV?$string_output_adapter@D@__crt_stdio_output@@V?$format_validation_base@DV?$string_output_adapter@D@__crt_stdio_output@@@2@@__crt_stdio_output@@AAEXI_N@Z 400ddb74 f i libucrt:output.obj
 0001:000dcc12       ??$type_case_integer_parse_into_buffer@I$09@?$output_processor@DV?$string_output_adapter@D@__crt_stdio_output@@V?$positional_parameter_base@DV?$string_output_adapter@D@__crt_stdio_output@@@2@@__crt_stdio_output@@AAEXI_N@Z 400ddc12 f i libucrt:output.obj
 0001:000dccb0       ??$type_case_integer_parse_into_buffer@I$09@?$output_processor@DV?$string_output_adapter@D@__crt_stdio_output@@V?$standard_base@DV?$string_output_adapter@D@__crt_stdio_output@@@2@@__crt_stdio_output@@AAEXI_N@Z 400ddcb0 f i libucrt:output.obj
 0001:000dcd4e       ??$type_case_integer_parse_into_buffer@I$09@?$output_processor@_WV?$stream_output_adapter@_W@__crt_stdio_output@@V?$format_validation_base@_WV?$stream_output_adapter@_W@__crt_stdio_output@@@2@@__crt_stdio_output@@AAEXI_N@Z 400ddd4e f i libucrt:output.obj
 0001:000dce08       ??$type_case_integer_parse_into_buffer@I$09@?$output_processor@_WV?$stream_output_adapter@_W@__crt_stdio_output@@V?$positional_parameter_base@_WV?$stream_output_adapter@_W@__crt_stdio_output@@@2@@__crt_stdio_output@@AAEXI_N@Z 400dde08 f i libucrt:output.obj
 0001:000dcec2       ??$type_case_integer_parse_into_buffer@I$09@?$output_processor@_WV?$stream_output_adapter@_W@__crt_stdio_output@@V?$standard_base@_WV?$stream_output_adapter@_W@__crt_stdio_output@@@2@@__crt_stdio_output@@AAEXI_N@Z 400ddec2 f i libucrt:output.obj
 0001:000dcf7c       ??$type_case_integer_parse_into_buffer@I$09@?$output_processor@_WV?$string_output_adapter@_W@__crt_stdio_output@@V?$format_validation_base@_WV?$string_output_adapter@_W@__crt_stdio_output@@@2@@__crt_stdio_output@@AAEXI_N@Z 400ddf7c f i libucrt:output.obj
 0001:000dd036       ??$type_case_integer_parse_into_buffer@I$09@?$output_processor@_WV?$string_output_adapter@_W@__crt_stdio_output@@V?$positional_parameter_base@_WV?$string_output_adapter@_W@__crt_stdio_output@@@2@@__crt_stdio_output@@AAEXI_N@Z 400de036 f i libucrt:output.obj
 0001:000dd0f0       ??$type_case_integer_parse_into_buffer@I$09@?$output_processor@_WV?$string_output_adapter@_W@__crt_stdio_output@@V?$standard_base@_WV?$string_output_adapter@_W@__crt_stdio_output@@@2@@__crt_stdio_output@@AAEXI_N@Z 400de0f0 f i libucrt:output.obj
 0001:000dd1aa       ??$type_case_integer_parse_into_buffer@I$0BA@@?$output_processor@DV?$stream_output_adapter@D@__crt_stdio_output@@V?$format_validation_base@DV?$stream_output_adapter@D@__crt_stdio_output@@@2@@__crt_stdio_output@@AAEXI_N@Z 400de1aa f i libucrt:output.obj
 0001:000dd245       ??$type_case_integer_parse_into_buffer@I$0BA@@?$output_processor@DV?$stream_output_adapter@D@__crt_stdio_output@@V?$positional_parameter_base@DV?$stream_output_adapter@D@__crt_stdio_output@@@2@@__crt_stdio_output@@AAEXI_N@Z 400de245 f i libucrt:output.obj
 0001:000dd2e0       ??$type_case_integer_parse_into_buffer@I$0BA@@?$output_processor@DV?$stream_output_adapter@D@__crt_stdio_output@@V?$standard_base@DV?$stream_output_adapter@D@__crt_stdio_output@@@2@@__crt_stdio_output@@AAEXI_N@Z 400de2e0 f i libucrt:output.obj
 0001:000dd37b       ??$type_case_integer_parse_into_buffer@I$0BA@@?$output_processor@DV?$string_output_adapter@D@__crt_stdio_output@@V?$format_validation_base@DV?$string_output_adapter@D@__crt_stdio_output@@@2@@__crt_stdio_output@@AAEXI_N@Z 400de37b f i libucrt:output.obj
 0001:000dd416       ??$type_case_integer_parse_into_buffer@I$0BA@@?$output_processor@DV?$string_output_adapter@D@__crt_stdio_output@@V?$positional_parameter_base@DV?$string_output_adapter@D@__crt_stdio_output@@@2@@__crt_stdio_output@@AAEXI_N@Z 400de416 f i libucrt:output.obj
 0001:000dd4b1       ??$type_case_integer_parse_into_buffer@I$0BA@@?$output_processor@DV?$string_output_adapter@D@__crt_stdio_output@@V?$standard_base@DV?$string_output_adapter@D@__crt_stdio_output@@@2@@__crt_stdio_output@@AAEXI_N@Z 400de4b1 f i libucrt:output.obj
 0001:000dd54c       ??$type_case_integer_parse_into_buffer@I$0BA@@?$output_processor@_WV?$stream_output_adapter@_W@__crt_stdio_output@@V?$format_validation_base@_WV?$stream_output_adapter@_W@__crt_stdio_output@@@2@@__crt_stdio_output@@AAEXI_N@Z 400de54c f i libucrt:output.obj
 0001:000dd5f9       ??$type_case_integer_parse_into_buffer@I$0BA@@?$output_processor@_WV?$stream_output_adapter@_W@__crt_stdio_output@@V?$positional_parameter_base@_WV?$stream_output_adapter@_W@__crt_stdio_output@@@2@@__crt_stdio_output@@AAEXI_N@Z 400de5f9 f i libucrt:output.obj
 0001:000dd6a6       ??$type_case_integer_parse_into_buffer@I$0BA@@?$output_processor@_WV?$stream_output_adapter@_W@__crt_stdio_output@@V?$standard_base@_WV?$stream_output_adapter@_W@__crt_stdio_output@@@2@@__crt_stdio_output@@AAEXI_N@Z 400de6a6 f i libucrt:output.obj
 0001:000dd753       ??$type_case_integer_parse_into_buffer@I$0BA@@?$output_processor@_WV?$string_output_adapter@_W@__crt_stdio_output@@V?$format_validation_base@_WV?$string_output_adapter@_W@__crt_stdio_output@@@2@@__crt_stdio_output@@AAEXI_N@Z 400de753 f i libucrt:output.obj
 0001:000dd800       ??$type_case_integer_parse_into_buffer@I$0BA@@?$output_processor@_WV?$string_output_adapter@_W@__crt_stdio_output@@V?$positional_parameter_base@_WV?$string_output_adapter@_W@__crt_stdio_output@@@2@@__crt_stdio_output@@AAEXI_N@Z 400de800 f i libucrt:output.obj
 0001:000dd8ad       ??$type_case_integer_parse_into_buffer@I$0BA@@?$output_processor@_WV?$string_output_adapter@_W@__crt_stdio_output@@V?$standard_base@_WV?$string_output_adapter@_W@__crt_stdio_output@@@2@@__crt_stdio_output@@AAEXI_N@Z 400de8ad f i libucrt:output.obj
 0001:000dd95a       ??$type_case_integer_parse_into_buffer@_K$07@?$output_processor@DV?$stream_output_adapter@D@__crt_stdio_output@@V?$format_validation_base@DV?$stream_output_adapter@D@__crt_stdio_output@@@2@@__crt_stdio_output@@AAEX_K_N@Z 400de95a f i libucrt:output.obj
 0001:000dd9eb       ??$type_case_integer_parse_into_buffer@_K$07@?$output_processor@DV?$stream_output_adapter@D@__crt_stdio_output@@V?$positional_parameter_base@DV?$stream_output_adapter@D@__crt_stdio_output@@@2@@__crt_stdio_output@@AAEX_K_N@Z 400de9eb f i libucrt:output.obj
 0001:000dda7c       ??$type_case_integer_parse_into_buffer@_K$07@?$output_processor@DV?$stream_output_adapter@D@__crt_stdio_output@@V?$standard_base@DV?$stream_output_adapter@D@__crt_stdio_output@@@2@@__crt_stdio_output@@AAEX_K_N@Z 400dea7c f i libucrt:output.obj
 0001:000ddb0d       ??$type_case_integer_parse_into_buffer@_K$07@?$output_processor@DV?$string_output_adapter@D@__crt_stdio_output@@V?$format_validation_base@DV?$string_output_adapter@D@__crt_stdio_output@@@2@@__crt_stdio_output@@AAEX_K_N@Z 400deb0d f i libucrt:output.obj
 0001:000ddb9e       ??$type_case_integer_parse_into_buffer@_K$07@?$output_processor@DV?$string_output_adapter@D@__crt_stdio_output@@V?$positional_parameter_base@DV?$string_output_adapter@D@__crt_stdio_output@@@2@@__crt_stdio_output@@AAEX_K_N@Z 400deb9e f i libucrt:output.obj
 0001:000ddc2f       ??$type_case_integer_parse_into_buffer@_K$07@?$output_processor@DV?$string_output_adapter@D@__crt_stdio_output@@V?$standard_base@DV?$string_output_adapter@D@__crt_stdio_output@@@2@@__crt_stdio_output@@AAEX_K_N@Z 400dec2f f i libucrt:output.obj
 0001:000ddcc0       ??$type_case_integer_parse_into_buffer@_K$07@?$output_processor@_WV?$stream_output_adapter@_W@__crt_stdio_output@@V?$format_validation_base@_WV?$stream_output_adapter@_W@__crt_stdio_output@@@2@@__crt_stdio_output@@AAEX_K_N@Z 400decc0 f i libucrt:output.obj
 0001:000ddd60       ??$type_case_integer_parse_into_buffer@_K$07@?$output_processor@_WV?$stream_output_adapter@_W@__crt_stdio_output@@V?$positional_parameter_base@_WV?$stream_output_adapter@_W@__crt_stdio_output@@@2@@__crt_stdio_output@@AAEX_K_N@Z 400ded60 f i libucrt:output.obj
 0001:000dde00       ??$type_case_integer_parse_into_buffer@_K$07@?$output_processor@_WV?$stream_output_adapter@_W@__crt_stdio_output@@V?$standard_base@_WV?$stream_output_adapter@_W@__crt_stdio_output@@@2@@__crt_stdio_output@@AAEX_K_N@Z 400dee00 f i libucrt:output.obj
 0001:000ddea0       ??$type_case_integer_parse_into_buffer@_K$07@?$output_processor@_WV?$string_output_adapter@_W@__crt_stdio_output@@V?$format_validation_base@_WV?$string_output_adapter@_W@__crt_stdio_output@@@2@@__crt_stdio_output@@AAEX_K_N@Z 400deea0 f i libucrt:output.obj
 0001:000ddf40       ??$type_case_integer_parse_into_buffer@_K$07@?$output_processor@_WV?$string_output_adapter@_W@__crt_stdio_output@@V?$positional_parameter_base@_WV?$string_output_adapter@_W@__crt_stdio_output@@@2@@__crt_stdio_output@@AAEX_K_N@Z 400def40 f i libucrt:output.obj
 0001:000ddfe0       ??$type_case_integer_parse_into_buffer@_K$07@?$output_processor@_WV?$string_output_adapter@_W@__crt_stdio_output@@V?$standard_base@_WV?$string_output_adapter@_W@__crt_stdio_output@@@2@@__crt_stdio_output@@AAEX_K_N@Z 400defe0 f i libucrt:output.obj
 0001:000de080       ??$type_case_integer_parse_into_buffer@_K$09@?$output_processor@DV?$stream_output_adapter@D@__crt_stdio_output@@V?$format_validation_base@DV?$stream_output_adapter@D@__crt_stdio_output@@@2@@__crt_stdio_output@@AAEX_K_N@Z 400df080 f i libucrt:output.obj
 0001:000de136       ??$type_case_integer_parse_into_buffer@_K$09@?$output_processor@DV?$stream_output_adapter@D@__crt_stdio_output@@V?$positional_parameter_base@DV?$stream_output_adapter@D@__crt_stdio_output@@@2@@__crt_stdio_output@@AAEX_K_N@Z 400df136 f i libucrt:output.obj
 0001:000de1ec       ??$type_case_integer_parse_into_buffer@_K$09@?$output_processor@DV?$stream_output_adapter@D@__crt_stdio_output@@V?$standard_base@DV?$stream_output_adapter@D@__crt_stdio_output@@@2@@__crt_stdio_output@@AAEX_K_N@Z 400df1ec f i libucrt:output.obj
 0001:000de2a2       ??$type_case_integer_parse_into_buffer@_K$09@?$output_processor@DV?$string_output_adapter@D@__crt_stdio_output@@V?$format_validation_base@DV?$string_output_adapter@D@__crt_stdio_output@@@2@@__crt_stdio_output@@AAEX_K_N@Z 400df2a2 f i libucrt:output.obj
 0001:000de358       ??$type_case_integer_parse_into_buffer@_K$09@?$output_processor@DV?$string_output_adapter@D@__crt_stdio_output@@V?$positional_parameter_base@DV?$string_output_adapter@D@__crt_stdio_output@@@2@@__crt_stdio_output@@AAEX_K_N@Z 400df358 f i libucrt:output.obj
 0001:000de40e       ??$type_case_integer_parse_into_buffer@_K$09@?$output_processor@DV?$string_output_adapter@D@__crt_stdio_output@@V?$standard_base@DV?$string_output_adapter@D@__crt_stdio_output@@@2@@__crt_stdio_output@@AAEX_K_N@Z 400df40e f i libucrt:output.obj
 0001:000de4c4       ??$type_case_integer_parse_into_buffer@_K$09@?$output_processor@_WV?$stream_output_adapter@_W@__crt_stdio_output@@V?$format_validation_base@_WV?$stream_output_adapter@_W@__crt_stdio_output@@@2@@__crt_stdio_output@@AAEX_K_N@Z 400df4c4 f i libucrt:output.obj
 0001:000de592       ??$type_case_integer_parse_into_buffer@_K$09@?$output_processor@_WV?$stream_output_adapter@_W@__crt_stdio_output@@V?$positional_parameter_base@_WV?$stream_output_adapter@_W@__crt_stdio_output@@@2@@__crt_stdio_output@@AAEX_K_N@Z 400df592 f i libucrt:output.obj
 0001:000de660       ??$type_case_integer_parse_into_buffer@_K$09@?$output_processor@_WV?$stream_output_adapter@_W@__crt_stdio_output@@V?$standard_base@_WV?$stream_output_adapter@_W@__crt_stdio_output@@@2@@__crt_stdio_output@@AAEX_K_N@Z 400df660 f i libucrt:output.obj
 0001:000de72e       ??$type_case_integer_parse_into_buffer@_K$09@?$output_processor@_WV?$string_output_adapter@_W@__crt_stdio_output@@V?$format_validation_base@_WV?$string_output_adapter@_W@__crt_stdio_output@@@2@@__crt_stdio_output@@AAEX_K_N@Z 400df72e f i libucrt:output.obj
 0001:000de7fc       ??$type_case_integer_parse_into_buffer@_K$09@?$output_processor@_WV?$string_output_adapter@_W@__crt_stdio_output@@V?$positional_parameter_base@_WV?$string_output_adapter@_W@__crt_stdio_output@@@2@@__crt_stdio_output@@AAEX_K_N@Z 400df7fc f i libucrt:output.obj
 0001:000de8ca       ??$type_case_integer_parse_into_buffer@_K$09@?$output_processor@_WV?$string_output_adapter@_W@__crt_stdio_output@@V?$standard_base@_WV?$string_output_adapter@_W@__crt_stdio_output@@@2@@__crt_stdio_output@@AAEX_K_N@Z 400df8ca f i libucrt:output.obj
 0001:000de998       ??$type_case_integer_parse_into_buffer@_K$0BA@@?$output_processor@DV?$stream_output_adapter@D@__crt_stdio_output@@V?$format_validation_base@DV?$stream_output_adapter@D@__crt_stdio_output@@@2@@__crt_stdio_output@@AAEX_K_N@Z 400df998 f i libucrt:output.obj
 0001:000dea3f       ??$type_case_integer_parse_into_buffer@_K$0BA@@?$output_processor@DV?$stream_output_adapter@D@__crt_stdio_output@@V?$positional_parameter_base@DV?$stream_output_adapter@D@__crt_stdio_output@@@2@@__crt_stdio_output@@AAEX_K_N@Z 400dfa3f f i libucrt:output.obj
 0001:000deae6       ??$type_case_integer_parse_into_buffer@_K$0BA@@?$output_processor@DV?$stream_output_adapter@D@__crt_stdio_output@@V?$standard_base@DV?$stream_output_adapter@D@__crt_stdio_output@@@2@@__crt_stdio_output@@AAEX_K_N@Z 400dfae6 f i libucrt:output.obj
 0001:000deb8d       ??$type_case_integer_parse_into_buffer@_K$0BA@@?$output_processor@DV?$string_output_adapter@D@__crt_stdio_output@@V?$format_validation_base@DV?$string_output_adapter@D@__crt_stdio_output@@@2@@__crt_stdio_output@@AAEX_K_N@Z 400dfb8d f i libucrt:output.obj
 0001:000dec34       ??$type_case_integer_parse_into_buffer@_K$0BA@@?$output_processor@DV?$string_output_adapter@D@__crt_stdio_output@@V?$positional_parameter_base@DV?$string_output_adapter@D@__crt_stdio_output@@@2@@__crt_stdio_output@@AAEX_K_N@Z 400dfc34 f i libucrt:output.obj
 0001:000decdb       ??$type_case_integer_parse_into_buffer@_K$0BA@@?$output_processor@DV?$string_output_adapter@D@__crt_stdio_output@@V?$standard_base@DV?$string_output_adapter@D@__crt_stdio_output@@@2@@__crt_stdio_output@@AAEX_K_N@Z 400dfcdb f i libucrt:output.obj
 0001:000ded82       ??$type_case_integer_parse_into_buffer@_K$0BA@@?$output_processor@_WV?$stream_output_adapter@_W@__crt_stdio_output@@V?$format_validation_base@_WV?$stream_output_adapter@_W@__crt_stdio_output@@@2@@__crt_stdio_output@@AAEX_K_N@Z 400dfd82 f i libucrt:output.obj
 0001:000dee38       ??$type_case_integer_parse_into_buffer@_K$0BA@@?$output_processor@_WV?$stream_output_adapter@_W@__crt_stdio_output@@V?$positional_parameter_base@_WV?$stream_output_adapter@_W@__crt_stdio_output@@@2@@__crt_stdio_output@@AAEX_K_N@Z 400dfe38 f i libucrt:output.obj
 0001:000deeee       ??$type_case_integer_parse_into_buffer@_K$0BA@@?$output_processor@_WV?$stream_output_adapter@_W@__crt_stdio_output@@V?$standard_base@_WV?$stream_output_adapter@_W@__crt_stdio_output@@@2@@__crt_stdio_output@@AAEX_K_N@Z 400dfeee f i libucrt:output.obj
 0001:000defa4       ??$type_case_integer_parse_into_buffer@_K$0BA@@?$output_processor@_WV?$string_output_adapter@_W@__crt_stdio_output@@V?$format_validation_base@_WV?$string_output_adapter@_W@__crt_stdio_output@@@2@@__crt_stdio_output@@AAEX_K_N@Z 400dffa4 f i libucrt:output.obj
 0001:000df05a       ??$type_case_integer_parse_into_buffer@_K$0BA@@?$output_processor@_WV?$string_output_adapter@_W@__crt_stdio_output@@V?$positional_parameter_base@_WV?$string_output_adapter@_W@__crt_stdio_output@@@2@@__crt_stdio_output@@AAEX_K_N@Z 400e005a f i libucrt:output.obj
 0001:000df110       ??$type_case_integer_parse_into_buffer@_K$0BA@@?$output_processor@_WV?$string_output_adapter@_W@__crt_stdio_output@@V?$standard_base@_WV?$string_output_adapter@_W@__crt_stdio_output@@@2@@__crt_stdio_output@@AAEX_K_N@Z 400e0110 f i libucrt:output.obj
 0001:000df1c6       ??$write_multiple_characters@V?$stream_output_adapter@D@__crt_stdio_output@@D@__crt_stdio_output@@YAXABV?$stream_output_adapter@D@0@DHQAHAAV__crt_cached_ptd_host@@@Z 400e01c6 f i libucrt:output.obj
 0001:000df200       ??$write_multiple_characters@V?$stream_output_adapter@_W@__crt_stdio_output@@D@__crt_stdio_output@@YAXABV?$stream_output_adapter@_W@0@DHQAHAAV__crt_cached_ptd_host@@@Z 400e0200 f i libucrt:output.obj
 0001:000df241       ??$write_multiple_characters@V?$string_output_adapter@D@__crt_stdio_output@@D@__crt_stdio_output@@YAXABV?$string_output_adapter@D@0@DHQAHAAV__crt_cached_ptd_host@@@Z 400e0241 f i libucrt:output.obj
 0001:000df2b1       ??$write_multiple_characters@V?$string_output_adapter@_W@__crt_stdio_output@@D@__crt_stdio_output@@YAXABV?$string_output_adapter@_W@0@DHQAHAAV__crt_cached_ptd_host@@@Z 400e02b1 f i libucrt:output.obj
 0001:000df55a       ??0?$common_data@D@__crt_stdio_output@@IAE@AAV__crt_cached_ptd_host@@@Z 400e055a f i libucrt:output.obj
 0001:000df5b2       ??0?$common_data@_W@__crt_stdio_output@@IAE@AAV__crt_cached_ptd_host@@@Z 400e05b2 f i libucrt:output.obj
 0001:000df611       ??0?$output_adapter_data@DV?$stream_output_adapter@D@__crt_stdio_output@@@__crt_stdio_output@@IAE@ABV?$stream_output_adapter@D@1@_KQBDAAV__crt_cached_ptd_host@@QAD@Z 400e0611 f i libucrt:output.obj
 0001:000df691       ??0?$output_adapter_data@DV?$string_output_adapter@D@__crt_stdio_output@@@__crt_stdio_output@@IAE@ABV?$string_output_adapter@D@1@_KQBDAAV__crt_cached_ptd_host@@QAD@Z 400e0691 f i libucrt:output.obj
 0001:000df711       ??0?$output_adapter_data@_WV?$stream_output_adapter@_W@__crt_stdio_output@@@__crt_stdio_output@@IAE@ABV?$stream_output_adapter@_W@1@_KQB_WAAV__crt_cached_ptd_host@@QAD@Z 400e0711 f i libucrt:output.obj
 0001:000df798       ??0?$output_adapter_data@_WV?$string_output_adapter@_W@__crt_stdio_output@@@__crt_stdio_output@@IAE@ABV?$string_output_adapter@_W@1@_KQB_WAAV__crt_cached_ptd_host@@QAD@Z 400e0798 f i libucrt:output.obj
 0001:000df81f       ??0?$output_processor@DV?$stream_output_adapter@D@__crt_stdio_output@@V?$format_validation_base@DV?$stream_output_adapter@D@__crt_stdio_output@@@2@@__crt_stdio_output@@QAE@ABV?$stream_output_adapter@D@1@_KQBDAAV__crt_cached_ptd_host@@QAD@Z 400e081f f i libucrt:output.obj
 0001:000df857       ??0?$output_processor@DV?$stream_output_adapter@D@__crt_stdio_output@@V?$positional_parameter_base@DV?$stream_output_adapter@D@__crt_stdio_output@@@2@@__crt_stdio_output@@QAE@ABV?$stream_output_adapter@D@1@_KQBDAAV__crt_cached_ptd_host@@QAD@Z 400e0857 f i libucrt:output.obj
 0001:000df886       ??0?$output_processor@DV?$stream_output_adapter@D@__crt_stdio_output@@V?$standard_base@DV?$stream_output_adapter@D@__crt_stdio_output@@@2@@__crt_stdio_output@@QAE@ABV?$stream_output_adapter@D@1@_KQBDAAV__crt_cached_ptd_host@@QAD@Z 400e0886 f i libucrt:output.obj
 0001:000df8be       ??0?$output_processor@DV?$string_output_adapter@D@__crt_stdio_output@@V?$format_validation_base@DV?$string_output_adapter@D@__crt_stdio_output@@@2@@__crt_stdio_output@@QAE@ABV?$string_output_adapter@D@1@_KQBDAAV__crt_cached_ptd_host@@QAD@Z 400e08be f i libucrt:output.obj
 0001:000df8f6       ??0?$output_processor@DV?$string_output_adapter@D@__crt_stdio_output@@V?$positional_parameter_base@DV?$string_output_adapter@D@__crt_stdio_output@@@2@@__crt_stdio_output@@QAE@ABV?$string_output_adapter@D@1@_KQBDAAV__crt_cached_ptd_host@@QAD@Z 400e08f6 f i libucrt:output.obj
 0001:000df925       ??0?$output_processor@DV?$string_output_adapter@D@__crt_stdio_output@@V?$standard_base@DV?$string_output_adapter@D@__crt_stdio_output@@@2@@__crt_stdio_output@@QAE@ABV?$string_output_adapter@D@1@_KQBDAAV__crt_cached_ptd_host@@QAD@Z 400e0925 f i libucrt:output.obj
 0001:000df95d       ??0?$output_processor@_WV?$stream_output_adapter@_W@__crt_stdio_output@@V?$format_validation_base@_WV?$stream_output_adapter@_W@__crt_stdio_output@@@2@@__crt_stdio_output@@QAE@ABV?$stream_output_adapter@_W@1@_KQB_WAAV__crt_cached_ptd_host@@QAD@Z 400e095d f i libucrt:output.obj
 0001:000df995       ??0?$output_processor@_WV?$stream_output_adapter@_W@__crt_stdio_output@@V?$positional_parameter_base@_WV?$stream_output_adapter@_W@__crt_stdio_output@@@2@@__crt_stdio_output@@QAE@ABV?$stream_output_adapter@_W@1@_KQB_WAAV__crt_cached_ptd_host@@QAD@Z 400e0995 f i libucrt:output.obj
 0001:000df9c4       ??0?$output_processor@_WV?$stream_output_adapter@_W@__crt_stdio_output@@V?$standard_base@_WV?$stream_output_adapter@_W@__crt_stdio_output@@@2@@__crt_stdio_output@@QAE@ABV?$stream_output_adapter@_W@1@_KQB_WAAV__crt_cached_ptd_host@@QAD@Z 400e09c4 f i libucrt:output.obj
 0001:000df9fc       ??0?$output_processor@_WV?$string_output_adapter@_W@__crt_stdio_output@@V?$format_validation_base@_WV?$string_output_adapter@_W@__crt_stdio_output@@@2@@__crt_stdio_output@@QAE@ABV?$string_output_adapter@_W@1@_KQB_WAAV__crt_cached_ptd_host@@QAD@Z 400e09fc f i libucrt:output.obj
 0001:000dfa34       ??0?$output_processor@_WV?$string_output_adapter@_W@__crt_stdio_output@@V?$positional_parameter_base@_WV?$string_output_adapter@_W@__crt_stdio_output@@@2@@__crt_stdio_output@@QAE@ABV?$string_output_adapter@_W@1@_KQB_WAAV__crt_cached_ptd_host@@QAD@Z 400e0a34 f i libucrt:output.obj
 0001:000dfa63       ??0?$output_processor@_WV?$string_output_adapter@_W@__crt_stdio_output@@V?$standard_base@_WV?$string_output_adapter@_W@__crt_stdio_output@@@2@@__crt_stdio_output@@QAE@ABV?$string_output_adapter@_W@1@_KQB_WAAV__crt_cached_ptd_host@@QAD@Z 400e0a63 f i libucrt:output.obj
 0001:000dfa9b       ??0?$stream_output_adapter@D@__crt_stdio_output@@QAE@QAU_iobuf@@@Z 400e0a9b f i libucrt:output.obj
 0001:000dfaaf       ??0?$stream_output_adapter@_W@__crt_stdio_output@@QAE@QAU_iobuf@@@Z 400e0aaf f i libucrt:output.obj
 0001:000dfac3       ??0?$string_output_adapter@D@__crt_stdio_output@@QAE@QAU?$string_output_adapter_context@D@1@@Z 400e0ac3 f i libucrt:output.obj
 0001:000dfad7       ??0?$string_output_adapter@_W@__crt_stdio_output@@QAE@QAU?$string_output_adapter_context@_W@1@@Z 400e0ad7 f i libucrt:output.obj
 0001:000dfaeb       ??0__acrt_stdio_temporary_buffering_guard@@QAE@QAU_iobuf@@AAV__crt_cached_ptd_host@@@Z 400e0aeb f i libucrt:output.obj
 0001:000dfb18       ??0__crt_stdio_stream@@QAE@QAU_iobuf@@@Z 400e0b18 f i libucrt:output.obj
 0001:000dfb2c       ??0formatting_buffer@__crt_stdio_output@@QAE@XZ 400e0b2c f i libucrt:output.obj
 0001:000dfb41       ??0guard@?$cached@H@__crt_cached_ptd_host@@QAE@AAU12@@Z 400e0b41 f i libucrt:output.obj
 0001:000dfb67       ??1?$common_data@D@__crt_stdio_output@@QAE@XZ 400e0b67 f i libucrt:output.obj
 0001:000dfb71       ??1?$common_data@_W@__crt_stdio_output@@QAE@XZ 400e0b71 f i libucrt:output.obj
 0001:000dfb7b       ??1?$format_validation_base@DV?$stream_output_adapter@D@__crt_stdio_output@@@__crt_stdio_output@@QAE@XZ 400e0b7b f i libucrt:output.obj
 0001:000dfb85       ??1?$format_validation_base@DV?$string_output_adapter@D@__crt_stdio_output@@@__crt_stdio_output@@QAE@XZ 400e0b85 f i libucrt:output.obj
 0001:000dfb8f       ??1?$format_validation_base@_WV?$stream_output_adapter@_W@__crt_stdio_output@@@__crt_stdio_output@@QAE@XZ 400e0b8f f i libucrt:output.obj
 0001:000dfb99       ??1?$format_validation_base@_WV?$string_output_adapter@_W@__crt_stdio_output@@@__crt_stdio_output@@QAE@XZ 400e0b99 f i libucrt:output.obj
 0001:000dfba3       ??1?$output_adapter_data@DV?$stream_output_adapter@D@__crt_stdio_output@@@__crt_stdio_output@@QAE@XZ 400e0ba3 f i libucrt:output.obj
 0001:000dfbad       ??1?$output_adapter_data@DV?$string_output_adapter@D@__crt_stdio_output@@@__crt_stdio_output@@QAE@XZ 400e0bad f i libucrt:output.obj
 0001:000dfbb7       ??1?$output_adapter_data@_WV?$stream_output_adapter@_W@__crt_stdio_output@@@__crt_stdio_output@@QAE@XZ 400e0bb7 f i libucrt:output.obj
 0001:000dfbc1       ??1?$output_adapter_data@_WV?$string_output_adapter@_W@__crt_stdio_output@@@__crt_stdio_output@@QAE@XZ 400e0bc1 f i libucrt:output.obj
 0001:000dfbcb       ??1?$output_processor@DV?$stream_output_adapter@D@__crt_stdio_output@@V?$format_validation_base@DV?$stream_output_adapter@D@__crt_stdio_output@@@2@@__crt_stdio_output@@QAE@XZ 400e0bcb f i libucrt:output.obj
 0001:000dfbd5       ??1?$output_processor@DV?$stream_output_adapter@D@__crt_stdio_output@@V?$positional_parameter_base@DV?$stream_output_adapter@D@__crt_stdio_output@@@2@@__crt_stdio_output@@QAE@XZ 400e0bd5 f i libucrt:output.obj
 0001:000dfbdf       ??1?$output_processor@DV?$stream_output_adapter@D@__crt_stdio_output@@V?$standard_base@DV?$stream_output_adapter@D@__crt_stdio_output@@@2@@__crt_stdio_output@@QAE@XZ 400e0bdf f i libucrt:output.obj
 0001:000dfbe9       ??1?$output_processor@DV?$string_output_adapter@D@__crt_stdio_output@@V?$format_validation_base@DV?$string_output_adapter@D@__crt_stdio_output@@@2@@__crt_stdio_output@@QAE@XZ 400e0be9 f i libucrt:output.obj
 0001:000dfbf3       ??1?$output_processor@DV?$string_output_adapter@D@__crt_stdio_output@@V?$positional_parameter_base@DV?$string_output_adapter@D@__crt_stdio_output@@@2@@__crt_stdio_output@@QAE@XZ 400e0bf3 f i libucrt:output.obj
 0001:000dfbfd       ??1?$output_processor@DV?$string_output_adapter@D@__crt_stdio_output@@V?$standard_base@DV?$string_output_adapter@D@__crt_stdio_output@@@2@@__crt_stdio_output@@QAE@XZ 400e0bfd f i libucrt:output.obj
 0001:000dfc07       ??1?$output_processor@_WV?$stream_output_adapter@_W@__crt_stdio_output@@V?$format_validation_base@_WV?$stream_output_adapter@_W@__crt_stdio_output@@@2@@__crt_stdio_output@@QAE@XZ 400e0c07 f i libucrt:output.obj
 0001:000dfc11       ??1?$output_processor@_WV?$stream_output_adapter@_W@__crt_stdio_output@@V?$positional_parameter_base@_WV?$stream_output_adapter@_W@__crt_stdio_output@@@2@@__crt_stdio_output@@QAE@XZ 400e0c11 f i libucrt:output.obj
 0001:000dfc1b       ??1?$output_processor@_WV?$stream_output_adapter@_W@__crt_stdio_output@@V?$standard_base@_WV?$stream_output_adapter@_W@__crt_stdio_output@@@2@@__crt_stdio_output@@QAE@XZ 400e0c1b f i libucrt:output.obj
 0001:000dfc25       ??1?$output_processor@_WV?$string_output_adapter@_W@__crt_stdio_output@@V?$format_validation_base@_WV?$string_output_adapter@_W@__crt_stdio_output@@@2@@__crt_stdio_output@@QAE@XZ 400e0c25 f i libucrt:output.obj
 0001:000dfc2f       ??1?$output_processor@_WV?$string_output_adapter@_W@__crt_stdio_output@@V?$positional_parameter_base@_WV?$string_output_adapter@_W@__crt_stdio_output@@@2@@__crt_stdio_output@@QAE@XZ 400e0c2f f i libucrt:output.obj
 0001:000dfc39       ??1?$output_processor@_WV?$string_output_adapter@_W@__crt_stdio_output@@V?$standard_base@_WV?$string_output_adapter@_W@__crt_stdio_output@@@2@@__crt_stdio_output@@QAE@XZ 400e0c39 f i libucrt:output.obj
 0001:000dfc43       ??1?$positional_parameter_base@DV?$stream_output_adapter@D@__crt_stdio_output@@@__crt_stdio_output@@QAE@XZ 400e0c43 f i libucrt:output.obj
 0001:000dfc4d       ??1?$positional_parameter_base@DV?$string_output_adapter@D@__crt_stdio_output@@@__crt_stdio_output@@QAE@XZ 400e0c4d f i libucrt:output.obj
 0001:000dfc57       ??1?$positional_parameter_base@_WV?$stream_output_adapter@_W@__crt_stdio_output@@@__crt_stdio_output@@QAE@XZ 400e0c57 f i libucrt:output.obj
 0001:000dfc61       ??1?$positional_parameter_base@_WV?$string_output_adapter@_W@__crt_stdio_output@@@__crt_stdio_output@@QAE@XZ 400e0c61 f i libucrt:output.obj
 0001:000dfc6b       ??1?$standard_base@DV?$stream_output_adapter@D@__crt_stdio_output@@@__crt_stdio_output@@QAE@XZ 400e0c6b f i libucrt:output.obj
 0001:000dfc75       ??1?$standard_base@DV?$string_output_adapter@D@__crt_stdio_output@@@__crt_stdio_output@@QAE@XZ 400e0c75 f i libucrt:output.obj
 0001:000dfc7f       ??1?$standard_base@_WV?$stream_output_adapter@_W@__crt_stdio_output@@@__crt_stdio_output@@QAE@XZ 400e0c7f f i libucrt:output.obj
 0001:000dfc89       ??1?$standard_base@_WV?$string_output_adapter@_W@__crt_stdio_output@@@__crt_stdio_output@@QAE@XZ 400e0c89 f i libucrt:output.obj
 0001:000dfc93       ??1__acrt_stdio_temporary_buffering_guard@@QAE@XZ 400e0c93 f i libucrt:output.obj
 0001:000dfcaa       ??1formatting_buffer@__crt_stdio_output@@QAE@XZ 400e0caa f i libucrt:output.obj
 0001:000dfcca       ??1guard@?$cached@H@__crt_cached_ptd_host@@QAE@XZ 400e0cca f i libucrt:output.obj
 0001:000dfce5       ??4?$__crt_unique_heap_ptr@DU__crt_internal_free_policy@@@@QAEAAV0@$$QAV0@@Z 400e0ce5 f i libucrt:output.obj
 0001:000dfd12       ??A?$spectre_mitigated_lookup_table@Ustate_transition_pair@__crt_stdio_output@@$0IA@@__crt_stdio_output@@QBEABUstate_transition_pair@1@I@Z 400e0d12 f i libucrt:output.obj
 0001:000dfd28       ??C__crt_stdio_stream@@QBEPAU__crt_stdio_stream_data@@XZ 400e0d28 f i libucrt:output.obj
 0001:000e02a7       ?adjust_hexit@?$output_processor@DV?$stream_output_adapter@D@__crt_stdio_output@@V?$format_validation_base@DV?$stream_output_adapter@D@__crt_stdio_output@@@2@@__crt_stdio_output@@CADH_N@Z 400e12a7 f i libucrt:output.obj
 0001:000e02c0       ?adjust_hexit@?$output_processor@DV?$stream_output_adapter@D@__crt_stdio_output@@V?$positional_parameter_base@DV?$stream_output_adapter@D@__crt_stdio_output@@@2@@__crt_stdio_output@@CADH_N@Z 400e12c0 f i libucrt:output.obj
 0001:000e02d9       ?adjust_hexit@?$output_processor@DV?$stream_output_adapter@D@__crt_stdio_output@@V?$standard_base@DV?$stream_output_adapter@D@__crt_stdio_output@@@2@@__crt_stdio_output@@CADH_N@Z 400e12d9 f i libucrt:output.obj
 0001:000e02f2       ?adjust_hexit@?$output_processor@DV?$string_output_adapter@D@__crt_stdio_output@@V?$format_validation_base@DV?$string_output_adapter@D@__crt_stdio_output@@@2@@__crt_stdio_output@@CADH_N@Z 400e12f2 f i libucrt:output.obj
 0001:000e030b       ?adjust_hexit@?$output_processor@DV?$string_output_adapter@D@__crt_stdio_output@@V?$positional_parameter_base@DV?$string_output_adapter@D@__crt_stdio_output@@@2@@__crt_stdio_output@@CADH_N@Z 400e130b f i libucrt:output.obj
 0001:000e0324       ?adjust_hexit@?$output_processor@DV?$string_output_adapter@D@__crt_stdio_output@@V?$standard_base@DV?$string_output_adapter@D@__crt_stdio_output@@@2@@__crt_stdio_output@@CADH_N@Z 400e1324 f i libucrt:output.obj
 0001:000e033d       ?adjust_hexit@?$output_processor@_WV?$stream_output_adapter@_W@__crt_stdio_output@@V?$format_validation_base@_WV?$stream_output_adapter@_W@__crt_stdio_output@@@2@@__crt_stdio_output@@CADH_N@Z 400e133d f i libucrt:output.obj
 0001:000e0356       ?adjust_hexit@?$output_processor@_WV?$stream_output_adapter@_W@__crt_stdio_output@@V?$positional_parameter_base@_WV?$stream_output_adapter@_W@__crt_stdio_output@@@2@@__crt_stdio_output@@CADH_N@Z 400e1356 f i libucrt:output.obj
 0001:000e036f       ?adjust_hexit@?$output_processor@_WV?$stream_output_adapter@_W@__crt_stdio_output@@V?$standard_base@_WV?$stream_output_adapter@_W@__crt_stdio_output@@@2@@__crt_stdio_output@@CADH_N@Z 400e136f f i libucrt:output.obj
 0001:000e0388       ?adjust_hexit@?$output_processor@_WV?$string_output_adapter@_W@__crt_stdio_output@@V?$format_validation_base@_WV?$string_output_adapter@_W@__crt_stdio_output@@@2@@__crt_stdio_output@@CADH_N@Z 400e1388 f i libucrt:output.obj
 0001:000e03a1       ?adjust_hexit@?$output_processor@_WV?$string_output_adapter@_W@__crt_stdio_output@@V?$positional_parameter_base@_WV?$string_output_adapter@_W@__crt_stdio_output@@@2@@__crt_stdio_output@@CADH_N@Z 400e13a1 f i libucrt:output.obj
 0001:000e03ba       ?adjust_hexit@?$output_processor@_WV?$string_output_adapter@_W@__crt_stdio_output@@V?$standard_base@_WV?$string_output_adapter@_W@__crt_stdio_output@@@2@@__crt_stdio_output@@CADH_N@Z 400e13ba f i libucrt:output.obj
 0001:000e03d3       ?advance_to_next_pass@?$positional_parameter_base@DV?$stream_output_adapter@D@__crt_stdio_output@@@__crt_stdio_output@@IAE_NXZ 400e13d3 f i libucrt:output.obj
 0001:000e0432       ?advance_to_next_pass@?$positional_parameter_base@DV?$string_output_adapter@D@__crt_stdio_output@@@__crt_stdio_output@@IAE_NXZ 400e1432 f i libucrt:output.obj
 0001:000e0491       ?advance_to_next_pass@?$positional_parameter_base@_WV?$stream_output_adapter@_W@__crt_stdio_output@@@__crt_stdio_output@@IAE_NXZ 400e1491 f i libucrt:output.obj
 0001:000e04f0       ?advance_to_next_pass@?$positional_parameter_base@_WV?$string_output_adapter@_W@__crt_stdio_output@@@__crt_stdio_output@@IAE_NXZ 400e14f0 f i libucrt:output.obj
 0001:000e054f       ?advance_to_next_pass@?$standard_base@DV?$stream_output_adapter@D@__crt_stdio_output@@@__crt_stdio_output@@IAE_NXZ 400e154f f i libucrt:output.obj
 0001:000e0564       ?advance_to_next_pass@?$standard_base@DV?$string_output_adapter@D@__crt_stdio_output@@@__crt_stdio_output@@IAE_NXZ 400e1564 f i libucrt:output.obj
 0001:000e0579       ?advance_to_next_pass@?$standard_base@_WV?$stream_output_adapter@_W@__crt_stdio_output@@@__crt_stdio_output@@IAE_NXZ 400e1579 f i libucrt:output.obj
 0001:000e058e       ?advance_to_next_pass@?$standard_base@_WV?$string_output_adapter@_W@__crt_stdio_output@@@__crt_stdio_output@@IAE_NXZ 400e158e f i libucrt:output.obj
 0001:000e05a3       ?check@?$cached@H@__crt_cached_ptd_host@@QBE_NH@Z 400e15a3 f i libucrt:output.obj
 0001:000e05c6       ?create_guard@?$cached@H@__crt_cached_ptd_host@@QAE?AVguard@12@XZ 400e15c6 f i libucrt:output.obj
 0001:000e05ea       ?crop_zeroes@__crt_stdio_output@@YAXPADQAU__crt_locale_pointers@@@Z 400e15ea f i libucrt:output.obj
 0001:000e066e       ?disable@guard@?$cached@H@__crt_cached_ptd_host@@QAEXXZ 400e166e f i libucrt:output.obj
 0001:000e0673       ?enable@guard@?$cached@H@__crt_cached_ptd_host@@QAEXXZ 400e1673 f i libucrt:output.obj
 0001:000e0678       ?find_next_state@?$output_processor@DV?$stream_output_adapter@D@__crt_stdio_output@@V?$format_validation_base@DV?$stream_output_adapter@D@__crt_stdio_output@@@2@@__crt_stdio_output@@ABE?AW4state@2@DW432@@Z 400e1678 f i libucrt:output.obj
 0001:000e06c4       ?find_next_state@?$output_processor@DV?$stream_output_adapter@D@__crt_stdio_output@@V?$positional_parameter_base@DV?$stream_output_adapter@D@__crt_stdio_output@@@2@@__crt_stdio_output@@ABE?AW4state@2@DW432@@Z 400e16c4 f i libucrt:output.obj
 0001:000e0710       ?find_next_state@?$output_processor@DV?$stream_output_adapter@D@__crt_stdio_output@@V?$standard_base@DV?$stream_output_adapter@D@__crt_stdio_output@@@2@@__crt_stdio_output@@ABE?AW4state@2@DW432@@Z 400e1710 f i libucrt:output.obj
 0001:000e0759       ?find_next_state@?$output_processor@DV?$string_output_adapter@D@__crt_stdio_output@@V?$format_validation_base@DV?$string_output_adapter@D@__crt_stdio_output@@@2@@__crt_stdio_output@@ABE?AW4state@2@DW432@@Z 400e1759 f i libucrt:output.obj
 0001:000e07a5       ?find_next_state@?$output_processor@DV?$string_output_adapter@D@__crt_stdio_output@@V?$positional_parameter_base@DV?$string_output_adapter@D@__crt_stdio_output@@@2@@__crt_stdio_output@@ABE?AW4state@2@DW432@@Z 400e17a5 f i libucrt:output.obj
 0001:000e07f1       ?find_next_state@?$output_processor@DV?$string_output_adapter@D@__crt_stdio_output@@V?$standard_base@DV?$string_output_adapter@D@__crt_stdio_output@@@2@@__crt_stdio_output@@ABE?AW4state@2@DW432@@Z 400e17f1 f i libucrt:output.obj
 0001:000e083a       ?find_next_state@?$output_processor@_WV?$stream_output_adapter@_W@__crt_stdio_output@@V?$format_validation_base@_WV?$stream_output_adapter@_W@__crt_stdio_output@@@2@@__crt_stdio_output@@ABE?AW4state@2@_WW432@@Z 400e183a f i libucrt:output.obj
 0001:000e0885       ?find_next_state@?$output_processor@_WV?$stream_output_adapter@_W@__crt_stdio_output@@V?$positional_parameter_base@_WV?$stream_output_adapter@_W@__crt_stdio_output@@@2@@__crt_stdio_output@@ABE?AW4state@2@_WW432@@Z 400e1885 f i libucrt:output.obj
 0001:000e08d0       ?find_next_state@?$output_processor@_WV?$stream_output_adapter@_W@__crt_stdio_output@@V?$standard_base@_WV?$stream_output_adapter@_W@__crt_stdio_output@@@2@@__crt_stdio_output@@ABE?AW4state@2@_WW432@@Z 400e18d0 f i libucrt:output.obj
 0001:000e0918       ?find_next_state@?$output_processor@_WV?$string_output_adapter@_W@__crt_stdio_output@@V?$format_validation_base@_WV?$string_output_adapter@_W@__crt_stdio_output@@@2@@__crt_stdio_output@@ABE?AW4state@2@_WW432@@Z 400e1918 f i libucrt:output.obj
 0001:000e0963       ?find_next_state@?$output_processor@_WV?$string_output_adapter@_W@__crt_stdio_output@@V?$positional_parameter_base@_WV?$string_output_adapter@_W@__crt_stdio_output@@@2@@__crt_stdio_output@@ABE?AW4state@2@_WW432@@Z 400e1963 f i libucrt:output.obj
 0001:000e09ae       ?find_next_state@?$output_processor@_WV?$string_output_adapter@_W@__crt_stdio_output@@V?$standard_base@_WV?$string_output_adapter@_W@__crt_stdio_output@@@2@@__crt_stdio_output@@ABE?AW4state@2@_WW432@@Z 400e19ae f i libucrt:output.obj
 0001:000e09f6       ?force_decimal_point@__crt_stdio_output@@YAXPADQAU__crt_locale_pointers@@@Z 400e19f6 f i libucrt:output.obj
 0001:000e0a70       ?get_flags@__crt_stdio_stream@@QBEJXZ 400e1a70 f i libucrt:output.obj
 0001:000e0a77       ?get_parameter_type@?$positional_parameter_base@DV?$stream_output_adapter@D@__crt_stdio_output@@@__crt_stdio_output@@CA?AW4parameter_type@12@F@Z 400e1a77 f i libucrt:output.obj
 0001:000e0a7b       ?get_parameter_type@?$positional_parameter_base@DV?$stream_output_adapter@D@__crt_stdio_output@@@__crt_stdio_output@@CA?AW4parameter_type@12@G@Z 400e1a7b f i libucrt:output.obj
 0001:000e0a7f       ?get_parameter_type@?$positional_parameter_base@DV?$stream_output_adapter@D@__crt_stdio_output@@@__crt_stdio_output@@CA?AW4parameter_type@12@H@Z 400e1a7f f i libucrt:output.obj
 0001:000e0a83       ?get_parameter_type@?$positional_parameter_base@DV?$stream_output_adapter@D@__crt_stdio_output@@@__crt_stdio_output@@CA?AW4parameter_type@12@I@Z 400e1a83 f i libucrt:output.obj
 0001:000e0a87       ?get_parameter_type@?$positional_parameter_base@DV?$stream_output_adapter@D@__crt_stdio_output@@@__crt_stdio_output@@CA?AW4parameter_type@12@U_CRT_DOUBLE@@@Z 400e1a87 f i libucrt:output.obj
 0001:000e0a8b       ?get_parameter_type@?$positional_parameter_base@DV?$stream_output_adapter@D@__crt_stdio_output@@@__crt_stdio_output@@CA?AW4parameter_type@12@_J@Z 400e1a8b f i libucrt:output.obj
 0001:000e0a8f       ?get_parameter_type@?$positional_parameter_base@DV?$stream_output_adapter@D@__crt_stdio_output@@@__crt_stdio_output@@CA?AW4parameter_type@12@_K@Z 400e1a8f f i libucrt:output.obj
 0001:000e0a93       ?get_parameter_type@?$positional_parameter_base@DV?$stream_output_adapter@D@__crt_stdio_output@@@__crt_stdio_output@@CA?AW4parameter_type@12@_W@Z 400e1a93 f i libucrt:output.obj
 0001:000e0a97       ?get_parameter_type@?$positional_parameter_base@DV?$string_output_adapter@D@__crt_stdio_output@@@__crt_stdio_output@@CA?AW4parameter_type@12@F@Z 400e1a97 f i libucrt:output.obj
 0001:000e0a9b       ?get_parameter_type@?$positional_parameter_base@DV?$string_output_adapter@D@__crt_stdio_output@@@__crt_stdio_output@@CA?AW4parameter_type@12@G@Z 400e1a9b f i libucrt:output.obj
 0001:000e0a9f       ?get_parameter_type@?$positional_parameter_base@DV?$string_output_adapter@D@__crt_stdio_output@@@__crt_stdio_output@@CA?AW4parameter_type@12@H@Z 400e1a9f f i libucrt:output.obj
 0001:000e0aa3       ?get_parameter_type@?$positional_parameter_base@DV?$string_output_adapter@D@__crt_stdio_output@@@__crt_stdio_output@@CA?AW4parameter_type@12@I@Z 400e1aa3 f i libucrt:output.obj
 0001:000e0aa7       ?get_parameter_type@?$positional_parameter_base@DV?$string_output_adapter@D@__crt_stdio_output@@@__crt_stdio_output@@CA?AW4parameter_type@12@U_CRT_DOUBLE@@@Z 400e1aa7 f i libucrt:output.obj
 0001:000e0aab       ?get_parameter_type@?$positional_parameter_base@DV?$string_output_adapter@D@__crt_stdio_output@@@__crt_stdio_output@@CA?AW4parameter_type@12@_J@Z 400e1aab f i libucrt:output.obj
 0001:000e0aaf       ?get_parameter_type@?$positional_parameter_base@DV?$string_output_adapter@D@__crt_stdio_output@@@__crt_stdio_output@@CA?AW4parameter_type@12@_K@Z 400e1aaf f i libucrt:output.obj
 0001:000e0ab3       ?get_parameter_type@?$positional_parameter_base@DV?$string_output_adapter@D@__crt_stdio_output@@@__crt_stdio_output@@CA?AW4parameter_type@12@_W@Z 400e1ab3 f i libucrt:output.obj
 0001:000e0ab7       ?get_parameter_type@?$positional_parameter_base@_WV?$stream_output_adapter@_W@__crt_stdio_output@@@__crt_stdio_output@@CA?AW4parameter_type@12@F@Z 400e1ab7 f i libucrt:output.obj
 0001:000e0abb       ?get_parameter_type@?$positional_parameter_base@_WV?$stream_output_adapter@_W@__crt_stdio_output@@@__crt_stdio_output@@CA?AW4parameter_type@12@G@Z 400e1abb f i libucrt:output.obj
 0001:000e0abf       ?get_parameter_type@?$positional_parameter_base@_WV?$stream_output_adapter@_W@__crt_stdio_output@@@__crt_stdio_output@@CA?AW4parameter_type@12@H@Z 400e1abf f i libucrt:output.obj
 0001:000e0ac3       ?get_parameter_type@?$positional_parameter_base@_WV?$stream_output_adapter@_W@__crt_stdio_output@@@__crt_stdio_output@@CA?AW4parameter_type@12@I@Z 400e1ac3 f i libucrt:output.obj
 0001:000e0ac7       ?get_parameter_type@?$positional_parameter_base@_WV?$stream_output_adapter@_W@__crt_stdio_output@@@__crt_stdio_output@@CA?AW4parameter_type@12@U_CRT_DOUBLE@@@Z 400e1ac7 f i libucrt:output.obj
 0001:000e0acb       ?get_parameter_type@?$positional_parameter_base@_WV?$stream_output_adapter@_W@__crt_stdio_output@@@__crt_stdio_output@@CA?AW4parameter_type@12@_J@Z 400e1acb f i libucrt:output.obj
 0001:000e0acf       ?get_parameter_type@?$positional_parameter_base@_WV?$stream_output_adapter@_W@__crt_stdio_output@@@__crt_stdio_output@@CA?AW4parameter_type@12@_K@Z 400e1acf f i libucrt:output.obj
 0001:000e0ad3       ?get_parameter_type@?$positional_parameter_base@_WV?$stream_output_adapter@_W@__crt_stdio_output@@@__crt_stdio_output@@CA?AW4parameter_type@12@_W@Z 400e1ad3 f i libucrt:output.obj
 0001:000e0ad7       ?get_parameter_type@?$positional_parameter_base@_WV?$string_output_adapter@_W@__crt_stdio_output@@@__crt_stdio_output@@CA?AW4parameter_type@12@F@Z 400e1ad7 f i libucrt:output.obj
 0001:000e0adb       ?get_parameter_type@?$positional_parameter_base@_WV?$string_output_adapter@_W@__crt_stdio_output@@@__crt_stdio_output@@CA?AW4parameter_type@12@G@Z 400e1adb f i libucrt:output.obj
 0001:000e0adf       ?get_parameter_type@?$positional_parameter_base@_WV?$string_output_adapter@_W@__crt_stdio_output@@@__crt_stdio_output@@CA?AW4parameter_type@12@H@Z 400e1adf f i libucrt:output.obj
 0001:000e0ae3       ?get_parameter_type@?$positional_parameter_base@_WV?$string_output_adapter@_W@__crt_stdio_output@@@__crt_stdio_output@@CA?AW4parameter_type@12@I@Z 400e1ae3 f i libucrt:output.obj
 0001:000e0ae7       ?get_parameter_type@?$positional_parameter_base@_WV?$string_output_adapter@_W@__crt_stdio_output@@@__crt_stdio_output@@CA?AW4parameter_type@12@U_CRT_DOUBLE@@@Z 400e1ae7 f i libucrt:output.obj
 0001:000e0aeb       ?get_parameter_type@?$positional_parameter_base@_WV?$string_output_adapter@_W@__crt_stdio_output@@@__crt_stdio_output@@CA?AW4parameter_type@12@_J@Z 400e1aeb f i libucrt:output.obj
 0001:000e0aef       ?get_parameter_type@?$positional_parameter_base@_WV?$string_output_adapter@_W@__crt_stdio_output@@@__crt_stdio_output@@CA?AW4parameter_type@12@_K@Z 400e1aef f i libucrt:output.obj
 0001:000e0af3       ?get_parameter_type@?$positional_parameter_base@_WV?$string_output_adapter@_W@__crt_stdio_output@@@__crt_stdio_output@@CA?AW4parameter_type@12@_W@Z 400e1af3 f i libucrt:output.obj
 0001:000e0af7       ?has_flag@?$output_processor@DV?$stream_output_adapter@D@__crt_stdio_output@@V?$format_validation_base@DV?$stream_output_adapter@D@__crt_stdio_output@@@2@@__crt_stdio_output@@ABE_NI@Z 400e1af7 f i libucrt:output.obj
 0001:000e0b0d       ?has_flag@?$output_processor@DV?$stream_output_adapter@D@__crt_stdio_output@@V?$positional_parameter_base@DV?$stream_output_adapter@D@__crt_stdio_output@@@2@@__crt_stdio_output@@ABE_NI@Z 400e1b0d f i libucrt:output.obj
 0001:000e0b23       ?has_flag@?$output_processor@DV?$stream_output_adapter@D@__crt_stdio_output@@V?$standard_base@DV?$stream_output_adapter@D@__crt_stdio_output@@@2@@__crt_stdio_output@@ABE_NI@Z 400e1b23 f i libucrt:output.obj
 0001:000e0b39       ?has_flag@?$output_processor@DV?$string_output_adapter@D@__crt_stdio_output@@V?$format_validation_base@DV?$string_output_adapter@D@__crt_stdio_output@@@2@@__crt_stdio_output@@ABE_NI@Z 400e1b39 f i libucrt:output.obj
 0001:000e0b4f       ?has_flag@?$output_processor@DV?$string_output_adapter@D@__crt_stdio_output@@V?$positional_parameter_base@DV?$string_output_adapter@D@__crt_stdio_output@@@2@@__crt_stdio_output@@ABE_NI@Z 400e1b4f f i libucrt:output.obj
 0001:000e0b65       ?has_flag@?$output_processor@DV?$string_output_adapter@D@__crt_stdio_output@@V?$standard_base@DV?$string_output_adapter@D@__crt_stdio_output@@@2@@__crt_stdio_output@@ABE_NI@Z 400e1b65 f i libucrt:output.obj
 0001:000e0b7b       ?has_flag@?$output_processor@_WV?$stream_output_adapter@_W@__crt_stdio_output@@V?$format_validation_base@_WV?$stream_output_adapter@_W@__crt_stdio_output@@@2@@__crt_stdio_output@@ABE_NI@Z 400e1b7b f i libucrt:output.obj
 0001:000e0b91       ?has_flag@?$output_processor@_WV?$stream_output_adapter@_W@__crt_stdio_output@@V?$positional_parameter_base@_WV?$stream_output_adapter@_W@__crt_stdio_output@@@2@@__crt_stdio_output@@ABE_NI@Z 400e1b91 f i libucrt:output.obj
 0001:000e0ba7       ?has_flag@?$output_processor@_WV?$stream_output_adapter@_W@__crt_stdio_output@@V?$standard_base@_WV?$stream_output_adapter@_W@__crt_stdio_output@@@2@@__crt_stdio_output@@ABE_NI@Z 400e1ba7 f i libucrt:output.obj
 0001:000e0bbd       ?has_flag@?$output_processor@_WV?$string_output_adapter@_W@__crt_stdio_output@@V?$format_validation_base@_WV?$string_output_adapter@_W@__crt_stdio_output@@@2@@__crt_stdio_output@@ABE_NI@Z 400e1bbd f i libucrt:output.obj
 0001:000e0bd3       ?has_flag@?$output_processor@_WV?$string_output_adapter@_W@__crt_stdio_output@@V?$positional_parameter_base@_WV?$string_output_adapter@_W@__crt_stdio_output@@@2@@__crt_stdio_output@@ABE_NI@Z 400e1bd3 f i libucrt:output.obj
 0001:000e0be9       ?has_flag@?$output_processor@_WV?$string_output_adapter@_W@__crt_stdio_output@@V?$standard_base@_WV?$string_output_adapter@_W@__crt_stdio_output@@@2@@__crt_stdio_output@@ABE_NI@Z 400e1be9 f i libucrt:output.obj
 0001:000e0bff       ?is_positional_parameter_reappearance_consistent@?$positional_parameter_base@DV?$stream_output_adapter@D@__crt_stdio_output@@@__crt_stdio_output@@AAE_NABUparameter_data@12@W4parameter_type@12@DW4length_modifier@2@@Z 400e1bff f i libucrt:output.obj
 0001:000e0d5f       ?is_positional_parameter_reappearance_consistent@?$positional_parameter_base@DV?$string_output_adapter@D@__crt_stdio_output@@@__crt_stdio_output@@AAE_NABUparameter_data@12@W4parameter_type@12@DW4length_modifier@2@@Z 400e1d5f f i libucrt:output.obj
 0001:000e0ebf       ?is_positional_parameter_reappearance_consistent@?$positional_parameter_base@_WV?$stream_output_adapter@_W@__crt_stdio_output@@@__crt_stdio_output@@AAE_NABUparameter_data@12@W4parameter_type@12@_WW4length_modifier@2@@Z 400e1ebf f i libucrt:output.obj
 0001:000e1020       ?is_positional_parameter_reappearance_consistent@?$positional_parameter_base@_WV?$string_output_adapter@_W@__crt_stdio_output@@@__crt_stdio_output@@AAE_NABUparameter_data@12@W4parameter_type@12@_WW4length_modifier@2@@Z 400e2020 f i libucrt:output.obj
 0001:000e1181       ?is_string_backed@__crt_stdio_stream@@QBE_NXZ 400e2181 f i libucrt:output.obj
 0001:000e1190       ?narrow_null_string@?$output_processor@DV?$stream_output_adapter@D@__crt_stdio_output@@V?$format_validation_base@DV?$stream_output_adapter@D@__crt_stdio_output@@@2@@__crt_stdio_output@@CAPADXZ 400e2190 f i libucrt:output.obj
 0001:000e1196       ?narrow_null_string@?$output_processor@DV?$stream_output_adapter@D@__crt_stdio_output@@V?$positional_parameter_base@DV?$stream_output_adapter@D@__crt_stdio_output@@@2@@__crt_stdio_output@@CAPADXZ 400e2196 f i libucrt:output.obj
 0001:000e119c       ?narrow_null_string@?$output_processor@DV?$stream_output_adapter@D@__crt_stdio_output@@V?$standard_base@DV?$stream_output_adapter@D@__crt_stdio_output@@@2@@__crt_stdio_output@@CAPADXZ 400e219c f i libucrt:output.obj
 0001:000e11a2       ?narrow_null_string@?$output_processor@DV?$string_output_adapter@D@__crt_stdio_output@@V?$format_validation_base@DV?$string_output_adapter@D@__crt_stdio_output@@@2@@__crt_stdio_output@@CAPADXZ 400e21a2 f i libucrt:output.obj
 0001:000e11a8       ?narrow_null_string@?$output_processor@DV?$string_output_adapter@D@__crt_stdio_output@@V?$positional_parameter_base@DV?$string_output_adapter@D@__crt_stdio_output@@@2@@__crt_stdio_output@@CAPADXZ 400e21a8 f i libucrt:output.obj
 0001:000e11ae       ?narrow_null_string@?$output_processor@DV?$string_output_adapter@D@__crt_stdio_output@@V?$standard_base@DV?$string_output_adapter@D@__crt_stdio_output@@@2@@__crt_stdio_output@@CAPADXZ 400e21ae f i libucrt:output.obj
 0001:000e11b4       ?narrow_null_string@?$output_processor@_WV?$stream_output_adapter@_W@__crt_stdio_output@@V?$format_validation_base@_WV?$stream_output_adapter@_W@__crt_stdio_output@@@2@@__crt_stdio_output@@CAPADXZ 400e21b4 f i libucrt:output.obj
 0001:000e11ba       ?narrow_null_string@?$output_processor@_WV?$stream_output_adapter@_W@__crt_stdio_output@@V?$positional_parameter_base@_WV?$stream_output_adapter@_W@__crt_stdio_output@@@2@@__crt_stdio_output@@CAPADXZ 400e21ba f i libucrt:output.obj
 0001:000e11c0       ?narrow_null_string@?$output_processor@_WV?$stream_output_adapter@_W@__crt_stdio_output@@V?$standard_base@_WV?$stream_output_adapter@_W@__crt_stdio_output@@@2@@__crt_stdio_output@@CAPADXZ 400e21c0 f i libucrt:output.obj
 0001:000e11c6       ?narrow_null_string@?$output_processor@_WV?$string_output_adapter@_W@__crt_stdio_output@@V?$format_validation_base@_WV?$string_output_adapter@_W@__crt_stdio_output@@@2@@__crt_stdio_output@@CAPADXZ 400e21c6 f i libucrt:output.obj
 0001:000e11cc       ?narrow_null_string@?$output_processor@_WV?$string_output_adapter@_W@__crt_stdio_output@@V?$positional_parameter_base@_WV?$string_output_adapter@_W@__crt_stdio_output@@@2@@__crt_stdio_output@@CAPADXZ 400e21cc f i libucrt:output.obj
 0001:000e11d2       ?narrow_null_string@?$output_processor@_WV?$string_output_adapter@_W@__crt_stdio_output@@V?$standard_base@_WV?$string_output_adapter@_W@__crt_stdio_output@@@2@@__crt_stdio_output@@CAPADXZ 400e21d2 f i libucrt:output.obj
 0001:000e11d8       ?parse_int_from_format_string@?$output_processor@DV?$stream_output_adapter@D@__crt_stdio_output@@V?$format_validation_base@DV?$stream_output_adapter@D@__crt_stdio_output@@@2@@__crt_stdio_output@@AAE_NQAH@Z 400e21d8 f i libucrt:output.obj
 0001:000e126e       ?parse_int_from_format_string@?$output_processor@DV?$stream_output_adapter@D@__crt_stdio_output@@V?$positional_parameter_base@DV?$stream_output_adapter@D@__crt_stdio_output@@@2@@__crt_stdio_output@@AAE_NQAH@Z 400e226e f i libucrt:output.obj
 0001:000e1304       ?parse_int_from_format_string@?$output_processor@DV?$stream_output_adapter@D@__crt_stdio_output@@V?$standard_base@DV?$stream_output_adapter@D@__crt_stdio_output@@@2@@__crt_stdio_output@@AAE_NQAH@Z 400e2304 f i libucrt:output.obj
 0001:000e139a       ?parse_int_from_format_string@?$output_processor@DV?$string_output_adapter@D@__crt_stdio_output@@V?$format_validation_base@DV?$string_output_adapter@D@__crt_stdio_output@@@2@@__crt_stdio_output@@AAE_NQAH@Z 400e239a f i libucrt:output.obj
 0001:000e1430       ?parse_int_from_format_string@?$output_processor@DV?$string_output_adapter@D@__crt_stdio_output@@V?$positional_parameter_base@DV?$string_output_adapter@D@__crt_stdio_output@@@2@@__crt_stdio_output@@AAE_NQAH@Z 400e2430 f i libucrt:output.obj
 0001:000e14c6       ?parse_int_from_format_string@?$output_processor@DV?$string_output_adapter@D@__crt_stdio_output@@V?$standard_base@DV?$string_output_adapter@D@__crt_stdio_output@@@2@@__crt_stdio_output@@AAE_NQAH@Z 400e24c6 f i libucrt:output.obj
 0001:000e155c       ?parse_int_from_format_string@?$output_processor@_WV?$stream_output_adapter@_W@__crt_stdio_output@@V?$format_validation_base@_WV?$stream_output_adapter@_W@__crt_stdio_output@@@2@@__crt_stdio_output@@AAE_NQAH@Z 400e255c f i libucrt:output.obj
 0001:000e15f4       ?parse_int_from_format_string@?$output_processor@_WV?$stream_output_adapter@_W@__crt_stdio_output@@V?$positional_parameter_base@_WV?$stream_output_adapter@_W@__crt_stdio_output@@@2@@__crt_stdio_output@@AAE_NQAH@Z 400e25f4 f i libucrt:output.obj
 0001:000e168c       ?parse_int_from_format_string@?$output_processor@_WV?$stream_output_adapter@_W@__crt_stdio_output@@V?$standard_base@_WV?$stream_output_adapter@_W@__crt_stdio_output@@@2@@__crt_stdio_output@@AAE_NQAH@Z 400e268c f i libucrt:output.obj
 0001:000e1724       ?parse_int_from_format_string@?$output_processor@_WV?$string_output_adapter@_W@__crt_stdio_output@@V?$format_validation_base@_WV?$string_output_adapter@_W@__crt_stdio_output@@@2@@__crt_stdio_output@@AAE_NQAH@Z 400e2724 f i libucrt:output.obj
 0001:000e17bc       ?parse_int_from_format_string@?$output_processor@_WV?$string_output_adapter@_W@__crt_stdio_output@@V?$positional_parameter_base@_WV?$string_output_adapter@_W@__crt_stdio_output@@@2@@__crt_stdio_output@@AAE_NQAH@Z 400e27bc f i libucrt:output.obj
 0001:000e1854       ?parse_int_from_format_string@?$output_processor@_WV?$string_output_adapter@_W@__crt_stdio_output@@V?$standard_base@_WV?$string_output_adapter@_W@__crt_stdio_output@@@2@@__crt_stdio_output@@AAE_NQAH@Z 400e2854 f i libucrt:output.obj
 0001:000e18ec       ?process@?$output_processor@DV?$stream_output_adapter@D@__crt_stdio_output@@V?$format_validation_base@DV?$stream_output_adapter@D@__crt_stdio_output@@@2@@__crt_stdio_output@@QAEHXZ 400e28ec f i libucrt:output.obj
 0001:000e1c52       ?process@?$output_processor@DV?$stream_output_adapter@D@__crt_stdio_output@@V?$positional_parameter_base@DV?$stream_output_adapter@D@__crt_stdio_output@@@2@@__crt_stdio_output@@QAEHXZ 400e2c52 f i libucrt:output.obj
 0001:000e1fdb       ?process@?$output_processor@DV?$stream_output_adapter@D@__crt_stdio_output@@V?$standard_base@DV?$stream_output_adapter@D@__crt_stdio_output@@@2@@__crt_stdio_output@@QAEHXZ 400e2fdb f i libucrt:output.obj
 0001:000e232d       ?process@?$output_processor@DV?$string_output_adapter@D@__crt_stdio_output@@V?$format_validation_base@DV?$string_output_adapter@D@__crt_stdio_output@@@2@@__crt_stdio_output@@QAEHXZ 400e332d f i libucrt:output.obj
 0001:000e26cf       ?process@?$output_processor@DV?$string_output_adapter@D@__crt_stdio_output@@V?$positional_parameter_base@DV?$string_output_adapter@D@__crt_stdio_output@@@2@@__crt_stdio_output@@QAEHXZ 400e36cf f i libucrt:output.obj
 0001:000e2a8f       ?process@?$output_processor@DV?$string_output_adapter@D@__crt_stdio_output@@V?$standard_base@DV?$string_output_adapter@D@__crt_stdio_output@@@2@@__crt_stdio_output@@QAEHXZ 400e3a8f f i libucrt:output.obj
 0001:000e2e18       ?process@?$output_processor@_WV?$stream_output_adapter@_W@__crt_stdio_output@@V?$format_validation_base@_WV?$stream_output_adapter@_W@__crt_stdio_output@@@2@@__crt_stdio_output@@QAEHXZ 400e3e18 f i libucrt:output.obj
 0001:000e30ca       ?process@?$output_processor@_WV?$stream_output_adapter@_W@__crt_stdio_output@@V?$positional_parameter_base@_WV?$stream_output_adapter@_W@__crt_stdio_output@@@2@@__crt_stdio_output@@QAEHXZ 400e40ca f i libucrt:output.obj
 0001:000e33b3       ?process@?$output_processor@_WV?$stream_output_adapter@_W@__crt_stdio_output@@V?$standard_base@_WV?$stream_output_adapter@_W@__crt_stdio_output@@@2@@__crt_stdio_output@@QAEHXZ 400e43b3 f i libucrt:output.obj
