 cgame_mp_x86

 Timestamp is 69f1473f (Tue Apr 28 16:48:15 2026)

 Preferred load address is 30000000

 Start         Length     Name                   Class
 0001:00000000 0001a720H .text$di                CODE
 0001:0001a720 001b4990H .text$mn                CODE
 0001:001cf0b0 00008730H .text$x                 CODE
 0001:001d77e0 00001a87H .text$yd                CODE
 0002:00000000 00000104H .CRT$XCA                DATA
 0002:00000104 00000124H .CRT$XCC                DATA
 0002:00000228 0000010cH .CRT$XCL                DATA
 0002:00000334 00000380H .CRT$XCU                DATA
 0002:000006b4 00000104H .CRT$XCZ                DATA
 0002:000007b8 00000104H .CRT$XIA                DATA
 0002:000008bc 00000114H .CRT$XIC                DATA
 0002:000009d0 00000104H .CRT$XIZ                DATA
 0002:00000ad4 00000104H .CRT$XPA                DATA
 0002:00000bd8 0000010cH .CRT$XPX                DATA
 0002:00000ce4 00000104H .CRT$XPXA               DATA
 0002:00000de8 00000104H .CRT$XPZ                DATA
 0002:00000eec 00000104H .CRT$XTA                DATA
 0002:00000ff0 00000110H .CRT$XTZ                DATA
 0002:00001100 00031b80H .rdata                  DATA
 0002:00032c80 00000180H .rdata$CastGuardVftablesA DATA
 0002:00032e00 0000014cH .rdata$CastGuardVftablesC DATA
 0002:00032f4c 00002708H .rdata$r                DATA
 0002:00035654 000009dcH .rdata$sxdata           DATA
 0002:00036030 00000188H .rdata$zzzdbg           DATA
 0002:000361b8 00000104H .rtc$IAA                DATA
 0002:000362bc 00000104H .rtc$IZZ                DATA
 0002:000363c0 00000104H .rtc$TAA                DATA
 0002:000364c4 00000104H .rtc$TZZ                DATA
 0002:000365c8 00009088H .xdata$x                DATA
 0002:0003f650 0000016fH .edata                  DATA
 0003:00000000 0000ff5cH .data                   DATA
 0003:0000ff5c 00000384H .data$r                 DATA
 0003:000102e0 00001328H .data$rs                DATA
 0003:00011608 04466bb8H .bss                    DATA
 0004:00000000 0000020cH .idata$5                DATA
 0004:0000020c 00000028H .idata$2                DATA
 0004:00000234 00000014H .idata$3                DATA
 0004:00000248 0000020cH .idata$4                DATA
 0004:00000454 0000085dH .idata$6                DATA
 0005:00000000 0000010eH .00cfg                  DATA
 0006:00000000 00000199H .fptable                DATA
 0007:00000000 00000170H .rsrc$01                DATA
 0007:00000170 000002ccH .rsrc$02                DATA

  Address         Publics by Value              Rva+Base       Lib:Object

 0000:00000000       ___AbsoluteZero            00000000     <absolute>
 0000:00000000       ___arm64x_extra_rfe_table  00000000     <absolute>
 0000:00000000       ___arm64x_extra_rfe_table_size 00000000     <absolute>
 0000:00000000       ___arm64x_native_entrypoint 00000000     <absolute>
 0000:00000000       ___arm64x_redirection_metadata 00000000     <absolute>
 0000:00000000       ___arm64x_redirection_metadata_count 00000000     <absolute>
 0000:00000000       ___dynamic_value_reloc_table 00000000     <absolute>
 0000:00000000       ___enclave_config          00000000     <absolute>
 0000:00000000       ___guard_check_icall_a64n_fptr 00000000     <absolute>
 0000:00000000       ___guard_eh_cont_count     00000000     <absolute>
 0000:00000000       ___guard_eh_cont_table     00000000     <absolute>
 0000:00000000       ___guard_fids_count        00000000     <absolute>
 0000:00000000       ___guard_fids_table        00000000     <absolute>
 0000:00000000       ___guard_iat_count         00000000     <absolute>
 0000:00000000       ___guard_iat_table         00000000     <absolute>
 0000:00000000       ___guard_longjmp_count     00000000     <absolute>
 0000:00000000       ___guard_longjmp_table     00000000     <absolute>
 0000:00000000       ___hybrid_auxiliary_delayload_iat 00000000     <absolute>
 0000:00000000       ___hybrid_auxiliary_delayload_iat_copy 00000000     <absolute>
 0000:00000000       ___hybrid_auxiliary_iat    00000000     <absolute>
 0000:00000000       ___hybrid_auxiliary_iat_copy 00000000     <absolute>
 0000:00000000       ___hybrid_code_map         00000000     <absolute>
 0000:00000000       ___hybrid_code_map_count   00000000     <absolute>
 0000:00000000       ___hybrid_image_info_bitfield 00000000     <absolute>
 0000:00000000       ___volatile_metadata       00000000     <absolute>
 0000:00000000       ___x64_code_ranges_to_entry_points 00000000     <absolute>
 0000:00000000       ___x64_code_ranges_to_entry_points_count 00000000     <absolute>
 0000:00000000       __except_list              00000000     <absolute>
 0000:00000100       ___guard_flags             00000100     <absolute>
 0000:000001d8       ___safe_se_handler_count   000001d8     <absolute>
 0000:00000000       ___ImageBase               30000000     <linker-defined>
 0001:0001a720       ??1?$basic_string@DU?$char_traits@D@std@@V?$allocator@D@2@@std@@QAE@XZ 3001b720 f i cg_main.obj
 0001:0001a780       ?CG_Argv@@YAPBDH@Z         3001b780 f   cg_main.obj
 0001:0001a7b0       ?CG_AssetCache@@YAXXZ      3001b7b0 f   cg_main.obj
 0001:0001a900       ?CG_Asset_Parse@@YA?AW4qboolean@@H@Z 3001b900 f   cg_main.obj
 0001:0001ada0       ?CG_Authenticate@@YAXXZ    3001bda0 f   cg_main.obj
 0001:0001adc0       ?CG_CheckExecKey@@YA?AW4qboolean@@H@Z 3001bdc0 f   cg_main.obj
 0001:0001adf0       ?CG_ConfigString@@YAPBDH@Z 3001bdf0 f   cg_main.obj
 0001:0001ae30       ?CG_ConfigStringCopy@@YAHHPADH@Z 3001be30 f   cg_main.obj
 0001:0001ae70       ?CG_CrosshairPlayer@@YAHXZ 3001be70 f   cg_main.obj
 0001:0001aea0       ?CG_Cvar_ClampInt@@YA?AW4qboolean@@PBDPAUvmCvar_t@@HH@Z 3001bea0 f   cg_main.obj
 0001:0001af30       ?CG_Cvar_Get@@YAMPBD@Z     3001bf30 f   cg_main.obj
 0001:0001afd0       ?CG_Error@@YAXPBDZZ        3001bfd0 f   cg_main.obj
 0001:0001b4b0       ?CG_GetScreenWidth@@YAHXZ  3001c4b0 f   cg_main.obj
 0001:0001b5b0       ?CG_Init@@YAXHHHW4qboolean@@@Z 3001c5b0 f   cg_main.obj
 0001:0001bc70       ?CG_LastAttacker@@YAHXZ    3001cc70 f   cg_main.obj
 0001:0001bcb0       ?CG_LoadHudMenu@@YAXXZ     3001ccb0 f   cg_main.obj
 0001:0001bfe0       ?CG_LoadMenus@@YAXPBD@Z    3001cfe0 f   cg_main.obj
 0001:0001c190       ?CG_LoadObjectiveData@@YAXXZ 3001d190 f   cg_main.obj
 0001:0001c4a0       ?CG_Load_Menu@@YA?AW4qboolean@@PAPAD@Z 3001d4a0 f   cg_main.obj
 0001:0001c550       ?CG_ParseMenu@@YAXPBD@Z    3001d550 f   cg_main.obj
 0001:0001c680       ?CG_Printf@@YAXPBDZZ       3001d680 f   cg_main.obj
 0001:0001c790       ?CG_QueueMusic@@YAXXZ      3001d790 f   cg_main.obj
 0001:0001c830       ?CG_RegisterCvars@@YAXXZ   3001d830 f   cg_main.obj
 0001:0001f950       ?CG_SetJayFlags@@YAXXZ     30020950 f   cg_main.obj
 0001:0001f990       ?CG_SetMACAddress@@YAXXZ   30020990 f   cg_main.obj
 0001:0001fa50       ?CG_SetupDlightstyles@@YAXXZ 30020a50 f   cg_main.obj
 0001:0001fc20       ?CG_Shutdown@@YAXXZ        30020c20 f   cg_main.obj
 0001:0001fcb0       ?CG_StartMusic@@YAXXZ      30020cb0 f   cg_main.obj
 0001:0001fd60       ?CG_Text_PaintWithCursor@@YAXMMMQAMPBDHDHH@Z 30020d60 f   cg_main.obj
 0001:0001fdc0       ?CG_UpdateCvars@@YAXXZ     30020dc0 f   cg_main.obj
 0001:00020090       ?CG_findClientNum@@YAHPAD@Z 30021090 f   cg_main.obj
 0001:000201d0       ?CG_generateFilename@@YAPADXZ 300211d0 f   cg_main.obj
 0001:00020260       ?CG_nameCleanFilename@@YAXPBDPADI@Z 30021260 f   cg_main.obj
 0001:000202f0       ?CG_printConsoleString@@YAXPAD@Z 300212f0 f   cg_main.obj
 0001:00020310       ?CG_setClientFlags@@YAXXZ  30021310 f   cg_main.obj
 0001:000203b0       ?Com_Error@@YAXHPBDZZ      300213b0 f   cg_main.obj
 0001:00020400       ?Com_Printf@@YAXPBDZZ      30021400 f   cg_main.obj
 0001:00020450       _vmMain                    30021450 f   cg_main.obj
 0001:000205e0       ?render@CBulletVolume@@SAXAAUcentity_s@@@Z 300215e0 f   CBulletVolume.obj
 0001:00020810       ?CG_AddAtmosphericEffects@@YAXXZ 30021810 f   cg_atmospheric.obj
 0001:00020b80       ?CG_AtmosphericKludge@@YA?AW4qboolean@@XZ 30021b80 f   cg_atmospheric.obj
 0001:000210c0       ?CG_EffectParse@@YAXPBD@Z  300220c0 f   cg_atmospheric.obj
 0001:00022a90       ?CG_CharacterForClientinfo@@YAPAUbg_character_s@@PAUclientInfo_s@@PAUcentity_s@@@Z 30023a90 f   cg_character.obj
 0001:00022b60       ?CG_CharacterForPlayerstate@@YAPAUbg_character_s@@PAUplayerState_s@@@Z 30023b60 f   cg_character.obj
 0001:00022ff0       ?CG_RegisterCharacter@@YA?AW4qboolean@@PBDPAUbg_character_s@@@Z 30023ff0 f   cg_character.obj
 0001:00023450       ?CG_RegisterPlayerClasses@@YAXXZ 30024450 f   cg_character.obj
 0001:000235a0       ??$?8DU?$char_traits@D@std@@@std@@YA_NABV?$istreambuf_iterator@DU?$char_traits@D@std@@@0@0@Z 300245a0 f i cg_commandmap.obj
 0001:00023660       ??$?9DU?$char_traits@D@std@@@std@@YA_NABV?$istreambuf_iterator@DU?$char_traits@D@std@@@0@0@Z 30024660 f i cg_commandmap.obj
 0001:00023680       ??$_Allocate_manually_vector_aligned@U_Default_allocate_traits@std@@@std@@YAPAXI@Z 30024680 f i cg_commandmap.obj
 0001:000236c0       ??$_Common_extract_with_num_get@J@?$basic_istream@DU?$char_traits@D@std@@@std@@AAEAAV01@AAJ@Z 300246c0 f i cg_commandmap.obj
 0001:000238d0       ??$_Construct@$00PBD@?$basic_string@DU?$char_traits@D@std@@V?$allocator@D@2@@std@@AAEXQBDI@Z 300248d0 f i cg_commandmap.obj
 0001:000239b0       ??$_Construct_in_place_by_deref@PAPAUmapEntityData_t@@PAPAPAU1@@std@@YAXAAPAPAUmapEntityData_t@@AAPAPAPAU1@@Z 300249b0 f i cg_commandmap.obj
 0001:000239d0       ??$_Copy_memmove@PAPAPAUmapEntityData_t@@PAPAPAU1@@std@@YAPAPAPAUmapEntityData_t@@PAPAPAU1@00@Z 300249d0 f i cg_commandmap.obj
 0001:00023a00       ??$_Copy_memmove_tail@PAPAPAUmapEntityData_t@@@std@@YAPAPAPAUmapEntityData_t@@QBDQAPAPAU1@II@Z 30024a00 f i cg_commandmap.obj
 0001:00023a30       ??$_Find_elem@D$0BL@@std@@YAIAAY0BL@$$CBDD@Z 30024a30 f i cg_commandmap.obj
 0001:00023a60       ??$_Find_elem@D$0BN@@std@@YAIAAY0BN@$$CBDD@Z 30024a60 f i cg_commandmap.obj
 0001:00023a90       ??$_Find_vectorized@$$CBDD@std@@YAPBDQBD0D@Z 30024a90 f i cg_commandmap.obj
 0001:00023ab0       ??$_Getloctxt@V?$istreambuf_iterator@DU?$char_traits@D@std@@@std@@D@std@@YAHAAV?$istreambuf_iterator@DU?$char_traits@D@std@@@0@0IPBDW4_Case_sensitive@0@@Z 30024ab0 f i cg_commandmap.obj
 0001:00023ec0       ??$_Immortalize_memcpy_image@V_Iostream_error_category2@std@@@std@@YAABV_Iostream_error_category2@0@XZ 30024ec0 f i cg_commandmap.obj
 0001:00023ed0       ??$_Maklocchr@D@std@@YADDPADABU_Cvtvec@@@Z 30024ed0 f i cg_commandmap.obj
 0001:00023ee0       ??$_Maklocstr@D@std@@YAPADPBDPADABU_Cvtvec@@@Z 30024ee0 f i cg_commandmap.obj
 0001:00023f40       ??$_Parse_fp_with_locale@$0A@@?$num_get@DV?$istreambuf_iterator@DU?$char_traits@D@std@@@std@@@std@@CA?AU_Num_get_parse_result@1@QADHAAV?$istreambuf_iterator@DU?$char_traits@D@std@@@1@1ABVlocale@1@@Z 30024f40 f i cg_commandmap.obj
 0001:000256b0       ??$_Parse_int_with_locale@$0A@@?$num_get@DV?$istreambuf_iterator@DU?$char_traits@D@std@@@std@@@std@@CA?AU_Num_get_parse_result@1@QADAAV?$istreambuf_iterator@DU?$char_traits@D@std@@@1@1HABVlocale@1@@Z 300266b0 f i cg_commandmap.obj
 0001:00026230       ??$_Reallocate_grow_by@V<lambda_15711c68e099a15a58f4d77303cb286d>@@D@?$basic_string@DU?$char_traits@D@std@@V?$allocator@D@2@@std@@AAEAAV01@IV<lambda_15711c68e099a15a58f4d77303cb286d>@@D@Z 30027230 f i cg_commandmap.obj
 0001:000263a0       ??$_Reallocate_grow_by@V<lambda_73347dd824626abab36262ed74192d8f>@@PBDI@?$basic_string@DU?$char_traits@D@std@@V?$allocator@D@2@@std@@AAEAAV01@IV<lambda_73347dd824626abab36262ed74192d8f>@@PBDI@Z 300273a0 f i cg_commandmap.obj
 0001:00026530       ??$_Reverse_vectorized@$00@std@@YAXPAX0@Z 30027530 f i cg_commandmap.obj
 0001:00026540       ??$_Uninitialized_copy_unchecked@PAPAPAUmapEntityData_t@@PAPAPAU1@@std@@YAPAPAPAUmapEntityData_t@@PAPAPAU1@QAPAPAU1@0@Z 30027540 f i cg_commandmap.obj
 0001:00026550       ??$_Uninitialized_value_construct_n_unchecked1@PAPAPAUmapEntityData_t@@I@std@@YAPAPAPAUmapEntityData_t@@PAPAPAU1@I@Z 30027550 f i cg_commandmap.obj
 0001:00026570       ??$_Zero_range@PAPAPAUmapEntityData_t@@@std@@YAPAPAPAUmapEntityData_t@@QAPAPAU1@0@Z 30027570 f i cg_commandmap.obj
 0001:000265a0       ??$uninitialized_copy@PAPAPAUmapEntityData_t@@PAPAPAU1@@std@@YAPAPAPAUmapEntityData_t@@QAPAPAU1@0PAPAPAU1@@Z 300275a0 f i cg_commandmap.obj
 0001:000265b0       ??$use_facet@V?$ctype@D@std@@@std@@YAABV?$ctype@D@0@ABVlocale@0@@Z 300275b0 f i cg_commandmap.obj
 0001:00026790       ??$use_facet@V?$num_get@DV?$istreambuf_iterator@DU?$char_traits@D@std@@@std@@@std@@@std@@YAABV?$num_get@DV?$istreambuf_iterator@DU?$char_traits@D@std@@@std@@@0@ABVlocale@0@@Z 30027790 f i cg_commandmap.obj
 0001:00026950       ??$use_facet@V?$numpunct@D@std@@@std@@YAABV?$numpunct@D@0@ABVlocale@0@@Z 30027950 f i cg_commandmap.obj
 0001:00026be0       ??0?$basic_ios@DU?$char_traits@D@std@@@std@@IAE@XZ 30027be0 f i cg_commandmap.obj
 0001:00026c70       ??0?$basic_istream@DU?$char_traits@D@std@@@std@@QAE@PAV?$basic_streambuf@DU?$char_traits@D@std@@@1@_N@Z 30027c70 f i cg_commandmap.obj
 0001:00026eb0       ??0?$basic_string@DU?$char_traits@D@std@@V?$allocator@D@2@@std@@QAE@ID@Z 30027eb0 f i cg_commandmap.obj
 0001:00026fd0       ??0?$fpos@U_Mbstatet@@@std@@QAE@_J@Z 30027fd0 f i cg_commandmap.obj
 0001:00027010       ??0_Locinfo@std@@QAE@PBD@Z 30028010 f i cg_commandmap.obj
 0001:000270d0       ??0_System_error@std@@IAE@Verror_code@1@ABV?$basic_string@DU?$char_traits@D@std@@V?$allocator@D@2@@1@@Z 300280d0 f i cg_commandmap.obj
 0001:00027410       ??0_System_error@std@@QAE@ABV01@@Z 30028410 f i cg_commandmap.obj
 0001:00027470       ??0bad_alloc@std@@QAE@ABV01@@Z 30028470 f i cg_commandmap.obj
 0001:000274b0       ??0bad_array_new_length@std@@QAE@ABV01@@Z 300284b0 f i cg_commandmap.obj
 0001:000274f0       ??0bad_array_new_length@std@@QAE@XZ 300284f0 f i cg_commandmap.obj
 0001:00027510       ??0bad_cast@std@@QAE@ABV01@@Z 30028510 f i cg_commandmap.obj
 0001:00027550       ??0exception@std@@QAE@ABV01@@Z 30028550 f i cg_commandmap.obj
 0001:00027590       ??0failure@ios_base@std@@QAE@ABV012@@Z 30028590 f i cg_commandmap.obj
 0001:000275f0       ??0failure@ios_base@std@@QAE@PBDABVerror_code@2@@Z 300285f0 f i cg_commandmap.obj
 0001:000276f0       ??0runtime_error@std@@QAE@ABV01@@Z 300286f0 f i cg_commandmap.obj
 0001:00027730       ??0system_error@std@@QAE@ABV01@@Z 30028730 f i cg_commandmap.obj
 0001:00027790       ??1?$_Tidy_guard@V?$numpunct@D@std@@@std@@QAE@XZ 30028790 f i cg_commandmap.obj
 0001:000277c0       ??1?$_Yarn@D@std@@QAE@XZ   300287c0 f i cg_commandmap.obj
 0001:000277e0       ??1?$_Yarn@_W@std@@QAE@XZ  300287e0 f i cg_commandmap.obj
 0001:00027800       ??1?$basic_ios@DU?$char_traits@D@std@@@std@@UAE@XZ 30028800 f i cg_commandmap.obj
 0001:00027860       ??1?$basic_iostream@DU?$char_traits@D@std@@@std@@UAE@XZ 30028860 f i cg_commandmap.obj
 0001:000278d0       ??1?$basic_istream@DU?$char_traits@D@std@@@std@@UAE@XZ 300288d0 f i cg_commandmap.obj
 0001:00027900       ??1?$basic_ostream@DU?$char_traits@D@std@@@std@@UAE@XZ 30028900 f i cg_commandmap.obj
 0001:00027930       ??1?$basic_streambuf@DU?$char_traits@D@std@@@std@@UAE@XZ 30028930 f i cg_commandmap.obj
 0001:00027970       ??1?$basic_stringbuf@DU?$char_traits@D@std@@V?$allocator@D@2@@std@@UAE@XZ 30028970 f i cg_commandmap.obj
 0001:000279c0       ??1?$basic_stringstream@DU?$char_traits@D@std@@V?$allocator@D@2@@std@@UAE@XZ 300289c0 f i cg_commandmap.obj
 0001:00027aa0       ??1?$ctype@D@std@@MAE@XZ   30028aa0 f i cg_commandmap.obj
 0001:00027af0       ??1?$num_get@DV?$istreambuf_iterator@DU?$char_traits@D@std@@@std@@@std@@MAE@XZ 30028af0 f i cg_commandmap.obj
 0001:00027b00       ??1?$numpunct@D@std@@MAE@XZ 30028b00 f i cg_commandmap.obj
 0001:00027b40       ??1?$unique_ptr@V_Facet_base@std@@U?$default_delete@V_Facet_base@std@@@2@@std@@QAE@XZ 30028b40 f i cg_commandmap.obj
 0001:00027b50       ??1_Facet_base@std@@UAE@XZ 30028b50 f i cg_commandmap.obj
 0001:00027b60       ??1_Locinfo@std@@QAE@XZ    30028b60 f i cg_commandmap.obj
 0001:00027c60       ??1_Sentry_base@?$basic_istream@DU?$char_traits@D@std@@@std@@QAE@XZ 30028c60 f i cg_commandmap.obj
 0001:00027cb0       ??1_Sentry_base@?$basic_ostream@DU?$char_traits@D@std@@@std@@QAE@XZ 30028cb0 f i cg_commandmap.obj
 0001:00027d00       ??1bad_array_new_length@std@@UAE@XZ 30028d00 f i cg_commandmap.obj
 0001:00027d20       ??1bad_cast@std@@UAE@XZ    30028d20 f i cg_commandmap.obj
 0001:00027d40       ??1ctype_base@std@@UAE@XZ  30028d40 f i cg_commandmap.obj
 0001:00027d50       ??1error_category@std@@UAE@XZ 30028d50 f i cg_commandmap.obj
 0001:00027d60       ??1exception@std@@UAE@XZ   30028d60 f i cg_commandmap.obj
 0001:00027d80       ??1facet@locale@std@@MAE@XZ 30028d80 f i cg_commandmap.obj
 0001:00027d90       ??1failure@ios_base@std@@UAE@XZ 30028d90 f i cg_commandmap.obj
 0001:00027db0       ??1ios_base@std@@UAE@XZ    30028db0 f i cg_commandmap.obj
 0001:00027e00       ??1locale@std@@QAE@XZ      30028e00 f i cg_commandmap.obj
 0001:00027e20       ??1sentry@?$basic_istream@DU?$char_traits@D@std@@@std@@QAE@XZ 30028e20 f i cg_commandmap.obj
 0001:00027e80       ??1sentry@?$basic_ostream@DU?$char_traits@D@std@@@std@@QAE@XZ 30028e80 f i cg_commandmap.obj
 0001:00027ef0       ??1system_error@std@@UAE@XZ 30028ef0 f i cg_commandmap.obj
 0001:00027f10       ??_D?$basic_stringstream@DU?$char_traits@D@std@@V?$allocator@D@2@@std@@QAEXXZ 30028f10 f i cg_commandmap.obj
 0001:0002803e       ??_E?$basic_iostream@DU?$char_traits@D@std@@@std@@$4PPPPPPPM@A@AEPAXI@Z 3002903e f i cg_commandmap.obj
 0001:00028048       ??_E?$basic_istream@DU?$char_traits@D@std@@@std@@$4PPPPPPPM@A@AEPAXI@Z 30029048 f i cg_commandmap.obj
 0001:00028052       ??_E?$basic_ostream@DU?$char_traits@D@std@@@std@@$4PPPPPPPM@A@AEPAXI@Z 30029052 f i cg_commandmap.obj
 0001:0002805c       ??_E?$basic_stringstream@DU?$char_traits@D@std@@V?$allocator@D@2@@std@@$4PPPPPPPM@A@AEPAXI@Z 3002905c f i cg_commandmap.obj
 0001:00028070       ??_E?$basic_ios@DU?$char_traits@D@std@@@std@@UAEPAXI@Z 30029070 f i cg_commandmap.obj
 0001:00028070       ??_G?$basic_ios@DU?$char_traits@D@std@@@std@@UAEPAXI@Z 30029070 f i cg_commandmap.obj
 0001:000280e0       ??_E?$basic_iostream@DU?$char_traits@D@std@@@std@@UAEPAXI@Z 300290e0 f i cg_commandmap.obj
 0001:000280e0       ??_G?$basic_iostream@DU?$char_traits@D@std@@@std@@UAEPAXI@Z 300290e0 f i cg_commandmap.obj
 0001:000281c0       ??_E?$basic_istream@DU?$char_traits@D@std@@@std@@UAEPAXI@Z 300291c0 f i cg_commandmap.obj
 0001:000281c0       ??_G?$basic_istream@DU?$char_traits@D@std@@@std@@UAEPAXI@Z 300291c0 f i cg_commandmap.obj
 0001:00028260       ??_E?$basic_ostream@DU?$char_traits@D@std@@@std@@UAEPAXI@Z 30029260 f i cg_commandmap.obj
 0001:00028260       ??_G?$basic_ostream@DU?$char_traits@D@std@@@std@@UAEPAXI@Z 30029260 f i cg_commandmap.obj
 0001:00028300       ??_E?$basic_streambuf@DU?$char_traits@D@std@@@std@@UAEPAXI@Z 30029300 f i cg_commandmap.obj
 0001:00028300       ??_G?$basic_streambuf@DU?$char_traits@D@std@@@std@@UAEPAXI@Z 30029300 f i cg_commandmap.obj
 0001:00028370       ??_E?$basic_stringbuf@DU?$char_traits@D@std@@V?$allocator@D@2@@std@@UAEPAXI@Z 30029370 f i cg_commandmap.obj
 0001:00028370       ??_G?$basic_stringbuf@DU?$char_traits@D@std@@V?$allocator@D@2@@std@@UAEPAXI@Z 30029370 f i cg_commandmap.obj
 0001:000283f0       ??_E?$basic_stringstream@DU?$char_traits@D@std@@V?$allocator@D@2@@std@@UAEPAXI@Z 300293f0 f i cg_commandmap.obj
 0001:000283f0       ??_G?$basic_stringstream@DU?$char_traits@D@std@@V?$allocator@D@2@@std@@UAEPAXI@Z 300293f0 f i cg_commandmap.obj
 0001:00028430       ??_E?$ctype@D@std@@MAEPAXI@Z 30029430 f i cg_commandmap.obj
 0001:00028430       ??_G?$ctype@D@std@@MAEPAXI@Z 30029430 f i cg_commandmap.obj
 0001:000284a0       ??_E?$num_get@DV?$istreambuf_iterator@DU?$char_traits@D@std@@@std@@@std@@MAEPAXI@Z 300294a0 f i cg_commandmap.obj
 0001:000284a0       ??_G?$num_get@DV?$istreambuf_iterator@DU?$char_traits@D@std@@@std@@@std@@MAEPAXI@Z 300294a0 f i cg_commandmap.obj
 0001:000284d0       ??_E?$numpunct@D@std@@MAEPAXI@Z 300294d0 f i cg_commandmap.obj
 0001:000284d0       ??_G?$numpunct@D@std@@MAEPAXI@Z 300294d0 f i cg_commandmap.obj
 0001:00028530       ??_E_Facet_base@std@@UAEPAXI@Z 30029530 f i cg_commandmap.obj
 0001:00028530       ??_G_Facet_base@std@@UAEPAXI@Z 30029530 f i cg_commandmap.obj
 0001:00028560       ??_E_Iostream_error_category2@std@@UAEPAXI@Z 30029560 f i cg_commandmap.obj
 0001:00028560       ??_G_Iostream_error_category2@std@@UAEPAXI@Z 30029560 f i cg_commandmap.obj
 0001:00028590       ??_E_System_error@std@@UAEPAXI@Z 30029590 f i cg_commandmap.obj
 0001:00028590       ??_G_System_error@std@@UAEPAXI@Z 30029590 f i cg_commandmap.obj
 0001:000285d0       ??_Ebad_alloc@std@@UAEPAXI@Z 300295d0 f i cg_commandmap.obj
 0001:000285d0       ??_Gbad_alloc@std@@UAEPAXI@Z 300295d0 f i cg_commandmap.obj
 0001:00028610       ??_Ebad_array_new_length@std@@UAEPAXI@Z 30029610 f i cg_commandmap.obj
 0001:00028610       ??_Gbad_array_new_length@std@@UAEPAXI@Z 30029610 f i cg_commandmap.obj
 0001:00028650       ??_Ebad_cast@std@@UAEPAXI@Z 30029650 f i cg_commandmap.obj
 0001:00028650       ??_Gbad_cast@std@@UAEPAXI@Z 30029650 f i cg_commandmap.obj
 0001:00028690       ??_Ectype_base@std@@UAEPAXI@Z 30029690 f i cg_commandmap.obj
 0001:00028690       ??_Gctype_base@std@@UAEPAXI@Z 30029690 f i cg_commandmap.obj
 0001:000286c0       ??_Eexception@std@@UAEPAXI@Z 300296c0 f i cg_commandmap.obj
 0001:000286c0       ??_Gexception@std@@UAEPAXI@Z 300296c0 f i cg_commandmap.obj
 0001:00028700       ??_Efacet@locale@std@@MAEPAXI@Z 30029700 f i cg_commandmap.obj
 0001:00028700       ??_Gfacet@locale@std@@MAEPAXI@Z 30029700 f i cg_commandmap.obj
 0001:00028730       ??_Efailure@ios_base@std@@UAEPAXI@Z 30029730 f i cg_commandmap.obj
 0001:00028730       ??_Gfailure@ios_base@std@@UAEPAXI@Z 30029730 f i cg_commandmap.obj
 0001:00028770       ??_Eios_base@std@@UAEPAXI@Z 30029770 f i cg_commandmap.obj
 0001:00028770       ??_Gios_base@std@@UAEPAXI@Z 30029770 f i cg_commandmap.obj
 0001:000287e0       ??_Eruntime_error@std@@UAEPAXI@Z 300297e0 f i cg_commandmap.obj
 0001:000287e0       ??_Gruntime_error@std@@UAEPAXI@Z 300297e0 f i cg_commandmap.obj
 0001:00028820       ??_Esystem_error@std@@UAEPAXI@Z 30029820 f i cg_commandmap.obj
 0001:00028820       ??_Gsystem_error@std@@UAEPAXI@Z 30029820 f i cg_commandmap.obj
 0001:00028860       ?CG_AdjustAutomapZoom@@YAXH@Z 30029860 f   cg_commandmap.obj
 0001:00028970       ?CG_CommandCentreLayersClick@@YA?AW4qboolean@@XZ 30029970 f   cg_commandmap.obj
 0001:00028a30       ?CG_CommandCentreSpawnPointClick@@YA?AW4qboolean@@XZ 30029a30 f   cg_commandmap.obj
 0001:00028bc0       ?CG_CommandMap_DrawHighlightText@@YAXXZ 30029bc0 f   cg_commandmap.obj
 0001:00028c80       ?CG_CurLayerForZ@@YAHH@Z   30029c80 f   cg_commandmap.obj
 0001:00028cd0       ?CG_DrawAutoMap@@YAXXZ     30029cd0 f   cg_commandmap.obj
 0001:00028fe0       ?CG_DrawExpandedAutoMap@@YAXXZ 30029fe0 f   cg_commandmap.obj
 0001:0002a2d0       ?CG_DrawMap@@YAXMMMMHPAUmapScissor_s@@W4qboolean@@M1@Z 3002b2d0 f   cg_commandmap.obj
 0001:0002b550       ?CG_DrawMortarMarker@@YAXHHHHW4qboolean@@PAUmapScissor_s@@H@Z 3002c550 f   cg_commandmap.obj
 0001:0002c650       ?CG_DrawSpawnPointInfo@@YAHHHHHW4qboolean@@PAUmapScissor_s@@H@Z 3002d650 f   cg_commandmap.obj
 0001:0002ced0       ?CG_InitMapEntities@@YAXXZ 3002ded0 f   cg_commandmap.obj
 0001:0002d250       ?CG_ParseMapEntityInfo@@YAXHH_N@Z 3002e250 f   cg_commandmap.obj
 0001:0002d940       ?CG_TransformToCommandMapCoord@@YAXPAM0@Z 3002e940 f   cg_commandmap.obj
 0001:0002d9c0       ?_Decref@facet@locale@std@@UAEPAV_Facet_base@3@XZ 3002e9c0 f i cg_commandmap.obj
 0001:0002d9e0       ?_Growmap@?$deque@PAUmapEntityData_t@@V?$allocator@PAUmapEntityData_t@@@std@@@std@@AAEXI@Z 3002e9e0 f i cg_commandmap.obj
 0001:0002dba0       ?_Incref@facet@locale@std@@UAEXXZ 3002eba0 f i cg_commandmap.obj
 0001:0002dbb0       ?_Init@?$basic_streambuf@DU?$char_traits@D@std@@@std@@IAEXXZ 3002ebb0 f i cg_commandmap.obj
 0001:0002dc20       ?_Ipfx@?$basic_istream@DU?$char_traits@D@std@@@std@@QAE_N_N@Z 3002ec20 f i cg_commandmap.obj
 0001:0002df80       ?_Lock@?$basic_streambuf@DU?$char_traits@D@std@@@std@@UAEXXZ 3002ef80 f i cg_commandmap.obj
 0001:0002df90       ?_Osfx@?$basic_ostream@DU?$char_traits@D@std@@@std@@QAEXXZ 3002ef90 f i cg_commandmap.obj
 0001:0002e090       ?_Throw_bad_array_new_length@std@@YAXXZ 3002f090 f i cg_commandmap.obj
 0001:0002e0c0       ?_Tidy@?$basic_stringbuf@DU?$char_traits@D@std@@V?$allocator@D@2@@std@@IAEXXZ 3002f0c0 f i cg_commandmap.obj
 0001:0002e1c0       ?_Tidy@?$deque@PAUmapEntityData_t@@V?$allocator@PAUmapEntityData_t@@@std@@@std@@AAEXXZ 3002f1c0 f i cg_commandmap.obj
 0001:0002e280       ?_Unlock@?$basic_streambuf@DU?$char_traits@D@std@@@std@@UAEXXZ 3002f280 f i cg_commandmap.obj
 0001:0002e290       ?_Xlen@?$deque@PAUmapEntityData_t@@V?$allocator@PAUmapEntityData_t@@@std@@@std@@CAXXZ 3002f290 f i cg_commandmap.obj
 0001:0002e2a0       ?_Xlen_string@std@@YAXXZ   3002f2a0 f i cg_commandmap.obj
 0001:0002e2b0       ?clear@ios_base@std@@QAEXH_N@Z 3002f2b0 f i cg_commandmap.obj
 0001:0002e340       ?deallocate@?$allocator@D@std@@QAEXQADI@Z 3002f340 f i cg_commandmap.obj
 0001:0002e390       ?dec@std@@YAAAVios_base@1@AAV21@@Z 3002f390 f i cg_commandmap.obj
 0001:0002e3b0       ?default_error_condition@error_category@std@@UBE?AVerror_condition@2@H@Z 3002f3b0 f i cg_commandmap.obj
 0001:0002e3d0       ?do_decimal_point@?$numpunct@D@std@@MBEDXZ 3002f3d0 f i cg_commandmap.obj
 0001:0002e3e0       ?do_falsename@?$numpunct@D@std@@MBE?AV?$basic_string@DU?$char_traits@D@std@@V?$allocator@D@2@@2@XZ 3002f3e0 f i cg_commandmap.obj
 0001:0002e440       ?do_get@?$num_get@DV?$istreambuf_iterator@DU?$char_traits@D@std@@@std@@@std@@MBE?AV?$istreambuf_iterator@DU?$char_traits@D@std@@@2@V32@0AAVios_base@2@AAHAAG@Z 3002f440 f i cg_commandmap.obj
 0001:0002e5d0       ?do_get@?$num_get@DV?$istreambuf_iterator@DU?$char_traits@D@std@@@std@@@std@@MBE?AV?$istreambuf_iterator@DU?$char_traits@D@std@@@2@V32@0AAVios_base@2@AAHAAI@Z 3002f5d0 f i cg_commandmap.obj
 0001:0002e730       ?do_get@?$num_get@DV?$istreambuf_iterator@DU?$char_traits@D@std@@@std@@@std@@MBE?AV?$istreambuf_iterator@DU?$char_traits@D@std@@@2@V32@0AAVios_base@2@AAHAAJ@Z 3002f730 f i cg_commandmap.obj
 0001:0002e880       ?do_get@?$num_get@DV?$istreambuf_iterator@DU?$char_traits@D@std@@@std@@@std@@MBE?AV?$istreambuf_iterator@DU?$char_traits@D@std@@@2@V32@0AAVios_base@2@AAHAAK@Z 3002f880 f i cg_commandmap.obj
 0001:0002e9d0       ?do_get@?$num_get@DV?$istreambuf_iterator@DU?$char_traits@D@std@@@std@@@std@@MBE?AV?$istreambuf_iterator@DU?$char_traits@D@std@@@2@V32@0AAVios_base@2@AAHAAM@Z 3002f9d0 f i cg_commandmap.obj
 0001:0002eb40       ?do_get@?$num_get@DV?$istreambuf_iterator@DU?$char_traits@D@std@@@std@@@std@@MBE?AV?$istreambuf_iterator@DU?$char_traits@D@std@@@2@V32@0AAVios_base@2@AAHAAN@Z 3002fb40 f i cg_commandmap.obj
 0001:0002ecb0       ?do_get@?$num_get@DV?$istreambuf_iterator@DU?$char_traits@D@std@@@std@@@std@@MBE?AV?$istreambuf_iterator@DU?$char_traits@D@std@@@2@V32@0AAVios_base@2@AAHAAO@Z 3002fcb0 f i cg_commandmap.obj
 0001:0002ee40       ?do_get@?$num_get@DV?$istreambuf_iterator@DU?$char_traits@D@std@@@std@@@std@@MBE?AV?$istreambuf_iterator@DU?$char_traits@D@std@@@2@V32@0AAVios_base@2@AAHAAPAX@Z 3002fe40 f i cg_commandmap.obj
 0001:0002efa0       ?do_get@?$num_get@DV?$istreambuf_iterator@DU?$char_traits@D@std@@@std@@@std@@MBE?AV?$istreambuf_iterator@DU?$char_traits@D@std@@@2@V32@0AAVios_base@2@AAHAA_J@Z 3002ffa0 f i cg_commandmap.obj
 0001:0002f0f0       ?do_get@?$num_get@DV?$istreambuf_iterator@DU?$char_traits@D@std@@@std@@@std@@MBE?AV?$istreambuf_iterator@DU?$char_traits@D@std@@@2@V32@0AAVios_base@2@AAHAA_K@Z 300300f0 f i cg_commandmap.obj
 0001:0002f240       ?do_get@?$num_get@DV?$istreambuf_iterator@DU?$char_traits@D@std@@@std@@@std@@MBE?AV?$istreambuf_iterator@DU?$char_traits@D@std@@@2@V32@0AAVios_base@2@AAHAA_N@Z 30030240 f i cg_commandmap.obj
 0001:0002f680       ?do_grouping@?$numpunct@D@std@@MBE?AV?$basic_string@DU?$char_traits@D@std@@V?$allocator@D@2@@2@XZ 30030680 f i cg_commandmap.obj
 0001:0002f6e0       ?do_narrow@?$ctype@D@std@@MBEDDD@Z 300306e0 f i cg_commandmap.obj
 0001:0002f6f0       ?do_narrow@?$ctype@D@std@@MBEPBDPBD0DPAD@Z 300306f0 f i cg_commandmap.obj
 0001:0002f720       ?do_thousands_sep@?$numpunct@D@std@@MBEDXZ 30030720 f i cg_commandmap.obj
 0001:0002f730       ?do_tolower@?$ctype@D@std@@MBEDD@Z 30030730 f i cg_commandmap.obj
 0001:0002f750       ?do_tolower@?$ctype@D@std@@MBEPBDPADPBD@Z 30030750 f i cg_commandmap.obj
 0001:0002f790       ?do_toupper@?$ctype@D@std@@MBEDD@Z 30030790 f i cg_commandmap.obj
 0001:0002f7b0       ?do_toupper@?$ctype@D@std@@MBEPBDPADPBD@Z 300307b0 f i cg_commandmap.obj
 0001:0002f7f0       ?do_truename@?$numpunct@D@std@@MBE?AV?$basic_string@DU?$char_traits@D@std@@V?$allocator@D@2@@2@XZ 300307f0 f i cg_commandmap.obj
 0001:0002f850       ?do_widen@?$ctype@D@std@@MBEDD@Z 30030850 f i cg_commandmap.obj
 0001:0002f860       ?do_widen@?$ctype@D@std@@MBEPBDPBD0PAD@Z 30030860 f i cg_commandmap.obj
 0001:0002f890       ?equivalent@error_category@std@@UBE_NABVerror_code@2@H@Z 30030890 f i cg_commandmap.obj
 0001:0002f8c0       ?equivalent@error_category@std@@UBE_NHABVerror_condition@2@@Z 300308c0 f i cg_commandmap.obj
 0001:0002f910       ?flush@?$basic_ostream@DU?$char_traits@D@std@@@std@@QAEAAV12@XZ 30030910 f i cg_commandmap.obj
 0001:0002faf0       ?hex@std@@YAAAVios_base@1@AAV21@@Z 30030af0 f i cg_commandmap.obj
 0001:0002fb10       ?imbue@?$basic_streambuf@DU?$char_traits@D@std@@@std@@MAEXABVlocale@2@@Z 30030b10 f i cg_commandmap.obj
 0001:0002fb20       ?make_error_code@std@@YA?AVerror_code@1@W4io_errc@1@@Z 30030b20 f i cg_commandmap.obj
 0001:0002fb40       ?message@_Iostream_error_category2@std@@UBE?AV?$basic_string@DU?$char_traits@D@std@@V?$allocator@D@2@@2@H@Z 30030b40 f i cg_commandmap.obj
 0001:0002fc20       ?name@_Iostream_error_category2@std@@UBEPBDXZ 30030c20 f i cg_commandmap.obj
 0001:0002fc30       ?overflow@?$basic_streambuf@DU?$char_traits@D@std@@@std@@MAEHH@Z 30030c30 f i cg_commandmap.obj
 0001:0002fc40       ?overflow@?$basic_stringbuf@DU?$char_traits@D@std@@V?$allocator@D@2@@std@@MAEHH@Z 30030c40 f i cg_commandmap.obj
 0001:0002fe40       ?pbackfail@?$basic_streambuf@DU?$char_traits@D@std@@@std@@MAEHH@Z 30030e40 f i cg_commandmap.obj
 0001:0002fe50       ?pbackfail@?$basic_stringbuf@DU?$char_traits@D@std@@V?$allocator@D@2@@std@@MAEHH@Z 30030e50 f i cg_commandmap.obj
 0001:0002fec0       ?seekoff@?$basic_streambuf@DU?$char_traits@D@std@@@std@@MAE?AV?$fpos@U_Mbstatet@@@2@_JHH@Z 30030ec0 f i cg_commandmap.obj
 0001:0002ff00       ?seekoff@?$basic_stringbuf@DU?$char_traits@D@std@@V?$allocator@D@2@@std@@MAE?AV?$fpos@U_Mbstatet@@@2@_JHH@Z 30030f00 f i cg_commandmap.obj
 0001:00030150       ?seekpos@?$basic_streambuf@DU?$char_traits@D@std@@@std@@MAE?AV?$fpos@U_Mbstatet@@@2@V32@H@Z 30031150 f i cg_commandmap.obj
 0001:00030190       ?seekpos@?$basic_stringbuf@DU?$char_traits@D@std@@V?$allocator@D@2@@std@@MAE?AV?$fpos@U_Mbstatet@@@2@V32@H@Z 30031190 f i cg_commandmap.obj
 0001:00030340       ?setbuf@?$basic_streambuf@DU?$char_traits@D@std@@@std@@MAEPAV12@PAD_J@Z 30031340 f i cg_commandmap.obj
 0001:00030350       ?setstate@?$basic_ios@DU?$char_traits@D@std@@@std@@QAEXH_N@Z 30031350 f i cg_commandmap.obj
 0001:00030380       ?showmanyc@?$basic_streambuf@DU?$char_traits@D@std@@@std@@MAE_JXZ 30031380 f i cg_commandmap.obj
 0001:00030390       ?sync@?$basic_streambuf@DU?$char_traits@D@std@@@std@@MAEHXZ 30031390 f i cg_commandmap.obj
 0001:000303a0       ?uflow@?$basic_streambuf@DU?$char_traits@D@std@@@std@@MAEHXZ 300313a0 f i cg_commandmap.obj
 0001:000303d0       ?underflow@?$basic_streambuf@DU?$char_traits@D@std@@@std@@MAEHXZ 300313d0 f i cg_commandmap.obj
 0001:000303e0       ?underflow@?$basic_stringbuf@DU?$char_traits@D@std@@V?$allocator@D@2@@std@@MAEHXZ 300313e0 f i cg_commandmap.obj
 0001:00030460       ?what@exception@std@@UBEPBDXZ 30031460 f i cg_commandmap.obj
 0001:00030480       ?xsgetn@?$basic_streambuf@DU?$char_traits@D@std@@@std@@MAE_JPAD_J@Z 30031480 f i cg_commandmap.obj
 0001:00030580       ?xsputn@?$basic_streambuf@DU?$char_traits@D@std@@@std@@MAE_JPBD_J@Z 30031580 f i cg_commandmap.obj
 0001:00030680       ?CG_CampaignInfo_f@@YAXXZ  30031680 f   cg_consolecmds.obj
 0001:00030750       ?CG_TargetCommand_f@@YAXXZ 30031750 f   cg_consolecmds.obj
 0001:00030970       ?CG_topshotsDown_f@@YAXXZ  30031970 f   cg_consolecmds.obj
 0001:00030a20       ?CG_topshotsUp_f@@YAXXZ    30031a20 f   cg_consolecmds.obj
 0001:00030c80       ?CG_QuickMessage_f@@YAXXZ  30031c80 f   cg_consolecmds.obj
 0001:00030cd0       ?CG_QuickFireteamAdmin_f@@YAXXZ 30031cd0 f   cg_consolecmds.obj
 0001:000322b0       ?CG_currentTime_f@@YAXXZ   300332b0 f   cg_consolecmds.obj
 0001:00032300       ?CG_vstrDown_f@@YAXXZ      30033300 f   cg_consolecmds.obj
 0001:00032340       ?CG_vstrUp_f@@YAXXZ        30033340 f   cg_consolecmds.obj
 0001:000325e0       ?CG_ForceTapOut_f@@YAXXZ   300335e0 f   cg_consolecmds.obj
 0001:00032620       ?CG_ScoresDown_f@@YAXXZ    30033620 f   cg_consolecmds.obj
 0001:000326b0       ?CG_ScoresUp_f@@YAXXZ      300336b0 f   cg_consolecmds.obj
 0001:000326e0       ?CG_autoRecord_f@@YAXXZ    300336e0 f   cg_consolecmds.obj
 0001:00032700       ?CG_autoScreenShot_f@@YAXXZ 30033700 f   cg_consolecmds.obj
 0001:00032740       ?CG_keyOn_f@@YAXXZ         30033740 f   cg_consolecmds.obj
 0001:00032790       ?CG_keyOff_f@@YAXXZ        30033790 f   cg_consolecmds.obj
 0001:000327b0       ?CG_dumpStats_f@@YAXXZ     300337b0 f   cg_consolecmds.obj
 0001:000327f0       ?CG_LimboMenu_f@@YAXXZ     300337f0 f   cg_consolecmds.obj
 0001:00032810       ??1?$list@V?$basic_string@DU?$char_traits@D@std@@V?$allocator@D@2@@std@@V?$allocator@V?$basic_string@DU?$char_traits@D@std@@V?$allocator@D@2@@std@@@2@@std@@QAE@XZ 30033810 f i cg_consolecmds.obj
 0001:000328c0       ?CG_ConsoleCommand@@YA?AW4qboolean@@XZ 300338c0 f   cg_consolecmds.obj
 0001:00032930       ?CG_FreeCamera@@YAXH@Z     30033930 f   cg_consolecmds.obj
 0001:00032950       ?CG_InitConsoleCommands@@YAXXZ 30033950 f   cg_consolecmds.obj
 0001:00032cc0       ?CG_LoadCamera@@YAHPBD@Z   30033cc0 f   cg_consolecmds.obj
 0001:00032d20       ?CG_Obj_f@@YAXXZ           30033d20 f   cg_consolecmds.obj
 0001:00032d30       ?CG_QuickFireteamMessage_f@@YAXXZ 30033d30 f   cg_consolecmds.obj
 0001:00032d80       ?CG_SetInitialCamera@@YAXPBDW4qboolean@@@Z 30033d80 f   cg_consolecmds.obj
 0001:00032dc0       ?CG_StartCamera@@YAXPBDW4qboolean@@@Z 30033dc0 f   cg_consolecmds.obj
 0001:00032f00       ?CG_StartInitialCamera@@YAXXZ 30033f00 f   cg_consolecmds.obj
 0001:00032f40       ?CG_StopCamera@@YAXXZ      30033f40 f   cg_consolecmds.obj
 0001:00032fc0       ?CG_toggleSpecHelp_f@@YAXXZ 30033fc0 f   cg_consolecmds.obj
 0001:00033010       ?CG_wStatsDown_f@@YAXXZ    30034010 f   cg_consolecmds.obj
 0001:000330c0       ?CG_wStatsUp_f@@YAXXZ      300340c0 f   cg_consolecmds.obj
 0001:000330f0       ?CG_Debriefing_ChatEditFinish@@YAXPAUpanel_button_s@@@Z 300340f0 f   cg_debriefing.obj
 0001:000331a0       ?CG_Debriefing_HTMLButton_Draw@@YAXPAUpanel_button_s@@@Z 300341a0 f   cg_debriefing.obj
 0001:000331c0       ?CG_Debriefing_NextButton_Draw@@YAXPAUpanel_button_s@@@Z 300341c0 f   cg_debriefing.obj
 0001:000331d0       ?CG_Debriefing_ChatButton_Draw@@YAXPAUpanel_button_s@@@Z 300341d0 f   cg_debriefing.obj
 0001:00033240       ?CG_Debriefing_ReadyButton_Draw@@YAXPAUpanel_button_s@@@Z 30034240 f   cg_debriefing.obj
 0001:00033270       ?CG_Debriefing_ChatButton_KeyDown@@YA?AW4qboolean@@PAUpanel_button_s@@H@Z 30034270 f   cg_debriefing.obj
 0001:000332e0       ?CG_Debriefing_ReadyButton_KeyDown@@YA?AW4qboolean@@PAUpanel_button_s@@H@Z 300342e0 f   cg_debriefing.obj
 0001:00033330       ?CG_Debriefing_QCButton_KeyDown@@YA?AW4qboolean@@PAUpanel_button_s@@H@Z 30034330 f   cg_debriefing.obj
 0001:00033360       ?CG_Debriefing_NextButton_KeyDown@@YA?AW4qboolean@@PAUpanel_button_s@@H@Z 30034360 f   cg_debriefing.obj
 0001:000333a0       ?CG_Debriefing_PlayerName_Draw@@YAXPAUpanel_button_s@@@Z 300343a0 f   cg_debriefing.obj
 0001:00033420       ?CG_Debriefing_PlayerRank_Draw@@YAXPAUpanel_button_s@@@Z 30034420 f   cg_debriefing.obj
 0001:00033540       ?CG_Debriefing_PlayerMedals_Draw@@YAXPAUpanel_button_s@@@Z 30034540 f   cg_debriefing.obj
 0001:00033680       ?CG_Debriefing_PlayerTime_Draw@@YAXPAUpanel_button_s@@@Z 30034680 f   cg_debriefing.obj
 0001:00033820       ?CG_Debriefing_PlayerXP_Draw@@YAXPAUpanel_button_s@@@Z 30034820 f   cg_debriefing.obj
 0001:00033990       ?CG_Debriefing_PlayerACC_Draw@@YAXPAUpanel_button_s@@@Z 30034990 f   cg_debriefing.obj
 0001:00033b00       ?CG_Debriefing_PlayerSkills_Draw@@YAXPAUpanel_button_s@@@Z 30034b00 f   cg_debriefing.obj
 0001:00033d90       ?CG_DebriefingPlayerWeaponStats_Draw@@YAXPAUpanel_button_s@@@Z 30034d90 f   cg_debriefing.obj
 0001:00034080       ?CG_DebriefingXPHeader_Draw@@YAXPAUpanel_button_s@@@Z 30035080 f   cg_debriefing.obj
 0001:000340b0       ?CG_DebriefingTitle_Draw@@YAXPAUpanel_button_s@@@Z 300350b0 f   cg_debriefing.obj
 0001:00034360       ?CG_DebriefingPlayerList_Draw@@YAXPAUpanel_button_s@@@Z 30035360 f   cg_debriefing.obj
 0001:00034840       ?CG_DebriefingPlayerList_KeyDown@@YA?AW4qboolean@@PAUpanel_button_s@@H@Z 30035840 f   cg_debriefing.obj
 0001:000348b0       ?CG_Debriefing_ChatEdit_Draw@@YAXPAUpanel_button_s@@@Z 300358b0 f   cg_debriefing.obj
 0001:00034a40       ?CG_Debriefing_ChatBox_Draw@@YAXPAUpanel_button_s@@@Z 30035a40 f   cg_debriefing.obj
 0001:00034d10       ?CG_Debriefing_Scrollbar_Draw@@YAXPAUpanel_button_s@@@Z 30035d10 f   cg_debriefing.obj
 0001:00034dd0       ?CG_Debriefing_Scrollbar_KeyDown@@YA?AW4qboolean@@PAUpanel_button_s@@H@Z 30035dd0 f   cg_debriefing.obj
 0001:00034e50       ?CG_Debriefing_Scrollbar_KeyUp@@YA?AW4qboolean@@PAUpanel_button_s@@H@Z 30035e50 f   cg_debriefing.obj
 0001:00034e80       ?CG_TeamDebriefingOutcome_Draw@@YAXPAUpanel_button_s@@@Z 30035e80 f   cg_debriefing.obj
 0001:00035060       ?CG_TeamDebriefingMapList_Draw@@YAXPAUpanel_button_s@@@Z 30036060 f   cg_debriefing.obj
 0001:000351d0       ?CG_TeamDebriefingMapList_KeyDown@@YA?AW4qboolean@@PAUpanel_button_s@@H@Z 300361d0 f   cg_debriefing.obj
 0001:00035240       ?CG_TeamDebriefingMapWinner_Draw@@YAXPAUpanel_button_s@@@Z 30036240 f   cg_debriefing.obj
 0001:00035250       ?CG_TeamDebriefingMapShot_Draw@@YAXPAUpanel_button_s@@@Z 30036250 f   cg_debriefing.obj
 0001:000353c0       ?CG_TeamDebriefingTeamSkillXP_Draw@@YAXPAUpanel_button_s@@@Z 300363c0 f   cg_debriefing.obj
 0001:000354b0       ?CG_Debriefing2_Maps_KeyDown@@YA?AW4qboolean@@PAUpanel_button_s@@H@Z 300364b0 f   cg_debriefing.obj
 0001:00035520       ?CG_Debriefing2TeamSkillHeaders_Draw@@YAXPAUpanel_button_s@@@Z 30036520 f   cg_debriefing.obj
 0001:00035670       ?CG_Debriefing2TeamSkillXP_Draw@@YAXPAUpanel_button_s@@@Z 30036670 f   cg_debriefing.obj
 0001:00035870       ?CG_Debreifing2_MissionTitle_Draw@@YAXPAUpanel_button_s@@@Z 30036870 f   cg_debriefing.obj
 0001:00035ba0       ?CG_Debreifing2_Mission_Draw@@YAXPAUpanel_button_s@@@Z 30036ba0 f   cg_debriefing.obj
 0001:000367a0       ?CG_Debreifing2_Maps_Draw@@YAXPAUpanel_button_s@@@Z 300377a0 f   cg_debriefing.obj
 0001:00036b40       ?CG_Debreifing2_Awards_Draw@@YAXPAUpanel_button_s@@@Z 30037b40 f   cg_debriefing.obj
 0001:00036d20       ?CG_PanelButtonsRender_Window@@YAXPAUpanel_button_s@@@Z 30037d20 f   cg_debriefing.obj
 0001:00036d50       ?CG_PanelButtonsRender_Button@@YAXPAUpanel_button_s@@@Z 30037d50 f   cg_debriefing.obj
 0001:00036d70       ?CG_ChatPanel_Setup@@YAXXZ 30037d70 f   cg_debriefing.obj
 0001:00036da0       ?CG_Debreifing2_Awards_Parse@@YAXXZ 30037da0 f   cg_debriefing.obj
 0001:00036ea0       ?CG_Debreifing2_WinStringForTeam@@YAPBDW4team_t@@@Z 30037ea0 f   cg_debriefing.obj
 0001:00036ed0       ?CG_Debriefing_CalcCampaignProgress@@YAMXZ 30037ed0 f   cg_debriefing.obj
 0001:00036f60       ?CG_Debriefing_Draw@@YA?AW4qboolean@@XZ 30037f60 f   cg_debriefing.obj
 0001:00037140       ?CG_Debriefing_FindOveralWinningTeam@@YA?AW4team_t@@XZ 30038140 f   cg_debriefing.obj
 0001:00037150       ?CG_Debriefing_FindWinningTeam@@YA?AW4team_t@@XZ 30038150 f   cg_debriefing.obj
 0001:00037180       ?CG_Debriefing_FindWinningTeamForMap@@YA?AW4team_t@@XZ 30038180 f   cg_debriefing.obj
 0001:000371d0       ?CG_Debriefing_FindWinningTeamForPos@@YA?AW4team_t@@H@Z 300381d0 f   cg_debriefing.obj
 0001:00037340       ?CG_Debriefing_FullRankNameForClientInfo@@YAPBDPAUclientInfo_s@@@Z 30038340 f   cg_debriefing.obj
 0001:00037390       ?CG_Debriefing_GetNextWeaponStat@@YAHH@Z 30038390 f   cg_debriefing.obj
 0001:000373d0       ?CG_Debriefing_GetSelectedClientInfo@@YAPAUclientInfo_s@@XZ 300383d0 f   cg_debriefing.obj
 0001:00037440       ?CG_Debriefing_InfoRequests@@YAXXZ 30038440 f   cg_debriefing.obj
 0001:00037500       ?CG_Debriefing_KeyEvent@@YAXHW4qboolean@@@Z 30038500 f   cg_debriefing.obj
 0001:000375c0       ?CG_Debriefing_MouseEvent@@YAXHH@Z 300385c0 f   cg_debriefing.obj
 0001:00037750       ?CG_Debriefing_ParsePlayerKillsDeaths@@YAXXZ 30038750 f   cg_debriefing.obj
 0001:000377d0       ?CG_Debriefing_ParseWeaponAccuracies@@YAXXZ 300387d0 f   cg_debriefing.obj
 0001:00037820       ?CG_Debriefing_ParseWeaponStats@@YAXXZ 30038820 f   cg_debriefing.obj
 0001:000378a0       ?CG_Debriefing_RankNameForClientInfo@@YAPBDPAUclientInfo_s@@@Z 300388a0 f   cg_debriefing.obj
 0001:000378f0       ?CG_Debriefing_ScrollCheckOffset@@YAXPAUpanel_button_s@@@Z 300388f0 f   cg_debriefing.obj
 0001:00037960       ?CG_Debriefing_ScrollGetBarRect@@YAXPAUpanel_button_s@@PAUrectDef_s@@@Z 30038960 f   cg_debriefing.obj
 0001:00037a10       ?CG_Debriefing_ScrollGetCount@@YAHPAUpanel_button_s@@@Z 30038a10 f   cg_debriefing.obj
 0001:00037bb0       ?CG_Debriefing_ScrollGetMax@@YAHPAUpanel_button_s@@@Z 30038bb0 f   cg_debriefing.obj
 0001:00037bf0       ?CG_Debriefing_ScrollGetOffset@@YAHPAUpanel_button_s@@@Z 30038bf0 f   cg_debriefing.obj
 0001:00037c30       ?CG_Debriefing_ScrollSetOffset@@YAXPAUpanel_button_s@@H@Z 30038c30 f   cg_debriefing.obj
 0001:00037c80       ?CG_Debriefing_ServerCommand@@YA?AW4qboolean@@PBD@Z 30038c80 f   cg_debriefing.obj
 0001:00037d10       ?CG_Debriefing_Shutdown@@YAXXZ 30038d10 f   cg_debriefing.obj
 0001:00037d20       ?CG_Debriefing_Startup@@YAXXZ 30038d20 f   cg_debriefing.obj
 0001:00037e00       ?CG_Debriefing_TimeToString@@YAPBDM@Z 30038e00 f   cg_debriefing.obj
 0001:00037e80       ?CG_Debrieing_SetSelectedClient@@YAXH@Z 30038e80 f   cg_debriefing.obj
 0001:00037eb0       ?CG_PanelButtonsRender_Button_Ext@@YAXPAUrectDef_s@@PBD@Z 30038eb0 f   cg_debriefing.obj
 0001:00038020       ?CG_PanelButtonsRender_Window_Ext@@YAXPAUrectDef_s@@PBDHHMH@Z 30039020 f   cg_debriefing.obj
 0001:00038220       ?CG_SortPlayersByXP@@YAHPBX0@Z 30039220 f   cg_debriefing.obj
 0001:00038290       ?CG_TeamDebriefingTeamXP_Draw@@YAXPAUpanel_button_s@@@Z 30039290 f   cg_debriefing.obj
 0001:00038390       ?CG_TeamDebriefing_CalcXP@@YAHW4team_t@@HH@Z 30039390 f   cg_debriefing.obj
 0001:00038610       ??$_Float_put_desired_precision@N@std@@YAH_JH@Z 30039610 f i cg_draw.obj
 0001:00038660       ??$_Float_put_desired_precision@O@std@@YAH_JH@Z 30039660 f i cg_draw.obj
 0001:000386b0       ??$_Fput_v3@$0A@@?$num_put@DV?$ostreambuf_iterator@DU?$char_traits@D@std@@@std@@@std@@ABE?AV?$ostreambuf_iterator@DU?$char_traits@D@std@@@1@V21@AAVios_base@1@DPBDI_N@Z 300396b0 f i cg_draw.obj
 0001:00038be0       ??$_Reallocate_grow_by@V<lambda_6607a66f2a10a1261ff9db96cba1015b>@@IID@?$basic_string@DU?$char_traits@D@std@@V?$allocator@D@2@@std@@AAEAAV01@IV<lambda_6607a66f2a10a1261ff9db96cba1015b>@@IID@Z 30039be0 f i cg_draw.obj
 0001:00038da0       ??$_Reallocate_grow_by@V<lambda_c1b8c41cb4019640539cfd828748c4d4>@@ID@?$basic_string@DU?$char_traits@D@std@@V?$allocator@D@2@@std@@AAEAAV01@IV<lambda_c1b8c41cb4019640539cfd828748c4d4>@@ID@Z 30039da0 f i cg_draw.obj
 0001:00038f40       ??$use_facet@V?$num_put@DV?$ostreambuf_iterator@DU?$char_traits@D@std@@@std@@@std@@@std@@YAABV?$num_put@DV?$ostreambuf_iterator@DU?$char_traits@D@std@@@std@@@0@ABVlocale@0@@Z 30039f40 f i cg_draw.obj
 0001:00039100       ??0?$basic_ostream@DU?$char_traits@D@std@@@std@@QAE@PAV?$basic_streambuf@DU?$char_traits@D@std@@@1@_N@Z 3003a100 f i cg_draw.obj
 0001:00039330       ??0?$basic_ostringstream@DU?$char_traits@D@std@@V?$allocator@D@2@@std@@QAE@XZ 3003a330 f i cg_draw.obj
 0001:000394b0       ??0sentry@?$basic_ostream@DU?$char_traits@D@std@@@std@@QAE@AAV12@@Z 3003a4b0 f i cg_draw.obj
 0001:00039560       ??1?$basic_ostringstream@DU?$char_traits@D@std@@V?$allocator@D@2@@std@@UAE@XZ 3003a560 f i cg_draw.obj
 0001:000395c0       ??1?$num_put@DV?$ostreambuf_iterator@DU?$char_traits@D@std@@@std@@@std@@MAE@XZ 3003a5c0 f i cg_draw.obj
 0001:000395d0       ??6?$basic_ostream@DU?$char_traits@D@std@@@std@@QAEAAV01@H@Z 3003a5d0 f i cg_draw.obj
 0001:00039840       ??_D?$basic_ostringstream@DU?$char_traits@D@std@@V?$allocator@D@2@@std@@QAEXXZ 3003a840 f i cg_draw.obj
 0001:000398e5       ??_E?$basic_ostringstream@DU?$char_traits@D@std@@V?$allocator@D@2@@std@@$4PPPPPPPM@A@AEPAXI@Z 3003a8e5 f i cg_draw.obj
 0001:000398f0       ??_E?$basic_ostringstream@DU?$char_traits@D@std@@V?$allocator@D@2@@std@@UAEPAXI@Z 3003a8f0 f i cg_draw.obj
 0001:000398f0       ??_G?$basic_ostringstream@DU?$char_traits@D@std@@V?$allocator@D@2@@std@@UAEPAXI@Z 3003a8f0 f i cg_draw.obj
 0001:00039930       ??_E?$num_put@DV?$ostreambuf_iterator@DU?$char_traits@D@std@@@std@@@std@@MAEPAXI@Z 3003a930 f i cg_draw.obj
 0001:00039930       ??_G?$num_put@DV?$ostreambuf_iterator@DU?$char_traits@D@std@@@std@@@std@@MAEPAXI@Z 3003a930 f i cg_draw.obj
 0001:00039960       ?CG_AddLagometerFrameInfo@@YAXXZ 3003a960 f   cg_draw.obj
 0001:00039990       ?CG_AddLagometerSnapshotInfo@@YAXPAUsnapshot_t@@@Z 3003a990 f   cg_draw.obj
 0001:00039a20       ?CG_BPrint@@YAXPBDHH@Z     3003aa20 f   cg_draw.obj
 0001:00039b30       ?CG_BotIsSelected@@YAHH@Z  3003ab30 f   cg_draw.obj
 0001:00039b70       ?CG_CalculateReinfTime@@YAHW4qboolean@@@Z 3003ab70 f   cg_draw.obj
 0001:00039ba0       ?CG_CalculateReinfTime_Float@@YAMW4qboolean@@@Z 3003aba0 f   cg_draw.obj
 0001:00039c50       ?CG_CenterPrint@@YAXPBDHH@Z 3003ac50 f   cg_draw.obj
 0001:00039d60       ?CG_CheckForCursorHints@@YAXXZ 3003ad60 f   cg_draw.obj
 0001:0003a000       ?CG_ClassSkillForPosition@@YA?AW4skillType_t@@PAUclientInfo_s@@H@Z 3003b000 f   cg_draw.obj
 0001:0003a340       ?CG_Draw3DModel@@YAXMMMMHHQAM0@Z 3003b340 f   cg_draw.obj
 0001:0003a4a0       ?CG_DrawActive@@YAXW4stereoFrame_t@@@Z 3003b4a0 f   cg_draw.obj
 0001:0003c570       ?CG_DrawDemoRecording@@YAXXZ 3003d570 f   cg_draw.obj
 0001:0003ca90       ?CG_DrawField@@YAHHHHHHHW4qboolean@@0@Z 3003da90 f   cg_draw.obj
 0001:0003cc70       ?CG_DrawFieldWidth@@YAHHHHHHH@Z 3003dc70 f   cg_draw.obj
 0001:0003e170       ?CG_DrawKeyModel@@YAXHMMMMH@Z 3003f170 f   cg_draw.obj
 0001:0003e2d0       ?CG_DrawKillSpreeMessages@@YAXXZ 3003f2d0 f   cg_draw.obj
 0001:0003ef70       ?CG_DrawLivesLeft@@YAXXZ   3003ff70 f   cg_draw.obj
 0001:0003f010       ?CG_DrawMiscGamemodels@@YAXXZ 30040010 f   cg_draw.obj
 0001:00043090       ?CG_DrawTeamBackground@@YAXHHHHMH@Z 30044090 f   cg_draw.obj
 0001:00043490       ?CG_DrawTimedMenus@@YAXXZ  30044490 f   cg_draw.obj
 0001:00044e60       ?CG_Fade@@YAXHHHHHH@Z      30045e60 f   cg_draw.obj
 0001:00044eb0       ?CG_InitStatsDebug@@YAXXZ  30045eb0 f   cg_draw.obj
 0001:00044ef0       ?CG_KillSpreeMessages@@YAXPBDH0@Z 30045ef0 f   cg_draw.obj
 0001:00044f60       ?CG_ObjectivePrint@@YAXPBDH@Z 30045f60 f   cg_draw.obj
 0001:00045070       ?CG_PickupItemText@@YAPBDH@Z 30046070 f   cg_draw.obj
 0001:00045380       ?CG_PriorityBPrint@@YAXPBDHHH@Z 30046380 f   cg_draw.obj
 0001:00045490       ?CG_PriorityCenterPrint@@YAXPBDHHH@Z 30046490 f   cg_draw.obj
 0001:000455a0       ?CG_SCSortDistance@@YAHPBX0@Z 300465a0 f   cg_draw.obj
 0001:00045820       ?CG_ScanForCrosshairMine@@YAXPAUcentity_s@@@Z 30046820 f   cg_draw.obj
 0001:00045a90       ?CG_ShakeCamera@@YAXXZ     30046a90 f   cg_draw.obj
 0001:00045bf0       ?CG_ShoutcasterDynamite@@YAXH@Z 30046bf0 f   cg_draw.obj
 0001:00045ef0       ?CG_ShoutcasterItems@@YAXXZ 30046ef0 f   cg_draw.obj
 0001:00046030       ?CG_ShoutcasterPlayer@@YAXH@Z 30047030 f   cg_draw.obj
 0001:00046300       ?CG_StartShakeCamera@@YAXM@Z 30047300 f   cg_draw.obj
 0001:000463a0       ?CG_StatsDebugAddText@@YAXPBD@Z 300473a0 f   cg_draw.obj
 0001:00046450       ?CG_Text_Height@@YAHPBDMH@Z 30047450 f   cg_draw.obj
 0001:00046490       ?CG_Text_Height_Ext@@YAHPBDMHPAUfontInfo_t@@@Z 30047490 f   cg_draw.obj
 0001:00046550       ?CG_Text_Paint@@YAXMMMQAMPBDMHH@Z 30047550 f   cg_draw.obj
 0001:000465d0       ?CG_Text_PaintChar@@YAXMMMMMMMMMH@Z 300475d0 f   cg_draw.obj
 0001:000466a0       ?CG_Text_PaintChar_Ext@@YAXMMMMMMMMMMH@Z 300476a0 f   cg_draw.obj
 0001:00046770       ?CG_Text_Paint_Centred_Ext@@YAXMMMMQAMPBDMHHPAUfontInfo_t@@@Z 30047770 f   cg_draw.obj
 0001:00046820       ?CG_Text_Paint_Ext@@YAXMMMMQAMPBDMHHPAUfontInfo_t@@@Z 30047820 f   cg_draw.obj
 0001:00046b40       ?CG_Text_SetActiveFont@@YAXH@Z 30047b40 f   cg_draw.obj
 0001:00046b50       ?CG_Text_Width@@YAHPBDMH@Z 30047b50 f   cg_draw.obj
 0001:00046b90       ?CG_Text_Width_Ext@@YAHPBDMHPAUfontInfo_t@@@Z 30047b90 f   cg_draw.obj
 0001:00046c40       ?PointVisible@@YA?AW4qboolean@@QAM@Z 30047c40 f   cg_draw.obj
 0001:00046ca0       ?_Ffmt@?$num_put@DV?$ostreambuf_iterator@DU?$char_traits@D@std@@@std@@@std@@ABAPADPADDH@Z 30047ca0 f i cg_draw.obj
 0001:00046da0       ?_Iput@?$num_put@DV?$ostreambuf_iterator@DU?$char_traits@D@std@@@std@@@std@@ABA?AV?$ostreambuf_iterator@DU?$char_traits@D@std@@@2@V32@AAVios_base@2@DPADI@Z 30047da0 f i cg_draw.obj
 0001:00047250       ?_Put@?$num_put@DV?$ostreambuf_iterator@DU?$char_traits@D@std@@@std@@@std@@ABA?AV?$ostreambuf_iterator@DU?$char_traits@D@std@@@2@V32@PBDI@Z 30048250 f i cg_draw.obj
 0001:000472e0       ?_Rep@?$num_put@DV?$ostreambuf_iterator@DU?$char_traits@D@std@@@std@@@std@@ABA?AV?$ostreambuf_iterator@DU?$char_traits@D@std@@@2@V32@DI@Z 300482e0 f i cg_draw.obj
 0001:00047360       ?_Xran@?$_String_val@U?$_Simple_types@D@std@@@std@@SAXXZ 30048360 f i cg_draw.obj
 0001:00047370       ?do_put@?$num_put@DV?$ostreambuf_iterator@DU?$char_traits@D@std@@@std@@@std@@MBE?AV?$ostreambuf_iterator@DU?$char_traits@D@std@@@2@V32@AAVios_base@2@DJ@Z 30048370 f i cg_draw.obj
 0001:00047440       ?do_put@?$num_put@DV?$ostreambuf_iterator@DU?$char_traits@D@std@@@std@@@std@@MBE?AV?$ostreambuf_iterator@DU?$char_traits@D@std@@@2@V32@AAVios_base@2@DK@Z 30048440 f i cg_draw.obj
 0001:00047510       ?do_put@?$num_put@DV?$ostreambuf_iterator@DU?$char_traits@D@std@@@std@@@std@@MBE?AV?$ostreambuf_iterator@DU?$char_traits@D@std@@@2@V32@AAVios_base@2@DN@Z 30048510 f i cg_draw.obj
 0001:00047730       ?do_put@?$num_put@DV?$ostreambuf_iterator@DU?$char_traits@D@std@@@std@@@std@@MBE?AV?$ostreambuf_iterator@DU?$char_traits@D@std@@@2@V32@AAVios_base@2@DO@Z 30048730 f i cg_draw.obj
 0001:00047950       ?do_put@?$num_put@DV?$ostreambuf_iterator@DU?$char_traits@D@std@@@std@@@std@@MBE?AV?$ostreambuf_iterator@DU?$char_traits@D@std@@@2@V32@AAVios_base@2@DPBX@Z 30048950 f i cg_draw.obj
 0001:000479b0       ?do_put@?$num_put@DV?$ostreambuf_iterator@DU?$char_traits@D@std@@@std@@@std@@MBE?AV?$ostreambuf_iterator@DU?$char_traits@D@std@@@2@V32@AAVios_base@2@D_J@Z 300489b0 f i cg_draw.obj
 0001:00047a90       ?do_put@?$num_put@DV?$ostreambuf_iterator@DU?$char_traits@D@std@@@std@@@std@@MBE?AV?$ostreambuf_iterator@DU?$char_traits@D@std@@@2@V32@AAVios_base@2@D_K@Z 30048a90 f i cg_draw.obj
 0001:00047b70       ?do_put@?$num_put@DV?$ostreambuf_iterator@DU?$char_traits@D@std@@@std@@@std@@MBE?AV?$ostreambuf_iterator@DU?$char_traits@D@std@@@2@V32@AAVios_base@2@D_N@Z 30048b70 f i cg_draw.obj
 0001:00047de0       ?resize@?$basic_string@DU?$char_traits@D@std@@V?$allocator@D@2@@std@@QAEXID@Z 30048de0 f i cg_draw.obj
 0001:00047e70       ?str@?$basic_stringbuf@DU?$char_traits@D@std@@V?$allocator@D@2@@std@@QBE?AV?$basic_string@DU?$char_traits@D@std@@V?$allocator@D@2@@2@XZ 30048e70 f i cg_draw.obj
 0001:00048030       ___local_stdio_printf_options 30049030 f i cg_draw.obj
 0001:00048040       _sprintf                   30049040 f i cg_draw.obj
 0001:00048080       _sprintf_s                 30049080 f i cg_draw.obj
 0001:000480c0       ?CG_AdjustFrom640@@YAXPAM000@Z 300490c0 f   cg_drawtools.obj
 0001:00048170       ?CG_ColorForHealth@@YAXQAM@Z 30049170 f   cg_drawtools.obj
 0001:00048250       ?CG_ColorForPercent@@YAXMQAM@Z 30049250 f   cg_drawtools.obj
 0001:00048330       ?CG_DrawBigString2@@YAXHHPBDM@Z 30049330 f   cg_drawtools.obj
 0001:00048390       ?CG_DrawBigString@@YAXHHPBDM@Z 30049390 f   cg_drawtools.obj
 0001:000483f0       ?CG_DrawBigStringColor2@@YAXHHPBDQAM@Z 300493f0 f   cg_drawtools.obj
 0001:00048420       ?CG_DrawBigStringColor@@YAXHHPBDQAM@Z 30049420 f   cg_drawtools.obj
 0001:00048450       ?CG_DrawBottom_NoScale@@YAXMMMMM@Z 30049450 f   cg_drawtools.obj
 0001:00048500       ?CG_DrawChar2@@YAXHHHHH@Z  30049500 f   cg_drawtools.obj
 0001:00048640       ?CG_DrawChar@@YAXHHHHH@Z   30049640 f   cg_drawtools.obj
 0001:00048780       ?CG_DrawPic@@YAXMMMMH@Z    30049780 f   cg_drawtools.obj
 0001:000488b0       ?CG_DrawPicST@@YAXMMMMMMMMH@Z 300498b0 f   cg_drawtools.obj
 0001:00048960       ?CG_DrawRect@@YAXMMMMMPBM@Z 30049960 f   cg_drawtools.obj
 0001:00048a20       ?CG_DrawRect_FixedBorder@@YAXMMMMHPBM@Z 30049a20 f   cg_drawtools.obj
 0001:00048ae0       ?CG_DrawRotatedPic@@YAXMMMMHM@Z 30049ae0 f   cg_drawtools.obj
 0001:00048b80       ?CG_DrawSides@@YAXMMMMM@Z  30049b80 f   cg_drawtools.obj
 0001:00048cb0       ?CG_DrawSides_NoScale@@YAXMMMMM@Z 30049cb0 f   cg_drawtools.obj
 0001:00048dd0       ?CG_DrawSmallString@@YAXHHPBDM@Z 30049dd0 f   cg_drawtools.obj
 0001:00048e30       ?CG_DrawSmallStringColor@@YAXHHPBDQAM@Z 30049e30 f   cg_drawtools.obj
 0001:00048e60       ?CG_DrawStringExt2@@YAXHHPBDPBMW4qboolean@@2HHH@Z 30049e60 f   cg_drawtools.obj
 0001:00048e80       ?CG_DrawStringExt3@@YAXHHPBDPBMW4qboolean@@2HHH@Z 30049e80 f   cg_drawtools.obj
 0001:00049090       ?CG_DrawStringExt@@YAXHHPBDPAMW4qboolean@@2HHH@Z 3004a090 f   cg_drawtools.obj
 0001:00049270       ?CG_DrawStringExt_Shadow@@YAXHHPBDPBMW4qboolean@@HHHH@Z 3004a270 f   cg_drawtools.obj
 0001:00049460       ?CG_DrawStrlen@@YAHPBD@Z   3004a460 f   cg_drawtools.obj
 0001:000494b0       ?CG_DrawTopBottom@@YAXMMMMM@Z 3004a4b0 f   cg_drawtools.obj
 0001:000495e0       ?CG_DrawTopBottom_NoScale@@YAXMMMMM@Z 3004a5e0 f   cg_drawtools.obj
 0001:00049700       ?CG_FadeColor@@YAPAMHH@Z   3004a700 f   cg_drawtools.obj
 0001:00049790       ?CG_FillRect@@YAXMMMMPBM@Z 3004a790 f   cg_drawtools.obj
 0001:00049840       ?CG_FillRectGradient@@YAXMMMMPBM0H@Z 3004a840 f   cg_drawtools.obj
 0001:00049900       ?CG_FilledBar@@YAXMMMMPAM0PBMMH@Z 3004a900 f   cg_drawtools.obj
 0001:00049bf0       ?CG_GetColorForHealth@@YAXHQAM@Z 3004abf0 f   cg_drawtools.obj
 0001:00049cc0       ?CG_HorizontalPercentBar@@YAXMMMMM@Z 3004acc0 f   cg_drawtools.obj
 0001:00049d50       ?CG_IsScreenWidthRestricted@@YA_NXZ 3004ad50 f   cg_drawtools.obj
 0001:00049d60       ?CG_LerpColor2@@YAXQAM00M@Z 3004ad60 f   cg_drawtools.obj
 0001:00049e10       ?CG_LerpColor3@@YAXQAM000M@Z 3004ae10 f   cg_drawtools.obj
 0001:00049f60       ?CG_RestrictScreenWidth@@YAX_N@Z 3004af60 f   cg_drawtools.obj
 0001:00049f70       ?CG_TeamColor@@YAPAMH@Z    3004af70 f   cg_drawtools.obj
 0001:00049fb0       ?CG_TileClear@@YAXXZ       3004afb0 f   cg_drawtools.obj
 0001:0004a170       ?CG_TranslateString@@YAPADPBD@Z 3004b170 f   cg_drawtools.obj
 0001:0004a390       ?UI_DrawBannerString@@YAXHHPBDHQAM@Z 3004b390 f   cg_drawtools.obj
 0001:0004a680       ?UI_DrawProportionalString@@YAXHHPBDHQAM@Z 3004b680 f   cg_drawtools.obj
 0001:0004a930       ?UI_ProportionalSizeScale@@YAMH@Z 3004b930 f   cg_drawtools.obj
 0001:0004a960       ?UI_ProportionalStringWidth@@YAHPBD@Z 3004b960 f   cg_drawtools.obj
 0001:0004a9b0       ??$pow@MH$0A@@@YANMH@Z     3004b9b0 f i cg_effects.obj
 0001:0004aa50       ?CG_AddBloodTrails@@YAXQAM0HHHM@Z 3004ba50 f   cg_effects.obj
 0001:0004ad90       ?CG_AddSmokeSprites@@YAXXZ 3004bd90 f   cg_effects.obj
 0001:0004b1a0       ?CG_Bleed@@YAXQAMH@Z       3004c1a0 f   cg_effects.obj
 0001:0004b510       ?CG_BubbleTrail@@YAXQAM0MM@Z 3004c510 f   cg_effects.obj
 0001:0004b8b0       ?CG_GetOriginForTag@@YAHPAUcentity_s@@PAUrefEntity_t@@PADHQAMQAY02M@Z 3004c8b0 f   cg_effects.obj
 0001:0004ba00       ?CG_GibPlayer@@YAXPAUcentity_s@@QAM1@Z 3004ca00 f   cg_effects.obj
 0001:0004c1b0       ?CG_LaunchGib@@YAXPAUcentity_s@@QAM11HMH@Z 3004d1b0 f   cg_effects.obj
 0001:0004c480       ?CG_LoseHat@@YAXPAUcentity_s@@QAM@Z 3004d480 f   cg_effects.obj
 0001:0004c880       ?CG_MakeExplosion@@YAPAUlocalEntity_s@@QAM0HHHW4qboolean@@@Z 3004d880 f   cg_effects.obj
 0001:0004cb00       ?CG_ProjectedSpotLight@@YAXQAM0@Z 3004db00 f   cg_effects.obj
 0001:0004cc50       ?CG_RenderSmokeGrenadeSmoke@@YAXPAUcentity_s@@PBUweaponInfo_s@@W4weapon_t@@@Z 3004dc50 f   cg_effects.obj
 0001:0004d010       ?CG_RumbleEfx@@YAXMM@Z     3004e010 f   cg_effects.obj
 0001:0004d2a0       ?CG_SmokePuff@@YAPAUlocalEntity_s@@QBM0MMMMMMHHHH@Z 3004e2a0 f   cg_effects.obj
 0001:0004d600       ?CG_SparklerSparks@@YAXQAMH@Z 3004e600 f   cg_effects.obj
 0001:0004d7d0       ?CG_SpawnEffect@@YAXQAM@Z  3004e7d0 f   cg_effects.obj
 0001:0004d900       ?CG_Spotlight@@YAXPAUcentity_s@@PAMQAM2HMHMH@Z 3004e900 f   cg_effects.obj
 0001:0004ee30       ?InitSmokeSprites@@YAXXZ   3004fe30 f   cg_effects.obj
 0001:0004eea0       ?getTestShader@@YAHXZ      3004fea0 f   cg_effects.obj
 0001:0004eec0       ?lt_crandom@@YAMHH@Z       3004fec0 f   cg_effects.obj
 0001:0004ef40       ?lt_random@@YAMHH@Z        3004ff40 f   cg_effects.obj
 0001:0004efa0       ?CGRefEntityToTag@@YAXPAUrefEntity_t@@PAUtag_s@@@Z 3004ffa0 f   cg_ents.obj
 0001:0004f010       ?CGTagToRefEntity@@YAXPAUrefEntity_t@@PAUtag_s@@@Z 30050010 f   cg_ents.obj
 0001:0004f080       ?CG_AddCEntity@@YAXPAUcentity_s@@@Z 30050080 f   cg_ents.obj
 0001:0004f0c0       ?CG_AddCEntity_Filter@@YA?AW4qboolean@@PAUcentity_s@@@Z 300500c0 f   cg_ents.obj
 0001:0004f130       ?CG_AddEntityToTag@@YA?AW4qboolean@@PAUcentity_s@@@Z 30050130 f   cg_ents.obj
 0001:0004f330       ?CG_AddLightstyle@@YAXPAUcentity_s@@@Z 30050330 f   cg_ents.obj
 0001:0004f680       ?CG_AddLinkedEntity@@YA?AW4qboolean@@PAUcentity_s@@W41@H@Z 30050680 f   cg_ents.obj
 0001:0004fd00       ?CG_AddPacketEntities@@YAXXZ 30050d00 f   cg_ents.obj
 0001:0004ff80       ?CG_AdjustPositionForMover@@YAXQBMHHHQAM1@Z 30050f80 f   cg_ents.obj
 0001:00050370       ?CG_AttachBitsToTank@@YAXPAUcentity_s@@PAUrefEntity_t@@1111QBMPBDW4qboolean@@@Z 30051370 f   cg_ents.obj
 0001:00050760       ?CG_Beam@@YAXPAUcentity_s@@@Z 30051760 f   cg_ents.obj
 0001:000508b0       ?CG_Beam_2@@YAXPAUcentity_s@@@Z 300518b0 f   cg_ents.obj
 0001:00050ce0       ?CG_Cabinet@@YAXPAUcentity_s@@W4cabinetType_e@@@Z 30051ce0 f   cg_ents.obj
 0001:00050f50       ?CG_CalcEntityLerpPositions@@YAXPAUcentity_s@@@Z 30051f50 f   cg_ents.obj
 0001:00053160       ?CG_Missile@@YAXPAUcentity_s@@@Z 30054160 f   cg_ents.obj
 0001:00054130       ?CG_Mover_PostProcess@@YAXPAUcentity_s@@@Z 30055130 f   cg_ents.obj
 0001:00054440       ?CG_PlayerSeesItem@@YA?AW4qboolean@@PAUplayerState_s@@PAUentityState_s@@HH@Z 30055440 f   cg_ents.obj
 0001:00054770       ?CG_PositionEntityOnTag@@YAXPAUrefEntity_t@@PBU1@PBDHPAY02M@Z 30055770 f   cg_ents.obj
 0001:000548d0       ?CG_PositionRotatedEntityOnTag@@YAXPAUrefEntity_t@@PBU1@PBD@Z 300558d0 f   cg_ents.obj
 0001:00054f90       ?CG_SetEntitySoundPosition@@YAXPAUcentity_s@@@Z 30055f90 f   cg_ents.obj
 0001:00055040       ?CG_SetupCabinets@@YAXXZ   30056040 f   cg_ents.obj
 0001:00055960       ?CG_CheckEvents@@YAXPAUcentity_s@@@Z 30056960 f   cg_event.obj
 0001:00055a90       ?CG_Debris@@YAXPAUcentity_s@@QAM1@Z 30056a90 f   cg_event.obj
 0001:00055ca0       ?CG_Effect@@YAXPAUcentity_s@@QAM1@Z 30056ca0 f   cg_event.obj
 0001:00056220       ?CG_EntityEvent@@YAXPAUcentity_s@@QAM@Z 30057220 f   cg_event.obj
 0001:00058f80       ?CG_Explode@@YAXPAUcentity_s@@QAM1H@Z 30059f80 f   cg_event.obj
 0001:000590d0       ?CG_Explodef@@YAXQAM0HHHHH@Z 3005a0d0 f   cg_event.obj
 0001:00059d70       ?CG_MortarImpact@@YAXPAUcentity_s@@QAMHW4qboolean@@@Z 3005ad70 f   cg_event.obj
 0001:00059f10       ?CG_MortarMiss@@YAXPAUcentity_s@@QAM@Z 3005af10 f   cg_event.obj
 0001:0005aa80       ?CG_PainEvent@@YAXPAUcentity_s@@HW4qboolean@@@Z 3005ba80 f   cg_event.obj
 0001:0005ab10       ?CG_PrecacheFXSounds@@YAXXZ 3005bb10 f   cg_event.obj
 0001:0005aba0       ?CG_Rubble@@YAXPAUcentity_s@@QAM1H@Z 3005bba0 f   cg_event.obj
 0001:0005ad10       ?CG_RubbleFx@@YAXQAM0HHHHHMM@Z 3005bd10 f   cg_event.obj
 0001:0005b790       ?CG_Shard@@YAXPAUcentity_s@@QAM1@Z 3005c790 f   cg_event.obj
 0001:0005bc00       ?CG_ShardJunk@@YAXPAUcentity_s@@QAM1@Z 3005cc00 f   cg_event.obj
 0001:0005bee0       ??$_Assign@D@?$basic_string@DU?$char_traits@D@std@@V?$allocator@D@2@@std@@AAEAAV01@QBDI@Z 3005cee0 f i cg_fireteamoverlay.obj
 0001:0005c040       ??0?$basic_string@DU?$char_traits@D@std@@V?$allocator@D@2@@std@@QAE@XZ 3005d040 f i cg_fireteamoverlay.obj
 0001:0005c060       ??Y?$basic_string@DU?$char_traits@D@std@@V?$allocator@D@2@@std@@QAEAAV01@QBD@Z 3005d060 f i cg_fireteamoverlay.obj
 0001:0005c0f0       ?CG_BuildSelectedFirteamString@@YAPBDXZ 3005d0f0 f   cg_fireteamoverlay.obj
 0001:0005c1e0       ?CG_ClientInfoForPosition@@YAPAUclientInfo_s@@HH@Z 3005d1e0 f   cg_fireteamoverlay.obj
 0001:0005c270       ?CG_DrawFireTeamOverlay@@YAXPAUrectDef_s@@@Z 3005d270 f   cg_fireteamoverlay.obj
 0001:0005cff0       ?CG_FireTeamForPosition@@YAPAUfireteamData_t@@HH@Z 3005dff0 f   cg_fireteamoverlay.obj
 0001:0005d080       ?CG_FireTeamPlayerForPosition@@YAPAUclientInfo_s@@HH@Z 3005e080 f   cg_fireteamoverlay.obj
 0001:0005d110       ?CG_FireteamGetBoxNeedsButtons@@YA?AW4qboolean@@XZ 3005e110 f   cg_fireteamoverlay.obj
 0001:0005d170       ?CG_FireteamGetBoxText@@YAPBDXZ 3005e170 f   cg_fireteamoverlay.obj
 0001:0005d2b0       ?CG_FireteamHasClass@@YA?AW4qboolean@@HW41@@Z 3005e2b0 f   cg_fireteamoverlay.obj
 0001:0005d330       ?CG_IsFireTeamLeader@@YAPAUfireteamData_t@@H@Z 3005e330 f   cg_fireteamoverlay.obj
 0001:0005d360       ?CG_IsOnSameFireteam@@YAPAUfireteamData_t@@HH@Z 3005e360 f   cg_fireteamoverlay.obj
 0001:0005d390       ?CG_ParseFireteams@@YAXXZ  3005e390 f   cg_fireteamoverlay.obj
 0001:0005d540       ?CG_SortClientFireteam@@YAXXZ 3005e540 f   cg_fireteamoverlay.obj
 0001:0005d5f0       ?CG_SortFireTeam@@YAHPBX0@Z 3005e5f0 f   cg_fireteamoverlay.obj
 0001:0005d6b0       ?CG_SortedFireTeamPlayerForPosition@@YAPAUclientInfo_s@@HH@Z 3005e6b0 f   cg_fireteamoverlay.obj
 0001:0005d720       ___local_stdio_scanf_options 3005e720 f i cg_fireteamoverlay.obj
 0001:0005d730       _sscanf                    3005e730 f i cg_fireteamoverlay.obj
 0001:0005d760       ?CG_Fireteams_MenuText_Draw@@YAXPAUpanel_button_s@@@Z 3005e760 f   cg_fireteams.obj
 0001:0005de40       ?CG_Fireteams_MenuTitleText_Draw@@YAXPAUpanel_button_s@@@Z 3005ee40 f   cg_fireteams.obj
 0001:0005dff0       ?CG_CountFireteamsByTeam@@YAHW4team_t@@@Z 3005eff0 f   cg_fireteams.obj
 0001:0005e110       ?CG_CountPlayersNF@@YAHXZ  3005f110 f   cg_fireteams.obj
 0001:0005e170       ?CG_CountPlayersSF@@YAHXZ  3005f170 f   cg_fireteams.obj
 0001:0005e1e0       ?CG_DrawFireteamsByTeam@@YAXPAUpanel_button_s@@W4team_t@@@Z 3005f1e0 f   cg_fireteams.obj
 0001:0005e320       ?CG_DrawPlayerNF@@YAXPAUpanel_button_s@@PAH@Z 3005f320 f   cg_fireteams.obj
 0001:0005e5f0       ?CG_DrawPlayerSF@@YAXPAUpanel_button_s@@PAH@Z 3005f5f0 f   cg_fireteams.obj
 0001:0005e8c0       ?CG_FireteamCheckExecKey@@YA?AW4qboolean@@HW41@@Z 3005f8c0 f   cg_fireteams.obj
 0001:0005f2b0       ?CG_Fireteams_Draw@@YAXXZ  300602b0 f   cg_fireteams.obj
 0001:0005f2c0       ?CG_Fireteams_KeyHandling@@YAXHW4qboolean@@@Z 300602c0 f   cg_fireteams.obj
 0001:0005f2e0       ?CG_Fireteams_Setup@@YAXXZ 300602e0 f   cg_fireteams.obj
 0001:0005f2f0       ?CG_PlayerNFFromPos@@YAHHPAH@Z 300602f0 f   cg_fireteams.obj
 0001:0005f3e0       ?CG_PlayerSFFromPos@@YAHHPAH@Z 300603e0 f   cg_fireteams.obj
 0001:0005f4e0       ?CG_AddFlameChunks@@YAXXZ  300604e0 f   cg_flamethrower.obj
 0001:0005f680       ?CG_AddFlameSpriteToScene@@YAXPAUflameChunk_s@@MM@Z 30060680 f   cg_flamethrower.obj
 0001:0005fd90       ?CG_AddFlameToScene@@YAXPAUflameChunk_s@@@Z 30060d90 f   cg_flamethrower.obj
 0001:00060990       ?CG_ClearFlameChunks@@YAXXZ 30061990 f   cg_flamethrower.obj
 0001:00060a70       ?CG_FireFlameChunks@@YAXPAUcentity_s@@QAM1MW4qboolean@@@Z 30061a70 f   cg_flamethrower.obj
 0001:00061470       ?CG_FlameAdjustSpeed@@YAXPAUflameChunk_s@@M@Z 30062470 f   cg_flamethrower.obj
 0001:000614d0       ?CG_FlameCalcOrg@@YAXPAUflameChunk_s@@HQAM@Z 300624d0 f   cg_flamethrower.obj
 0001:00061580       ?CG_FlameDamage@@YAXHQAMM@Z 30062580 f   cg_flamethrower.obj
 0001:00061590       ?CG_FlameLerpVec@@YAXQBM0MQAM@Z 30062590 f   cg_flamethrower.obj
 0001:00061640       ?CG_FreeFlameChunk@@YAXPAUflameChunk_s@@@Z 30062640 f   cg_flamethrower.obj
 0001:00061720       ?CG_GenerateShaders@@YAXPAD00H000W4qboolean@@1@Z 30062720 f   cg_flamethrower.obj
 0001:00061930       ?CG_InitFlameChunks@@YAXXZ 30062930 f   cg_flamethrower.obj
 0001:000619d0       ?CG_MergeFlameChunks@@YAXPAUflameChunk_s@@0@Z 300629d0 f   cg_flamethrower.obj
 0001:00061a80       ?CG_MoveFlameChunk@@YAXPAUflameChunk_s@@@Z 30062a80 f   cg_flamethrower.obj
 0001:00061ee0       ?CG_SpawnFlameChunk@@YAPAUflameChunk_s@@PAU1@@Z 30062ee0 f   cg_flamethrower.obj
 0001:00062000       ?CG_UpdateFlamethrowerSounds@@YAXXZ 30063000 f   cg_flamethrower.obj
 0001:00062190       ?CG_DemoClick@@YAXHW4qboolean@@@Z 30063190 f   cg_info.obj
 0001:000629c0       ?CG_DemoHelpDraw@@YAXXZ    300639c0 f   cg_info.obj
 0001:00062f90       ?CG_DrawInformation@@YAXW4qboolean@@@Z 30063f90 f   cg_info.obj
 0001:00062fe0       ?CG_DrawOverlays@@YAXXZ    30063fe0 f   cg_info.obj
 0001:00063000       ?CG_GameStatsDraw@@YAXXZ   30064000 f   cg_info.obj
 0001:00063e80       ?CG_LoadingString@@YAXPBD@Z 30064e80 f   cg_info.obj
 0001:00063ed0       ?CG_ShowHelp_Off@@YAXPAH@Z 30064ed0 f   cg_info.obj
 0001:00063f60       ?CG_ShowHelp_On@@YAXPAH@Z  30064f60 f   cg_info.obj
 0001:00063ff0       ?CG_SpecHelpDraw@@YAXXZ    30064ff0 f   cg_info.obj
 0001:00064530       ?CG_TopShotsDraw@@YAXXZ    30065530 f   cg_info.obj
 0001:00064c10       ?CG_ViewingDraw@@YA?AW4qboolean@@XZ 30065c10 f   cg_info.obj
 0001:00064de0       ?CG_getBindKeyName@@YAPADPBDPADH@Z 30065de0 f   cg_info.obj
 0001:00064e80       ?CG_LimboPanel_WeaponLights_KeyDown@@YA?AW4qboolean@@PAUpanel_button_s@@H@Z 30065e80 f   cg_limbopanel.obj
 0001:00064ee0       ?CG_LimboPanel_WeaponPanel_KeyDown@@YA?AW4qboolean@@PAUpanel_button_s@@H@Z 30065ee0 f   cg_limbopanel.obj
 0001:00064f40       ?CG_LimboPanel_WeaponPanel_KeyUp@@YA?AW4qboolean@@PAUpanel_button_s@@H@Z 30065f40 f   cg_limbopanel.obj
 0001:00065040       ?CG_LimboPanel_ObjectiveText_KeyDown@@YA?AW4qboolean@@PAUpanel_button_s@@H@Z 30066040 f   cg_limbopanel.obj
 0001:000650e0       ?CG_LimboPanel_TeamButton_KeyDown@@YA?AW4qboolean@@PAUpanel_button_s@@H@Z 300660e0 f   cg_limbopanel.obj
 0001:00065170       ?CG_LimboPanel_ClassButton_KeyDown@@YA?AW4qboolean@@PAUpanel_button_s@@H@Z 30066170 f   cg_limbopanel.obj
 0001:00065200       ?CG_LimboPanel_OkButton_KeyDown@@YA?AW4qboolean@@PAUpanel_button_s@@H@Z 30066200 f   cg_limbopanel.obj
 0001:00065240       ?CG_LimboPanel_PlusButton_KeyDown@@YA?AW4qboolean@@PAUpanel_button_s@@H@Z 30066240 f   cg_limbopanel.obj
 0001:000652b0       ?CG_LimboPanel_MinusButton_KeyDown@@YA?AW4qboolean@@PAUpanel_button_s@@H@Z 300662b0 f   cg_limbopanel.obj
 0001:00065320       ?CG_LimboPanel_CancelButton_KeyDown@@YA?AW4qboolean@@PAUpanel_button_s@@H@Z 30066320 f   cg_limbopanel.obj
 0001:00065390       ?CG_LimboPanel_Filter_KeyDown@@YA?AW4qboolean@@PAUpanel_button_s@@H@Z 30066390 f   cg_limbopanel.obj
 0001:000653e0       ?CG_LimboPanel_BriefingButton_KeyDown@@YA?AW4qboolean@@PAUpanel_button_s@@H@Z 300663e0 f   cg_limbopanel.obj
 0001:00065490       ?CG_LimboPanel_BriefingButton_Draw@@YAXPAUpanel_button_s@@@Z 30066490 f   cg_limbopanel.obj
 0001:00065540       ?CG_LimboPanel_ClassBar_Draw@@YAXPAUpanel_button_s@@@Z 30066540 f   cg_limbopanel.obj
 0001:000657c0       ?CG_LimboPanel_Filter_Draw@@YAXPAUpanel_button_s@@@Z 300667c0 f   cg_limbopanel.obj
 0001:00065890       ?CG_LimboPanel_RenderSkillIcon@@YAXPAUpanel_button_s@@@Z 30066890 f   cg_limbopanel.obj
 0001:00065900       ?CG_LimboPanel_RenderTeamButton@@YAXPAUpanel_button_s@@@Z 30066900 f   cg_limbopanel.obj
 0001:00065b40       ?CG_LimboPanel_RenderClassButton@@YAXPAUpanel_button_s@@@Z 30066b40 f   cg_limbopanel.obj
 0001:00066060       ?CG_LimboPanel_RenderObjectiveText@@YAXPAUpanel_button_s@@@Z 30067060 f   cg_limbopanel.obj
 0001:000664e0       ?CG_LimboPanel_RenderCommandMap@@YAXPAUpanel_button_s@@@Z 300674e0 f   cg_limbopanel.obj
 0001:00066520       ?CG_LimboPanel_RenderObjectiveBack@@YAXPAUpanel_button_s@@@Z 30067520 f   cg_limbopanel.obj
 0001:00066550       ?CG_LimboPanel_RenderLight@@YAXPAUpanel_button_s@@@Z 30067550 f   cg_limbopanel.obj
 0001:00066600       ?CG_LimboPanel_WeaponLights@@YAXPAUpanel_button_s@@@Z 30067600 f   cg_limbopanel.obj
 0001:00066670       ?CG_LimboPanel_RenderHead@@YAXPAUpanel_button_s@@@Z 30067670 f   cg_limbopanel.obj
 0001:00066b30       ?CG_LimboPanel_WeaponPanel@@YAXPAUpanel_button_s@@@Z 30067b30 f   cg_limbopanel.obj
 0001:00066fa0       ?CG_LimboPanel_Border_Draw@@YAXPAUpanel_button_s@@@Z 30067fa0 f   cg_limbopanel.obj
 0001:00066fd0       ?CG_LimboPanel_RenderMedal@@YAXPAUpanel_button_s@@@Z 30067fd0 f   cg_limbopanel.obj
 0001:00067080       ?CG_LimboPanel_RenderCounter@@YAXPAUpanel_button_s@@@Z 30068080 f   cg_limbopanel.obj
 0001:000674d0       ?CG_LimboPanelRenderText_NoLMS@@YAXPAUpanel_button_s@@@Z 300684d0 f   cg_limbopanel.obj
 0001:000674f0       ?CG_LimboPanelRenderText_SkillsText@@YAXPAUpanel_button_s@@@Z 300684f0 f   cg_limbopanel.obj
 0001:00067510       ?CG_LimboPanel_NameEditFinish@@YAXPAUpanel_button_s@@@Z 30068510 f   cg_limbopanel.obj
 0001:00067560       ?CG_DrawBorder@@YAXMMMMW4qboolean@@0@Z 30068560 f   cg_limbopanel.obj
 0001:00067990       ?CG_DrawPlayerHead@@YAXPAUrectDef_s@@PAUbg_character_s@@1MMW4qboolean@@W4hudHeadAnimNumber_s@@HH2@Z 30068990 f   cg_limbopanel.obj
 0001:00067f90       ?CG_IsHeavyWeapon@@YA?AW4qboolean@@W4weapon_t@@@Z 30068f90 f   cg_limbopanel.obj
 0001:00067fd0       ?CG_LimboPanel_Draw@@YA?AW4qboolean@@XZ 30068fd0 f   cg_limbopanel.obj
 0001:00068180       ?CG_LimboPanel_GetCharacter@@YAPAUbg_character_s@@XZ 30069180 f   cg_limbopanel.obj
 0001:000681a0       ?CG_LimboPanel_GetClass@@YAHXZ 300691a0 f   cg_limbopanel.obj
 0001:000681b0       ?CG_LimboPanel_GetMaxObjectives@@YAHXZ 300691b0 f   cg_limbopanel.obj
 0001:000681f0       ?CG_LimboPanel_GetPlayerClass@@YAPAUbg_playerclass_t@@XZ 300691f0 f   cg_limbopanel.obj
 0001:00068210       ?CG_LimboPanel_GetRealTeam@@YA?AW4team_t@@XZ 30069210 f   cg_limbopanel.obj
 0001:00068230       ?CG_LimboPanel_GetSelectedWeapon@@YA?AW4weapon_t@@XZ 30069230 f   cg_limbopanel.obj
 0001:00068250       ?CG_LimboPanel_GetSelectedWeaponForSlot@@YA?AW4weapon_t@@H@Z 30069250 f   cg_limbopanel.obj
 0001:00068280       ?CG_LimboPanel_GetSelectedWeaponNum@@YAHXZ 30069280 f   cg_limbopanel.obj
 0001:000682c0       ?CG_LimboPanel_GetSelectedWeaponStat@@YA?AW4extWeaponStats_s@@XZ 300692c0 f   cg_limbopanel.obj
 0001:000682e0       ?CG_LimboPanel_GetTeam@@YA?AW4team_t@@XZ 300692e0 f   cg_limbopanel.obj
 0001:000682f0       ?CG_LimboPanel_GetWeaponCardIconData@@YAXW4weapon_t@@PAHPAM22222@Z 300692f0 f   cg_limbopanel.obj
 0001:00068610       ?CG_LimboPanel_GetWeaponForNumber@@YA?AW4weapon_t@@HHW4qboolean@@@Z 30069610 f   cg_limbopanel.obj
 0001:00068770       ?CG_LimboPanel_GetWeaponNumberForPos@@YAHH@Z 30069770 f   cg_limbopanel.obj
 0001:000687f0       ?CG_LimboPanel_Init@@YAXXZ 300697f0 f   cg_limbopanel.obj
 0001:00068800       ?CG_LimboPanel_KeyHandling@@YAXHW4qboolean@@@Z 30069800 f   cg_limbopanel.obj
 0001:00068890       ?CG_LimboPanel_RealWeaponIsDisabled@@YA?AW4qboolean@@W4weapon_t@@@Z 30069890 f   cg_limbopanel.obj
 0001:00068bb0       ?CG_LimboPanel_RenderCounterNumber@@YAXMMMMMHHH@Z 30069bb0 f   cg_limbopanel.obj
 0001:00068d00       ?CG_LimboPanel_RenderCounter_CountsDown@@YA?AW4qboolean@@PAUpanel_button_s@@@Z 30069d00 f   cg_limbopanel.obj
 0001:00068d30       ?CG_LimboPanel_RenderCounter_CountsUp@@YA?AW4qboolean@@PAUpanel_button_s@@@Z 30069d30 f   cg_limbopanel.obj
 0001:00068d60       ?CG_LimboPanel_RenderCounter_GetShaders@@YAXPAUpanel_button_s@@PAH11@Z 30069d60 f   cg_limbopanel.obj
 0001:00068dc0       ?CG_LimboPanel_RenderCounter_IsReversed@@YA?AW4qboolean@@PAUpanel_button_s@@@Z 30069dc0 f   cg_limbopanel.obj
 0001:00068de0       ?CG_LimboPanel_RenderCounter_MaxChangeForButton@@YAHPAUpanel_button_s@@@Z 30069de0 f   cg_limbopanel.obj
 0001:00068e10       ?CG_LimboPanel_RenderCounter_NumRollers@@YAHPAUpanel_button_s@@@Z 30069e10 f   cg_limbopanel.obj
 0001:00068eb0       ?CG_LimboPanel_RenderCounter_RollTimeForButton@@YAHPAUpanel_button_s@@@Z 30069eb0 f   cg_limbopanel.obj
 0001:00068f70       ?CG_LimboPanel_RenderCounter_StartSet@@YA?AW4qboolean@@PAUpanel_button_s@@@Z 30069f70 f   cg_limbopanel.obj
 0001:00068fa0       ?CG_LimboPanel_RenderCounter_ValueForButton@@YAHPAUpanel_button_s@@@Z 30069fa0 f   cg_limbopanel.obj
 0001:00069270       ?CG_LimboPanel_RenderLight_GetValue@@YA?AW4qboolean@@PAUpanel_button_s@@@Z 3006a270 f   cg_limbopanel.obj
 0001:000692d0       ?CG_LimboPanel_RequestObjective@@YAXXZ 3006a2d0 f   cg_limbopanel.obj
 0001:00069330       ?CG_LimboPanel_RequestWeaponStats@@YAXXZ 3006a330 f   cg_limbopanel.obj
 0001:00069360       ?CG_LimboPanel_SendSetupMsg@@YAXW4qboolean@@@Z 3006a360 f   cg_limbopanel.obj
 0001:000694f0       ?CG_LimboPanel_SetSelectedWeaponNum@@YAXH@Z 3006a4f0 f   cg_limbopanel.obj
 0001:00069540       ?CG_LimboPanel_SetSelectedWeaponNumForSlot@@YAXHH@Z 3006a540 f   cg_limbopanel.obj
 0001:00069560       ?CG_LimboPanel_Setup@@YAXXZ 3006a560 f   cg_limbopanel.obj
 0001:000697b0       ?CG_LimboPanel_TeamClassCount@@YAHH@Z 3006a7b0 f   cg_limbopanel.obj
 0001:00069820       ?CG_LimboPanel_TeamCount@@YAHW4weapon_t@@@Z 3006a820 f   cg_limbopanel.obj
 0001:000698a0       ?CG_LimboPanel_WeaponCount@@YAHXZ 3006a8a0 f   cg_limbopanel.obj
 0001:000698c0       ?CG_LimboPanel_WeaponCount_ForSlot@@YAHH@Z 3006a8c0 f   cg_limbopanel.obj
 0001:00069940       ?CG_LimboPanel_WeaponIsDisabled@@YA?AW4qboolean@@H@Z 3006a940 f   cg_limbopanel.obj
 0001:00069a00       ?CG_LimboPanel_WeaponPanel_DrawWeapon@@YAXPAUrectDef_s@@W4weapon_t@@W4qboolean@@PBD2@Z 3006aa00 f   cg_limbopanel.obj
 0001:00069df0       ?CG_LoadPanel_RenderCampaignPins@@YAXPAUpanel_button_s@@@Z 3006adf0 f   cg_loadpanel.obj
 0001:00069ff0       ?CG_LoadPanel_RenderMissionDescriptionText@@YAXPAUpanel_button_s@@@Z 3006aff0 f   cg_loadpanel.obj
 0001:0006a1c0       ?CG_LoadPanel_RenderCampaignTypeText@@YAXPAUpanel_button_s@@@Z 3006b1c0 f   cg_loadpanel.obj
 0001:0006a290       ?CG_LoadPanel_RenderCampaignNameText@@YAXPAUpanel_button_s@@@Z 3006b290 f   cg_loadpanel.obj
 0001:0006a450       ?CG_LoadPanel_RenderLoadingBar@@YAXPAUpanel_button_s@@@Z 3006b450 f   cg_loadpanel.obj
 0001:0006a520       ?CG_DrawConnectScreen@@YAXW4qboolean@@0@Z 3006b520 f   cg_loadpanel.obj
 0001:0006adf0       ?CG_LoadPanel_ContinueButtonKeyDown@@YA?AW4qboolean@@PAUpanel_button_s@@H@Z 3006bdf0 f   cg_loadpanel.obj
 0001:0006ae20       ?CG_LoadPanel_DrawPin@@YAXPBDMMMMHMM@Z 3006be20 f   cg_loadpanel.obj
 0001:0006b140       ?CG_LoadPanel_GameTypeName@@YAPBDW4gametype_t@@@Z 3006c140 f   cg_loadpanel.obj
 0001:0006b1c0       ?CG_LoadPanel_KeyHandling@@YAXHW4qboolean@@@Z 3006c1c0 f   cg_loadpanel.obj
 0001:0006b1e0       ?CG_AddBloodElements@@YAXPAUlocalEntity_s@@@Z 3006c1e0 f   cg_localents.obj
 0001:0006b400       ?CG_AddConstRGB@@YAXPAUlocalEntity_s@@@Z 3006c400 f   cg_localents.obj
 0001:0006b460       ?CG_AddDebrisElements@@YAXPAUlocalEntity_s@@@Z 3006c460 f   cg_localents.obj
 0001:0006b6b0       ?CG_AddEmitter@@YAXPAUlocalEntity_s@@@Z 3006c6b0 f   cg_localents.obj
 0001:0006b850       ?CG_AddFadeRGB@@YAXPAUlocalEntity_s@@@Z 3006c850 f   cg_localents.obj
 0001:0006ba00       ?CG_AddFragment@@YAXPAUlocalEntity_s@@@Z 3006ca00 f   cg_localents.obj
 0001:0006c5b0       ?CG_AddFuseSparkElements@@YAXPAUlocalEntity_s@@@Z 3006d5b0 f   cg_localents.obj
 0001:0006c6e0       ?CG_AddLocalEntities@@YAXXZ 3006d6e0 f   cg_localents.obj
 0001:0006ca10       ?CG_AddMovingTracer@@YAXPAUlocalEntity_s@@@Z 3006da10 f   cg_localents.obj
 0001:0006cbe0       ?CG_AddShrapnel@@YAXPAUlocalEntity_s@@@Z 3006dbe0 f   cg_localents.obj
 0001:0006ce20       ?CG_AddSparkElements@@YAXPAUlocalEntity_s@@@Z 3006de20 f   cg_localents.obj
 0001:0006d2a0       ?CG_AllocLocalEntity@@YAPAUlocalEntity_s@@XZ 3006e2a0 f   cg_localents.obj
 0001:0006d320       ?CG_BloodTrail@@YAXPAUlocalEntity_s@@@Z 3006e320 f   cg_localents.obj
 0001:0006d480       ?CG_FragmentBounceMark@@YAXPAUlocalEntity_s@@PAUtrace_t@@@Z 3006e480 f   cg_localents.obj
 0001:0006d580       ?CG_FragmentBounceSound@@YAXPAUlocalEntity_s@@PAUtrace_t@@@Z 3006e580 f   cg_localents.obj
 0001:0006d6f0       ?CG_FreeLocalEntity@@YAXPAUlocalEntity_s@@@Z 3006e6f0 f   cg_localents.obj
 0001:0006d740       ?CG_InitLocalEntities@@YAXXZ 3006e740 f   cg_localents.obj
 0001:0006d7b0       ?CG_ReflectVelocity@@YAXPAUlocalEntity_s@@PAUtrace_t@@@Z 3006e7b0 f   cg_localents.obj
 0001:0006d960       ?CG_AddMarks@@YAXXZ        3006e960 f   cg_marks.obj
 0001:0006dac0       ?CG_AllocMark@@YAPAUmarkPoly_s@@H@Z 3006eac0 f   cg_marks.obj
 0001:0006db50       ?CG_FreeMarkPoly@@YAXPAUmarkPoly_s@@@Z 3006eb50 f   cg_marks.obj
 0001:0006dba0       ?CG_ImpactMark@@YAXHQAM0MMMMMMH@Z 3006eba0 f   cg_marks.obj
 0001:0006dde0       ?CG_InitMarkPolys@@YAXXZ   3006ede0 f   cg_marks.obj
 0001:0006de50       ?CG_DescriptionForCampaign@@YAPBDXZ 3006ee50 f   cg_missionbriefing.obj
 0001:0006de70       ?CG_FindArenaInfo@@YA?AW4qboolean@@PAD0PAUarenaInfo_t@@@Z 3006ee70 f   cg_missionbriefing.obj
 0001:0006e3d0       ?CG_FindCampaignInFile@@YA?AW4qboolean@@PAD0PAUcg_campaignInfo_t@@@Z 3006f3d0 f   cg_missionbriefing.obj
 0001:0006e8c0       ?CG_LocateArena@@YAXXZ     3006f8c0 f   cg_missionbriefing.obj
 0001:0006e920       ?CG_LocateCampaign@@YAXXZ  3006f920 f   cg_missionbriefing.obj
 0001:0006ea80       ?CG_NameForCampaign@@YAPBDXZ 3006fa80 f   cg_missionbriefing.obj
 0001:0006eaa0       ??0Chunk@molotov@@QAE@XZ   3006faa0 f   cg_molotov.obj
 0001:0006eb00       ??1?$_Alloc_construct_ptr@V?$allocator@U?$_List_node@PAVChunk@molotov@@PAX@std@@@std@@@std@@QAE@XZ 3006fb00 f i cg_molotov.obj
 0001:0006eb20       ??1Chunk@molotov@@QAE@XZ   3006fb20 f   cg_molotov.obj
 0001:0006eb30       ?draw@molotov@@YAXAAUcentity_s@@@Z 3006fb30 f   cg_molotov.obj
 0001:0006f290       ?markAvail@Chunk@molotov@@QAEXXZ 30070290 f   cg_molotov.obj
 0001:0006f2f0       ?markUsed@Chunk@molotov@@QAEXXZ 300702f0 f   cg_molotov.obj
 0001:0006f350       ?populatePolyBuffers@molotov@@YAXXZ 30070350 f   cg_molotov.obj
 0001:0006f3a0       ?process@Chunk@molotov@@QAE_NXZ 300703a0 f   cg_molotov.obj
 0001:0006f760       ?push_front@?$list@PAVChunk@molotov@@V?$allocator@PAVChunk@molotov@@@std@@@std@@QAEX$$QAPAVChunk@molotov@@@Z 30070760 f i cg_molotov.obj
 0001:0006f800       ?restart@molotov@@YAXXZ    30070800 f   cg_molotov.obj
 0001:0006f810       ?shutdown@molotov@@YAXXZ   30070810 f   cg_molotov.obj
 0001:0006f920       ??$atan2@HM$0A@@@YANHM@Z   30070920 f i cg_multiview.obj
 0001:0006f960       ?CG_mvClientLocate@@YAPAUcg_window_t@@H@Z 30070960 f   cg_multiview.obj
 0001:0006f9c0       ?CG_mvCreate@@YAXH@Z       300709c0 f   cg_multiview.obj
 0001:0006fb30       ?CG_mvCurrent@@YAPAUcg_window_t@@XZ 30070b30 f   cg_multiview.obj
 0001:0006fb80       ?CG_mvDelete_f@@YAXXZ      30070b80 f   cg_multiview.obj
 0001:0006fc10       ?CG_mvDraw@@YAXPAUcg_window_t@@@Z 30070c10 f   cg_multiview.obj
 0001:00070430       ?CG_mvFindNonMainview@@YAPAUcg_window_t@@XZ 30071430 f   cg_multiview.obj
 0001:000704f0       ?CG_mvFree@@YAXH@Z         300714f0 f   cg_multiview.obj
 0001:00070540       ?CG_mvHideView_f@@YAXXZ    30071540 f   cg_multiview.obj
 0001:00070570       ?CG_mvMainviewSwap@@YAXPAUcg_window_t@@@Z 30071570 f   cg_multiview.obj
 0001:000705c0       ?CG_mvMergedClientLocate@@YA?AW4qboolean@@H@Z 300715c0 f   cg_multiview.obj
 0001:00070620       ?CG_mvNew_f@@YAXXZ         30071620 f   cg_multiview.obj
 0001:000706a0       ?CG_mvOverlayClientUpdate@@YAXHH@Z 300716a0 f   cg_multiview.obj
 0001:000707b0       ?CG_mvOverlayDisplay@@YAXXZ 300717b0 f   cg_multiview.obj
 0001:00070ad0       ?CG_mvOverlayUpdate@@YAXXZ 30071ad0 f   cg_multiview.obj
 0001:00070b20       ?CG_mvProcessClientList@@YAXXZ 30071b20 f   cg_multiview.obj
 0001:00070bb0       ?CG_mvShowView_f@@YAXXZ    30071bb0 f   cg_multiview.obj
 0001:00070c10       ?CG_mvSwapViews_f@@YAXXZ   30071c10 f   cg_multiview.obj
 0001:00070c40       ?CG_mvToggleAll_f@@YAXXZ   30071c40 f   cg_multiview.obj
 0001:00070c70       ?CG_mvToggleView_f@@YAXXZ  30071c70 f   cg_multiview.obj
 0001:00070cd0       ?CG_mvTransitionPlayerState@@YAXPAUplayerState_s@@@Z 30071cd0 f   cg_multiview.obj
 0001:00070fb0       ?CG_mvUpdateClientInfo@@YAXH@Z 30071fb0 f   cg_multiview.obj
 0001:00071260       ?CG_mvWindowOverlay@@YAXHMMMMMHW4qboolean@@@Z 30072260 f   cg_multiview.obj
 0001:000719c0       ?CG_mvZoomBinoc@@YAXMMMM@Z 300729c0 f   cg_multiview.obj
 0001:00071d90       ?CG_mvZoomSniper@@YAXMMMM@Z 30072d90 f   cg_multiview.obj
 0001:000720a0       ?CG_ClientNumFromName@@YAHPBD@Z 300730a0 f   cg_newDraw.obj
 0001:00072110       ?CG_DrawCursorhint@@YAXPAUrectDef_s@@@Z 30073110 f   cg_newDraw.obj
 0001:000726e0       ?CG_DrawPlayerWeaponIcon@@YAXPAUrectDef_s@@W4qboolean@@HPAY03M@Z 300736e0 f   cg_newDraw.obj
 0001:00072b60       ?CG_DrawWeapHeat@@YAXPAUrectDef_s@@H@Z 30073b60 f   cg_newDraw.obj
 0001:00072c00       ?CG_DrawWeapStability@@YAXPAUrectDef_s@@@Z 30073c00 f   cg_newDraw.obj
 0001:00072cc0       ?CG_EventHandling@@YAXHW4qboolean@@@Z 30073cc0 f   cg_newDraw.obj
 0001:00072f90       ?CG_FitTextToWidth2@@YAXPADMMH@Z 30073f90 f   cg_newDraw.obj
 0001:000730a0       ?CG_FitTextToWidth_Ext@@YAXPADMMHPAUfontInfo_t@@@Z 300740a0 f   cg_newDraw.obj
 0001:000731b0       ?CG_FitTextToWidth_SingleLine@@YAXPADMMH@Z 300741b0 f   cg_newDraw.obj
 0001:00073250       ?CG_GetTeamColor@@YAXPAY03M@Z 30074250 f   cg_newDraw.obj
 0001:000732d0       ?CG_GetValue@@YAMHH@Z      300742d0 f   cg_newDraw.obj
 0001:000732e0       ?CG_KeyEvent@@YAXHW4qboolean@@@Z 300742e0 f   cg_newDraw.obj
 0001:00073390       ?CG_MouseEvent@@YAXHH@Z    30074390 f   cg_newDraw.obj
 0001:00073540       ?CG_OtherTeamHasFlag@@YA?AW4qboolean@@XZ 30074540 f   cg_newDraw.obj
 0001:00073550       ?CG_OwnerDraw@@YAXMMMMMMHHHMMQAMHH@Z 30074550 f   cg_newDraw.obj
 0001:00073560       ?CG_OwnerDrawVisible@@YA?AW4qboolean@@H@Z 30074560 f   cg_newDraw.obj
 0001:00073570       ?CG_RunMenuScript@@YAXPAPAD@Z 30074570 f   cg_newDraw.obj
 0001:00073580       ?CG_TrimLeftPixels@@YAHPADMMH@Z 30074580 f   cg_newDraw.obj
 0001:00073680       ?CG_YourTeamHasFlag@@YA?AW4qboolean@@XZ 30074680 f   cg_newDraw.obj
 0001:00073710       ?CG_AddParticleShrapnel@@YAXPAUlocalEntity_s@@@Z 30074710 f   cg_particles.obj
 0001:00073720       ?CG_AddParticleToScene@@YAXPAUparticle_s@@QAMM@Z 30074720 f   cg_particles.obj
 0001:00075600       ?CG_AddParticles@@YAXXZ    30076600 f   cg_particles.obj
 0001:00075a10       ?CG_ClearParticles@@YAXXZ  30076a10 f   cg_particles.obj
 0001:00075b60       ?CG_NewParticleArea@@YAHH@Z 30076b60 f   cg_particles.obj
 0001:00075d70       ?CG_OilSlickRemove@@YAXPAUcentity_s@@@Z 30076d70 f   cg_particles.obj
 0001:00075df0       ?CG_ParticleBloodCloud@@YAXPAUcentity_s@@QAM1@Z 30076df0 f   cg_particles.obj
 0001:00076070       ?CG_ParticleBloodCloudZombie@@YAXPAUcentity_s@@QAM1@Z 30077070 f   cg_particles.obj
 0001:000764a0       ?CG_ParticleBubble@@YAXHQAM0HMH@Z 300774a0 f   cg_particles.obj
 0001:00076810       ?CG_ParticleBulletDebris@@YAXQAM0H@Z 30077810 f   cg_particles.obj
 0001:00076940       ?CG_ParticleDirtBulletDebris@@YAXQAM0H@Z 30077940 f   cg_particles.obj
 0001:00076aa0       ?CG_ParticleDirtBulletDebris_Core@@YAXQAM0HMMMH@Z 30077aa0 f   cg_particles.obj
 0001:00076c00       ?CG_ParticleDust@@YAXPAUcentity_s@@QAM1@Z 30077c00 f   cg_particles.obj
 0001:00077130       ?CG_ParticleExplosion@@YAXPADQBM1HHHW4qboolean@@@Z 30078130 f   cg_particles.obj
 0001:00077300       ?CG_ParticleImpactSmokePuff@@YAXHQAM@Z 30078300 f   cg_particles.obj
 0001:00077340       ?CG_ParticleImpactSmokePuffExtended@@YAXHQAMHHHHMM@Z 30078340 f   cg_particles.obj
 0001:00077540       ?CG_ParticleMisc@@YAXHQAMHHM@Z 30078540 f   cg_particles.obj
 0001:00077640       ?CG_ParticleSmoke@@YAXHPAUcentity_s@@@Z 30078640 f   cg_particles.obj
 0001:00077d10       ?CG_ParticleSnow@@YAXHQAM0HMH@Z 30078d10 f   cg_particles.obj
 0001:00077ff0       ?CG_ParticleSnowFlurry@@YAXHPAUcentity_s@@@Z 30078ff0 f   cg_particles.obj
 0001:000782d0       ?CG_ParticleSparks@@YAXQAM0HMMM@Z 300792d0 f   cg_particles.obj
 0001:00078650       ?CG_Particle_Bleed@@YAXHQAM0HH@Z 30079650 f   cg_particles.obj
 0001:000787e0       ?CG_Particle_OilParticle@@YAXHQAM0HH@Z 300797e0 f   cg_particles.obj
 0001:00078990       ?CG_Particle_OilSlick@@YAXHPAUcentity_s@@@Z 30079990 f   cg_particles.obj
 0001:00078bd0       ?CG_SnowLink@@YAXPAUcentity_s@@W4qboolean@@@Z 30079bd0 f   cg_particles.obj
 0001:00078c30       ?ValidBloodPool@@YA?AW4qboolean@@QAM@Z 30079c30 f   cg_particles.obj
 0001:00079000       ?CG_AddPlayerGlowEffects@@YAXPAUcentity_s@@@Z 3007a000 f   cg_players.obj
 0001:00079140       ?CG_AddRefEntityWithPowerups@@YAXPAUrefEntity_t@@HHPAUentityState_s@@QBM@Z 3007a140 f   cg_players.obj
 0001:00079390       ?CG_AnimPlayerConditions@@YAXPAUbg_character_s@@PAUcentity_s@@@Z 3007a390 f   cg_players.obj
 0001:00079770       ?CG_ClearHudHeadLerpFrame@@YAXPAUbg_character_s@@PAUlerpFrame_t@@H@Z 3007a770 f   cg_players.obj
 0001:00079820       ?CG_ClearLerpFrameRate@@YAXPAUcentity_s@@PAUclientInfo_s@@PAUlerpFrame_t@@H@Z 3007a820 f   cg_players.obj
 0001:00079880       ?CG_CustomSound@@YAHHPBD@Z 3007a880 f   cg_players.obj
 0001:000798b0       ?CG_DrawPlayer_Limbo@@YAXMMMMPAUplayerInfo_t@@HPAUclientInfo_s@@W4qboolean@@@Z 3007a8b0 f   cg_players.obj
 0001:0007a150       ?CG_EntOnFire@@YA?AW4qboolean@@PAUcentity_s@@@Z 3007b150 f   cg_players.obj
 0001:0007a1c0       ?CG_GetBleedOrigin@@YAXQAM0H@Z 3007b1c0 f   cg_players.obj
 0001:0007a3a0       ?CG_GetLimboAnimation@@YAPAUanimation_s@@PAUplayerInfo_t@@PBD@Z 3007b3a0 f   cg_players.obj
 0001:0007a440       ?CG_GetSelectedWeapon@@YAHXZ 3007b440 f   cg_players.obj
 0001:0007a450       ?CG_GetTag@@YA?AW4qboolean@@HPADPAUorientation_t@@@Z 3007b450 f   cg_players.obj
 0001:0007a5d0       ?CG_GetWeaponTag@@YA?AW4qboolean@@HPADPAUorientation_t@@@Z 3007b5d0 f   cg_players.obj
 0001:0007a760       ?CG_HasJayFlag@@YA?AW4qboolean@@PAUcentity_s@@HH@Z 3007b760 f   cg_players.obj
 0001:0007a800       ?CG_HudHeadAnimation@@YAXPAUbg_character_s@@PAUlerpFrame_t@@PAH2PAMW4hudHeadAnimNumber_s@@@Z 3007b800 f   cg_players.obj
 0001:0007a850       ?CG_IsCrouchingAnim@@YA?AW4qboolean@@PAUanimModelInfo_t@@H@Z 3007b850 f   cg_players.obj
 0001:0007a8e0       ?CG_MenuCheckPendingAnimation@@YAXPAUplayerInfo_t@@@Z 3007b8e0 f   cg_players.obj
 0001:0007a9b0       ?CG_MenuPendingAnimation@@YAXPAUplayerInfo_t@@PBD1H@Z 3007b9b0 f   cg_players.obj
 0001:0007aa60       ?CG_MenuSetAnimation@@YAXPAUplayerInfo_t@@PBD1W4qboolean@@2@Z 3007ba60 f   cg_players.obj
 0001:0007ab60       ?CG_NewClientInfo@@YAXH@Z  3007bb60 f   cg_players.obj
 0001:0007b250       ?CG_ParseTeamXPs@@YAXH@Z   3007c250 f   cg_players.obj
 0001:0007b2e0       ?CG_Player@@YAXPAUcentity_s@@@Z 3007c2e0 f   cg_players.obj
 0001:0007c1e0       ?CG_PlayerAngles_Limbo@@YAXPAUplayerInfo_t@@QAY02M11@Z 3007d1e0 f   cg_players.obj
 0001:0007c550       ?CG_PlayerClassForClientinfo@@YAPAUbg_playerclass_t@@PAUclientInfo_s@@PAUcentity_s@@@Z 3007d550 f   cg_players.obj
 0001:0007d060       ?CG_ResetPlayerEntity@@YAXPAUcentity_s@@@Z 3007e060 f   cg_players.obj
 0001:0007d250       ?CG_RunHudHeadLerpFrame@@YAXPAUbg_character_s@@PAUlerpFrame_t@@HM@Z 3007e250 f   cg_players.obj
 0001:0007d3f0       ?CG_RunLerpFrame@@YAXPAUcentity_s@@PAUclientInfo_s@@PAUlerpFrame_t@@HM@Z 3007e3f0 f   cg_players.obj
 0001:0007d5d0       ?CG_RunLerpFrameRate@@YAXPAUclientInfo_s@@PAUlerpFrame_t@@HPAUcentity_s@@H@Z 3007e5d0 f   cg_players.obj
 0001:0007dd60       ?CG_SetHudHeadLerpFrameAnimation@@YAXPAUbg_character_s@@PAUlerpFrame_t@@H@Z 3007ed60 f   cg_players.obj
 0001:0007de70       ?CG_SetLerpFrameAnimationRate@@YAXPAUcentity_s@@PAUclientInfo_s@@PAUlerpFrame_t@@H@Z 3007ee70 f   cg_players.obj
 0001:0007e4e0       ?WM_FindWeaponTypeForWeapon@@YAPAUweaponType_t@@W4weapon_t@@@Z 3007f4e0 f   cg_players.obj
 0001:0007e530       ?WM_RegisterWeaponTypeShaders@@YAXXZ 3007f530 f   cg_players.obj
 0001:0007e540       ?WorldToScreen@@YA?AW4qboolean@@QAM0@Z 3007f540 f   cg_players.obj
 0001:0007e760       ?vtosf@@YAPADQBM@Z         3007f760 f   cg_players.obj
 0001:0007e7e0       ?CG_CheckAmmo@@YAXXZ       3007f7e0 f   cg_playerstate.obj
 0001:0007e8a0       ?CG_CheckChangedPredictableEvents@@YAXPAUplayerState_s@@@Z 3007f8a0 f   cg_playerstate.obj
 0001:0007e950       ?CG_CheckLocalSounds@@YAXPAUplayerState_s@@0@Z 3007f950 f   cg_playerstate.obj
 0001:0007ee30       ?CG_CheckPlayerstateEvents@@YAXPAUplayerState_s@@0@Z 3007fe30 f   cg_playerstate.obj
 0001:0007ef30       ?CG_CheckPlayerstateEvents_wolf@@YAXPAUplayerState_s@@0@Z 3007ff30 f   cg_playerstate.obj
 0001:0007efa0       ?CG_DamageFeedback@@YAXHHH@Z 3007ffa0 f   cg_playerstate.obj
 0001:0007f4e0       ?CG_Respawn@@YAXW4qboolean@@@Z 300804e0 f   cg_playerstate.obj
 0001:0007f680       ?CG_TransitionPlayerState@@YAXPAUplayerState_s@@0@Z 30080680 f   cg_playerstate.obj
 0001:0007f950       ?CG_PB_ClearPolyBuffers@@YAXXZ 30080950 f   cg_polybus.obj
 0001:0007f970       ?CG_PB_FindFreePolyBuffer@@YAPAUpolyBuffer_s@@HHH@Z 30080970 f   cg_polybus.obj
 0001:0007fa60       ?CG_PB_RenderPolyBuffers@@YAXXZ 30080a60 f   cg_polybus.obj
 0001:0007faa0       ?CG_AddPMItem@@YAXW4popupMessageType_e@@PBDHH@Z 30080aa0 f   cg_popupmessages.obj
 0001:0007fc10       ?CG_AddPMItemBig@@YAXW4popupMessageBigType_e@@PBDH@Z 30080c10 f   cg_popupmessages.obj
 0001:0007fcd0       ?CG_AddToListFront@@YAXPAPAUpmStackItem_s@@PAU1@@Z 30080cd0 f   cg_popupmessages.obj
 0001:0007fcf0       ?CG_DrawKeyHint@@YAXPAUrectDef_s@@PBD@Z 30080cf0 f   cg_popupmessages.obj
 0001:0007fd00       ?CG_DrawPMItems@@YAXXZ     30080d00 f   cg_popupmessages.obj
 0001:00080120       ?CG_DrawPMItemsBig@@YAXXZ  30081120 f   cg_popupmessages.obj
 0001:000802c0       ?CG_FindFreePMItem2@@YAPAUpmStackItemBig_s@@XZ 300812c0 f   cg_popupmessages.obj
 0001:00080300       ?CG_FindFreePMItem@@YAPAUpmStackItem_s@@XZ 30081300 f   cg_popupmessages.obj
 0001:000803b0       ?CG_GetPMItemIcon@@YAHPAUcentity_s@@@Z 300813b0 f   cg_popupmessages.obj
 0001:00080410       ?CG_GetPMItemText@@YAPBDPAUcentity_s@@@Z 30081410 f   cg_popupmessages.obj
 0001:00080740       ?CG_InitPM@@YAXXZ          30081740 f   cg_popupmessages.obj
 0001:000807a0       ?CG_InitPMGraphics@@YAXXZ  300817a0 f   cg_popupmessages.obj
 0001:000808a0       ?CG_PMItemBigSound@@YAXPAUpmStackItemBig_s@@@Z 300818a0 f   cg_popupmessages.obj
 0001:00080910       ?CG_PlayPMItemSound@@YAXPAUcentity_s@@@Z 30081910 f   cg_popupmessages.obj
 0001:00080ab0       ?CG_PopupFadeTime@@YAHXZ   30081ab0 f   cg_popupmessages.obj
 0001:00080ad0       ?CG_PopupNumPopups@@YAHXZ  30081ad0 f   cg_popupmessages.obj
 0001:00080af0       ?CG_PopupWaitTime@@YAHXZ   30081af0 f   cg_popupmessages.obj
 0001:00080b10       ?CG_TimeForBigPopup@@YAHW4popupMessageBigType_e@@@Z 30081b10 f   cg_popupmessages.obj
 0001:00080b20       ?CG_TimeForPopup@@YAHW4popupMessageType_e@@@Z 30081b20 f   cg_popupmessages.obj
 0001:00080b40       ?CG_UpdatePMLists@@YAXXZ   30081b40 f   cg_popupmessages.obj
 0001:00080d20       ?CG_BuildSolidList@@YAXXZ  30081d20 f   cg_predict.obj
 0001:000813a0       ?CG_FTTrace@@YAXPAUtrace_t@@QBM111HH@Z 300823a0 f   cg_predict.obj
 0001:00081630       ?CG_PointContents@@YAHQBMH@Z 30082630 f   cg_predict.obj
 0001:000816d0       ?CG_PredictPlayerState@@YAXXZ 300826d0 f   cg_predict.obj
 0001:00082680       ?CG_PredictionOk@@YA?AW4qboolean@@PAUplayerState_s@@0@Z 30083680 f   cg_predict.obj
 0001:00082a10       ?CG_Trace@@YAXPAUtrace_t@@QBM111HH@Z 30083a10 f   cg_predict.obj
 0001:00082ac0       ?CG_TraceCapsule@@YAXPAUtrace_t@@QBM111HH@Z 30083ac0 f   cg_predict.obj
 0001:00082b70       ?CG_TraceCapsule_World@@YAXPAUtrace_t@@QBM111HH@Z 30083b70 f   cg_predict.obj
 0001:00082c00       ?CG_Trace_World@@YAXPAUtrace_t@@QBM111HH@Z 30083c00 f   cg_predict.obj
 0001:000833d0       ?CG_DrawScoreboard@@YA?AW4qboolean@@XZ 300843d0 f   cg_scoreboard.obj
 0001:000843b0       ?WM_DrawObjectives@@YAHHHHM@Z 300853b0 f   cg_scoreboard.obj
 0001:00085800       ?WM_TimeToString@@YAPBDM@Z 30086800 f   cg_scoreboard.obj
 0001:00085880       ??0?$basic_string@DU?$char_traits@D@std@@V?$allocator@D@2@@std@@QAE@QBD@Z 30086880 f i cg_servercmds.obj
 0001:000859a0       ?CG_AddBufferedVoiceChat@@YAXPAUbufferedVoiceChat_s@@@Z 300869a0 f   cg_servercmds.obj
 0001:000859e0       ?CG_AddToNotify@@YAXPBD@Z  300869e0 f   cg_servercmds.obj
 0001:00085bf0       ?CG_AddToTeamChat@@YAXPBDHH@Z 30086bf0 f   cg_servercmds.obj
 0001:00085e90       ?CG_ChargeTimesChanged@@YAXXZ 30086e90 f   cg_servercmds.obj
 0001:00086620       ?CG_ExecuteNewServerCommands@@YAXH@Z 30087620 f   cg_servercmds.obj
 0001:00086670       ?CG_GetVoiceChat@@YAHPAUvoiceChatList_s@@PBDPAH2PAPAD@Z 30087670 f   cg_servercmds.obj
 0001:00086740       ?CG_HeadModelVoiceChats@@YAHPAD@Z 30087740 f   cg_servercmds.obj
 0001:00086870       ?CG_LoadVoiceChats@@YAXXZ  30087870 f   cg_servercmds.obj
 0001:000868f0       ?CG_LocalizeServerCommand@@YAPBDPBD@Z 300878f0 f   cg_servercmds.obj
 0001:00086e50       ?CG_OIDInfoForEntityNum@@YAPAUoidInfo_s@@H@Z 30087e50 f   cg_servercmds.obj
 0001:00087130       ?CG_ParseJaymodinfo@@YAXXZ 30088130 f   cg_servercmds.obj
 0001:00088350       ?CG_ParseOIDInfo@@YAXH@Z   30089350 f   cg_servercmds.obj
 0001:00088590       ?CG_ParseOIDInfos@@YAXXZ   30089590 f   cg_servercmds.obj
 0001:000885b0       ?CG_ParsePortalPos@@YAXXZ  300895b0 f   cg_servercmds.obj
 0001:00088660       ?CG_ParseReinforcementTimes@@YAXPBD@Z 30089660 f   cg_servercmds.obj
 0001:00088a50       ?CG_ParseServerVersionInfo@@YAXPBD@Z 30089a50 f   cg_servercmds.obj
 0001:00088a70       ?CG_ParseServerinfo@@YAXXZ 30089a70 f   cg_servercmds.obj
 0001:00088cc0       ?CG_ParseSkillLevels@@YAXXZ 30089cc0 f   cg_servercmds.obj
 0001:00088d50       ?CG_ParseSpawns@@YAXXZ     30089d50 f   cg_servercmds.obj
 0001:00089160       ?CG_ParseVoiceChats@@YAHPBDPAUvoiceChatList_s@@H@Z 3008a160 f   cg_servercmds.obj
 0001:00089610       ?CG_ParseWeaponStats@@YAXXZ 3008a610 f   cg_servercmds.obj
 0001:00089650       ?CG_ParseWolfinfo@@YAXXZ   3008a650 f   cg_servercmds.obj
 0001:00089710       ?CG_PlayBufferedVoiceChats@@YAXXZ 3008a710 f   cg_servercmds.obj
 0001:00089790       ?CG_PlayVoiceChat@@YAXPAUbufferedVoiceChat_s@@@Z 3008a790 f   cg_servercmds.obj
 0001:0008b1a0       ?CG_SetConfigValues@@YAXXZ 3008c1a0 f   cg_servercmds.obj
 0001:0008b2c0       ?CG_ShaderStateChanged@@YAXXZ 3008c2c0 f   cg_servercmds.obj
 0001:0008b420       ?CG_VoiceChat@@YAXH@Z      3008c420 f   cg_servercmds.obj
 0001:0008b6e0       ?CG_VoiceChatListForClient@@YAPAUvoiceChatList_s@@H@Z 3008c6e0 f   cg_servercmds.obj
 0001:0008b710       ?CG_VoiceChatLocal@@YAXHW4qboolean@@HHHPBDQAM1@Z 3008c710 f   cg_servercmds.obj
 0001:0008b940       ?CG_dumpStats@@YAXXZ       3008c940 f   cg_servercmds.obj
 0001:0008ba80       ?CG_parseBestShotsStats_cmd@@YAXW4qboolean@@P6AXPAD@Z@Z 3008ca80 f   cg_servercmds.obj
 0001:0008bce0       ?CG_parseTopShotsStats_cmd@@YAXW4qboolean@@P6AXPAD@Z@Z 3008cce0 f   cg_servercmds.obj
 0001:0008bf30       ?CG_parseWeaponStatsGS_cmd@@YAXXZ 3008cf30 f   cg_servercmds.obj
 0001:0008c510       ?CG_parseWeaponStats_cmd@@YAXP6AXPAD@Z@Z 3008d510 f   cg_servercmds.obj
 0001:0008cbe0       ?CG_printFile@@YAXPAD@Z    3008dbe0 f   cg_servercmds.obj
 0001:0008cc60       ?CG_scores_cmd@@YAXXZ      3008dc60 f   cg_servercmds.obj
 0001:0008cdb0       ?CG_topshotsParse_cmd@@YAXW4qboolean@@@Z 3008ddb0 f   cg_servercmds.obj
 0001:0008cf70       ?CG_wstatsParse_cmd@@YAXXZ 3008df70 f   cg_servercmds.obj
 0001:0008d010       ?CG_AdjustRate@@YAXXZ      3008e010 f   cg_snapshot.obj
 0001:0008d0c0       ?CG_ProcessSnapshots@@YAXXZ 3008e0c0 f   cg_snapshot.obj
 0001:0008d4d0       ?CG_SetInitialSnapshot@@YAXPAUsnapshot_t@@@Z 3008e4d0 f   cg_snapshot.obj
 0001:0008dd00       ?CG_SpeakerInfo_Text@@YAXPAUpanel_button_s@@@Z 3008ed00 f   cg_sound.obj
 0001:0008e4d0       ?CG_SpeakerEditor_RenderEdit@@YAXPAUpanel_button_s@@@Z 3008f4d0 f   cg_sound.obj
 0001:0008e5e0       ?CG_SpeakerEditor_RenderButton@@YAXPAUpanel_button_s@@@Z 3008f5e0 f   cg_sound.obj
 0001:0008e800       ?CG_SpeakerEditor_RenderDropdown@@YAXPAUpanel_button_s@@@Z 3008f800 f   cg_sound.obj
 0001:0008eee0       ?CG_SpeakerEditor_Back@@YAXPAUpanel_button_s@@@Z 3008fee0 f   cg_sound.obj
 0001:0008f050       ?CG_SpeakerEditor_LocInfo@@YAXPAUpanel_button_s@@@Z 30090050 f   cg_sound.obj
 0001:0008f150       ?CG_SpeakerEditor_NoiseEdit_KeyDown@@YA?AW4qboolean@@PAUpanel_button_s@@H@Z 30090150 f   cg_sound.obj
 0001:0008f460       ?CG_SpeakerEditor_NoiseEditFinish@@YAXPAUpanel_button_s@@@Z 30090460 f   cg_sound.obj
 0001:0008f4b0       ?CG_SpeakerEditor_TargetnameEditFinish@@YAXPAUpanel_button_s@@@Z 300904b0 f   cg_sound.obj
 0001:0008f4e0       ?CG_SpeakerEditor_Dropdown_KeyDown@@YA?AW4qboolean@@PAUpanel_button_s@@H@Z 300904e0 f   cg_sound.obj
 0001:0008f510       ?CG_SpeakerEditor_Looped_KeyUp@@YA?AW4qboolean@@PAUpanel_button_s@@H@Z 30090510 f   cg_sound.obj
 0001:0008f5d0       ?CG_SpeakerEditor_Broadcast_KeyUp@@YA?AW4qboolean@@PAUpanel_button_s@@H@Z 300905d0 f   cg_sound.obj
 0001:0008f680       ?CG_SpeakerEditor_WaitEditFinish@@YAXPAUpanel_button_s@@@Z 30090680 f   cg_sound.obj
 0001:0008f6f0       ?CG_SpeakerEditor_RandomEditFinish@@YAXPAUpanel_button_s@@@Z 300906f0 f   cg_sound.obj
 0001:0008f760       ?CG_SpeakerEditor_VolumeEditFinish@@YAXPAUpanel_button_s@@@Z 30090760 f   cg_sound.obj
 0001:0008f800       ?CG_SpeakerEditor_RangeEditFinish@@YAXPAUpanel_button_s@@@Z 30090800 f   cg_sound.obj
 0001:0008f880       ?CG_SpeakerEditor_Ok_KeyDown@@YA?AW4qboolean@@PAUpanel_button_s@@H@Z 30090880 f   cg_sound.obj
 0001:0008f8b0       ?CG_SpeakerEditor_Ok_KeyUp@@YA?AW4qboolean@@PAUpanel_button_s@@H@Z 300908b0 f   cg_sound.obj
 0001:0008f920       ?CG_SpeakerEditor_Cancel_KeyDown@@YA?AW4qboolean@@PAUpanel_button_s@@H@Z 30090920 f   cg_sound.obj
 0001:0008f950       ?CG_SpeakerEditor_Cancel_KeyUp@@YA?AW4qboolean@@PAUpanel_button_s@@H@Z 30090950 f   cg_sound.obj
 0001:0008f9f0       ?CG_SpeakerEditor_Delete_KeyDown@@YA?AW4qboolean@@PAUpanel_button_s@@H@Z 300909f0 f   cg_sound.obj
 0001:0008fa20       ?CG_SpeakerEditor_Delete_KeyUp@@YA?AW4qboolean@@PAUpanel_button_s@@H@Z 30090a20 f   cg_sound.obj
 0001:0008fac0       ?CG_ActivateEditSoundMode@@YAXXZ 30090ac0 f   cg_sound.obj
 0001:0008fb60       ?CG_AddBufferedSoundScript@@YAXPAUsoundScript_s@@@Z 30090b60 f   cg_sound.obj
 0001:0008fbc0       ?CG_AddLineToScene@@YAXQAM00@Z 30090bc0 f   cg_sound.obj
 0001:0008fca0       ?CG_AddScriptSpeakers@@YAXXZ 30090ca0 f   cg_sound.obj
 0001:0008fe20       ?CG_DeActivateEditSoundMode@@YAXXZ 30090e20 f   cg_sound.obj
 0001:0008fe90       ?CG_GetStrFromStrArray@@YAPADPBDH@Z 30090e90 f   cg_sound.obj
 0001:0008fec0       ?CG_ModifyEditSpeaker@@YAXXZ 30090ec0 f   cg_sound.obj
 0001:00090600       ?CG_SaveSpeakersToScript@@YA?AW4qboolean@@XZ 30091600 f   cg_sound.obj
 0001:000909d0       ?CG_SetActiveOnScriptSpeaker@@YAXH@Z 300919d0 f   cg_sound.obj
 0001:00090a00       ?CG_SetViewanglesForSpeakerEditor@@YAXXZ 30091a00 f   cg_sound.obj
 0001:00090a80       ?CG_SoundInit@@YAXXZ       30091a80 f   cg_sound.obj
 0001:000911f0       ?CG_SoundPickOldestRandomSound@@YAHPAUsoundScript_s@@QAMH@Z 300921f0 f   cg_sound.obj
 0001:000912f0       ?CG_SoundPlayIndexedScript@@YAXHQAMH@Z 300922f0 f   cg_sound.obj
 0001:00091320       ?CG_SoundPlaySoundScript@@YAHPBDQAMHW4qboolean@@@Z 30092320 f   cg_sound.obj
 0001:000913d0       ?CG_SoundScriptPrecache@@YAHPBD@Z 300923d0 f   cg_sound.obj
 0001:00091480       ?CG_SpeakerEditorDraw@@YAXXZ 30092480 f   cg_sound.obj
 0001:00091bb0       ?CG_SpeakerEditorMouseMove_Handling@@YAXHH@Z 30092bb0 f   cg_sound.obj
 0001:00091d20       ?CG_SpeakerEditor_KeyHandling@@YAXHW4qboolean@@@Z 30092d20 f   cg_sound.obj
 0001:000920b0       ?CG_ToggleActiveOnScriptSpeaker@@YAXH@Z 300930b0 f   cg_sound.obj
 0001:000920e0       ?CG_UndoEditSpeaker@@YAXXZ 300930e0 f   cg_sound.obj
 0001:00092230       ?CG_UnsetActiveOnScriptSpeaker@@YAXH@Z 30093230 f   cg_sound.obj
 0001:00092260       ?CG_UpdateBufferedSoundScripts@@YAXXZ 30093260 f   cg_sound.obj
 0001:00092350       ?SP_path_corner_2@@YAXXZ   30093350 f   cg_spawn.obj
 0001:000923f0       ?SP_info_train_spline_main@@YAXXZ 300933f0 f   cg_spawn.obj
 0001:00092560       ?SP_misc_gamemodel@@YAXXZ  30093560 f   cg_spawn.obj
 0001:000928e0       ?SP_trigger_objective_info@@YAXXZ 300938e0 f   cg_spawn.obj
 0001:00092970       ?CG_AddSpawnVarToken@@YAPADPBD@Z 30093970 f   cg_spawn.obj
 0001:00092a00       ?CG_ParseEntitiesFromString@@YAXXZ 30093a00 f   cg_spawn.obj
 0001:00092a80       ?CG_ParseEntityFromSpawnVars@@YAXXZ 30093a80 f   cg_spawn.obj
 0001:00092b30       ?CG_ParseSpawnVars@@YA?AW4qboolean@@XZ 30093b30 f   cg_spawn.obj
 0001:00092cb0       ?CG_SpawnFloat@@YA?AW4qboolean@@PBD0PAM@Z 30093cb0 f   cg_spawn.obj
 0001:00092cf0       ?CG_SpawnInt@@YA?AW4qboolean@@PBD0PAH@Z 30093cf0 f   cg_spawn.obj
 0001:00092d30       ?CG_SpawnString@@YA?AW4qboolean@@PBD0PAPAD@Z 30093d30 f   cg_spawn.obj
 0001:00092de0       ?CG_SpawnVector2D@@YA?AW4qboolean@@PBD0PAM@Z 30093de0 f   cg_spawn.obj
 0001:00092e30       ?CG_SpawnVector@@YA?AW4qboolean@@PBD0PAM@Z 30093e30 f   cg_spawn.obj
 0001:00092e80       ?SP_worldspawn@@YAXXZ      30093e80 f   cg_spawn.obj
 0001:000933f0       ?vtos@@YAPADQBM@Z          300943f0 f   cg_spawn.obj
 0001:00093450       ?CG_LoadRankIcons@@YAXXZ   30094450 f   cg_statsranksmedals.obj
 0001:000934b0       ?testPrintFloat@@YAXPADM@Z 300944b0 f   cg_syscalls.obj
 0001:000934d0       ?testPrintInt@@YAXPADH@Z   300944d0 f   cg_syscalls.obj
 0001:000934f0       ?trap_AddCommand@@YAXPBD@Z 300944f0 f   cg_syscalls.obj
 0001:00093510       ?trap_Argc@@YAHXZ          30094510 f   cg_syscalls.obj
 0001:00093520       ?trap_Args@@YAXPADH@Z      30094520 f   cg_syscalls.obj
 0001:00093540       ?trap_Argv@@YAXHPADH@Z     30094540 f   cg_syscalls.obj
 0001:00093560       ?trap_CIN_DrawCinematic@@YAXH@Z 30094560 f   cg_syscalls.obj
 0001:00093580       ?trap_CIN_PlayCinematic@@YAHPBDHHHHH@Z 30094580 f   cg_syscalls.obj
 0001:000935b0       ?trap_CIN_RunCinematic@@YA?AW4e_status@@H@Z 300945b0 f   cg_syscalls.obj
 0001:000935d0       ?trap_CIN_SetExtents@@YAXHHHHH@Z 300945d0 f   cg_syscalls.obj
 0001:00093600       ?trap_CIN_StopCinematic@@YA?AW4e_status@@H@Z 30094600 f   cg_syscalls.obj
 0001:00093620       ?trap_CM_BoxTrace@@YAXPAUtrace_t@@QBM111HH@Z 30094620 f   cg_syscalls.obj
 0001:00093650       ?trap_CM_CapsuleTrace@@YAXPAUtrace_t@@QBM111HH@Z 30094650 f   cg_syscalls.obj
 0001:00093680       ?trap_CM_InlineModel@@YAHH@Z 30094680 f   cg_syscalls.obj
 0001:000936a0       ?trap_CM_LoadMap@@YAXPBD@Z 300946a0 f   cg_syscalls.obj
 0001:000936c0       ?trap_CM_MarkFragments@@YAHHPAY02$$CBMQBMHQAMHPAUmarkFragment_t@@@Z 300946c0 f   cg_syscalls.obj
 0001:000936f0       ?trap_CM_NumInlineModels@@YAHXZ 300946f0 f   cg_syscalls.obj
 0001:00093700       ?trap_CM_PointContents@@YAHQBMH@Z 30094700 f   cg_syscalls.obj
 0001:00093720       ?trap_CM_TempBoxModel@@YAHQBM0@Z 30094720 f   cg_syscalls.obj
 0001:00093740       ?trap_CM_TempCapsuleModel@@YAHQBM0@Z 30094740 f   cg_syscalls.obj
 0001:00093760       ?trap_CM_TransformedBoxTrace@@YAXPAUtrace_t@@QBM111HH11@Z 30094760 f   cg_syscalls.obj
 0001:000937a0       ?trap_CM_TransformedCapsuleTrace@@YAXPAUtrace_t@@QBM111HH11@Z 300947a0 f   cg_syscalls.obj
 0001:000937e0       ?trap_CM_TransformedPointContents@@YAHQBMH00@Z 300947e0 f   cg_syscalls.obj
 0001:00093810       ?trap_Cvar_LatchedVariableStringBuffer@@YAXPBDPADH@Z 30094810 f   cg_syscalls.obj
 0001:00093830       ?trap_Cvar_Register@@YAXPAUvmCvar_t@@PBD1H@Z 30094830 f   cg_syscalls.obj
 0001:00093860       ?trap_Cvar_Set@@YAXPBD0@Z  30094860 f   cg_syscalls.obj
 0001:00093880       ?trap_Cvar_Update@@YAXPAUvmCvar_t@@@Z 30094880 f   cg_syscalls.obj
 0001:000938a0       ?trap_Cvar_VariableStringBuffer@@YAXPBDPADH@Z 300948a0 f   cg_syscalls.obj
 0001:000938c0       ?trap_Error@@YAXPBD@Z      300948c0 f   cg_syscalls.obj
 0001:000938e0       ?trap_FS_Delete@@YAHPBD@Z  300948e0 f   cg_syscalls.obj
 0001:00093900       ?trap_FS_FCloseFile@@YAXH@Z 30094900 f   cg_syscalls.obj
 0001:00093920       ?trap_FS_FOpenFile@@YAHPBDPAHW4fsMode_t@@@Z 30094920 f   cg_syscalls.obj
 0001:00093940       ?trap_FS_GetFileList@@YAHPBD0PADH@Z 30094940 f   cg_syscalls.obj
 0001:00093970       ?trap_FS_Read@@YAXPAXHH@Z  30094970 f   cg_syscalls.obj
 0001:00093990       ?trap_FS_Write@@YAXPBXHH@Z 30094990 f   cg_syscalls.obj
 0001:000939b0       ?trap_GetCurrentCmdNumber@@YAHXZ 300949b0 f   cg_syscalls.obj
 0001:000939c0       ?trap_GetCurrentSnapshotNumber@@YAXPAH0@Z 300949c0 f   cg_syscalls.obj
 0001:000939e0       ?trap_GetEntityToken@@YA?AW4qboolean@@PADH@Z 300949e0 f   cg_syscalls.obj
 0001:00093a00       ?trap_GetGameState@@YAXPAUgameState_t@@@Z 30094a00 f   cg_syscalls.obj
 0001:00093a20       ?trap_GetGlconfig@@YAXPAUglconfig_t@@@Z 30094a20 f   cg_syscalls.obj
 0001:00093a40       ?trap_GetHunkData@@YAXPAH0@Z 30094a40 f   cg_syscalls.obj
 0001:00093a60       ?trap_GetServerCommand@@YA?AW4qboolean@@H@Z 30094a60 f   cg_syscalls.obj
 0001:00093a80       ?trap_GetSnapshot@@YA?AW4qboolean@@HPAUsnapshot_t@@@Z 30094a80 f   cg_syscalls.obj
 0001:00093aa0       ?trap_GetUserCmd@@YA?AW4qboolean@@HPAUusercmd_s@@@Z 30094aa0 f   cg_syscalls.obj
 0001:00093ac0       ?trap_Key_GetBindingBuf@@YAXHPADH@Z 30094ac0 f   cg_syscalls.obj
 0001:00093af0       ?trap_Key_GetCatcher@@YAHXZ 30094af0 f   cg_syscalls.obj
 0001:00093b00       ?trap_Key_GetKey@@YAHPBD@Z 30094b00 f   cg_syscalls.obj
 0001:00093b20       ?trap_Key_GetOverstrikeMode@@YA?AW4qboolean@@XZ 30094b20 f   cg_syscalls.obj
 0001:00093b30       ?trap_Key_IsDown@@YA?AW4qboolean@@H@Z 30094b30 f   cg_syscalls.obj
 0001:00093b50       ?trap_Key_KeynumToStringBuf@@YAXHPADH@Z 30094b50 f   cg_syscalls.obj
 0001:00093b80       ?trap_Key_KeysForBinding@@YAXPBDPAH1@Z 30094b80 f   cg_syscalls.obj
 0001:00093bb0       ?trap_Key_SetBinding@@YAXHPBD@Z 30094bb0 f   cg_syscalls.obj
 0001:00093bd0       ?trap_Key_SetCatcher@@YAXH@Z 30094bd0 f   cg_syscalls.obj
 0001:00093bf0       ?trap_Key_SetOverstrikeMode@@YAXW4qboolean@@@Z 30094bf0 f   cg_syscalls.obj
 0001:00093c10       ?trap_MemoryRemaining@@YAHXZ 30094c10 f   cg_syscalls.obj
 0001:00093c20       ?trap_Milliseconds@@YAHXZ  30094c20 f   cg_syscalls.obj
 0001:00093c30       ?trap_PC_AddGlobalDefine@@YAHPAD@Z 30094c30 f   cg_syscalls.obj
 0001:00093c50       ?trap_PC_FreeSource@@YAHH@Z 30094c50 f   cg_syscalls.obj
 0001:00093c70       ?trap_PC_LoadSource@@YAHPBD@Z 30094c70 f   cg_syscalls.obj
 0001:00093c90       ?trap_PC_ReadToken@@YAHHPAUpc_token_s@@@Z 30094c90 f   cg_syscalls.obj
 0001:00093cb0       ?trap_PC_SourceFileAndLine@@YAHHPADPAH@Z 30094cb0 f   cg_syscalls.obj
 0001:00093cd0       ?trap_PC_UnReadToken@@YAHH@Z 30094cd0 f   cg_syscalls.obj
 0001:00093cf0       ?trap_Print@@YAXPBD@Z      30094cf0 f   cg_syscalls.obj
 0001:00093d20       ?trap_PumpEventLoop@@YAXXZ 30094d20 f   cg_syscalls.obj
 0001:00093d40       ?trap_R_Add2dPolys@@YAXPAUpolyVert_t@@HH@Z 30094d40 f   cg_syscalls.obj
 0001:00093d70       ?trap_R_AddCoronaToScene@@YAXQBMMMMMHW4qboolean@@@Z 30094d70 f   cg_syscalls.obj
 0001:00093da0       ?trap_R_AddLightToScene@@YAXQBMMMMMMHH@Z 30094da0 f   cg_syscalls.obj
 0001:00093de0       ?trap_R_AddPolyBufferToScene@@YAXPAUpolyBuffer_s@@@Z 30094de0 f   cg_syscalls.obj
 0001:00093e00       ?trap_R_AddPolyToScene@@YAXHHPBUpolyVert_t@@@Z 30094e00 f   cg_syscalls.obj
 0001:00093e20       ?trap_R_AddPolysToScene@@YAXHHPBUpolyVert_t@@H@Z 30094e20 f   cg_syscalls.obj
 0001:00093e50       ?trap_R_AddRefEntityToScene@@YAXPBUrefEntity_t@@@Z 30094e50 f   cg_syscalls.obj
 0001:00093e70       ?trap_R_ClearDecals@@YAXXZ 30094e70 f   cg_syscalls.obj
 0001:00093e80       ?trap_R_ClearScene@@YAXXZ  30094e80 f   cg_syscalls.obj
 0001:00093e90       ?trap_R_DrawRotatedPic@@YAXMMMMMMMMHM@Z 30094e90 f   cg_syscalls.obj
 0001:00093ed0       ?trap_R_DrawStretchPic@@YAXMMMMMMMMH@Z 30094ed0 f   cg_syscalls.obj
 0001:00093f10       ?trap_R_DrawStretchPicGradient@@YAXMMMMMMMMHPBMH@Z 30094f10 f   cg_syscalls.obj
 0001:00093f50       ?trap_R_Finish@@YAXXZ      30094f50 f   cg_syscalls.obj
 0001:00093f60       ?trap_R_GetShaderFromModel@@YAHHHH@Z 30094f60 f   cg_syscalls.obj
 0001:00093f80       ?trap_R_GetSkinModel@@YA?AW4qboolean@@HPBDPAD@Z 30094f80 f   cg_syscalls.obj
 0001:00093fa0       ?trap_R_GetTextureId@@YAHPBD@Z 30094fa0 f   cg_syscalls.obj
 0001:00093fc0       ?trap_R_LerpTag@@YAHPAUorientation_t@@PBUrefEntity_t@@PBDH@Z 30094fc0 f   cg_syscalls.obj
 0001:00093ff0       ?trap_R_LoadDynamicShader@@YA?AW4qboolean@@PBD0@Z 30094ff0 f   cg_syscalls.obj
 0001:00094010       ?trap_R_LoadWorldMap@@YAXPBD@Z 30095010 f   cg_syscalls.obj
 0001:00094030       ?trap_R_ModelBounds@@YAXHQAM0@Z 30095030 f   cg_syscalls.obj
 0001:00094050       ?trap_R_ProjectDecal@@YAXHHPAY02MQAM1HH@Z 30095050 f   cg_syscalls.obj
 0001:00094080       ?trap_R_RegisterFont@@YAXPBDHPAUfontInfo_t@@@Z 30095080 f   cg_syscalls.obj
 0001:000940b0       ?trap_R_RegisterModel@@YAHPBD@Z 300950b0 f   cg_syscalls.obj
 0001:000940d0       ?trap_R_RegisterShader@@YAHPBD@Z 300950d0 f   cg_syscalls.obj
 0001:000940f0       ?trap_R_RegisterShaderNoMip@@YAHPBD@Z 300950f0 f   cg_syscalls.obj
 0001:00094110       ?trap_R_RegisterSkin@@YAHPBD@Z 30095110 f   cg_syscalls.obj
 0001:00094130       ?trap_R_RemapShader@@YAXPBD00@Z 30095130 f   cg_syscalls.obj
 0001:00094150       ?trap_R_RenderScene@@YAXPBUrefdef_t@@@Z 30095150 f   cg_syscalls.obj
 0001:00094170       ?trap_R_RenderToTexture@@YAXHHHHH@Z 30095170 f   cg_syscalls.obj
 0001:000941a0       ?trap_R_RestoreViewParms@@YAXXZ 300951a0 f   cg_syscalls.obj
 0001:000941b0       ?trap_R_SaveViewParms@@YAXXZ 300951b0 f   cg_syscalls.obj
 0001:000941c0       ?trap_R_SetColor@@YAXPBM@Z 300951c0 f   cg_syscalls.obj
 0001:000941e0       ?trap_R_SetFog@@YAXHHHMMMM@Z 300951e0 f   cg_syscalls.obj
 0001:00094210       ?trap_R_SetGlobalFog@@YAXW4qboolean@@HMMMM@Z 30095210 f   cg_syscalls.obj
 0001:00094240       ?trap_R_inPVS@@YA?AW4qboolean@@QBM0@Z 30095240 f   cg_syscalls.obj
 0001:00094260       ?trap_RealTime@@YAHPAUqtime_s@@@Z 30095260 f   cg_syscalls.obj
 0001:00094280       ?trap_S_AddLoopingSound@@YAXQBM0HHH@Z 30095280 f   cg_syscalls.obj
 0001:000942b0       ?trap_S_AddRealLoopingSound@@YAXQBM0HHHH@Z 300952b0 f   cg_syscalls.obj
 0001:000942e0       ?trap_S_ClearLoopingSounds@@YAXXZ 300952e0 f   cg_syscalls.obj
 0001:000942f0       ?trap_S_ClearSounds@@YAXW4qboolean@@@Z 300952f0 f   cg_syscalls.obj
 0001:00094310       ?trap_S_FadeAllSound@@YAXMHW4qboolean@@@Z 30095310 f   cg_syscalls.obj
 0001:00094330       ?trap_S_FadeBackgroundTrack@@YAXMHH@Z 30095330 f   cg_syscalls.obj
 0001:00094350       ?trap_S_GetCurrentSoundTime@@YAHXZ 30095350 f   cg_syscalls.obj
 0001:00094360       ?trap_S_GetSoundLength@@YAHH@Z 30095360 f   cg_syscalls.obj
 0001:00094380       ?trap_S_GetVoiceAmplitude@@YAHH@Z 30095380 f   cg_syscalls.obj
 0001:000943a0       ?trap_S_RegisterSound@@YAHPBDW4qboolean@@@Z 300953a0 f   cg_syscalls.obj
 0001:000943d0       ?trap_S_Respatialize@@YAXHQBMQAY02MH@Z 300953d0 f   cg_syscalls.obj
 0001:00094400       ?trap_S_StartBackgroundTrack@@YAXPBD0H@Z 30095400 f   cg_syscalls.obj
 0001:00094420       ?trap_S_StartLocalSound@@YAXHH@Z 30095420 f   cg_syscalls.obj
 0001:00094440       ?trap_S_StartSound@@YAXQAMHHH@Z 30095440 f   cg_syscalls.obj
 0001:00094470       ?trap_S_StartSoundEx@@YAXQAMHHHH@Z 30095470 f   cg_syscalls.obj
 0001:000944a0       ?trap_S_StartSoundExVControl@@YAXQAMHHHHH@Z 300954a0 f   cg_syscalls.obj
 0001:000944d0       ?trap_S_StartSoundVControl@@YAXQAMHHHH@Z 300954d0 f   cg_syscalls.obj
 0001:00094500       ?trap_S_StartStreamingSound@@YAHPBD0HHH@Z 30095500 f   cg_syscalls.obj
 0001:00094530       ?trap_S_StopBackgroundTrack@@YAXXZ 30095530 f   cg_syscalls.obj
 0001:00094540       ?trap_S_StopStreamingSound@@YAXH@Z 30095540 f   cg_syscalls.obj
 0001:00094560       ?trap_S_UpdateEntityPosition@@YAXHQBM@Z 30095560 f   cg_syscalls.obj
 0001:00094580       ?trap_SendClientCommand@@YAXPBD@Z 30095580 f   cg_syscalls.obj
 0001:000945a0       ?trap_SendConsoleCommand@@YAXPBD@Z 300955a0 f   cg_syscalls.obj
 0001:000945c0       ?trap_SetClientLerpOrigin@@YAXMMM@Z 300955c0 f   cg_syscalls.obj
 0001:000945e0       ?trap_SetUserCmdValue@@YAXHHMH@Z 300955e0 f   cg_syscalls.obj
 0001:00094610       ?trap_SnapVector@@YAXPAM@Z 30095610 f   cg_syscalls.obj
 0001:00094630       ?trap_TranslateString@@YAXPBDPAD@Z 30095630 f   cg_syscalls.obj
 0001:00094650       ?trap_UI_ClosePopup@@YAXPBD@Z 30095650 f   cg_syscalls.obj
 0001:00094670       ?trap_UI_Popup@@YAXH@Z     30095670 f   cg_syscalls.obj
 0001:00094690       ?trap_UpdateScreen@@YAXXZ  30095690 f   cg_syscalls.obj
 0001:000946a0       ?trap_getCameraInfo@@YA?AW4qboolean@@HHPAY02M0PAM@Z 300956a0 f   cg_syscalls.obj
 0001:000946d0       ?trap_loadCamera@@YA?AW4qboolean@@HPBD@Z 300956d0 f   cg_syscalls.obj
 0001:000946f0       ?trap_startCamera@@YAXHH@Z 300956f0 f   cg_syscalls.obj
 0001:00094710       ?trap_stopCamera@@YAXH@Z   30095710 f   cg_syscalls.obj
 0001:00094730       _dllEntry                  30095730 f   cg_syscalls.obj
 0001:00094740       ??$?6U?$char_traits@D@std@@@std@@YAAAV?$basic_ostream@DU?$char_traits@D@std@@@0@AAV10@PBD@Z 30095740 f i cg_text.obj
 0001:00094ab0       ??0bad_cast@std@@QAE@XZ    30095ab0 f i cg_text.obj
 0001:00094ad0       ?CG_ConfigureDevice@@YAXAAVETDevice@text@@@Z 30095ad0 f   cg_text.obj
 0001:00094b30       ?CG_TextPrint@@YAXW4TPrint@@_N@Z 30095b30 f   cg_text.obj
 0001:00094f60       ?_Getcat@?$ctype@D@std@@SAIPAPBVfacet@locale@2@PBV42@@Z 30095f60 f i cg_text.obj
 0001:000951a0       ?_Throw_bad_cast@std@@YAXXZ 300961a0 f i cg_text.obj
 0001:000951d0       ?CG_AddSmokeJunc@@YAHHPAXHQAMHMMM@Z 300961d0 f   cg_trails.obj
 0001:00095380       ?CG_AddSparkJunc@@YAHHPAXHQAMHMMMM@Z 30096380 f   cg_trails.obj
 0001:00095530       ?CG_AddTrailJunc@@YAHHPAXHHHQAMHMMMMH11MM@Z 30096530 f   cg_trails.obj
 0001:00095740       ?CG_AddTrailToScene@@YAXPAUtrailJunc_s@@HH@Z 30096740 f   cg_trails.obj
 0001:00096c10       ?CG_AddTrails@@YAXXZ       30097c10 f   cg_trails.obj
 0001:00096e90       ?CG_ClearTrails@@YAXXZ     30097e90 f   cg_trails.obj
 0001:00096f50       ?CG_FreeTrailJunc@@YAXPAUtrailJunc_s@@@Z 30097f50 f   cg_trails.obj
 0001:00097030       ?CG_KillTrail@@YAXPAUtrailJunc_s@@@Z 30098030 f   cg_trails.obj
 0001:00097090       ?CG_SpawnTrailJunc@@YAPAUtrailJunc_s@@PAU1@@Z 30098090 f   cg_trails.obj
 0001:00097380       ?CG_AdjustZoomVal@@YAXMH@Z 30098380 f   cg_view.obj
 0001:000978a0       ?CG_CalcViewValues@@YAHXZ  300988a0 f   cg_view.obj
 0001:00098640       ?CG_Concussive@@YAXPAUcentity_s@@@Z 30099640 f   cg_view.obj
 0001:000987a0       ?CG_CullPoint@@YA?AW4qboolean@@QAM@Z 300997a0 f   cg_view.obj
 0001:00098820       ?CG_CullPointAndRadius@@YA?AW4qboolean@@QBMM@Z 30099820 f   cg_view.obj
 0001:00098c20       ?CG_DrawActiveFrame@@YAXHW4stereoFrame_t@@W4qboolean@@@Z 30099c20 f   cg_view.obj
 0001:000990d0       ?CG_DrawSkyBoxPortal@@YAXW4qboolean@@@Z 3009a0d0 f   cg_view.obj
 0001:00099380       ?CG_KickAngles@@YAXXZ      3009a380 f   cg_view.obj
 0001:00099750       ?CG_Letterbox@@YAXMMW4qboolean@@@Z 3009a750 f   cg_view.obj
 0001:00099850       ?CG_MustParse@@YAPADPAPADPBD@Z 3009a850 f   cg_view.obj
 0001:0009a0f0       ?CG_OffsetThirdPersonView@@YAXXZ 3009b0f0 f   cg_view.obj
 0001:0009a620       ?CG_ParseSkyBox@@YAXXZ     3009b620 f   cg_view.obj
 0001:0009a830       ?CG_ParseTagConnect@@YAXH@Z 3009b830 f   cg_view.obj
 0001:0009a910       ?CG_ParseTagConnects@@YAXXZ 3009b910 f   cg_view.obj
 0001:0009a930       ?CG_SetupFrustum@@YAXXZ    3009b930 f   cg_view.obj
 0001:0009ad70       ?CG_TestGun_f@@YAXXZ       3009bd70 f   cg_view.obj
 0001:0009ad90       ?CG_TestModelNextFrame_f@@YAXXZ 3009bd90 f   cg_view.obj
 0001:0009adb0       ?CG_TestModelNextSkin_f@@YAXXZ 3009bdb0 f   cg_view.obj
 0001:0009add0       ?CG_TestModelPrevFrame_f@@YAXXZ 3009bdd0 f   cg_view.obj
 0001:0009ae10       ?CG_TestModelPrevSkin_f@@YAXXZ 3009be10 f   cg_view.obj
 0001:0009ae50       ?CG_TestModel_f@@YAXXZ     3009be50 f   cg_view.obj
 0001:0009b010       ?CG_Zoom@@YAXXZ            3009c010 f   cg_view.obj
 0001:0009b180       ?CG_ZoomIn_f@@YAXXZ        3009c180 f   cg_view.obj
 0001:0009b1e0       ?CG_ZoomOut_f@@YAXXZ       3009c1e0 f   cg_view.obj
 0001:0009b3e0       ?CG_AddBulletParticles@@YAXQAM0HHHM@Z 3009c3e0 f   cg_weapons.obj
 0001:0009b690       ?CG_AddDebris@@YAXQAM0HHH@Z 3009c690 f   cg_weapons.obj
 0001:0009bb30       ?CG_AddDirtBulletParticles@@YAXQAM0HHHMMMMH@Z 3009cb30 f   cg_weapons.obj
 0001:0009bd60       ?CG_AddPlayerWeapon@@YAXPAUrefEntity_t@@PAUplayerState_s@@PAUcentity_s@@@Z 3009cd60 f   cg_weapons.obj
 0001:0009d770       ?CG_AddSparks@@YAXQAM0HHHM@Z 3009e770 f   cg_weapons.obj
 0001:0009db00       ?CG_AddViewWeapon@@YAXPAUplayerState_s@@@Z 3009eb00 f   cg_weapons.obj
 0001:0009e4d0       ?CG_AltWeapon_f@@YAXXZ     3009f4d0 f   cg_weapons.obj
 0001:0009e760       ?CG_Bullet@@YAXQAMH0W4qboolean@@HHMH@Z 3009f760 f   cg_weapons.obj
 0001:0009f960       ?CG_CalcMuzzlePoint@@YA?AW4qboolean@@HQAM@Z 300a0960 f   cg_weapons.obj
 0001:000a07f0       ?CG_ClearWeapLerpFrame@@YAXPAUweaponInfo_s@@PAUlerpFrame_t@@H@Z 300a17f0 f   cg_weapons.obj
 0001:000a0880       ?CG_DrawTracer@@YAXQAM0@Z  300a1880 f   cg_weapons.obj
 0001:000a0c00       ?CG_FinishWeaponChange@@YAXHH@Z 300a1c00 f   cg_weapons.obj
 0001:000a0f30       ?CG_FireWeapon@@YAXPAUcentity_s@@@Z 300a1f30 f   cg_weapons.obj
 0001:000a1450       ?CG_GetPartFramesFromWeap@@YA?AW4qboolean@@PAUcentity_s@@PAUrefEntity_t@@1HPAUweaponInfo_s@@@Z 300a2450 f   cg_weapons.obj
 0001:000a1550       ?CG_GetWindVector@@YAXQAM@Z 300a2550 f   cg_weapons.obj
 0001:000a1790       ?CG_LastWeaponUsed_f@@YAXXZ 300a2790 f   cg_weapons.obj
 0001:000a1830       ?CG_M97Fire@@YAXPAUentityState_s@@@Z 300a2830 f   cg_weapons.obj
 0001:000a1b50       ?CG_MG42EFX@@YAXPAUcentity_s@@@Z 300a2b50 f   cg_weapons.obj
 0001:000a1d30       ?CG_MachineGunEjectBrass@@YAXPAUcentity_s@@@Z 300a2d30 f   cg_weapons.obj
 0001:000a24c0       ?CG_MachineGunEjectBrassNew@@YAXPAUcentity_s@@@Z 300a34c0 f   cg_weapons.obj
 0001:000a2940       ?CG_MissileHitPlayer@@YAXPAUcentity_s@@HQAM1H@Z 300a3940 f   cg_weapons.obj
 0001:000a29b0       ?CG_MissileHitWall@@YAXHHQAM0H@Z 300a39b0 f   cg_weapons.obj
 0001:000a4720       ?CG_MissileHitWallSmall@@YAXHHQAM0@Z 300a5720 f   cg_weapons.obj
 0001:000a4890       ?CG_MortarEFX@@YAXPAUcentity_s@@@Z 300a5890 f   cg_weapons.obj
 0001:000a49f0       ?CG_NextWeap@@YAXW4qboolean@@@Z 300a59f0 f   cg_weapons.obj
 0001:000a4dd0       ?CG_NextWeaponInBank_f@@YAXXZ 300a5dd0 f   cg_weapons.obj
 0001:000a4e50       ?CG_NextWeapon_f@@YAXXZ    300a5e50 f   cg_weapons.obj
 0001:000a4f10       ?CG_OutOfAmmoChange@@YAXW4qboolean@@@Z 300a5f10 f   cg_weapons.obj
 0001:000a59b0       ?CG_PlaySwitchSound@@YAXHH@Z 300a69b0 f   cg_weapons.obj
 0001:000a5a80       ?CG_PrevWeap@@YAXW4qboolean@@@Z 300a6a80 f   cg_weapons.obj
 0001:000a5e50       ?CG_PrevWeaponInBank_f@@YAXXZ 300a6e50 f   cg_weapons.obj
 0001:000a5ed0       ?CG_PrevWeapon_f@@YAXXZ    300a6ed0 f   cg_weapons.obj
 0001:000a5f90       ?CG_PyroSmokeTrail@@YAXPAUcentity_s@@PBUweaponInfo_s@@@Z 300a6f90 f   cg_weapons.obj
 0001:000a7d00       ?CG_RailTrail2@@YAXPAUclientInfo_s@@QAM1@Z 300a8d00 f   cg_weapons.obj
 0001:000a7e20       ?CG_RailTrail3@@YAXPAUclientInfo_s@@QAM1H@Z 300a8e20 f   cg_weapons.obj
 0001:000a7f80       ?CG_RailTrail@@YAXPAUclientInfo_s@@QAM1H@Z 300a8f80 f   cg_weapons.obj
 0001:000a81a0       ?CG_RegisterItemVisuals@@YAXH@Z 300a91a0 f   cg_weapons.obj
 0001:000a8270       ?CG_RegisterWeapon@@YAXHW4qboolean@@@Z 300a9270 f   cg_weapons.obj
 0001:000a8800       ?CG_RocketTrail@@YAXPAUcentity_s@@PBUweaponInfo_s@@@Z 300a9800 f   cg_weapons.obj
 0001:000a8f10       ?CG_SetSniperZoom@@YAXHH@Z 300a9f10 f   cg_weapons.obj
 0001:000a9060       ?CG_SpawnTracer@@YAXHQAM0@Z 300aa060 f   cg_weapons.obj
 0001:000a93d0       ?CG_Tracer@@YAXQAM0H@Z     300aa3d0 f   cg_weapons.obj
 0001:000a9550       ?CG_WaterRipple@@YAXHQAM0HH@Z 300aa550 f   cg_weapons.obj
 0001:000a9720       ?CG_WeaponBank_f@@YAXXZ    300aa720 f   cg_weapons.obj
 0001:000a9940       ?CG_WeaponFireRecoil@@YAXH@Z 300aa940 f   cg_weapons.obj
 0001:000a9b70       ?CG_WeaponIndex@@YAHHPAH0@Z 300aab70 f   cg_weapons.obj
 0001:000a9d10       ?CG_WeaponSelectable@@YA?AW4qboolean@@H@Z 300aad10 f   cg_weapons.obj
 0001:000a9d70       ?CG_Weapon_f@@YAXXZ        300aad70 f   cg_weapons.obj
 0001:000a9dd0       ?SnapVectorTowards@@YAXQAM0@Z 300aadd0 f   cg_weapons.obj
 0001:000a9e60       ?getEquivWeapon@@YAHH@Z    300aae60 f   cg_weapons.obj
 0001:000aa1c0       ?CG_addString@@YA?AW4qboolean@@PAUcg_window_t@@PAD@Z 300ab1c0 f   cg_window.obj
 0001:000aa2d0       ?CG_createMOTDWindow@@YAXXZ 300ab2d0 f   cg_window.obj
 0001:000aa3c0       ?CG_createStatsWindow@@YAXXZ 300ab3c0 f   cg_window.obj
 0001:000aa480       ?CG_createTopShotsWindow@@YAXXZ 300ab480 f   cg_window.obj
 0001:000aa570       ?CG_cursorUpdate@@YAXXZ    300ab570 f   cg_window.obj
 0001:000aad50       ?CG_demoAviFPSDraw@@YAXXZ  300abd50 f   cg_window.obj
 0001:000aade0       ?CG_demoTimescaleDraw@@YAXXZ 300abde0 f   cg_window.obj
 0001:000aaf10       ?CG_initStrings@@YAXXZ     300abf10 f   cg_window.obj
 0001:000aaf40       ?CG_printWindow@@YAXPAD@Z  300abf40 f   cg_window.obj
 0001:000ab010       ?CG_removeStrings@@YAXPAUcg_window_t@@@Z 300ac010 f   cg_window.obj
 0001:000ab090       ?CG_windowAlloc@@YAPAUcg_window_t@@HH@Z 300ac090 f   cg_window.obj
 0001:000ab100       ?CG_windowCleanup@@YAXXZ   300ac100 f   cg_window.obj
 0001:000ab160       ?CG_windowDraw@@YAXXZ      300ac160 f   cg_window.obj
 0001:000ab780       ?CG_windowFree@@YAXPAUcg_window_t@@@Z 300ac780 f   cg_window.obj
 0001:000ab870       ?CG_windowInit@@YAXXZ      300ac870 f   cg_window.obj
 0001:000ab930       ?CG_windowNormalizeOnText@@YAXPAUcg_window_t@@@Z 300ac930 f   cg_window.obj
 0001:000abb50       ?CG_windowReset@@YAXPAUcg_window_t@@HH@Z 300acb50 f   cg_window.obj
 0001:000abc40       ?render@CHitVolume@@SAXAAUcentity_s@@_N@Z 300acc40 f   CHitVolume.obj
 0001:000abf80       ??$_Construct_in_place_by_deref@PAV?$basic_string@DU?$char_traits@D@std@@V?$allocator@D@2@@std@@PAPAV12@@std@@YAXAAPAV?$basic_string@DU?$char_traits@D@std@@V?$allocator@D@2@@0@AAPAPAV10@@Z 300acf80 f i Console.obj
 0001:000abfa0       ??$_Copy_memmove@PAPAV?$basic_string@DU?$char_traits@D@std@@V?$allocator@D@2@@std@@PAPAV12@@std@@YAPAPAV?$basic_string@DU?$char_traits@D@std@@V?$allocator@D@2@@0@PAPAV10@00@Z 300acfa0 f i Console.obj
 0001:000abfd0       ??$_Copy_memmove_tail@PAPAV?$basic_string@DU?$char_traits@D@std@@V?$allocator@D@2@@std@@@std@@YAPAPAV?$basic_string@DU?$char_traits@D@std@@V?$allocator@D@2@@0@QBDQAPAV10@II@Z 300acfd0 f i Console.obj
 0001:000ac000       ??$_Emplace_back_internal@ABV?$basic_string@DU?$char_traits@D@std@@V?$allocator@D@2@@std@@@?$deque@V?$basic_string@DU?$char_traits@D@std@@V?$allocator@D@2@@std@@V?$allocator@V?$basic_string@DU?$char_traits@D@std@@V?$allocator@D@2@@std@@@2@@std@@AAEXABV?$basic_string@DU?$char_traits@D@std@@V?$allocator@D@2@@1@@Z 300ad000 f i Console.obj
 0001:000ac180       ??$_Uninitialized_copy_unchecked@PAPAV?$basic_string@DU?$char_traits@D@std@@V?$allocator@D@2@@std@@PAPAV12@@std@@YAPAPAV?$basic_string@DU?$char_traits@D@std@@V?$allocator@D@2@@0@PAPAV10@QAPAV10@0@Z 300ad180 f i Console.obj
 0001:000ac190       ??$_Uninitialized_value_construct_n_unchecked1@PAPAV?$basic_string@DU?$char_traits@D@std@@V?$allocator@D@2@@std@@I@std@@YAPAPAV?$basic_string@DU?$char_traits@D@std@@V?$allocator@D@2@@0@PAPAV10@I@Z 300ad190 f i Console.obj
 0001:000ac1b0       ??$_Zero_range@PAPAV?$basic_string@DU?$char_traits@D@std@@V?$allocator@D@2@@std@@@std@@YAPAPAV?$basic_string@DU?$char_traits@D@std@@V?$allocator@D@2@@0@QAPAV10@0@Z 300ad1b0 f i Console.obj
 0001:000ac1e0       ??$uninitialized_copy@PAPAV?$basic_string@DU?$char_traits@D@std@@V?$allocator@D@2@@std@@PAPAV12@@std@@YAPAPAV?$basic_string@DU?$char_traits@D@std@@V?$allocator@D@2@@0@QAPAV10@0PAPAV10@@Z 300ad1e0 f i Console.obj
 0001:000ac1f0       ??0Console@@QAE@XZ         300ad1f0 f   Console.obj
 0001:000ac390       ??1?$deque@V?$basic_string@DU?$char_traits@D@std@@V?$allocator@D@2@@std@@V?$allocator@V?$basic_string@DU?$char_traits@D@std@@V?$allocator@D@2@@std@@@2@@std@@QAE@XZ 300ad390 f i Console.obj
 0001:000ac3c0       ??1Console@@QAE@XZ         300ad3c0 f   Console.obj
 0001:000ac400       ?_Growmap@?$deque@V?$basic_string@DU?$char_traits@D@std@@V?$allocator@D@2@@std@@V?$allocator@V?$basic_string@DU?$char_traits@D@std@@V?$allocator@D@2@@std@@@2@@std@@AAEXI@Z 300ad400 f i Console.obj
 0001:000ac5c0       ?_Tidy@?$deque@V?$basic_string@DU?$char_traits@D@std@@V?$allocator@D@2@@std@@V?$allocator@V?$basic_string@DU?$char_traits@D@std@@V?$allocator@D@2@@std@@@2@@std@@AAEXXZ 300ad5c0 f i Console.obj
 0001:000ac710       ?_Xlen@?$deque@V?$basic_string@DU?$char_traits@D@std@@V?$allocator@D@2@@std@@V?$allocator@V?$basic_string@DU?$char_traits@D@std@@V?$allocator@D@2@@std@@@2@@std@@CAXXZ 300ad710 f i Console.obj
 0001:000ac720       ?draw@Console@@QAEXXZ      300ad720 f   Console.obj
 0001:000ac8c0       ?init@Console@@QAEXXZ      300ad8c0 f   Console.obj
 0001:000ac8e0       ?print@Console@@QAEXPBD@Z  300ad8e0 f   Console.obj
 0001:000acaa0       ??0Font@@QAE@ABV?$basic_string@DU?$char_traits@D@std@@V?$allocator@D@2@@std@@HHHHH@Z 300adaa0 f   Font.obj
 0001:000acd30       ??1Font@@QAE@XZ            300add30 f   Font.obj
 0001:000acdb0       ?drawChar@Font@@IAEXHHH@Z  300addb0 f   Font.obj
 0001:000ace30       ?drawLine@Font@@QAEHHHABV?$basic_string@DU?$char_traits@D@std@@V?$allocator@D@2@@std@@AAY03M@Z 300ade30 f   Font.obj
 0001:000acf60       ?registerShader@Font@@QAEXXZ 300adf60 f   Font.obj
 0001:000acf90       ??0Location@@QAE@MMMABV?$basic_string@DU?$char_traits@D@std@@V?$allocator@D@2@@std@@@Z 300adf90 f   Location.obj
 0001:000ad0c0       ??1Location@@QAE@XZ        300ae0c0 f   Location.obj
 0001:000ad130       ??0LocationDB@@QAE@XZ      300ae130 f   LocationDB.obj
 0001:000ad1d0       ??1?$_Alloc_construct_ptr@V?$allocator@U?$_List_node@PAVLocation@@PAX@std@@@std@@@std@@QAE@XZ 300ae1d0 f i LocationDB.obj
 0001:000ad1f0       ??1LocationDB@@QAE@XZ      300ae1f0 f   LocationDB.obj
 0001:000ad2a0       ??4?$basic_string@DU?$char_traits@D@std@@V?$allocator@D@2@@std@@QAEAAV01@ABV01@@Z 300ae2a0 f i LocationDB.obj
 0001:000ad2e0       ?clean@LocationDB@@QAEXXZ  300ae2e0 f   LocationDB.obj
 0001:000ad370       ?get@?$basic_istream@DU?$char_traits@D@std@@@std@@QAEHXZ 300ae370 f i LocationDB.obj
 0001:000ad590       ?getLocation@LocationDB@@QAE_NQAMAAV?$basic_string@DU?$char_traits@D@std@@V?$allocator@D@2@@std@@@Z 300ae590 f   LocationDB.obj
 0001:000ad6f0       ?isLoaded@LocationDB@@QAE_NXZ 300ae6f0 f   LocationDB.obj
 0001:000ad700       ?load@LocationDB@@QAE_NXZ  300ae700 f   LocationDB.obj
 0001:000ad920       ?open@LocationDB@@AAE_NAAV?$basic_stringstream@DU?$char_traits@D@std@@V?$allocator@D@2@@std@@@Z 300ae920 f   LocationDB.obj
 0001:000adbd0       ?readInt@LocationDB@@AAEHAAV?$basic_stringstream@DU?$char_traits@D@std@@V?$allocator@D@2@@std@@AAV?$basic_string@DU?$char_traits@D@std@@V?$allocator@D@2@@3@@Z 300aebd0 f   LocationDB.obj
 0001:000adce0       ?readLocation@LocationDB@@AAEHAAV?$basic_stringstream@DU?$char_traits@D@std@@V?$allocator@D@2@@std@@@Z 300aece0 f   LocationDB.obj
 0001:000ae1f0       ?readString@LocationDB@@AAEHAAV?$basic_stringstream@DU?$char_traits@D@std@@V?$allocator@D@2@@std@@AAV?$basic_string@DU?$char_traits@D@std@@V?$allocator@D@2@@3@@Z 300af1f0 f   LocationDB.obj
 0001:000ae2d0       ?strip@LocationDB@@AAEHAAV?$basic_stringstream@DU?$char_traits@D@std@@V?$allocator@D@2@@std@@@Z 300af2d0 f   LocationDB.obj
 0001:000ae430       ?unget@?$basic_istream@DU?$char_traits@D@std@@@std@@QAEAAV12@XZ 300af430 f i LocationDB.obj
 0001:000ae6a0       ??$setfill@D@std@@YA?AU?$_Fillobj@D@0@D@Z 300af6a0 f i cg_hardware.obj
 0001:000ae6b0       ?GetMACAddress@@YA_NAAV?$basic_string@DU?$char_traits@D@std@@V?$allocator@D@2@@std@@@Z 300af6b0 f   cg_hardware.obj
 0001:000aecb0       ?_Tidy_deallocate@?$basic_string@DU?$char_traits@D@std@@V?$allocator@D@2@@std@@AAEXXZ 300afcb0 f i cg_hardware.obj
 0001:000aed10       ?nouppercase@std@@YAAAVios_base@1@AAV21@@Z 300afd10 f i cg_hardware.obj
 0001:000aed20       ?BG_AnimParseAnimScript@@YAXPAUanimModelInfo_t@@PAUanimScriptData_t@@PBDPAD@Z 300afd20 f   bg_animation.obj
 0001:000af5f0       ?BG_AnimParseError@@YAXPBDZZ 300b05f0 f   bg_animation.obj
 0001:000af680       ?BG_AnimScriptAnimation@@YAHPAUplayerState_s@@PAUanimModelInfo_t@@W4scriptAnimMoveTypes_t@@W4qboolean@@@Z 300b0680 f   bg_animation.obj
 0001:000af780       ?BG_AnimScriptCannedAnimation@@YAHPAUplayerState_s@@PAUanimModelInfo_t@@@Z 300b0780 f   bg_animation.obj
 0001:000af840       ?BG_AnimScriptEvent@@YAHPAUplayerState_s@@PAUanimModelInfo_t@@W4scriptAnimEventTypes_t@@W4qboolean@@3@Z 300b0840 f   bg_animation.obj
 0001:000af8f0       ?BG_AnimUpdatePlayerStateConditions@@YAXPAUpmove_t@@@Z 300b08f0 f   bg_animation.obj
 0001:000afa70       ?BG_AnimationForString@@YAPAUanimation_s@@PADPAUanimModelInfo_t@@@Z 300b0a70 f   bg_animation.obj
 0001:000afb90       ?BG_ClearAnimTimer@@YAXPAUplayerState_s@@W4animBodyPart_t@@@Z 300b0b90 f   bg_animation.obj
 0001:000afbd0       ?BG_ClearConditionBitFlag@@YAXHHH@Z 300b0bd0 f   bg_animation.obj
 0001:000afc00       ?BG_CopyStringIntoBuffer@@YAPADPAD0IPAI@Z 300b0c00 f   bg_animation.obj
 0001:000afc80       ?BG_EvaluateConditions@@YA?AW4qboolean@@HPAUanimScriptItem_t@@@Z 300b0c80 f   bg_animation.obj
 0001:000afd20       ?BG_ExecuteCommand@@YAHPAUplayerState_s@@PAUanimModelInfo_t@@PAUanimScriptCommand_t@@W4qboolean@@33@Z 300b0d20 f   bg_animation.obj
 0001:000afe70       ?BG_FirstValidItem@@YAPAUanimScriptItem_t@@HPAUanimScript_t@@@Z 300b0e70 f   bg_animation.obj
 0001:000afec0       ?BG_GetAnimScriptAnimation@@YAHHPAUanimModelInfo_t@@W4aistateEnum_t@@W4scriptAnimMoveTypes_t@@@Z 300b0ec0 f   bg_animation.obj
 0001:000aff60       ?BG_GetAnimScriptEvent@@YAHPAUplayerState_s@@W4scriptAnimEventTypes_t@@@Z 300b0f60 f   bg_animation.obj
 0001:000b0000       ?BG_GetAnimString@@YAPADPAUanimModelInfo_t@@H@Z 300b1000 f   bg_animation.obj
 0001:000b0040       ?BG_GetAnimationForIndex@@YAPAUanimation_s@@PAUanimModelInfo_t@@H@Z 300b1040 f   bg_animation.obj
 0001:000b0080       ?BG_GetConditionBitFlag@@YA?AW4qboolean@@HHH@Z 300b1080 f   bg_animation.obj
 0001:000b00e0       ?BG_GetConditionValue@@YAHHHW4qboolean@@@Z 300b10e0 f   bg_animation.obj
 0001:000b0170       ?BG_IndexForString@@YAHPADPAUanimStringItem_t@@W4qboolean@@@Z 300b1170 f   bg_animation.obj
 0001:000b0210       ?BG_InitWeaponStrings@@YAXXZ 300b1210 f   bg_animation.obj
 0001:000b0670       ?BG_ParseConditionBits@@YAXPAPADPAUanimStringItem_t@@HQAH@Z 300b1670 f   bg_animation.obj
 0001:000b09c0       ?BG_ParseConditions@@YA?AW4qboolean@@PAPADPAUanimScriptItem_t@@@Z 300b19c0 f   bg_animation.obj
 0001:000b0b70       ?BG_PlayAnim@@YAHPAUplayerState_s@@PAUanimModelInfo_t@@HW4animBodyPart_t@@HW4qboolean@@33@Z 300b1b70 f   bg_animation.obj
 0001:000b0cb0       ?BG_PlayAnimName@@YAHPAUplayerState_s@@PAUanimModelInfo_t@@PADW4animBodyPart_t@@W4qboolean@@44@Z 300b1cb0 f   bg_animation.obj
 0001:000b0cf0       ?BG_SetConditionBitFlag@@YAXHHH@Z 300b1cf0 f   bg_animation.obj
 0001:000b0d20       ?BG_StringHashValue@@YAJPBD@Z 300b1d20 f   bg_animation.obj
 0001:000b0da0       ?BG_StringHashValue_Lwr@@YAJPBD@Z 300b1da0 f   bg_animation.obj
 0001:000b0df0       ?BG_UpdateConditionValue@@YAXHHHW4qboolean@@@Z 300b1df0 f   bg_animation.obj
 0001:000b0e70       ?BG_ClearAnimationPool@@YAXXZ 300b1e70 f   bg_animgroup.obj
 0001:000b13c0       ?BG_R_RegisterAnimationGroup@@YA?AW4qboolean@@PBDPAUanimModelInfo_t@@@Z 300b23c0 f   bg_animgroup.obj
 0001:000b15b0       ?BG_LoadCampaignSave@@YA?AW4qboolean@@PBDPAUcpsFile_t@@0@Z 300b25b0 f   bg_campaign.obj
 0001:000b17b0       ?BG_StoreCampaignSave@@YA?AW4qboolean@@PBDPAUcpsFile_t@@0@Z 300b27b0 f   bg_campaign.obj
 0001:000b1960       ?BG_ClearCharacterPool@@YAXXZ 300b2960 f   bg_character.obj
 0001:000b1990       ?BG_FindCharacter@@YAPAUbg_character_s@@PBD@Z 300b2990 f   bg_character.obj
 0001:000b19f0       ?BG_FindFreeCharacter@@YAPAUbg_character_s@@PBD@Z 300b29f0 f   bg_character.obj
 0001:000b1aa0       ?BG_GetCharacter@@YAPAUbg_character_s@@HH@Z 300b2aa0 f   bg_character.obj
 0001:000b1ae0       ?BG_GetCharacterForPlayerstate@@YAPAUbg_character_s@@PAUplayerState_s@@@Z 300b2ae0 f   bg_character.obj
 0001:000b1bc0       ?BG_ParseCharacterFile@@YA?AW4qboolean@@PBDPAUbg_characterDef_s@@@Z 300b2bc0 f   bg_character.obj
 0001:000b2060       ?BG_ClassHasWeapon@@YA?AW4qboolean@@PAUbg_playerclass_t@@W4weapon_t@@@Z 300b3060 f   bg_classes.obj
 0001:000b2090       ?BG_ClassLetterForNumber@@YAPBDH@Z 300b3090 f   bg_classes.obj
 0001:000b2100       ?BG_ClassSkillForClass@@YA?AW4skillType_t@@H@Z 300b3100 f   bg_classes.obj
 0001:000b2140       ?BG_ClassTextToClass@@YAHPAD@Z 300b3140 f   bg_classes.obj
 0001:000b2200       ?BG_ClassnameForNumber@@YAPBDH@Z 300b3200 f   bg_classes.obj
 0001:000b2270       ?BG_GetPlayerClassInfo@@YAPAUbg_playerclass_t@@HH@Z 300b3270 f   bg_classes.obj
 0001:000b22b0       ?BG_PlayerClassForPlayerState@@YAPAUbg_playerclass_t@@PAUplayerState_s@@@Z 300b32b0 f   bg_classes.obj
 0001:000b22e0       ?BG_ShortClassnameForNumber@@YAPBDH@Z 300b32e0 f   bg_classes.obj
 0001:000b2350       ?BG_WeaponIsPrimaryForClassAndTeam@@YA?AW4qboolean@@HW4team_t@@W4weapon_t@@@Z 300b3350 f   bg_classes.obj
 0001:000b23c0       ?BG_IsPercent@@YA_NPBD@Z   300b33c0 f   bg_jaymod.obj
 0001:000b2400       ?BG_updateAmmoTable@@YAXXZ 300b3400 f   bg_jaymod.obj
 0001:000b25e0       ?BG_AddMagicAmmo@@YA?AW4qboolean@@PAUplayerState_s@@PAHHH@Z 300b35e0 f   bg_misc.obj
 0001:000b2990       ?BG_AddPathCorner@@YAXPBDQAM@Z 300b3990 f   bg_misc.obj
 0001:000b2a10       ?BG_AddPredictableEventToPlayerstate@@YAXHHPAUplayerState_s@@@Z 300b3a10 f   bg_misc.obj
 0001:000b2a50       ?BG_AddSplineControl@@YAXPAUsplinePath_s@@PBD@Z 300b3a50 f   bg_misc.obj
 0001:000b2ab0       ?BG_AddSplinePath@@YAPAUsplinePath_s@@PBD0QAM@Z 300b3ab0 f   bg_misc.obj
 0001:000b2b70       ?BG_AdjustAAGunMuzzleForBarrel@@YAXPAM000H@Z 300b3b70 f   bg_misc.obj
 0001:000b2ed0       ?BG_AkimboFireSequence@@YA?AW4qboolean@@HHH@Z 300b3ed0 f   bg_misc.obj
 0001:000b2f20       ?BG_AkimboSidearm@@YAHH@Z  300b3f20 f   bg_misc.obj
 0001:000b2f80       ?BG_BBoxCollision@@YA?AW4qboolean@@QAM000@Z 300b3f80 f   bg_misc.obj
 0001:000b2fd0       ?BG_BuildSplinePaths@@YAXXZ 300b3fd0 f   bg_misc.obj
 0001:000b3150       ?BG_CalculateSpline_r@@YAXPAUsplinePath_s@@QAM1M@Z 300b4150 f   bg_misc.obj
 0001:000b3380       ?BG_CanItemBeGrabbed@@YA?AW4qboolean@@PBUentityState_s@@PBUplayerState_s@@PAHH@Z 300b4380 f   bg_misc.obj
 0001:000b3570       ?BG_CanUseWeapon@@YA?AW4qboolean@@HHW4weapon_t@@@Z 300b4570 f   bg_misc.obj
 0001:000b3830       ?BG_ComputeSegments@@YAXPAUsplinePath_s@@@Z 300b4830 f   bg_misc.obj
 0001:000b3a40       ?BG_CreateRotationMatrix@@YAXQBMQAY02M@Z 300b4a40 f   bg_misc.obj
 0001:000b3a70       ?BG_DuplicateWeapon@@YA?AW4weapon_t@@W41@@Z 300b4a70 f   bg_misc.obj
 0001:000b3b00       ?BG_EvaluateTrajectory@@YAXPBUtrajectory_t@@HQAMW4qboolean@@H@Z 300b4b00 f   bg_misc.obj
 0001:000b49b0       ?BG_EvaluateTrajectoryDelta@@YAXPBUtrajectory_t@@HQAMW4qboolean@@H@Z 300b59b0 f   bg_misc.obj
 0001:000b4d00       ?BG_FindAmmoForWeapon@@YA?AW4weapon_t@@W41@@Z 300b5d00 f   bg_misc.obj
 0001:000b4d40       ?BG_FindClipForWeapon@@YA?AW4weapon_t@@W41@@Z 300b5d40 f   bg_misc.obj
 0001:000b4d80       ?BG_FindItem@@YAPAUgitem_s@@PBD@Z 300b5d80 f   bg_misc.obj
 0001:000b4dd0       ?BG_FindItemForAmmo@@YAPAUgitem_s@@H@Z 300b5dd0 f   bg_misc.obj
 0001:000b4e40       ?BG_FindItemForClassName@@YAPAUgitem_s@@PBD@Z 300b5e40 f   bg_misc.obj
 0001:000b4e90       ?BG_FindItemForWeapon@@YAPAUgitem_s@@W4weapon_t@@@Z 300b5e90 f   bg_misc.obj
 0001:000b4ee0       ?BG_Find_PathCorner@@YAPAUpathCorner_t@@PBD@Z 300b5ee0 f   bg_misc.obj
 0001:000b4f40       ?BG_Find_Spline@@YAPAUsplinePath_s@@PBD@Z 300b5f40 f   bg_misc.obj
 0001:000b4fa0       ?BG_FootstepForSurface@@YAHH@Z 300b5fa0 f   bg_misc.obj
 0001:000b5050       ?BG_GetLocationString@@YAPADPAM@Z 300b6050 f   bg_misc.obj
 0001:000b50e0       ?BG_GetMarkDir@@YAXQBM0QAM@Z 300b60e0 f   bg_misc.obj
 0001:000b5370       ?BG_GetSplineData@@YAPAUsplinePath_s@@HPAW4qboolean@@@Z 300b6370 f   bg_misc.obj
 0001:000b53b0       ?BG_GrenadeTypeForTeam@@YA?AW4weapon_t@@W4team_t@@@Z 300b63b0 f   bg_misc.obj
 0001:000b53e0       ?BG_GrenadesForClass@@YAHHPAH@Z 300b63e0 f   bg_misc.obj
 0001:000b54f0       ?BG_InitLocations@@YAXQAM0@Z 300b64f0 f   bg_misc.obj
 0001:000b5620       ?BG_IsAkimboSideArm@@YA?AW4qboolean@@HPAUplayerState_s@@@Z 300b6620 f   bg_misc.obj
 0001:000b5680       ?BG_IsAkimboWeapon@@YA?AW4qboolean@@H@Z 300b6680 f   bg_misc.obj
 0001:000b56b0       ?BG_IsScopedWeapon@@YA?AW4qboolean@@H@Z 300b66b0 f   bg_misc.obj
 0001:000b56e0       ?BG_LinearPathOrigin2@@YAXMPAPAUsplinePath_s@@PAMQAMW4qboolean@@@Z 300b66e0 f   bg_misc.obj
 0001:000b5a00       ?BG_MaxAmmoForWeapon@@YAHW4weapon_t@@PAH@Z 300b6a00 f   bg_misc.obj
 0001:000b5b80       ?BG_PlayerStateToEntityState@@YAXPAUplayerState_s@@PAUentityState_s@@HW4qboolean@@@Z 300b6b80 f   bg_misc.obj
 0001:000b6030       ?BG_PlayerStateToEntityStateExtraPolate@@YAXPAUplayerState_s@@PAUentityState_s@@HW4qboolean@@@Z 300b7030 f   bg_misc.obj
 0001:000b64e0       ?BG_PlayerTouchesItem@@YA?AW4qboolean@@PAUplayerState_s@@PAUentityState_s@@H@Z 300b74e0 f   bg_misc.obj
 0001:000b6580       ?BG_RaySphereIntersection@@YA?AW4qboolean@@MQAMPAUsplineSegment_t@@PAM2@Z 300b7580 f   bg_misc.obj
 0001:000b66c0       ?BG_RotatePoint@@YAXQAMQAY02$$CBM@Z 300b76c0 f   bg_misc.obj
 0001:000b6760       ?BG_SplineLength@@YAMPAUsplinePath_s@@@Z 300b7760 f   bg_misc.obj
 0001:000b68d0       ?BG_TransposeMatrix@@YAXQAY02$$CBMQAY02M@Z 300b78d0 f   bg_misc.obj
 0001:000b6920       ?BG_TraverseSpline@@YA?AW4qboolean@@PAMPAPAUsplinePath_s@@@Z 300b7920 f   bg_misc.obj
 0001:000b6a30       ?BG_ValidStatWeapon@@YAPAUgitem_s@@W4weapon_t@@@Z 300b7a30 f   bg_misc.obj
 0001:000b6ad0       ?BG_WeaponForMOD@@YA?AW4weapon_t@@H@Z 300b7ad0 f   bg_misc.obj
 0001:000b6b00       ?BG_WeaponInWolfMP@@YA?AW4qboolean@@H@Z 300b7b00 f   bg_misc.obj
 0001:000b6b90       ?BG_cleanName@@YAHPBDPADHW4qboolean@@@Z 300b7b90 f   bg_misc.obj
 0001:000b6c10       ?BG_colorstrncpyz@@YAHPAD0HH@Z 300b7c10 f   bg_misc.obj
 0001:000b6cb0       ?BG_drawStrlen@@YAHPBD@Z   300b7cb0 f   bg_misc.obj
 0001:000b6d00       ?BG_isLightWeaponSupportingFastReload@@YA?AW4qboolean@@H@Z 300b7d00 f   bg_misc.obj
 0001:000b6d50       ?BG_setCrosshair@@YAXPADPAMM0@Z 300b7d50 f   bg_misc.obj
 0001:000b70c0       ?BG_simpleHintsCollapse@@YAHHH@Z 300b80c0 f   bg_misc.obj
 0001:000b7180       ?BG_simpleHintsExpand@@YAHHH@Z 300b8180 f   bg_misc.obj
 0001:000b7200       ?BG_simpleWeaponState@@YAHH@Z 300b8200 f   bg_misc.obj
 0001:000b7270       ?BG_strRelPos@@YAHPADH@Z   300b8270 f   bg_misc.obj
 0001:000b72d0       ?PC_Color_Parse@@YA?AW4qboolean@@HPAY03M@Z 300b82d0 f   bg_misc.obj
 0001:000b7330       ?PC_Float_Parse@@YA?AW4qboolean@@HPAM@Z 300b8330 f   bg_misc.obj
 0001:000b73f0       ?PC_Int_Parse@@YA?AW4qboolean@@HPAH@Z 300b83f0 f   bg_misc.obj
 0001:000b74a0       ?PC_SourceError@@YAXHPADZZ 300b84a0 f   bg_misc.obj
 0001:000b7520       ?PC_SourceWarning@@YAXHPADZZ 300b8520 f   bg_misc.obj
 0001:000b75a0       ?PC_String_Parse@@YA?AW4qboolean@@HPAPBD@Z 300b85a0 f   bg_misc.obj
 0001:000b75f0       ?PC_String_ParseNoAlloc@@YA?AW4qboolean@@HPADI@Z 300b85f0 f   bg_misc.obj
 0001:000b7650       ?PC_Vec_Parse@@YA?AW4qboolean@@HPAY02M@Z 300b8650 f   bg_misc.obj
 0001:000b76b0       ?Q_vsnprintf@@YAHPADHPBD0@Z 300b86b0 f   bg_misc.obj
 0001:000b7710       ?Com_GetFlamethrowerRange@@YAMXZ 300b8710 f   bg_pmove.obj
 0001:000b7830       ?PM_AddEvent@@YAXH@Z       300b8830 f   bg_pmove.obj
 0001:000b7850       ?PM_AddEventExt@@YAXHH@Z   300b8850 f   bg_pmove.obj
 0001:000b7870       ?PM_AddTouchEnt@@YAXH@Z    300b8870 f   bg_pmove.obj
 0001:000b78c0       ?PM_AdjustAimSpreadScale@@YAXXZ 300b88c0 f   bg_pmove.obj
 0001:000b7f90       ?PM_AltSwitchFromForWeapon@@YAHH@Z 300b8f90 f   bg_pmove.obj
 0001:000b7fa0       ?PM_AltSwitchToForWeapon@@YAHH@Z 300b8fa0 f   bg_pmove.obj
 0001:000b7ff0       ?PM_AttackAnimForWeapon@@YAHH@Z 300b8ff0 f   bg_pmove.obj
 0001:000b8050       ?PM_BeginM97Reload@@YAXXZ  300b9050 f   bg_pmove.obj
 0001:000b8160       ?PM_BeginWeaponChange@@YAXHHW4qboolean@@@Z 300b9160 f   bg_pmove.obj
 0001:000b8cc0       ?PM_CheckForReload@@YAXH@Z 300b9cc0 f   bg_pmove.obj
 0001:000b90e0       ?PM_CheckLadderMove@@YAXXZ 300ba0e0 f   bg_pmove.obj
 0001:000ba250       ?PM_ClipVelocity@@YAXQAM00M@Z 300bb250 f   bg_pmove.obj
 0001:000ba4f0       ?PM_ContinueWeaponAnim@@YAXH@Z 300bb4f0 f   bg_pmove.obj
 0001:000ba540       ?PM_CoolWeapons@@YAXXZ     300bb540 f   bg_pmove.obj
 0001:000bad00       ?PM_DropAnimForWeapon@@YAHH@Z 300bbd00 f   bg_pmove.obj
 0001:000bc1f0       ?PM_IdleAnimForWeapon@@YAHH@Z 300bd1f0 f   bg_pmove.obj
 0001:000bc250       ?PM_LadderMove@@YAXXZ      300bd250 f   bg_pmove.obj
 0001:000bc6a0       ?PM_LastAttackAnimForWeapon@@YAHH@Z 300bd6a0 f   bg_pmove.obj
 0001:000bc700       ?PM_M97Reload@@YAXXZ       300bd700 f   bg_pmove.obj
 0001:000bcbc0       ?PM_RaiseAnimForWeapon@@YAHH@Z 300bdbc0 f   bg_pmove.obj
 0001:000bcc40       ?PM_ReloadAnimForWeapon@@YAHH@Z 300bdc40 f   bg_pmove.obj
 0001:000bd130       ?PM_Sprint@@YAXXZ          300be130 f   bg_pmove.obj
 0001:000bd4c0       ?PM_TraceAll@@YAXPAUtrace_t@@QAM1@Z 300be4c0 f   bg_pmove.obj
 0001:000bd4e0       ?PM_TraceAllLegs@@YAXPAUtrace_t@@PAMQAM2@Z 300be4e0 f   bg_pmove.obj
 0001:000bd640       ?PM_TraceLegs@@YAXPAUtrace_t@@PAMQAM202P6AX0QBM333HH@ZHH_N@Z 300be640 f   bg_pmove.obj
 0001:000bd970       ?PM_UpdateLean@@YAXPAUplayerState_s@@PAUusercmd_s@@PAUpmove_t@@@Z 300be970 f   bg_pmove.obj
 0001:000bdd00       ?PM_UpdateViewAngles@@YAXPAUplayerState_s@@PAUpmoveExt_t@@PAUusercmd_s@@P6AXPAUtrace_t@@QBM444HH@ZH@Z 300bed00 f   bg_pmove.obj
 0001:000c1600       ?PM_WeaponAmmoAvailable@@YAHH@Z 300c2600 f   bg_pmove.obj
 0001:000c16e0       ?PM_WeaponClipEmpty@@YAHH@Z 300c26e0 f   bg_pmove.obj
 0001:000c1750       ?PM_WeaponUseAmmo@@YAXHH@Z 300c2750 f   bg_pmove.obj
 0001:000c1fc0       ?Pmove@@YAHPAUpmove_t@@@Z  300c2fc0 f   bg_pmove.obj
 0001:000c2110       ?PmoveSingle@@YAXPAUpmove_t@@@Z 300c3110 f   bg_pmove.obj
 0001:000c2af0       ?PM_SlideMove@@YA?AW4qboolean@@W41@@Z 300c3af0 f   bg_slidemove.obj
 0001:000c35a0       ?PM_StepSlideMove@@YAXW4qboolean@@@Z 300c45a0 f   bg_slidemove.obj
 0001:000c3c10       ?BG_ClearScriptSpeakerPool@@YAXXZ 300c4c10 f   bg_sscript.obj
 0001:000c3c20       ?BG_GetIndexForSpeaker@@YAHPAUbg_speaker_s@@@Z 300c4c20 f   bg_sscript.obj
 0001:000c3c50       ?BG_GetScriptSpeaker@@YAPAUbg_speaker_s@@H@Z 300c4c50 f   bg_sscript.obj
 0001:000c3c80       ?BG_LoadSpeakerScript@@YA?AW4qboolean@@PBD@Z 300c4c80 f   bg_sscript.obj
 0001:000c3e10       ?BG_NumScriptSpeakers@@YAHXZ 300c4e10 f   bg_sscript.obj
 0001:000c3e20       ?BG_SS_DeleteSpeaker@@YA?AW4qboolean@@H@Z 300c4e20 f   bg_sscript.obj
 0001:000c4570       ?BG_SS_StoreSpeaker@@YA?AW4qboolean@@PAUbg_speaker_s@@@Z 300c5570 f   bg_sscript.obj
 0001:000c45c0       ?BG_WeapStatForWeapon@@YA?AW4extWeaponStats_s@@W4weapon_t@@@Z 300c55c0 f   bg_stats.obj
 0001:000c4670       ?BG_GetGroundHeightAtPoint@@YAMQAM@Z 300c5670 f   bg_tracemap.obj
 0001:000c4730       ?BG_GetSkyGroundHeightAtPoint@@YAMQAM@Z 300c5730 f   bg_tracemap.obj
 0001:000c47f0       ?BG_GetSkyHeightAtPoint@@YAMQAM@Z 300c57f0 f   bg_tracemap.obj
 0001:000c48b0       ?BG_GetTracemapGroundCeil@@YAHXZ 300c58b0 f   bg_tracemap.obj
 0001:000c48d0       ?BG_GetTracemapGroundFloor@@YAHXZ 300c58d0 f   bg_tracemap.obj
 0001:000c48f0       ?BG_LoadTraceMap@@YA?AW4qboolean@@PADQAM1@Z 300c58f0 f   bg_tracemap.obj
 0001:000c4f50       ?CG_GenerateTracemap@@YAXXZ 300c5f50 f   bg_tracemap.obj
 0001:000c6040       ?etpro_FinalizeTracemapClamp@@YAXPAH0@Z 300c7040 f   bg_tracemap.obj
 0001:000c60a0       ??$_Destroy_range@V?$allocator@V?$basic_string@DU?$char_traits@D@std@@V?$allocator@D@2@@std@@@std@@@std@@YAXPAV?$basic_string@DU?$char_traits@D@std@@V?$allocator@D@2@@0@QAV10@AAV?$allocator@V?$basic_string@DU?$char_traits@D@std@@V?$allocator@D@2@@std@@@0@@Z 300c70a0 f i Engine.obj
 0001:000c6120       ??$_Emplace_reallocate@V?$basic_string@DU?$char_traits@D@std@@V?$allocator@D@2@@std@@@?$vector@V?$basic_string@DU?$char_traits@D@std@@V?$allocator@D@2@@std@@V?$allocator@V?$basic_string@DU?$char_traits@D@std@@V?$allocator@D@2@@std@@@2@@std@@AAEPAV?$basic_string@DU?$char_traits@D@std@@V?$allocator@D@2@@1@QAV21@$$QAV21@@Z 300c7120 f i Engine.obj
 0001:000c6360       ??$_Find_not_ch_vectorized@D@std@@YAPBDQBD0D@Z 300c7360 f i Engine.obj
 0001:000c6380       ??$_Uninitialized_move@PAV?$basic_string@DU?$char_traits@D@std@@V?$allocator@D@2@@std@@V?$allocator@V?$basic_string@DU?$char_traits@D@std@@V?$allocator@D@2@@std@@@2@@std@@YAPAV?$basic_string@DU?$char_traits@D@std@@V?$allocator@D@2@@0@QAV10@0PAV10@AAV?$allocator@V?$basic_string@DU?$char_traits@D@std@@V?$allocator@D@2@@std@@@0@@Z 300c7380 f i Engine.obj
 0001:000c6400       ?_Xlength@?$vector@V?$basic_string@DU?$char_traits@D@std@@V?$allocator@D@2@@std@@V?$allocator@V?$basic_string@DU?$char_traits@D@std@@V?$allocator@D@2@@std@@@2@@std@@CAXXZ 300c7400 f i Engine.obj
 0001:000c6410       ?args@Engine@@SAIAAV?$vector@V?$basic_string@DU?$char_traits@D@std@@V?$allocator@D@2@@std@@V?$allocator@V?$basic_string@DU?$char_traits@D@std@@V?$allocator@D@2@@std@@@2@@std@@ABV?$basic_string@DU?$char_traits@D@std@@V?$allocator@D@2@@3@@Z 300c7410 f   Engine.obj
 0001:000c6700       ??$?6DU?$char_traits@D@std@@V?$allocator@D@1@@std@@YAAAV?$basic_ostream@DU?$char_traits@D@std@@@0@AAV10@ABV?$basic_string@DU?$char_traits@D@std@@V?$allocator@D@2@@0@@Z 300c7700 f i Logger.obj
 0001:000c6730       ??$?HDU?$char_traits@D@std@@V?$allocator@D@1@@std@@YA?AV?$basic_string@DU?$char_traits@D@std@@V?$allocator@D@2@@0@ABV10@QBD@Z 300c7730 f i Logger.obj
 0001:000c6870       ??$_Insert_string@DU?$char_traits@D@std@@I@std@@YAAAV?$basic_ostream@DU?$char_traits@D@std@@@0@AAV10@QBDI@Z 300c7870 f i Logger.obj
 0001:000c6b90       ??$_Reallocate_grow_by@V<lambda_b58f63191d47f26c8413070fc8262ac6>@@IPBDI@?$basic_string@DU?$char_traits@D@std@@V?$allocator@D@2@@std@@AAEAAV01@IV<lambda_b58f63191d47f26c8413070fc8262ac6>@@IPBDI@Z 300c7b90 f i Logger.obj
 0001:000c6d50       ??$flush@DU?$char_traits@D@std@@@std@@YAAAV?$basic_ostream@DU?$char_traits@D@std@@@0@AAV10@@Z 300c7d50 f i Logger.obj
 0001:000c6d70       ??0?$basic_stringbuf@DU?$char_traits@D@std@@V?$allocator@D@2@@std@@QAE@XZ 300c7d70 f i Logger.obj
 0001:000c6e80       ??0Logger@@QAE@ABV?$basic_string@DU?$char_traits@D@std@@V?$allocator@D@2@@std@@@Z 300c7e80 f   Logger.obj
 0001:000c6f80       ??0Logger@@QAE@ABV?$basic_string@DU?$char_traits@D@std@@V?$allocator@D@2@@std@@AAV?$basic_ostream@DU?$char_traits@D@std@@@2@@Z 300c7f80 f   Logger.obj
 0001:000c7090       ??1Logger@@UAE@XZ          300c8090 f   Logger.obj
 0001:000c70f2       ??_ELogger@@$4PPPPPPPM@A@AEPAXI@Z 300c80f2 f i Logger.obj
 0001:000c7100       ??_ELogger@@UAEPAXI@Z      300c8100 f i Logger.obj
 0001:000c7100       ??_GLogger@@UAEPAXI@Z      300c8100 f i Logger.obj
 0001:000c7340       ?str@?$basic_stringbuf@DU?$char_traits@D@std@@V?$allocator@D@2@@std@@QAEXABV?$basic_string@DU?$char_traits@D@std@@V?$allocator@D@2@@2@@Z 300c8340 f i Logger.obj
 0001:000c7880       ??0Process@@QAE@XZ         300c8880 f   Process.obj
 0001:000c78a0       ??1Process@@QAE@XZ         300c88a0 f   Process.obj
 0001:000c78b0       ?init@Process@@QAEXXZ      300c88b0 f   Process.obj
 0001:000c78c0       ?setPendingReload@Process@@QAEX_N@Z 300c88c0 f   Process.obj
 0001:000c78d0       ?setPendingShutdown@Process@@QAEX_N@Z 300c88d0 f   Process.obj
 0001:000c78e0       ?shutdown@Process@@QAEXXZ  300c88e0 f   Process.obj
 0001:000c78f0       ?AddPointToBounds@@YAXQBMQAM1@Z 300c88f0 f   q_math.obj
 0001:000c7990       ?AngleDelta@@YAMMM@Z       300c8990 f   q_math.obj
 0001:000c79c0       ?AngleMod@@YAMM@Z          300c89c0 f   q_math.obj
 0001:000c7a10       ?AngleNormalize180@@YAMM@Z 300c8a10 f   q_math.obj
 0001:000c7a60       ?AngleNormalize2Pi@@YAMM@Z 300c8a60 f   q_math.obj
 0001:000c7ab0       ?AngleNormalize360@@YAMM@Z 300c8ab0 f   q_math.obj
 0001:000c7b00       ?AngleSubtract@@YAMMM@Z    300c8b00 f   q_math.obj
 0001:000c7b70       ?AngleVectors@@YAXQBMQAM11@Z 300c8b70 f   q_math.obj
 0001:000c7dc0       ?AnglesSubtract@@YAXQAM00@Z 300c8dc0 f   q_math.obj
 0001:000c7e50       ?AnglesToAxis@@YAXQBMQAY02M@Z 300c8e50 f   q_math.obj
 0001:000c7eb0       ?AxisClear@@YAXQAY02M@Z    300c8eb0 f   q_math.obj
 0001:000c7f10       ?AxisCopy@@YAXQAY02$$CBMQAY02M@Z 300c8f10 f   q_math.obj
 0001:000c7f60       ?AxisToAngles@@YAXQAY02MQAM@Z 300c8f60 f   q_math.obj
 0001:000c80d0       ?BoxOnPlaneSide@@YAHQAM0PAUcplane_s@@@Z 300c90d0 f   q_math.obj
 0001:000c8130       ?BoxOnPlaneSide_fast@@YAHQAM0PAUcplane_s@@@Z 300c9130 f i q_math.obj
 0001:000c8400       ?ByteToDir@@YAXHQAM@Z      300c9400 f   q_math.obj
 0001:000c8460       ?ClampChar@@YACH@Z         300c9460 f   q_math.obj
 0001:000c8490       ?ClampShort@@YAFH@Z        300c9490 f   q_math.obj
 0001:000c84c0       ?ClearBounds@@YAXQAM0@Z    300c94c0 f   q_math.obj
 0001:000c8500       ?ColorBytes3@@YAIMMM@Z     300c9500 f   q_math.obj
 0001:000c8550       ?ColorBytes4@@YAIMMMM@Z    300c9550 f   q_math.obj
 0001:000c85c0       ?CrossProduct@@YAXQBM0QAM@Z 300c95c0 f   q_math.obj
 0001:000c8640       ?DirToByte@@YAHQAM@Z       300c9640 f   q_math.obj
 0001:000c86e0       ?Distance@@YAMQBM0@Z       300c96e0 f   q_math.obj
 0001:000c8740       ?DistanceFromLineSquared@@YAMQAM00@Z 300c9740 f   q_math.obj
 0001:000c88c0       ?DistanceFromVectorSquared@@YAMQAM00@Z 300c98c0 f   q_math.obj
 0001:000c8930       ?DistanceSquared@@YAMQBM0@Z 300c9930 f   q_math.obj
 0001:000c8990       ?GetPerpendicularViewVector@@YAXQBM00QAM@Z 300c9990 f   q_math.obj
 0001:000c8a60       ?LerpAngle@@YAMMMM@Z       300c9a60 f   q_math.obj
 0001:000c8ad0       ?LerpPosition@@YAXQAM0M0@Z 300c9ad0 f   q_math.obj
 0001:000c8b40       ?MakeNormalVectors@@YAXQBMQAM1@Z 300c9b40 f   q_math.obj
 0001:000c8c00       ?MatrixMultiply@@YAXQAY02M00@Z 300c9c00 f   q_math.obj
 0001:000c8df0       ?NormalizeColor@@YAMQBMQAM@Z 300c9df0 f   q_math.obj
 0001:000c8e80       ?PerpendicularVector@@YAXQAMQBM@Z 300c9e80 f   q_math.obj
 0001:000c8f50       ?PlaneFromPoints@@YA?AW4qboolean@@QAMQBM11@Z 300c9f50 f   q_math.obj
 0001:000c9060       ?PointInBounds@@YA?AW4qboolean@@QBM00@Z 300ca060 f   q_math.obj
 0001:000c90d0       ?ProjectPointOnPlane@@YAXQAMQBM1@Z 300ca0d0 f   q_math.obj
 0001:000c91b0       ?ProjectPointOntoVector@@YAXQAM000@Z 300ca1b0 f   q_math.obj
 0001:000c92a0       ?ProjectPointOntoVectorBounded@@YAXQAM000@Z 300ca2a0 f   q_math.obj
 0001:000c9460       ?Q_crandom@@YAMPAH@Z       300ca460 f   q_math.obj
 0001:000c9490       ?Q_fabs@@YAMM@Z            300ca490 f   q_math.obj
 0001:000c94b0       ?Q_log2@@YAHH@Z            300ca4b0 f   q_math.obj
 0001:000c94d0       ?Q_rand@@YAHPAH@Z          300ca4d0 f   q_math.obj
 0001:000c94f0       ?Q_random@@YAMPAH@Z        300ca4f0 f   q_math.obj
 0001:000c9530       ?Q_rsqrt@@YAMM@Z           300ca530 f   q_math.obj
 0001:000c9590       ?RadiusFromBounds@@YAMQBM0@Z 300ca590 f   q_math.obj
 0001:000c9610       ?RotateAroundDirection@@YAXQAY02MM@Z 300ca610 f   q_math.obj
 0001:000c96a0       ?RotateAroundPitch@@YAXQAY02MM@Z 300ca6a0 f   q_math.obj
 0001:000c9730       ?RotatePointAroundVector@@YAXQAMQBM1M@Z 300ca730 f   q_math.obj
 0001:000c99d0       ?RotatePointAroundVertex@@YAXQAMMMMQBM@Z 300ca9d0 f   q_math.obj
 0001:000c9ba0       ?SetPlaneSignbits@@YAXPAUcplane_s@@@Z 300caba0 f   q_math.obj
 0001:000c9be0       ?Vector4Scale@@YAXQBMMQAM@Z 300cabe0 f   q_math.obj
 0001:000c9c30       ?VectorCompare@@YAHQBM0@Z  300cac30 f   q_math.obj
 0001:000c9c80       ?VectorDistance@@YAMQAM0@Z 300cac80 f   q_math.obj
 0001:000c9ce0       ?VectorDistanceSquared@@YAMQAM0@Z 300cace0 f   q_math.obj
 0001:000c9d40       ?VectorInverse@@YAXQAM@Z   300cad40 f   q_math.obj
 0001:000c9d90       ?VectorLength@@YAMQBM@Z    300cad90 f   q_math.obj
 0001:000c9e10       ?VectorLengthSquared@@YAMQBM@Z 300cae10 f   q_math.obj
 0001:000c9e50       ?VectorNormalize2@@YAMQBMQAM@Z 300cae50 f   q_math.obj
 0001:000c9f40       ?VectorNormalize@@YAMQAM@Z 300caf40 f   q_math.obj
 0001:000ca030       ?VectorNormalizeFast@@YAXQAM@Z 300cb030 f   q_math.obj
 0001:000ca0e0       ?VectorRotate@@YAXQAMQAY02M0@Z 300cb0e0 f   q_math.obj
 0001:000ca190       ?_DotProduct@@YAMQBM0@Z    300cb190 f   q_math.obj
 0001:000ca1c0       ?_VectorAdd@@YAXQBM0QAM@Z  300cb1c0 f   q_math.obj
 0001:000ca210       ?_VectorCopy@@YAXQBMQAM@Z  300cb210 f   q_math.obj
 0001:000ca240       ?_VectorMA@@YAXQBMM0QAM@Z  300cb240 f   q_math.obj
 0001:000ca2a0       ?_VectorScale@@YAXQBMMQAM@Z 300cb2a0 f   q_math.obj
 0001:000ca2e0       ?_VectorSubtract@@YAXQBM0QAM@Z 300cb2e0 f   q_math.obj
 0001:000ca330       ?myftol@@YAJM@Z            300cb330 f   q_math.obj
 0001:000ca350       ?vectoangles@@YAXQBMQAM@Z  300cb350 f   q_math.obj
 0001:000ca540       ?vectoyaw@@YAMQBM@Z        300cb540 f   q_math.obj
 0001:000ca630       ??$?MDU?$char_traits@D@std@@V?$allocator@D@1@@std@@YA_NABV?$basic_string@DU?$char_traits@D@std@@V?$allocator@D@2@@0@0@Z 300cb630 f i q_shared.obj
 0001:000ca700       ??$_Erase_tree@V?$allocator@U?$_Tree_node@U?$pair@$$CBV?$basic_string@DU?$char_traits@D@std@@V?$allocator@D@2@@std@@V12@@std@@PAX@std@@@std@@@?$_Tree_val@U?$_Tree_simple_types@U?$pair@$$CBV?$basic_string@DU?$char_traits@D@std@@V?$allocator@D@2@@std@@V12@@std@@@std@@@std@@QAEXAAV?$allocator@U?$_Tree_node@U?$pair@$$CBV?$basic_string@DU?$char_traits@D@std@@V?$allocator@D@2@@std@@V12@@std@@PAX@std@@@1@PAU?$_Tree_node@U?$pair@$$CBV?$basic_string@DU?$char_traits@D@std@@V?$allocator@D@2@@std@@V12@@std@@PAX@1@@Z 300cb700 f i q_shared.obj
 0001:000ca760       ??$_Find_lower_bound@V?$basic_string@DU?$char_traits@D@std@@V?$allocator@D@2@@std@@@?$_Tree@V?$_Tmap_traits@V?$basic_string@DU?$char_traits@D@std@@V?$allocator@D@2@@std@@V12@U?$less@V?$basic_string@DU?$char_traits@D@std@@V?$allocator@D@2@@std@@@2@V?$allocator@U?$pair@$$CBV?$basic_string@DU?$char_traits@D@std@@V?$allocator@D@2@@std@@V12@@std@@@2@$0A@@std@@@std@@IBE?AU?$_Tree_find_result@PAU?$_Tree_node@U?$pair@$$CBV?$basic_string@DU?$char_traits@D@std@@V?$allocator@D@2@@std@@V12@@std@@PAX@std@@@1@ABV?$basic_string@DU?$char_traits@D@std@@V?$allocator@D@2@@1@@Z 300cb760 f i q_shared.obj
 0001:000ca7d0       ??$_Try_emplace@ABV?$basic_string@DU?$char_traits@D@std@@V?$allocator@D@2@@std@@$$V@?$map@V?$basic_string@DU?$char_traits@D@std@@V?$allocator@D@2@@std@@V12@U?$less@V?$basic_string@DU?$char_traits@D@std@@V?$allocator@D@2@@std@@@2@V?$allocator@U?$pair@$$CBV?$basic_string@DU?$char_traits@D@std@@V?$allocator@D@2@@std@@V12@@std@@@2@@std@@AAE?AU?$pair@PAU?$_Tree_node@U?$pair@$$CBV?$basic_string@DU?$char_traits@D@std@@V?$allocator@D@2@@std@@V12@@std@@PAX@std@@_N@1@ABV?$basic_string@DU?$char_traits@D@std@@V?$allocator@D@2@@1@@Z 300cb7d0 f i q_shared.obj
 0001:000ca9f0       ??1?$_Alloc_construct_ptr@V?$allocator@U?$_Tree_node@U?$pair@$$CBV?$basic_string@DU?$char_traits@D@std@@V?$allocator@D@2@@std@@V12@@std@@PAX@std@@@std@@@std@@QAE@XZ 300cb9f0 f i q_shared.obj
 0001:000caa10       ??1?$_Tree_temp_node_alloc@V?$allocator@U?$_Tree_node@U?$pair@$$CBV?$basic_string@DU?$char_traits@D@std@@V?$allocator@D@2@@std@@V12@@std@@PAX@std@@@std@@@std@@QAE@XZ 300cba10 f i q_shared.obj
 0001:000caa30       ??1?$map@V?$basic_string@DU?$char_traits@D@std@@V?$allocator@D@2@@std@@V12@U?$less@V?$basic_string@DU?$char_traits@D@std@@V?$allocator@D@2@@std@@@2@V?$allocator@U?$pair@$$CBV?$basic_string@DU?$char_traits@D@std@@V?$allocator@D@2@@std@@V12@@std@@@2@@std@@QAE@XZ 300cba30 f i q_shared.obj
 0001:000caa60       ??1?$pair@$$CBV?$basic_string@DU?$char_traits@D@std@@V?$allocator@D@2@@std@@V12@@std@@QAE@XZ 300cba60 f i q_shared.obj
 0001:000cab20       ?BigFloat@@YAMM@Z          300cbb20 f   q_shared.obj
 0001:000cab40       ?BigLong64@@YA?AUqint64@@U1@@Z 300cbb40 f   q_shared.obj
 0001:000cab60       ?BigLong@@YAHH@Z           300cbb60 f   q_shared.obj
 0001:000cab70       ?BigShort@@YAFF@Z          300cbb70 f   q_shared.obj
 0001:000cab80       ?COM_BackupParseSession@@YAXPAPAD@Z 300cbb80 f   q_shared.obj
 0001:000caba0       ?COM_BeginParseSession@@YAXPBD@Z 300cbba0 f   q_shared.obj
 0001:000cabe0       ?COM_BitCheck@@YA?AW4qboolean@@QBHH@Z 300cbbe0 f   q_shared.obj
 0001:000cac30       ?COM_BitClear@@YAXQAHH@Z   300cbc30 f   q_shared.obj
 0001:000cac70       ?COM_BitSet@@YAXQAHH@Z     300cbc70 f   q_shared.obj
 0001:000cacb0       ?COM_Compress@@YAHPAD@Z    300cbcb0 f   q_shared.obj
 0001:000cad60       ?COM_DefaultExtension@@YAXPADHPBD@Z 300cbd60 f   q_shared.obj
 0001:000cade0       ?COM_FixPath@@YAXPAD@Z     300cbde0 f   q_shared.obj
 0001:000cae10       ?COM_GetCurrentParseLine@@YAHXZ 300cbe10 f   q_shared.obj
 0001:000cae20       ?COM_MatchToken@@YAXPAPADPAD@Z 300cbe20 f   q_shared.obj
 0001:000cae90       ?COM_Parse@@YAPADPAPAD@Z   300cbe90 f   q_shared.obj
 0001:000caeb0       ?COM_ParseError@@YAXPADZZ  300cbeb0 f   q_shared.obj
 0001:000caf00       ?COM_ParseExt@@YAPADPAPADW4qboolean@@@Z 300cbf00 f   q_shared.obj
 0001:000cb130       ?COM_ParseWarning@@YAXPADZZ 300cc130 f   q_shared.obj
 0001:000cb180       ?COM_RestoreParseSession@@YAXPAPAD@Z 300cc180 f   q_shared.obj
 0001:000cb1a0       ?COM_SetCurrentParseLine@@YAXH@Z 300cc1a0 f   q_shared.obj
 0001:000cb1b0       ?COM_SkipPath@@YAPADPAD@Z  300cc1b0 f   q_shared.obj
 0001:000cb1e0       ?COM_StripExtension@@YAXPBDPAD@Z 300cc1e0 f   q_shared.obj
 0001:000cb220       ?COM_StripFilename@@YAXPAD0@Z 300cc220 f   q_shared.obj
 0001:000cb270       ?Com_Clamp@@YAMMMM@Z       300cc270 f   q_shared.obj
 0001:000cb2a0       ?Com_ParseInfos@@YAHPADHQAY0EAA@D@Z 300cc2a0 f   q_shared.obj
 0001:000cb450       ?Com_sprintf@@YAXPADHPBDZZ 300cc450 f   q_shared.obj
 0001:000cb490       ?FloatNoSwap@@YAMM@Z       300cc490 f   q_shared.obj
 0001:000cb4a0       ?FloatSwap@@YAMM@Z         300cc4a0 f   q_shared.obj
 0001:000cb4e0       ?Info_NextPair@@YAXPAPBDPAD1@Z 300cc4e0 f   q_shared.obj
 0001:000cb560       ?Info_RemoveKey@@YAXPADPBD@Z 300cc560 f   q_shared.obj
 0001:000cb680       ?Info_RemoveKey_Big@@YAXPADPBD@Z 300cc680 f   q_shared.obj
 0001:000cb790       ?Info_SetValueForKey@@YAXPADPBD1@Z 300cc790 f   q_shared.obj
 0001:000cb9b0       ?Info_SetValueForKey_Big@@YAXPADPBD1@Z 300cc9b0 f   q_shared.obj
 0001:000cbbd0       ?Info_Validate@@YA?AW4qboolean@@PBD@Z 300ccbd0 f   q_shared.obj
 0001:000cbf90       ?Info_ValueForKey@@YAPADPBD0@Z 300ccf90 f   q_shared.obj
 0001:000cc0c0       ?LittleFloat@@YAMM@Z       300cd0c0 f   q_shared.obj
 0001:000cc0e0       ?LittleLong64@@YA?AUqint64@@U1@@Z 300cd0e0 f   q_shared.obj
 0001:000cc100       ?LittleLong@@YAHH@Z        300cd100 f   q_shared.obj
 0001:000cc110       ?LittleShort@@YAFF@Z       300cd110 f   q_shared.obj
 0001:000cc120       ?Long64NoSwap@@YA?AUqint64@@U1@@Z 300cd120 f   q_shared.obj
 0001:000cc130       ?Long64Swap@@YA?AUqint64@@U1@@Z 300cd130 f   q_shared.obj
 0001:000cc190       ?LongNoSwap@@YAHH@Z        300cd190 f   q_shared.obj
 0001:000cc1a0       ?LongSwap@@YAHH@Z          300cd1a0 f   q_shared.obj
 0001:000cc1e0       ?Parse1DMatrix@@YAXPAPADHPAM@Z 300cd1e0 f   q_shared.obj
 0001:000cc240       ?Parse2DMatrix@@YAXPAPADHHPAM@Z 300cd240 f   q_shared.obj
 0001:000cc2b0       ?Parse3DMatrix@@YAXPAPADHHHPAM@Z 300cd2b0 f   q_shared.obj
 0001:000cc330       ?Q_CleanDirName@@YAPADPAD@Z 300cd330 f   q_shared.obj
 0001:000cc390       ?Q_CleanStr@@YAPADPAD@Z    300cd390 f   q_shared.obj
 0001:000cc410       ?Q_PrintStrlen@@YAHPBD@Z   300cd410 f   q_shared.obj
 0001:000cc5b0       ?Q_isBadDirChar@@YA?AW4qboolean@@D@Z 300cd5b0 f   q_shared.obj
 0001:000cc600       ?Q_isalpha@@YAHH@Z         300cd600 f   q_shared.obj
 0001:000cc630       ?Q_isalphanumeric@@YAHH@Z  300cd630 f   q_shared.obj
 0001:000cc670       ?Q_isforfilename@@YAHH@Z   300cd670 f   q_shared.obj
 0001:000cc6a0       ?Q_islower@@YAHH@Z         300cd6a0 f   q_shared.obj
 0001:000cc6c0       ?Q_isnumeric@@YAHH@Z       300cd6c0 f   q_shared.obj
 0001:000cc6e0       ?Q_isprint@@YAHH@Z         300cd6e0 f   q_shared.obj
 0001:000cc700       ?Q_isupper@@YAHH@Z         300cd700 f   q_shared.obj
 0001:000cc720       ?Q_strcat@@YAXPADHPBD@Z    300cd720 f   q_shared.obj
 0001:000cc780       ?Q_stricmp@@YAHPBD0@Z      300cd780 f   q_shared.obj
 0001:000cc7b0       ?Q_stricmpn@@YAHPBD0H@Z    300cd7b0 f   q_shared.obj
 0001:000cc840       ?Q_strlwr@@YAPADPAD@Z      300cd840 f   q_shared.obj
 0001:000cc880       ?Q_strncmp@@YAHPBD0H@Z     300cd880 f   q_shared.obj
 0001:000cc8e0       ?Q_strncpyz@@YAXPADPBDH@Z  300cd8e0 f   q_shared.obj
 0001:000cc940       ?Q_strrchr@@YAPADPBDH@Z    300cd940 f   q_shared.obj
 0001:000cc980       ?Q_strupr@@YAPADPAD@Z      300cd980 f   q_shared.obj
 0001:000cc9c0       ?ShortNoSwap@@YAFF@Z       300cd9c0 f   q_shared.obj
 0001:000cc9d0       ?ShortSwap@@YAFF@Z         300cd9d0 f   q_shared.obj
 0001:000cca00       ?SkipBracedSection@@YAXPAPAD@Z 300cda00 f   q_shared.obj
 0001:000cca50       ?SkipBracedSection_Depth@@YAXPAPADH@Z 300cda50 f   q_shared.obj
 0001:000ccaa0       ?SkipRestOfLine@@YAXPAPAD@Z 300cdaa0 f   q_shared.obj
 0001:000ccb40       ?Swap_Init@@YAXXZ          300cdb40 f   q_shared.obj
 0001:000ccbb0       ?_Insert_node@?$_Tree_val@U?$_Tree_simple_types@U?$pair@$$CBV?$basic_string@DU?$char_traits@D@std@@V?$allocator@D@2@@std@@V12@@std@@@std@@@std@@QAEPAU?$_Tree_node@U?$pair@$$CBV?$basic_string@DU?$char_traits@D@std@@V?$allocator@D@2@@std@@V12@@std@@PAX@2@U?$_Tree_id@PAU?$_Tree_node@U?$pair@$$CBV?$basic_string@DU?$char_traits@D@std@@V?$allocator@D@2@@std@@V12@@std@@PAX@std@@@2@QAU32@@Z 300cdbb0 f i q_shared.obj
 0001:000cce20       ?_Throw_tree_length_error@std@@YAXXZ 300cde20 f i q_shared.obj
 0001:000cce30       ?tv@@YAPAMMMM@Z            300cde30 f   q_shared.obj
 0001:000cce80       ?va@@YAPADPBDZZ            300cde80 f   q_shared.obj
 0001:000ccf40       ??0SampledStat@@QAE@_K@Z   300cdf40 f   SampledStat.obj
 0001:000ccfd0       ??1?$_Alloc_construct_ptr@V?$allocator@U?$_List_node@PAUsample_s@SampledStat@@PAX@std@@@std@@@std@@QAE@XZ 300cdfd0 f i SampledStat.obj
 0001:000ccff0       ??1SampledStat@@QAE@XZ     300cdff0 f   SampledStat.obj
 0001:000cd070       ?avg@SampledStat@@QAEMXZ   300ce070 f   SampledStat.obj
 0001:000cd0b0       ?sample@SampledStat@@QAEXH@Z 300ce0b0 f   SampledStat.obj
 0001:000cd0d0       ?sample@SampledStat@@QAEXM@Z 300ce0d0 f   SampledStat.obj
 0001:000cd2e0       ?BG_cpuUpdate@@YAXXZ       300ce2e0 f   bg_cpu.obj
 0001:000cd3d0       ??$_Erase_tree@V?$allocator@U?$_Tree_node@U?$pair@$$CBV?$basic_string@DU?$char_traits@D@std@@V?$allocator@D@2@@std@@PBUData@PairDump@str@@@std@@PAX@std@@@std@@@?$_Tree_val@U?$_Tree_simple_types@U?$pair@$$CBV?$basic_string@DU?$char_traits@D@std@@V?$allocator@D@2@@std@@PBUData@PairDump@str@@@std@@@std@@@std@@QAEXAAV?$allocator@U?$_Tree_node@U?$pair@$$CBV?$basic_string@DU?$char_traits@D@std@@V?$allocator@D@2@@std@@PBUData@PairDump@str@@@std@@PAX@std@@@1@PAU?$_Tree_node@U?$pair@$$CBV?$basic_string@DU?$char_traits@D@std@@V?$allocator@D@2@@std@@PBUData@PairDump@str@@@std@@PAX@1@@Z 300ce3d0 f i PairDump.obj
 0001:000cd490       ??$_Find_lower_bound@V?$basic_string@DU?$char_traits@D@std@@V?$allocator@D@2@@std@@@?$_Tree@V?$_Tmap_traits@V?$basic_string@DU?$char_traits@D@std@@V?$allocator@D@2@@std@@PBUData@PairDump@str@@U?$less@V?$basic_string@DU?$char_traits@D@std@@V?$allocator@D@2@@std@@@2@V?$allocator@U?$pair@$$CBV?$basic_string@DU?$char_traits@D@std@@V?$allocator@D@2@@std@@PBUData@PairDump@str@@@std@@@2@$0A@@std@@@std@@IBE?AU?$_Tree_find_result@PAU?$_Tree_node@U?$pair@$$CBV?$basic_string@DU?$char_traits@D@std@@V?$allocator@D@2@@std@@PBUData@PairDump@str@@@std@@PAX@std@@@1@ABV?$basic_string@DU?$char_traits@D@std@@V?$allocator@D@2@@1@@Z 300ce490 f i PairDump.obj
 0001:000cd500       ??$_Free_non_head@V?$allocator@U?$_List_node@USection@PairDump@str@@PAX@std@@@std@@@?$_List_node@USection@PairDump@str@@PAX@std@@SAXAAV?$allocator@U?$_List_node@USection@PairDump@str@@PAX@std@@@1@PAU01@@Z 300ce500 f i PairDump.obj
 0001:000cd550       ??$endl@DU?$char_traits@D@std@@@std@@YAAAV?$basic_ostream@DU?$char_traits@D@std@@@0@AAV10@@Z 300ce550 f i PairDump.obj
 0001:000cd610       ??0?$basic_string@DU?$char_traits@D@std@@V?$allocator@D@2@@std@@QAE@ABV01@@Z 300ce610 f i PairDump.obj
 0001:000cd720       ??0?$list@UData@PairDump@str@@V?$allocator@UData@PairDump@str@@@std@@@std@@QAE@ABV01@@Z 300ce720 f i PairDump.obj
 0001:000cd8e0       ??0PairDump@str@@QAE@V?$basic_string@DU?$char_traits@D@std@@V?$allocator@D@2@@std@@@Z 300ce8e0 f   PairDump.obj
 0001:000cd9c0       ??1?$_Alloc_construct_ptr@V?$allocator@U?$_List_node@UData@PairDump@str@@PAX@std@@@std@@@std@@QAE@XZ 300ce9c0 f i PairDump.obj
 0001:000cd9e0       ??1?$_Alloc_construct_ptr@V?$allocator@U?$_List_node@USection@PairDump@str@@PAX@std@@@std@@@std@@QAE@XZ 300ce9e0 f i PairDump.obj
 0001:000cda00       ??1?$_Alloc_construct_ptr@V?$allocator@U?$_Tree_node@U?$pair@$$CBV?$basic_string@DU?$char_traits@D@std@@V?$allocator@D@2@@std@@PBUData@PairDump@str@@@std@@PAX@std@@@std@@@std@@QAE@XZ 300cea00 f i PairDump.obj
 0001:000cda20       ??1?$_List_node_insert_op2@V?$allocator@U?$_List_node@UData@PairDump@str@@PAX@std@@@std@@@std@@QAE@XZ 300cea20 f i PairDump.obj
 0001:000cda70       ??1?$list@UData@PairDump@str@@V?$allocator@UData@PairDump@str@@@std@@@std@@QAE@XZ 300cea70 f i PairDump.obj
 0001:000cdad0       ??1?$list@USection@PairDump@str@@V?$allocator@USection@PairDump@str@@@std@@@std@@QAE@XZ 300cead0 f i PairDump.obj
 0001:000cdaf0       ??1?$map@V?$basic_string@DU?$char_traits@D@std@@V?$allocator@D@2@@std@@PBUData@PairDump@str@@U?$less@V?$basic_string@DU?$char_traits@D@std@@V?$allocator@D@2@@std@@@2@V?$allocator@U?$pair@$$CBV?$basic_string@DU?$char_traits@D@std@@V?$allocator@D@2@@std@@PBUData@PairDump@str@@@std@@@2@@std@@QAE@XZ 300ceaf0 f i PairDump.obj
 0001:000cdb20       ??1Data@PairDump@str@@QAE@XZ 300ceb20 f i PairDump.obj
 0001:000cdbe0       ??1PairDump@str@@QAE@XZ    300cebe0 f   PairDump.obj
 0001:000cdc60       ??1Section@PairDump@str@@QAE@XZ 300cec60 f i PairDump.obj
 0001:000cdcd0       ??6?$basic_ostream@DU?$char_traits@D@std@@@std@@QAEAAV01@I@Z 300cecd0 f i PairDump.obj
 0001:000cdf40       ??6?$basic_ostream@DU?$char_traits@D@std@@@std@@QAEAAV01@M@Z 300cef40 f i PairDump.obj
 0001:000ce1c0       ??6?$basic_ostream@DU?$char_traits@D@std@@@std@@QAEAAV01@N@Z 300cf1c0 f i PairDump.obj
 0001:000ce440       ?_Insert_node@?$_Tree_val@U?$_Tree_simple_types@U?$pair@$$CBV?$basic_string@DU?$char_traits@D@std@@V?$allocator@D@2@@std@@PBUData@PairDump@str@@@std@@@std@@@std@@QAEPAU?$_Tree_node@U?$pair@$$CBV?$basic_string@DU?$char_traits@D@std@@V?$allocator@D@2@@std@@PBUData@PairDump@str@@@std@@PAX@2@U?$_Tree_id@PAU?$_Tree_node@U?$pair@$$CBV?$basic_string@DU?$char_traits@D@std@@V?$allocator@D@2@@std@@PBUData@PairDump@str@@@std@@PAX@std@@@2@QAU32@@Z 300cf440 f i PairDump.obj
 0001:000ce6b0       ?addEntry@PairDump@str@@QAEXV?$basic_string@DU?$char_traits@D@std@@V?$allocator@D@2@@std@@0@Z 300cf6b0 f   PairDump.obj
 0001:000ce7d0       ?addEntry@PairDump@str@@QAEXV?$basic_string@DU?$char_traits@D@std@@V?$allocator@D@2@@std@@AAY02$$CBM@Z 300cf7d0 f   PairDump.obj
 0001:000ce8a0       ?addEntry@PairDump@str@@QAEXV?$basic_string@DU?$char_traits@D@std@@V?$allocator@D@2@@std@@H@Z 300cf8a0 f   PairDump.obj
 0001:000cea40       ?addEntry@PairDump@str@@QAEXV?$basic_string@DU?$char_traits@D@std@@V?$allocator@D@2@@std@@I@Z 300cfa40 f   PairDump.obj
 0001:000cebe0       ?addEntry@PairDump@str@@QAEXV?$basic_string@DU?$char_traits@D@std@@V?$allocator@D@2@@std@@M@Z 300cfbe0 f   PairDump.obj
 0001:000ced80       ?addEntry@PairDump@str@@QAEXV?$basic_string@DU?$char_traits@D@std@@V?$allocator@D@2@@std@@N@Z 300cfd80 f   PairDump.obj
 0001:000cef30       ?addEntry@PairDump@str@@QAEXV?$basic_string@DU?$char_traits@D@std@@V?$allocator@D@2@@std@@_N@Z 300cff30 f   PairDump.obj
 0001:000cf040       ?addSection@PairDump@str@@QAEXV?$basic_string@DU?$char_traits@D@std@@V?$allocator@D@2@@std@@@Z 300d0040 f   PairDump.obj
 0001:000cf240       ?append@?$basic_string@DU?$char_traits@D@std@@V?$allocator@D@2@@std@@QAEAAV12@ABV12@@Z 300d0240 f i PairDump.obj
 0001:000cf2d0       ?clear@PairDump@str@@QAEXXZ 300d02d0 f   PairDump.obj
 0001:000cf4e0       ?dump@PairDump@str@@QAEXAAV?$basic_ostream@DU?$char_traits@D@std@@@std@@@Z 300d04e0 f   PairDump.obj
 0001:000cf6f0       ?dump@PairDump@str@@QAEXABV12@AAV?$basic_ostream@DU?$char_traits@D@std@@@std@@@Z 300d06f0 f   PairDump.obj
 0001:000d0070       ?left@std@@YAAAVios_base@1@AAV21@@Z 300d1070 f i PairDump.obj
 0001:000d0090       ?push_back@?$list@UData@PairDump@str@@V?$allocator@UData@PairDump@str@@@std@@@std@@QAEXABUData@PairDump@str@@@Z 300d1090 f i PairDump.obj
 0001:000d0160       ?put@?$basic_ostream@DU?$char_traits@D@std@@@std@@QAEAAV12@D@Z 300d1160 f i PairDump.obj
 0001:000d03a0       ??$?6U?$char_traits@D@std@@@std@@YAAAV?$basic_ostream@DU?$char_traits@D@std@@@0@AAV10@D@Z 300d13a0 f i util.obj
 0001:000d0740       ?append@?$basic_string@DU?$char_traits@D@std@@V?$allocator@D@2@@std@@QAEAAV12@ID@Z 300d1740 f i util.obj
 0001:000d07c0       ?etAlignLeft@str@@YAAAV?$basic_string@DU?$char_traits@D@std@@V?$allocator@D@2@@std@@ABV23@IAAV23@@Z 300d17c0 f   util.obj
 0001:000d0840       ?etAlignRight@str@@YAAAV?$basic_string@DU?$char_traits@D@std@@V?$allocator@D@2@@std@@ABV23@IAAV23@@Z 300d1840 f   util.obj
 0001:000d0910       ?etDecolorize@str@@YAAAV?$basic_string@DU?$char_traits@D@std@@V?$allocator@D@2@@std@@AAV23@@Z 300d1910 f   util.obj
 0001:000d0a80       ?etLength@str@@YAIABV?$basic_string@DU?$char_traits@D@std@@V?$allocator@D@2@@std@@@Z 300d1a80 f   util.obj
 0001:000d0b40       ?etTruncate@str@@YA?AV?$basic_string@DU?$char_traits@D@std@@V?$allocator@D@2@@std@@ABV23@I@Z 300d1b40 f   util.obj
 0001:000d0bf0       ?etTruncate@str@@YAAAV?$basic_string@DU?$char_traits@D@std@@V?$allocator@D@2@@std@@AAV23@I@Z 300d1bf0 f   util.obj
 0001:000d0d60       ?str@?$basic_ostringstream@DU?$char_traits@D@std@@V?$allocator@D@2@@std@@QBE?AV?$basic_string@DU?$char_traits@D@std@@V?$allocator@D@2@@2@XZ 300d1d60 f i util.obj
 0001:000d0e50       ?toHexString@str@@YA?AV?$basic_string@DU?$char_traits@D@std@@V?$allocator@D@2@@std@@I@Z 300d1e50 f   util.obj
 0001:000d0f20       ?toHexString@str@@YAAAV?$basic_string@DU?$char_traits@D@std@@V?$allocator@D@2@@std@@IAAV23@@Z 300d1f20 f   util.obj
 0001:000d1130       ?toSeconds@str@@YAHABV?$basic_string@DU?$char_traits@D@std@@V?$allocator@D@2@@std@@_N@Z 300d2130 f   util.obj
 0001:000d15f0       ?toString@str@@YA?AV?$basic_string@DU?$char_traits@D@std@@V?$allocator@D@2@@std@@AAY02$$CBM@Z 300d25f0 f   util.obj
 0001:000d16c0       ?toString@str@@YA?AV?$basic_string@DU?$char_traits@D@std@@V?$allocator@D@2@@std@@PBX@Z 300d26c0 f   util.obj
 0001:000d1790       ?toString@str@@YA?AV?$basic_string@DU?$char_traits@D@std@@V?$allocator@D@2@@std@@W4entityType_t@@@Z 300d2790 f   util.obj
 0001:000d1860       ?toString@str@@YA?AV?$basic_string@DU?$char_traits@D@std@@V?$allocator@D@2@@std@@W4gamestate_t@@@Z 300d2860 f   util.obj
 0001:000d1930       ?toString@str@@YA?AV?$basic_string@DU?$char_traits@D@std@@V?$allocator@D@2@@std@@W4gametype_t@@@Z 300d2930 f   util.obj
 0001:000d1a00       ?toString@str@@YA?AV?$basic_string@DU?$char_traits@D@std@@V?$allocator@D@2@@std@@W4team_t@@@Z 300d2a00 f   util.obj
 0001:000d1ad0       ?toString@str@@YA?AV?$basic_string@DU?$char_traits@D@std@@V?$allocator@D@2@@std@@W4trType_t@@@Z 300d2ad0 f   util.obj
 0001:000d1ba0       ?toString@str@@YA?AV?$basic_string@DU?$char_traits@D@std@@V?$allocator@D@2@@std@@W4weapon_t@@@Z 300d2ba0 f   util.obj
 0001:000d1c70       ?toString@str@@YAAAV?$basic_string@DU?$char_traits@D@std@@V?$allocator@D@2@@std@@AAY02$$CBMAAV23@@Z 300d2c70 f   util.obj
 0001:000d1f60       ?toString@str@@YAAAV?$basic_string@DU?$char_traits@D@std@@V?$allocator@D@2@@std@@PBXAAV23@@Z 300d2f60 f   util.obj
 0001:000d1f70       ?toString@str@@YAAAV?$basic_string@DU?$char_traits@D@std@@V?$allocator@D@2@@std@@W4entityType_t@@AAV23@@Z 300d2f70 f   util.obj
 0001:000d34b0       ?toString@str@@YAAAV?$basic_string@DU?$char_traits@D@std@@V?$allocator@D@2@@std@@W4gamestate_t@@AAV23@@Z 300d44b0 f   util.obj
 0001:000d3740       ?toString@str@@YAAAV?$basic_string@DU?$char_traits@D@std@@V?$allocator@D@2@@std@@W4gametype_t@@AAV23@@Z 300d4740 f   util.obj
 0001:000d3950       ?toString@str@@YAAAV?$basic_string@DU?$char_traits@D@std@@V?$allocator@D@2@@std@@W4team_t@@AAV23@@Z 300d4950 f   util.obj
 0001:000d3b60       ?toString@str@@YAAAV?$basic_string@DU?$char_traits@D@std@@V?$allocator@D@2@@std@@W4trType_t@@AAV23@@Z 300d4b60 f   util.obj
 0001:000d4880       ?toString@str@@YAAAV?$basic_string@DU?$char_traits@D@std@@V?$allocator@D@2@@std@@W4weapon_t@@AAV23@@Z 300d5880 f   util.obj
 0001:000d5c00       ?toStringSecondsRemaining@str@@YA?AV?$basic_string@DU?$char_traits@D@std@@V?$allocator@D@2@@std@@H_N@Z 300d6c00 f   util.obj
 0001:000d5cd0       ?toStringSecondsRemaining@str@@YAAAV?$basic_string@DU?$char_traits@D@std@@V?$allocator@D@2@@std@@HAAV23@_N@Z 300d6cd0 f   util.obj
 0001:000d6080       ??0Cvar@cvar@@QAE@ABV?$basic_string@DU?$char_traits@D@std@@V?$allocator@D@2@@std@@0HP6AXAAV01@@Z_N@Z 300d7080 f   Cvar.obj
 0001:000d6190       ??1?$_Alloc_construct_ptr@V?$allocator@U?$_List_node@PAVCvar@cvar@@PAX@std@@@std@@@std@@QAE@XZ 300d7190 f i Cvar.obj
 0001:000d61b0       ??1Cvar@cvar@@QAE@XZ       300d71b0 f   Cvar.obj
 0001:000d6290       ?getUpdateList@Cvar@cvar@@SAABV?$list@PAVCvar@cvar@@V?$allocator@PAVCvar@cvar@@@std@@@std@@XZ 300d7290 f   Cvar.obj
 0001:000d62a0       ?init@Cvar@cvar@@SAXXZ     300d72a0 f   Cvar.obj
 0001:000d62f0       ?push_back@?$list@PAVCvar@cvar@@V?$allocator@PAVCvar@cvar@@@std@@@std@@QAEX$$QAPAVCvar@cvar@@@Z 300d72f0 f i Cvar.obj
 0001:000d6390       ?set@Cvar@cvar@@QAEXABV?$basic_string@DU?$char_traits@D@std@@V?$allocator@D@2@@std@@@Z 300d7390 f   Cvar.obj
 0001:000d63e0       ?set@Cvar@cvar@@QAEXH@Z    300d73e0 f   Cvar.obj
 0001:000d6580       ?set@Cvar@cvar@@QAEXM@Z    300d7580 f   Cvar.obj
 0001:000d6720       ?trapRegister@Cvar@cvar@@AAEXXZ 300d7720 f   Cvar.obj
 0001:000d6770       ?trapUpdate@Cvar@cvar@@AAEXXZ 300d7770 f   Cvar.obj
 0001:000d67d0       ?Script_SetColor@@YAXPAUitemDef_s@@PAW4qboolean@@PAPAD@Z 300d77d0 f   ui_shared.obj
 0001:000d68c0       ?Script_SetAsset@@YAXPAUitemDef_s@@PAW4qboolean@@PAPAD@Z 300d78c0 f   ui_shared.obj
 0001:000d68e0       ?Script_SetBackground@@YAXPAUitemDef_s@@PAW4qboolean@@PAPAD@Z 300d78e0 f   ui_shared.obj
 0001:000d6930       ?Script_SetTeamColor@@YAXPAUitemDef_s@@PAW4qboolean@@PAPAD@Z 300d7930 f   ui_shared.obj
 0001:000d6970       ?Script_SetItemColor@@YAXPAUitemDef_s@@PAW4qboolean@@PAPAD@Z 300d7970 f   ui_shared.obj
 0001:000d6ac0       ?Script_SetMenuItemColor@@YAXPAUitemDef_s@@PAW4qboolean@@PAPAD@Z 300d7ac0 f   ui_shared.obj
 0001:000d6c30       ?Script_Show@@YAXPAUitemDef_s@@PAW4qboolean@@PAPAD@Z 300d7c30 f   ui_shared.obj
 0001:000d6c80       ?Script_Hide@@YAXPAUitemDef_s@@PAW4qboolean@@PAPAD@Z 300d7c80 f   ui_shared.obj
 0001:000d6cd0       ?Script_FadeIn@@YAXPAUitemDef_s@@PAW4qboolean@@PAPAD@Z 300d7cd0 f   ui_shared.obj
 0001:000d6d20       ?Script_FadeOut@@YAXPAUitemDef_s@@PAW4qboolean@@PAPAD@Z 300d7d20 f   ui_shared.obj
 0001:000d6d70       ?Script_Open@@YAXPAUitemDef_s@@PAW4qboolean@@PAPAD@Z 300d7d70 f   ui_shared.obj
 0001:000d6db0       ?Script_FadeInMenu@@YAXPAUitemDef_s@@PAW4qboolean@@PAPAD@Z 300d7db0 f   ui_shared.obj
 0001:000d6df0       ?Script_FadeOutMenu@@YAXPAUitemDef_s@@PAW4qboolean@@PAPAD@Z 300d7df0 f   ui_shared.obj
 0001:000d6e30       ?Script_ConditionalOpen@@YAXPAUitemDef_s@@PAW4qboolean@@PAPAD@Z 300d7e30 f   ui_shared.obj
 0001:000d6f60       ?Script_ConditionalScript@@YAXPAUitemDef_s@@PAW4qboolean@@PAPAD@Z 300d7f60 f   ui_shared.obj
 0001:000d78d0       ?Script_Close@@YAXPAUitemDef_s@@PAW4qboolean@@PAPAD@Z 300d88d0 f   ui_shared.obj
 0001:000d7910       ?Script_CloseAll@@YAXPAUitemDef_s@@PAW4qboolean@@PAPAD@Z 300d8910 f   ui_shared.obj
 0001:000d7920       ?Script_CloseAllOtherMenus@@YAXPAUitemDef_s@@PAW4qboolean@@PAPAD@Z 300d8920 f   ui_shared.obj
 0001:000d7980       ?Script_Clipboard@@YAXPAUitemDef_s@@PAW4qboolean@@PAPAD@Z 300d8980 f   ui_shared.obj
 0001:000d7990       ?Script_NotebookShowpage@@YAXPAUitemDef_s@@PAW4qboolean@@PAPAD@Z 300d8990 f   ui_shared.obj
 0001:000d79a0       ?Script_Transition@@YAXPAUitemDef_s@@PAW4qboolean@@PAPAD@Z 300d89a0 f   ui_shared.obj
 0001:000d7a80       ?Script_Orbit@@YAXPAUitemDef_s@@PAW4qboolean@@PAPAD@Z 300d8a80 f   ui_shared.obj
 0001:000d7bb0       ?Script_SetFocus@@YAXPAUitemDef_s@@PAW4qboolean@@PAPAD@Z 300d8bb0 f   ui_shared.obj
 0001:000d7c60       ?Script_ClearFocus@@YAXPAUitemDef_s@@PAW4qboolean@@PAPAD@Z 300d8c60 f   ui_shared.obj
 0001:000d7c80       ?Script_SetPlayerModel@@YAXPAUitemDef_s@@PAW4qboolean@@PAPAD@Z 300d8c80 f   ui_shared.obj
 0001:000d7cd0       ?Script_SetPlayerHead@@YAXPAUitemDef_s@@PAW4qboolean@@PAPAD@Z 300d8cd0 f   ui_shared.obj
 0001:000d7d20       ?Script_ClearCvar@@YAXPAUitemDef_s@@PAW4qboolean@@PAPAD@Z 300d8d20 f   ui_shared.obj
 0001:000d7d60       ?Script_SetCvar@@YAXPAUitemDef_s@@PAW4qboolean@@PAPAD@Z 300d8d60 f   ui_shared.obj
 0001:000d7dd0       ?Script_CopyCvar@@YAXPAUitemDef_s@@PAW4qboolean@@PAPAD@Z 300d8dd0 f   ui_shared.obj
 0001:000d7e60       ?Script_Exec@@YAXPAUitemDef_s@@PAW4qboolean@@PAPAD@Z 300d8e60 f   ui_shared.obj
 0001:000d7ec0       ?Script_ExecNOW@@YAXPAUitemDef_s@@PAW4qboolean@@PAPAD@Z 300d8ec0 f   ui_shared.obj
 0001:000d7f20       ?Script_Play@@YAXPAUitemDef_s@@PAW4qboolean@@PAPAD@Z 300d8f20 f   ui_shared.obj
 0001:000d7f80       ?Script_playLooped@@YAXPAUitemDef_s@@PAW4qboolean@@PAPAD@Z 300d8f80 f   ui_shared.obj
 0001:000d7fe0       ?Script_AddListItem@@YAXPAUitemDef_s@@PAW4qboolean@@PAPAD@Z 300d8fe0 f   ui_shared.obj
 0001:000d80d0       ?Script_CheckAutoUpdate@@YAXPAUitemDef_s@@PAW4qboolean@@PAPAD@Z 300d90d0 f   ui_shared.obj
 0001:000d80e0       ?Script_GetAutoUpdate@@YAXPAUitemDef_s@@PAW4qboolean@@PAPAD@Z 300d90e0 f   ui_shared.obj
 0001:000d80f0       ?Script_SetMenuFocus@@YAXPAUitemDef_s@@PAW4qboolean@@PAPAD@Z 300d90f0 f   ui_shared.obj
 0001:000d8150       ?Script_ExecWolfConfig@@YAXPAUitemDef_s@@PAW4qboolean@@PAPAD@Z 300d9150 f   ui_shared.obj
 0001:000d82b0       ?Script_SetEditFocus@@YAXPAUitemDef_s@@PAW4qboolean@@PAPAD@Z 300d92b0 f   ui_shared.obj
 0001:000d83b0       ?Script_Abort@@YAXPAUitemDef_s@@PAW4qboolean@@PAPAD@Z 300d93b0 f   ui_shared.obj
 0001:000d83d0       ?ItemParse_name@@YA?AW4qboolean@@PAUitemDef_s@@H@Z 300d93d0 f   ui_shared.obj
 0001:000d8400       ?ItemParse_focusSound@@YA?AW4qboolean@@PAUitemDef_s@@H@Z 300d9400 f   ui_shared.obj
 0001:000d8460       ?ItemParse_text@@YA?AW4qboolean@@PAUitemDef_s@@H@Z 300d9460 f   ui_shared.obj
 0001:000d8490       ?ItemParse_textfile@@YA?AW4qboolean@@PAUitemDef_s@@H@Z 300d9490 f   ui_shared.obj
 0001:000d8500       ?ItemParse_group@@YA?AW4qboolean@@PAUitemDef_s@@H@Z 300d9500 f   ui_shared.obj
 0001:000d8530       ?ItemParse_asset_model@@YA?AW4qboolean@@PAUitemDef_s@@H@Z 300d9530 f   ui_shared.obj
 0001:000d85a0       ?ItemParse_asset_shader@@YA?AW4qboolean@@PAUitemDef_s@@H@Z 300d95a0 f   ui_shared.obj
 0001:000d8600       ?ItemParse_model_origin@@YA?AW4qboolean@@PAUitemDef_s@@H@Z 300d9600 f   ui_shared.obj
 0001:000d8670       ?ItemParse_model_fovx@@YA?AW4qboolean@@PAUitemDef_s@@H@Z 300d9670 f   ui_shared.obj
 0001:000d86b0       ?ItemParse_model_fovy@@YA?AW4qboolean@@PAUitemDef_s@@H@Z 300d96b0 f   ui_shared.obj
 0001:000d86f0       ?ItemParse_model_rotation@@YA?AW4qboolean@@PAUitemDef_s@@H@Z 300d96f0 f   ui_shared.obj
 0001:000d8730       ?ItemParse_model_angle@@YA?AW4qboolean@@PAUitemDef_s@@H@Z 300d9730 f   ui_shared.obj
 0001:000d8760       ?ItemParse_model_animplay@@YA?AW4qboolean@@PAUitemDef_s@@H@Z 300d9760 f   ui_shared.obj
 0001:000d8820       ?ItemParse_rect@@YA?AW4qboolean@@PAUitemDef_s@@H@Z 300d9820 f   ui_shared.obj
 0001:000d8840       ?ItemParse_origin@@YA?AW4qboolean@@PAUitemDef_s@@H@Z 300d9840 f   ui_shared.obj
 0001:000d88d0       ?ItemParse_style@@YA?AW4qboolean@@PAUitemDef_s@@H@Z 300d98d0 f   ui_shared.obj
 0001:000d8900       ?ItemParse_decoration@@YA?AW4qboolean@@PAUitemDef_s@@H@Z 300d9900 f   ui_shared.obj
 0001:000d8920       ?ItemParse_textasint@@YA?AW4qboolean@@PAUitemDef_s@@H@Z 300d9920 f   ui_shared.obj
 0001:000d8940       ?ItemParse_textasfloat@@YA?AW4qboolean@@PAUitemDef_s@@H@Z 300d9940 f   ui_shared.obj
 0001:000d8960       ?ItemParse_notselectable@@YA?AW4qboolean@@PAUitemDef_s@@H@Z 300d9960 f   ui_shared.obj
 0001:000d89b0       ?ItemParse_wrapped@@YA?AW4qboolean@@PAUitemDef_s@@H@Z 300d99b0 f   ui_shared.obj
 0001:000d89d0       ?ItemParse_autowrapped@@YA?AW4qboolean@@PAUitemDef_s@@H@Z 300d99d0 f   ui_shared.obj
 0001:000d89f0       ?ItemParse_horizontalscroll@@YA?AW4qboolean@@PAUitemDef_s@@H@Z 300d99f0 f   ui_shared.obj
 0001:000d8a10       ?ItemParse_type@@YA?AW4qboolean@@PAUitemDef_s@@H@Z 300d9a10 f   ui_shared.obj
 0001:000d8a50       ?ItemParse_elementwidth@@YA?AW4qboolean@@PAUitemDef_s@@H@Z 300d9a50 f   ui_shared.obj
 0001:000d8a90       ?ItemParse_elementheight@@YA?AW4qboolean@@PAUitemDef_s@@H@Z 300d9a90 f   ui_shared.obj
 0001:000d8ad0       ?ItemParse_feeder@@YA?AW4qboolean@@PAUitemDef_s@@H@Z 300d9ad0 f   ui_shared.obj
 0001:000d8b00       ?ItemParse_elementtype@@YA?AW4qboolean@@PAUitemDef_s@@H@Z 300d9b00 f   ui_shared.obj
 0001:000d8b50       ?ItemParse_columns@@YA?AW4qboolean@@PAUitemDef_s@@H@Z 300d9b50 f   ui_shared.obj
 0001:000d8c70       ?ItemParse_border@@YA?AW4qboolean@@PAUitemDef_s@@H@Z 300d9c70 f   ui_shared.obj
 0001:000d8ca0       ?ItemParse_bordersize@@YA?AW4qboolean@@PAUitemDef_s@@H@Z 300d9ca0 f   ui_shared.obj
 0001:000d8cd0       ?ItemParse_visible@@YA?AW4qboolean@@PAUitemDef_s@@H@Z 300d9cd0 f   ui_shared.obj
 0001:000d8d20       ?ItemParse_ownerdraw@@YA?AW4qboolean@@PAUitemDef_s@@H@Z 300d9d20 f   ui_shared.obj
 0001:000d8d60       ?ItemParse_align@@YA?AW4qboolean@@PAUitemDef_s@@H@Z 300d9d60 f   ui_shared.obj
 0001:000d8d90       ?ItemParse_textalign@@YA?AW4qboolean@@PAUitemDef_s@@H@Z 300d9d90 f   ui_shared.obj
 0001:000d8dc0       ?ItemParse_textalignx@@YA?AW4qboolean@@PAUitemDef_s@@H@Z 300d9dc0 f   ui_shared.obj
 0001:000d8df0       ?ItemParse_textaligny@@YA?AW4qboolean@@PAUitemDef_s@@H@Z 300d9df0 f   ui_shared.obj
 0001:000d8e20       ?ItemParse_textscale@@YA?AW4qboolean@@PAUitemDef_s@@H@Z 300d9e20 f   ui_shared.obj
 0001:000d8e50       ?ItemParse_textstyle@@YA?AW4qboolean@@PAUitemDef_s@@H@Z 300d9e50 f   ui_shared.obj
 0001:000d8e80       ?ItemParse_textfont@@YA?AW4qboolean@@PAUitemDef_s@@H@Z 300d9e80 f   ui_shared.obj
 0001:000d8eb0       ?ItemParse_backcolor@@YA?AW4qboolean@@PAUitemDef_s@@H@Z 300d9eb0 f   ui_shared.obj
 0001:000d8f20       ?ItemParse_forecolor@@YA?AW4qboolean@@PAUitemDef_s@@H@Z 300d9f20 f   ui_shared.obj
 0001:000d8f90       ?ItemParse_bordercolor@@YA?AW4qboolean@@PAUitemDef_s@@H@Z 300d9f90 f   ui_shared.obj
 0001:000d9000       ?ItemParse_outlinecolor@@YA?AW4qboolean@@PAUitemDef_s@@H@Z 300da000 f   ui_shared.obj
 0001:000d9030       ?ItemParse_background@@YA?AW4qboolean@@PAUitemDef_s@@H@Z 300da030 f   ui_shared.obj
 0001:000d9090       ?ItemParse_cinematic@@YA?AW4qboolean@@PAUitemDef_s@@H@Z 300da090 f   ui_shared.obj
 0001:000d90c0       ?ItemParse_doubleClick@@YA?AW4qboolean@@PAUitemDef_s@@H@Z 300da0c0 f   ui_shared.obj
 0001:000d9110       ?ItemParse_onEsc@@YA?AW4qboolean@@PAUitemDef_s@@H@Z 300da110 f   ui_shared.obj
 0001:000d9140       ?ItemParse_onEnter@@YA?AW4qboolean@@PAUitemDef_s@@H@Z 300da140 f   ui_shared.obj
 0001:000d9170       ?ItemParse_contextMenu@@YA?AW4qboolean@@PAUitemDef_s@@H@Z 300da170 f   ui_shared.obj
 0001:000d91c0       ?ItemParse_onFocus@@YA?AW4qboolean@@PAUitemDef_s@@H@Z 300da1c0 f   ui_shared.obj
 0001:000d91f0       ?ItemParse_leaveFocus@@YA?AW4qboolean@@PAUitemDef_s@@H@Z 300da1f0 f   ui_shared.obj
 0001:000d9220       ?ItemParse_mouseEnter@@YA?AW4qboolean@@PAUitemDef_s@@H@Z 300da220 f   ui_shared.obj
 0001:000d9250       ?ItemParse_mouseExit@@YA?AW4qboolean@@PAUitemDef_s@@H@Z 300da250 f   ui_shared.obj
 0001:000d9280       ?ItemParse_mouseEnterText@@YA?AW4qboolean@@PAUitemDef_s@@H@Z 300da280 f   ui_shared.obj
 0001:000d92b0       ?ItemParse_mouseExitText@@YA?AW4qboolean@@PAUitemDef_s@@H@Z 300da2b0 f   ui_shared.obj
 0001:000d92e0       ?ItemParse_action@@YA?AW4qboolean@@PAUitemDef_s@@H@Z 300da2e0 f   ui_shared.obj
 0001:000d9310       ?ItemParse_accept@@YA?AW4qboolean@@PAUitemDef_s@@H@Z 300da310 f   ui_shared.obj
 0001:000d9340       ?ItemParse_special@@YA?AW4qboolean@@PAUitemDef_s@@H@Z 300da340 f   ui_shared.obj
 0001:000d9370       ?ItemParse_cvarTest@@YA?AW4qboolean@@PAUitemDef_s@@H@Z 300da370 f   ui_shared.obj
 0001:000d93a0       ?ItemParse_cvar@@YA?AW4qboolean@@PAUitemDef_s@@H@Z 300da3a0 f   ui_shared.obj
 0001:000d9410       ?ItemParse_maxChars@@YA?AW4qboolean@@PAUitemDef_s@@H@Z 300da410 f   ui_shared.obj
 0001:000d9480       ?ItemParse_maxPaintChars@@YA?AW4qboolean@@PAUitemDef_s@@H@Z 300da480 f   ui_shared.obj
 0001:000d94f0       ?ItemParse_cvarFloat@@YA?AW4qboolean@@PAUitemDef_s@@H@Z 300da4f0 f   ui_shared.obj
 0001:000d9580       ?ItemParse_cvarStrList@@YA?AW4qboolean@@PAUitemDef_s@@H@Z 300da580 f   ui_shared.obj
 0001:000d96d0       ?ItemParse_cvarFloatList@@YA?AW4qboolean@@PAUitemDef_s@@H@Z 300da6d0 f   ui_shared.obj
 0001:000d9810       ?ItemParse_cvarListUndefined@@YA?AW4qboolean@@PAUitemDef_s@@H@Z 300da810 f   ui_shared.obj
 0001:000d9890       ?ItemParse_addColorRangeRel@@YA?AW4qboolean@@PAUitemDef_s@@H@Z 300da890 f   ui_shared.obj
 0001:000d98b0       ?ItemParse_addColorRange@@YA?AW4qboolean@@PAUitemDef_s@@H@Z 300da8b0 f   ui_shared.obj
 0001:000d98d0       ?ItemParse_ownerdrawFlag@@YA?AW4qboolean@@PAUitemDef_s@@H@Z 300da8d0 f   ui_shared.obj
 0001:000d9920       ?ItemParse_enableCvar@@YA?AW4qboolean@@PAUitemDef_s@@H@Z 300da920 f   ui_shared.obj
 0001:000d9970       ?ItemParse_disableCvar@@YA?AW4qboolean@@PAUitemDef_s@@H@Z 300da970 f   ui_shared.obj
 0001:000d99c0       ?ItemParse_noToggle@@YA?AW4qboolean@@PAUitemDef_s@@H@Z 300da9c0 f   ui_shared.obj
 0001:000d99e0       ?ItemParse_showCvar@@YA?AW4qboolean@@PAUitemDef_s@@H@Z 300da9e0 f   ui_shared.obj
 0001:000d9a30       ?ItemParse_hideCvar@@YA?AW4qboolean@@PAUitemDef_s@@H@Z 300daa30 f   ui_shared.obj
 0001:000d9a80       ?ItemParse_execKey@@YA?AW4qboolean@@PAUitemDef_s@@H@Z 300daa80 f   ui_shared.obj
 0001:000d9ae0       ?ItemParse_settingDisabled@@YA?AW4qboolean@@PAUitemDef_s@@H@Z 300daae0 f   ui_shared.obj
 0001:000d9b20       ?ItemParse_settingEnabled@@YA?AW4qboolean@@PAUitemDef_s@@H@Z 300dab20 f   ui_shared.obj
 0001:000d9b60       ?ItemParse_tooltip@@YA?AW4qboolean@@PAUitemDef_s@@H@Z 300dab60 f   ui_shared.obj
 0001:000d9bb0       ?ItemParse_tooltipalignx@@YA?AW4qboolean@@PAUitemDef_s@@H@Z 300dabb0 f   ui_shared.obj
 0001:000d9c00       ?ItemParse_tooltipaligny@@YA?AW4qboolean@@PAUitemDef_s@@H@Z 300dac00 f   ui_shared.obj
 0001:000d9c50       ?ItemParse_voteFlag@@YA?AW4qboolean@@PAUitemDef_s@@H@Z 300dac50 f   ui_shared.obj
 0001:000d9c70       ?MenuParse_name@@YA?AW4qboolean@@PAUitemDef_s@@H@Z 300dac70 f   ui_shared.obj
 0001:000d9cc0       ?MenuParse_fullscreen@@YA?AW4qboolean@@PAUitemDef_s@@H@Z 300dacc0 f   ui_shared.obj
 0001:000d9cf0       ?MenuParse_rect@@YA?AW4qboolean@@PAUitemDef_s@@H@Z 300dacf0 f   ui_shared.obj
 0001:000d9d10       ?MenuParse_style@@YA?AW4qboolean@@PAUitemDef_s@@H@Z 300dad10 f   ui_shared.obj
 0001:000d9d40       ?MenuParse_visible@@YA?AW4qboolean@@PAUitemDef_s@@H@Z 300dad40 f   ui_shared.obj
 0001:000d9d90       ?MenuParse_onOpen@@YA?AW4qboolean@@PAUitemDef_s@@H@Z 300dad90 f   ui_shared.obj
 0001:000d9dc0       ?MenuParse_onClose@@YA?AW4qboolean@@PAUitemDef_s@@H@Z 300dadc0 f   ui_shared.obj
 0001:000d9df0       ?MenuParse_onESC@@YA?AW4qboolean@@PAUitemDef_s@@H@Z 300dadf0 f   ui_shared.obj
 0001:000d9e20       ?MenuParse_onEnter@@YA?AW4qboolean@@PAUitemDef_s@@H@Z 300dae20 f   ui_shared.obj
 0001:000d9e50       ?MenuParse_onTimeout@@YA?AW4qboolean@@PAUitemDef_s@@H@Z 300dae50 f   ui_shared.obj
 0001:000d9ea0       ?MenuParse_border@@YA?AW4qboolean@@PAUitemDef_s@@H@Z 300daea0 f   ui_shared.obj
 0001:000d9ed0       ?MenuParse_borderSize@@YA?AW4qboolean@@PAUitemDef_s@@H@Z 300daed0 f   ui_shared.obj
 0001:000d9f00       ?MenuParse_backcolor@@YA?AW4qboolean@@PAUitemDef_s@@H@Z 300daf00 f   ui_shared.obj
 0001:000d9f60       ?MenuParse_forecolor@@YA?AW4qboolean@@PAUitemDef_s@@H@Z 300daf60 f   ui_shared.obj
 0001:000d9fd0       ?MenuParse_bordercolor@@YA?AW4qboolean@@PAUitemDef_s@@H@Z 300dafd0 f   ui_shared.obj
 0001:000da030       ?MenuParse_focuscolor@@YA?AW4qboolean@@PAUitemDef_s@@H@Z 300db030 f   ui_shared.obj
 0001:000da0a0       ?MenuParse_disablecolor@@YA?AW4qboolean@@PAUitemDef_s@@H@Z 300db0a0 f   ui_shared.obj
 0001:000da100       ?MenuParse_outlinecolor@@YA?AW4qboolean@@PAUitemDef_s@@H@Z 300db100 f   ui_shared.obj
 0001:000da130       ?MenuParse_background@@YA?AW4qboolean@@PAUitemDef_s@@H@Z 300db130 f   ui_shared.obj
 0001:000da190       ?MenuParse_cinematic@@YA?AW4qboolean@@PAUitemDef_s@@H@Z 300db190 f   ui_shared.obj
 0001:000da1c0       ?MenuParse_ownerdrawFlag@@YA?AW4qboolean@@PAUitemDef_s@@H@Z 300db1c0 f   ui_shared.obj
 0001:000da210       ?MenuParse_ownerdraw@@YA?AW4qboolean@@PAUitemDef_s@@H@Z 300db210 f   ui_shared.obj
 0001:000da240       ?MenuParse_popup@@YA?AW4qboolean@@PAUitemDef_s@@H@Z 300db240 f   ui_shared.obj
 0001:000da260       ?MenuParse_outOfBounds@@YA?AW4qboolean@@PAUitemDef_s@@H@Z 300db260 f   ui_shared.obj
 0001:000da280       ?MenuParse_soundLoop@@YA?AW4qboolean@@PAUitemDef_s@@H@Z 300db280 f   ui_shared.obj
 0001:000da2b0       ?MenuParse_fadeClamp@@YA?AW4qboolean@@PAUitemDef_s@@H@Z 300db2b0 f   ui_shared.obj
 0001:000da2e0       ?MenuParse_fadeAmount@@YA?AW4qboolean@@PAUitemDef_s@@H@Z 300db2e0 f   ui_shared.obj
 0001:000da310       ?MenuParse_fadeCycle@@YA?AW4qboolean@@PAUitemDef_s@@H@Z 300db310 f   ui_shared.obj
 0001:000da340       ?MenuParse_itemDef@@YA?AW4qboolean@@PAUitemDef_s@@H@Z 300db340 f   ui_shared.obj
 0001:000da460       ?MenuParse_execKey@@YA?AW4qboolean@@PAUitemDef_s@@H@Z 300db460 f   ui_shared.obj
 0001:000da4c0       ?MenuParse_execKeyInt@@YA?AW4qboolean@@PAUitemDef_s@@H@Z 300db4c0 f   ui_shared.obj
 0001:000da520       ?MenuParse_drawAlwaysOnTop@@YA?AW4qboolean@@PAUitemDef_s@@H@Z 300db520 f   ui_shared.obj
 0001:000da540       ?MenuParse_itemHotkeyMode@@YA?AW4qboolean@@PAUitemDef_s@@H@Z 300db540 f   ui_shared.obj
 0001:000da570       ?MenuParse_modal@@YA?AW4qboolean@@PAUitemDef_s@@H@Z 300db570 f   ui_shared.obj
 0001:000da590       ?AdjustFrom640@@YAXPAM000@Z 300db590 f   ui_shared.obj
 0001:000da610       ?BG_CursorInRect@@YA?AW4qboolean@@PAUrectDef_s@@@Z 300db610 f   ui_shared.obj
 0001:000da670       ?BG_FitTextToWidth_Ext@@YAXPADMMHPAUfontInfo_t@@@Z 300db670 f   ui_shared.obj
 0001:000da780       ?BG_PanelButton_EditClick@@YA?AW4qboolean@@PAUpanel_button_s@@H@Z 300db780 f   ui_shared.obj
 0001:000da9d0       ?BG_PanelButton_RenderEdit@@YAXPAUpanel_button_s@@@Z 300db9d0 f   ui_shared.obj
 0001:000dacc0       ?BG_PanelButtonsGetHighlightButton@@YAPAUpanel_button_s@@PAPAU1@@Z 300dbcc0 f   ui_shared.obj
 0001:000dad10       ?BG_PanelButtonsKeyEvent@@YA?AW4qboolean@@HW41@PAPAUpanel_button_s@@@Z 300dbd10 f   ui_shared.obj
 0001:000dae60       ?BG_PanelButtonsRender@@YAXPAPAUpanel_button_s@@@Z 300dbe60 f   ui_shared.obj
 0001:000daea0       ?BG_PanelButtonsRender_Img@@YAXPAUpanel_button_s@@@Z 300dbea0 f   ui_shared.obj
 0001:000daf60       ?BG_PanelButtonsRender_Text@@YAXPAUpanel_button_s@@@Z 300dbf60 f   ui_shared.obj
 0001:000daf80       ?BG_PanelButtonsRender_TextExt@@YAXPAUpanel_button_s@@PBD@Z 300dbf80 f   ui_shared.obj
 0001:000db150       ?BG_PanelButtonsSetup@@YAXPAPAUpanel_button_s@@@Z 300dc150 f   ui_shared.obj
 0001:000db190       ?BG_PanelButtons_GetFocusButton@@YAPAUpanel_button_s@@XZ 300dc190 f   ui_shared.obj
 0001:000db1a0       ?BG_PanelButtons_SetFocusButton@@YAXPAUpanel_button_s@@@Z 300dc1a0 f   ui_shared.obj
 0001:000db1b0       ?BG_RectContainsPoint@@YA?AW4qboolean@@MMMMMM@Z 300dc1b0 f   ui_shared.obj
 0001:000db200       ?BindingFromName@@YAPADPBD@Z 300dc200 f   ui_shared.obj
 0001:000db300       ?BindingIDFromName@@YAHPBD@Z 300dc300 f   ui_shared.obj
 0001:000db350       ?Color_Parse@@YA?AW4qboolean@@PAPADPAY03M@Z 300dc350 f   ui_shared.obj
 0001:000db3b0       ?Controls_GetConfig@@YAXXZ 300dc3b0 f   ui_shared.obj
 0001:000db400       ?Controls_SetConfig@@YAXW4qboolean@@@Z 300dc400 f   ui_shared.obj
 0001:000db4a0       ?Controls_SetDefaults@@YAXW4qboolean@@@Z 300dc4a0 f   ui_shared.obj
 0001:000db510       ?Display_CacheAll@@YAXXZ   300dc510 f   ui_shared.obj
 0001:000db550       ?Display_CaptureItem@@YAPAXHH@Z 300dc550 f   ui_shared.obj
 0001:000db630       ?Display_CursorType@@YAHHH@Z 300dc630 f   ui_shared.obj
 0001:000db730       ?Display_GetContext@@YAPAUdisplayContextDef_t@@XZ 300dc730 f   ui_shared.obj
 0001:000db740       ?Display_HandleKey@@YAXHW4qboolean@@HH@Z 300dc740 f   ui_shared.obj
 0001:000db780       ?Display_KeyBindPending@@YA?AW4qboolean@@XZ 300dc780 f   ui_shared.obj
 0001:000db790       ?Display_MouseMove@@YA?AW4qboolean@@PAXHH@Z 300dc790 f   ui_shared.obj
 0001:000db8d0       ?Display_VisibleMenuCount@@YAHXZ 300dc8d0 f   ui_shared.obj
 0001:000dba40       ?Fade@@YAXPAHPAMM0HW4qboolean@@M@Z 300dca40 f   ui_shared.obj
 0001:000dbad0       ?FileExists@@YA?AW4qboolean@@PAD@Z 300dcad0 f   ui_shared.obj
 0001:000dbb20       ?Float_Parse@@YA?AW4qboolean@@PAPADPAM@Z 300dcb20 f   ui_shared.obj
 0001:000dbb60       ?GradientBar_Paint@@YAXPAUrectDef_s@@QAM@Z 300dcb60 f   ui_shared.obj
 0001:000dbbc0       ?Init_Display@@YAXPAUdisplayContextDef_t@@@Z 300dcbc0 f   ui_shared.obj
 0001:000dbbd0       ?Int_Parse@@YA?AW4qboolean@@PAPADPAH@Z 300dcbd0 f   ui_shared.obj
 0001:000dbc10       ?IsVisible@@YA?AW4qboolean@@H@Z 300dcc10 f   ui_shared.obj
 0001:000dbc30       ?Item_Action@@YAXPAUitemDef_s@@@Z 300dcc30 f   ui_shared.obj
 0001:000dbc60       ?Item_Bind_HandleKey@@YA?AW4qboolean@@PAUitemDef_s@@HW41@@Z 300dcc60 f   ui_shared.obj
 0001:000dbf30       ?Item_Bind_Paint@@YAXPAUitemDef_s@@@Z 300dcf30 f   ui_shared.obj
 0001:000dc210       ?Item_CheckBox_HandleKey@@YA?AW4qboolean@@PAUitemDef_s@@H@Z 300dd210 f   ui_shared.obj
 0001:000dc380       ?Item_CheckBox_Paint@@YAXPAUitemDef_s@@@Z 300dd380 f   ui_shared.obj
 0001:000dc870       ?Item_EnableShowViaCvar@@YA?AW4qboolean@@PAUitemDef_s@@H@Z 300dd870 f   ui_shared.obj
 0001:000dc9e0       ?Item_HandleKey@@YA?AW4qboolean@@PAUitemDef_s@@HW41@@Z 300dd9e0 f   ui_shared.obj
 0001:000dcbd0       ?Item_Image_Paint@@YAXPAUitemDef_s@@@Z 300ddbd0 f   ui_shared.obj
 0001:000dcc60       ?Item_Init@@YAXPAUitemDef_s@@@Z 300ddc60 f   ui_shared.obj
 0001:000dccb0       ?Item_InitControls@@YAXPAUitemDef_s@@@Z 300ddcb0 f   ui_shared.obj
 0001:000dcd20       ?Item_ListBox_HandleKey@@YA?AW4qboolean@@PAUitemDef_s@@HW41@1@Z 300ddd20 f   ui_shared.obj
 0001:000dd370       ?Item_ListBox_MaxScroll@@YAHPAUitemDef_s@@@Z 300de370 f   ui_shared.obj
 0001:000dd400       ?Item_ListBox_MouseEnter@@YAXPAUitemDef_s@@MMW4qboolean@@@Z 300de400 f   ui_shared.obj
 0001:000dd620       ?Item_ListBox_OverLB@@YAHPAUitemDef_s@@MM@Z 300de620 f   ui_shared.obj
 0001:000ddb40       ?Item_ListBox_Paint@@YAXPAUitemDef_s@@@Z 300deb40 f   ui_shared.obj
 0001:000de7d0       ?Item_ListBox_ThumbDrawPosition@@YAHPAUitemDef_s@@@Z 300df7d0 f   ui_shared.obj
 0001:000de8f0       ?Item_ListBox_ThumbPosition@@YAHPAUitemDef_s@@@Z 300df8f0 f   ui_shared.obj
 0001:000dea00       ?Item_Model_Paint@@YAXPAUitemDef_s@@@Z 300dfa00 f   ui_shared.obj
 0001:000dee50       ?Item_MouseEnter@@YAXPAUitemDef_s@@MM@Z 300dfe50 f   ui_shared.obj
 0001:000df040       ?Item_MouseLeave@@YAXPAUitemDef_s@@@Z 300e0040 f   ui_shared.obj
 0001:000df0a0       ?Item_Multi_CountSettings@@YAHPAUitemDef_s@@@Z 300e00a0 f   ui_shared.obj
 0001:000df0c0       ?Item_Multi_FindCvarByValue@@YAHPAUitemDef_s@@@Z 300e00c0 f   ui_shared.obj
 0001:000df1d0       ?Item_Multi_HandleKey@@YA?AW4qboolean@@PAUitemDef_s@@H@Z 300e01d0 f   ui_shared.obj
 0001:000df390       ?Item_Multi_Paint@@YAXPAUitemDef_s@@@Z 300e0390 f   ui_shared.obj
 0001:000df5c0       ?Item_Multi_Setting@@YAPBDPAUitemDef_s@@@Z 300e05c0 f   ui_shared.obj
 0001:000df6f0       ?Item_OwnerDraw_HandleKey@@YA?AW4qboolean@@PAUitemDef_s@@H@Z 300e06f0 f   ui_shared.obj
 0001:000df740       ?Item_OwnerDraw_Paint@@YAXPAUitemDef_s@@@Z 300e0740 f   ui_shared.obj
 0001:000dfca0       ?Item_Paint@@YAXPAUitemDef_s@@@Z 300e0ca0 f   ui_shared.obj
 0001:000e0200       ?Item_Parse@@YA?AW4qboolean@@HPAUitemDef_s@@@Z 300e1200 f   ui_shared.obj
 0001:000e0330       ?Item_RunScript@@YAXPAUitemDef_s@@PAW4qboolean@@PBD@Z 300e1330 f   ui_shared.obj
 0001:000e04a0       ?Item_SetFocus@@YA?AW4qboolean@@PAUitemDef_s@@MM@Z 300e14a0 f   ui_shared.obj
 0001:000e06f0       ?Item_SetMouseOver@@YAXPAUitemDef_s@@W4qboolean@@@Z 300e16f0 f   ui_shared.obj
 0001:000e0720       ?Item_SetScreenCoords@@YAXPAUitemDef_s@@MM@Z 300e1720 f   ui_shared.obj
 0001:000e0810       ?Item_SetTextExtents@@YAXPAUitemDef_s@@PAH1PBD@Z 300e1810 f   ui_shared.obj
 0001:000e0ad0       ?Item_SettingShow@@YA?AW4qboolean@@PAUitemDef_s@@W41@@Z 300e1ad0 f   ui_shared.obj
 0001:000e0bc0       ?Item_SetupKeywordHash@@YAXXZ 300e1bc0 f   ui_shared.obj
 0001:000e0c20       ?Item_Slider_HandleKey@@YA?AW4qboolean@@PAUitemDef_s@@HW41@@Z 300e1c20 f   ui_shared.obj
 0001:000e0df0       ?Item_Slider_OverSlider@@YAHPAUitemDef_s@@MM@Z 300e1df0 f   ui_shared.obj
 0001:000e0e70       ?Item_Slider_Paint@@YAXPAUitemDef_s@@@Z 300e1e70 f   ui_shared.obj
 0001:000e1100       ?Item_Slider_ThumbPosition@@YAMPAUitemDef_s@@@Z 300e2100 f   ui_shared.obj
 0001:000e11e0       ?Item_StartCapture@@YAXPAUitemDef_s@@H@Z 300e21e0 f   ui_shared.obj
 0001:000e1430       ?Item_StopCapture@@YAXPAUitemDef_s@@@Z 300e2430 f   ui_shared.obj
 0001:000e1440       ?Item_TextColor@@YAXPAUitemDef_s@@PAY03M@Z 300e2440 f   ui_shared.obj
 0001:000e16c0       ?Item_TextField_HandleKey@@YA?AW4qboolean@@PAUitemDef_s@@H@Z 300e26c0 f   ui_shared.obj
 0001:000e1c70       ?Item_TextField_Paint@@YAXPAUitemDef_s@@@Z 300e2c70 f   ui_shared.obj
 0001:000e20a0       ?Item_Text_AutoWrapped_Paint@@YAXPAUitemDef_s@@@Z 300e30a0 f   ui_shared.obj
 0001:000e23a0       ?Item_Text_Paint@@YAXPAUitemDef_s@@@Z 300e33a0 f   ui_shared.obj
 0001:000e25f0       ?Item_Text_Wrapped_Paint@@YAXPAUitemDef_s@@@Z 300e35f0 f   ui_shared.obj
 0001:000e27f0       ?Item_UpdatePosition@@YAXPAUitemDef_s@@@Z 300e37f0 f   ui_shared.obj
 0001:000e2840       ?Item_ValidateTooltipData@@YA?AW4qboolean@@PAUitemDef_s@@@Z 300e3840 f   ui_shared.obj
 0001:000e28a0       ?Item_ValidateTypeData@@YAXPAUitemDef_s@@@Z 300e38a0 f   ui_shared.obj
 0001:000e29c0       ?Item_YesNo_HandleKey@@YA?AW4qboolean@@PAUitemDef_s@@H@Z 300e39c0 f   ui_shared.obj
 0001:000e2ac0       ?Item_YesNo_Paint@@YAXPAUitemDef_s@@@Z 300e3ac0 f   ui_shared.obj
 0001:000e2d90       ?KeywordHash_Add@@YAXQAPAUkeywordHash_s@@PAU1@@Z 300e3d90 f   ui_shared.obj
 0001:000e2dc0       ?KeywordHash_Find@@YAPAUkeywordHash_s@@QAPAU1@PAD@Z 300e3dc0 f   ui_shared.obj
 0001:000e2e20       ?KeywordHash_Key@@YAHPAD@Z 300e3e20 f   ui_shared.obj
 0001:000e2e80       ?LerpColor@@YAXQAM00M@Z    300e3e80 f   ui_shared.obj
 0001:000e3020       ?Menu_ClearFocus@@YAPAUitemDef_s@@PAUmenuDef_t@@@Z 300e4020 f   ui_shared.obj
 0001:000e3150       ?Menu_Count@@YAHXZ         300e4150 f   ui_shared.obj
 0001:000e3160       ?Menu_FadeItemByName@@YAXPAUmenuDef_t@@PBDW4qboolean@@@Z 300e4160 f   ui_shared.obj
 0001:000e3200       ?Menu_FadeMenuByName@@YAXPBDPAW4qboolean@@W41@@Z 300e4200 f   ui_shared.obj
 0001:000e3270       ?Menu_FindItemByName@@YAPAUitemDef_s@@PAUmenuDef_t@@PBD@Z 300e4270 f   ui_shared.obj
 0001:000e32e0       ?Menu_Get@@YAPAUmenuDef_t@@H@Z 300e42e0 f   ui_shared.obj
 0001:000e3310       ?Menu_GetFocused@@YAPAUmenuDef_t@@XZ 300e4310 f   ui_shared.obj
 0001:000e3360       ?Menu_GetFocusedItem@@YAPAUitemDef_s@@PAUmenuDef_t@@@Z 300e4360 f   ui_shared.obj
 0001:000e33b0       ?Menu_GetMatchingItemByNumber@@YAPAUitemDef_s@@PAUmenuDef_t@@HPBD@Z 300e43b0 f   ui_shared.obj
 0001:000e34d0       ?Menu_HandleKey@@YAXPAUmenuDef_t@@HW4qboolean@@@Z 300e44d0 f   ui_shared.obj
 0001:000e3be0       ?Menu_HandleMouseMove@@YAXPAUmenuDef_t@@MM@Z 300e4be0 f   ui_shared.obj
 0001:000e3ee0       ?Menu_HitTest@@YAPAUitemDef_s@@PAUmenuDef_t@@MM@Z 300e4ee0 f   ui_shared.obj
 0001:000e3f60       ?Menu_Init@@YAXPAUmenuDef_t@@@Z 300e4f60 f   ui_shared.obj
 0001:000e4000       ?Menu_ItemsMatchingGroup@@YAHPAUmenuDef_t@@PBD@Z 300e5000 f   ui_shared.obj
 0001:000e4100       ?Menu_New@@YAXH@Z          300e5100 f   ui_shared.obj
 0001:000e4160       ?Menu_OrbitItemByName@@YAXPAUmenuDef_t@@PBDMMMMH@Z 300e5160 f   ui_shared.obj
 0001:000e4340       ?Menu_Paint@@YAXPAUmenuDef_t@@W4qboolean@@@Z 300e5340 f   ui_shared.obj
 0001:000e45d0       ?Menu_PaintAll@@YAXXZ      300e55d0 f   ui_shared.obj
 0001:000e47a0       ?Menu_Parse@@YA?AW4qboolean@@HPAUmenuDef_t@@@Z 300e57a0 f   ui_shared.obj
 0001:000e4900       ?Menu_PostParse@@YAXPAUmenuDef_t@@@Z 300e5900 f   ui_shared.obj
 0001:000e4950       ?Menu_Reset@@YAXXZ         300e5950 f   ui_shared.obj
 0001:000e49b0       ?Menu_ScrollFeeder@@YAXPAUmenuDef_t@@HW4qboolean@@@Z 300e59b0 f   ui_shared.obj
 0001:000e4a30       ?Menu_SetFeederSelection@@YAXPAUmenuDef_t@@HHPBD@Z 300e5a30 f   ui_shared.obj
 0001:000e4b10       ?Menu_SetNextCursorItem@@YAPAUitemDef_s@@PAUmenuDef_t@@@Z 300e5b10 f   ui_shared.obj
 0001:000e4c50       ?Menu_SetPrevCursorItem@@YAPAUitemDef_s@@PAUmenuDef_t@@@Z 300e5c50 f   ui_shared.obj
 0001:000e4d80       ?Menu_SetupKeywordHash@@YAXXZ 300e5d80 f   ui_shared.obj
 0001:000e4de0       ?Menu_ShowItemByName@@YAXPAUmenuDef_t@@PBDW4qboolean@@@Z 300e5de0 f   ui_shared.obj
 0001:000e4e90       ?Menu_TransitionItemByName@@YAXPAUmenuDef_t@@PBDUrectDef_s@@2HM@Z 300e5e90 f   ui_shared.obj
 0001:000e4f60       ?Menu_UpdatePosition@@YAXPAUmenuDef_t@@@Z 300e5f60 f   ui_shared.obj
 0001:000e4fe0       ?Menus_Activate@@YAXPAUmenuDef_t@@@Z 300e5fe0 f   ui_shared.obj
 0001:000e50b0       ?Menus_ActivateByName@@YAPAUmenuDef_t@@PBDW4qboolean@@@Z 300e60b0 f   ui_shared.obj
 0001:000e5190       ?Menus_AnyFullScreenVisible@@YA?AW4qboolean@@XZ 300e6190 f   ui_shared.obj
 0001:000e51e0       ?Menus_CaptureFuncActive@@YA?AW4qboolean@@XZ 300e61e0 f   ui_shared.obj
 0001:000e51f0       ?Menus_CloseAll@@YAXXZ     300e61f0 f   ui_shared.obj
 0001:000e5240       ?Menus_CloseByName@@YAXPBD@Z 300e6240 f   ui_shared.obj
 0001:000e5320       ?Menus_FindByName@@YAPAUmenuDef_t@@PBD@Z 300e6320 f   ui_shared.obj
 0001:000e5380       ?Menus_HandleOOBClick@@YAXPAUmenuDef_t@@HW4qboolean@@@Z 300e6380 f   ui_shared.obj
 0001:000e54e0       ?Menus_OpenByName@@YAXPBD@Z 300e64e0 f   ui_shared.obj
 0001:000e5500       ?Menus_ShowByName@@YAXPBD@Z 300e6500 f   ui_shared.obj
 0001:000e5530       ?PC_Char_Parse@@YA?AW4qboolean@@HPAD@Z 300e6530 f   ui_shared.obj
 0001:000e5580       ?PC_Rect_Parse@@YA?AW4qboolean@@HPAUrectDef_s@@@Z 300e6580 f   ui_shared.obj
 0001:000e55f0       ?PC_Script_Parse@@YA?AW4qboolean@@HPAPBD@Z 300e65f0 f   ui_shared.obj
 0001:000e5740       ?PC_String_Parse_Trans@@YA?AW4qboolean@@HPAPBD@Z 300e6740 f   ui_shared.obj
 0001:000e57b0       ?ParseColorRange@@YA?AW4qboolean@@PAUitemDef_s@@HH@Z 300e67b0 f   ui_shared.obj
 0001:000e58b0       ?Rect_ContainsPoint@@YA?AW4qboolean@@PAUrectDef_s@@MM@Z 300e68b0 f   ui_shared.obj
 0001:000e5910       ?Rect_Parse@@YA?AW4qboolean@@PAPADPAUrectDef_s@@@Z 300e6910 f   ui_shared.obj
 0001:000e5980       ?Rect_ToWindowCoords@@YAXPAUrectDef_s@@PAUwindowDef_t@@@Z 300e6980 f   ui_shared.obj
 0001:000e59a0       ?Script_CheckProfile@@YA?AW4qboolean@@PAD@Z 300e69a0 f   ui_shared.obj
 0001:000e5a50       ?Script_WriteProfile@@YA?AW4qboolean@@PAD@Z 300e6a50 f   ui_shared.obj
 0001:000e5f50       ?String_Alloc@@YAPBDPBD@Z  300e6f50 f   ui_shared.obj
 0001:000e60c0       ?String_Init@@YAXXZ        300e70c0 f   ui_shared.obj
 0001:000e6120       ?String_Parse@@YA?AW4qboolean@@PAPADPAPBD@Z 300e7120 f   ui_shared.obj
 0001:000e6160       ?String_Report@@YAXXZ      300e7160 f   ui_shared.obj
 0001:000e6210       ?ToWindowCoords@@YAXPAM0PAUwindowDef_t@@@Z 300e7210 f   ui_shared.obj
 0001:000e6240       ?Tooltip_ComputePosition@@YAXPAUitemDef_s@@@Z 300e7240 f   ui_shared.obj
 0001:000e63c0       ?Tooltip_Initialize@@YAXPAUitemDef_s@@@Z 300e73c0 f   ui_shared.obj
 0001:000e64c0       ?UI_Alloc@@YAPAXH@Z        300e74c0 f   ui_shared.obj
 0001:000e6530       ?UI_InitMemory@@YAXXZ      300e7530 f   ui_shared.obj
 0001:000e6550       ?UI_OutOfMemory@@YA?AW4qboolean@@XZ 300e7550 f   ui_shared.obj
 0001:000e6610       ?Window_Init@@YAXPAUwindowDef_t@@@Z 300e7610 f   ui_shared.obj
 0001:000e6670       ?Window_Paint@@YAXPAUwindowDef_t@@MMM@Z 300e7670 f   ui_shared.obj
 0001:000e6c60       ??$_Resize_reallocate@U_Value_init_tag@std@@@?$vector@V?$basic_string@DU?$char_traits@D@std@@V?$allocator@D@2@@std@@V?$allocator@V?$basic_string@DU?$char_traits@D@std@@V?$allocator@D@2@@std@@@2@@std@@AAEXIABU_Value_init_tag@1@@Z 300e7c60 f i Engine1.obj
 0001:000e6e70       ??$_Uninitialized_value_construct_n@V?$allocator@V?$basic_string@DU?$char_traits@D@std@@V?$allocator@D@2@@std@@@std@@@std@@YAPAV?$basic_string@DU?$char_traits@D@std@@V?$allocator@D@2@@0@PAV10@IAAV?$allocator@V?$basic_string@DU?$char_traits@D@std@@V?$allocator@D@2@@std@@@0@@Z 300e7e70 f i Engine1.obj
 0001:000e6ed0       ??4?$basic_string@DU?$char_traits@D@std@@V?$allocator@D@2@@std@@QAEAAV01@QBD@Z 300e7ed0 f i Engine1.obj
 0001:000e7040       ?argc@Engine@@SAIXZ        300e8040 f   Engine1.obj
 0001:000e7050       ?argl@Engine@@SAIAAV?$basic_string@DU?$char_traits@D@std@@V?$allocator@D@2@@std@@@Z 300e8050 f   Engine1.obj
 0001:000e7090       ?args@Engine@@SAIAAV?$vector@V?$basic_string@DU?$char_traits@D@std@@V?$allocator@D@2@@std@@V?$allocator@V?$basic_string@DU?$char_traits@D@std@@V?$allocator@D@2@@std@@@2@@std@@@Z 300e8090 f   Engine1.obj
 0001:000e7340       ?argv@Engine@@SAIIAAV?$basic_string@DU?$char_traits@D@std@@V?$allocator@D@2@@std@@@Z 300e8340 f   Engine1.obj
 0001:000e7380       ?update@Cvar@cvar@@SAXXZ   300e8380 f   Cvar1.obj
 0001:000e73b0       ?cb_cl_maxpackets@cvar@@YAXAAVCvar@1@@Z 300e83b0 f   util4.obj
 0001:000e73c0       ?cb_cl_snaps@cvar@@YAXAAVCvar@1@@Z 300e83c0 f   util4.obj
 0001:000e73f0       ?cb_cl_timeNudge@cvar@@YAXAAVCvar@1@@Z 300e83f0 f   util4.obj
 0001:000e7430       ?cb_sv_fps@cvar@@YAXAAVCvar@1@@Z 300e8430 f   util4.obj
 0001:000e7460       ?beginCriticalSection@Process@@QAEXXZ 300e8460 f   cgameProcess.obj
 0001:000e7470       ?endCriticalSection@Process@@QAEXXZ 300e8470 f   cgameProcess.obj
 0001:000e7480       ?mstime@Process@@QAE_KXZ   300e8480 f   cgameProcess.obj
 0001:000e7510       ?signalInit@Process@@AAEXXZ 300e8510 f   cgameProcess.obj
 0001:000e7520       ?signalShutdown@Process@@AAEXXZ 300e8520 f   cgameProcess.obj
 0001:000e7523       _GetAdaptersInfo@8         300e8523 f   iphlpapi:IPHLPAPI.DLL
 0001:000e7530       ??0AbstractDevice@text@@IAE@III@Z 300e8530 f   base:AbstractDevice.obj
 0001:000e7560       ??1AbstractDevice@text@@UAE@XZ 300e8560 f   base:AbstractDevice.obj
 0001:000e7570       ??_EAbstractDevice@text@@UAEPAXI@Z 300e8570 f i base:AbstractDevice.obj
 0001:000e7570       ??_GAbstractDevice@text@@UAEPAXI@Z 300e8570 f i base:AbstractDevice.obj
 0001:000e75a0       ?format@AbstractDevice@text@@QAEIABVBuffer@2@AAV?$list@V?$basic_string@DU?$char_traits@D@std@@V?$allocator@D@2@@std@@V?$allocator@V?$basic_string@DU?$char_traits@D@std@@V?$allocator@D@2@@std@@@2@@std@@@Z 300e85a0 f   base:AbstractDevice.obj
 0001:000e7670       ??$_Construct_in_place_by_deref@PADPAPAD@std@@YAXAAPADAAPAPAD@Z 300e8670 f i base:ETDevice.obj
 0001:000e7690       ??$_Construct_in_place_by_deref@PAIPAPAI@std@@YAXAAPAIAAPAPAI@Z 300e8690 f i base:ETDevice.obj
 0001:000e76b0       ??$_Copy_memmove@PAPADPAPAD@std@@YAPAPADPAPAD00@Z 300e86b0 f i base:ETDevice.obj
 0001:000e76e0       ??$_Copy_memmove@PAPAIPAPAI@std@@YAPAPAIPAPAI00@Z 300e86e0 f i base:ETDevice.obj
 0001:000e7710       ??$_Copy_memmove_tail@PAPAD@std@@YAPAPADQBDQAPADII@Z 300e8710 f i base:ETDevice.obj
 0001:000e7740       ??$_Copy_memmove_tail@PAPAI@std@@YAPAPAIQBDQAPAIII@Z 300e8740 f i base:ETDevice.obj
 0001:000e7770       ??$_Uninitialized_copy_unchecked@PAPADPAPAD@std@@YAPAPADPAPADQAPAD0@Z 300e8770 f i base:ETDevice.obj
 0001:000e7780       ??$_Uninitialized_copy_unchecked@PAPAIPAPAI@std@@YAPAPAIPAPAIQAPAI0@Z 300e8780 f i base:ETDevice.obj
 0001:000e7790       ??$_Uninitialized_value_construct_n_unchecked1@PAPADI@std@@YAPAPADPAPADI@Z 300e8790 f i base:ETDevice.obj
 0001:000e77b0       ??$_Uninitialized_value_construct_n_unchecked1@PAPAII@std@@YAPAPAIPAPAII@Z 300e87b0 f i base:ETDevice.obj
 0001:000e77d0       ??$_Zero_range@PAPAD@std@@YAPAPADQAPAD0@Z 300e87d0 f i base:ETDevice.obj
 0001:000e7800       ??$_Zero_range@PAPAI@std@@YAPAPAIQAPAI0@Z 300e8800 f i base:ETDevice.obj
 0001:000e7830       ??$uninitialized_copy@PAPADPAPAD@std@@YAPAPADQAPAD0PAPAD@Z 300e8830 f i base:ETDevice.obj
 0001:000e7840       ??$uninitialized_copy@PAPAIPAPAI@std@@YAPAPAIQAPAI0PAPAI@Z 300e8840 f i base:ETDevice.obj
 0001:000e7850       ??0ETDevice@text@@QAE@III@Z 300e8850 f   base:ETDevice.obj
 0001:000e78b0       ??1?$_Alloc_construct_ptr@V?$allocator@U?$_List_node@V?$basic_string@DU?$char_traits@D@std@@V?$allocator@D@2@@std@@PAX@std@@@std@@@std@@QAE@XZ 300e88b0 f i base:ETDevice.obj
 0001:000e78d0       ??1?$deque@DV?$allocator@D@std@@@std@@QAE@XZ 300e88d0 f i base:ETDevice.obj
 0001:000e79a0       ??1?$deque@IV?$allocator@I@std@@@std@@QAE@XZ 300e89a0 f i base:ETDevice.obj
 0001:000e7a70       ??1?$stack@DV?$deque@DV?$allocator@D@std@@@std@@@std@@QAE@XZ 300e8a70 f i base:ETDevice.obj
 0001:000e7a80       ??1?$stack@IV?$deque@IV?$allocator@I@std@@@std@@@std@@QAE@XZ 300e8a80 f i base:ETDevice.obj
 0001:000e7a90       ??1ETDevice@text@@UAE@XZ   300e8a90 f   base:ETDevice.obj
 0001:000e7aa0       ??_EETDevice@text@@UAEPAXI@Z 300e8aa0 f i base:ETDevice.obj
 0001:000e7aa0       ??_GETDevice@text@@UAEPAXI@Z 300e8aa0 f i base:ETDevice.obj
 0001:000e7ad0       ?_Growmap@?$deque@DV?$allocator@D@std@@@std@@AAEXI@Z 300e8ad0 f i base:ETDevice.obj
 0001:000e7c90       ?_Growmap@?$deque@IV?$allocator@I@std@@@std@@AAEXI@Z 300e8c90 f i base:ETDevice.obj
 0001:000e7e50       ?_Xlen@?$deque@DV?$allocator@D@std@@@std@@CAXXZ 300e8e50 f i base:ETDevice.obj
 0001:000e7e60       ?_Xlen@?$deque@IV?$allocator@I@std@@@std@@CAXXZ 300e8e60 f i base:ETDevice.obj
 0001:000e7e70       ?doFormat@ETDevice@text@@MAEXABVBuffer@2@AAV?$list@V?$basic_string@DU?$char_traits@D@std@@V?$allocator@D@2@@std@@V?$allocator@V?$basic_string@DU?$char_traits@D@std@@V?$allocator@D@2@@std@@@2@@std@@@Z 300e8e70 f   base:ETDevice.obj
 0001:000e9470       ?push@?$stack@IV?$deque@IV?$allocator@I@std@@@std@@@std@@QAEXABI@Z 300ea470 f i base:ETDevice.obj
 0001:000e9530       ?push_back@?$list@V?$basic_string@DU?$char_traits@D@std@@V?$allocator@D@2@@std@@V?$allocator@V?$basic_string@DU?$char_traits@D@std@@V?$allocator@D@2@@std@@@2@@std@@QAEXABV?$basic_string@DU?$char_traits@D@std@@V?$allocator@D@2@@2@@Z 300ea530 f i base:ETDevice.obj
 0001:000e96d0       ??$?6U?$char_traits@D@std@@@std@@YAAAV?$basic_ostream@DU?$char_traits@D@std@@@0@AAV10@E@Z 300ea6d0 f i base:InlineText.obj
 0001:000e96e0       ??0InlineText@text@@QAE@ABV01@@Z 300ea6e0 f   base:InlineText.obj
 0001:000e9890       ??0InlineText@text@@QAE@ABV?$basic_string@DU?$char_traits@D@std@@V?$allocator@D@2@@std@@@Z 300ea890 f   base:InlineText.obj
 0001:000e9a40       ??0InlineText@text@@QAE@ABVColorManipulator@1@@Z 300eaa40 f   base:InlineText.obj
 0001:000e9ba0       ??0InlineText@text@@QAE@D@Z 300eaba0 f   base:InlineText.obj
 0001:000e9d50       ??0InlineText@text@@QAE@E@Z 300ead50 f   base:InlineText.obj
 0001:000e9f00       ??0InlineText@text@@QAE@F@Z 300eaf00 f   base:InlineText.obj
 0001:000ea0b0       ??0InlineText@text@@QAE@G@Z 300eb0b0 f   base:InlineText.obj
 0001:000ea260       ??0InlineText@text@@QAE@H@Z 300eb260 f   base:InlineText.obj
 0001:000ea410       ??0InlineText@text@@QAE@I@Z 300eb410 f   base:InlineText.obj
 0001:000ea5c0       ??0InlineText@text@@QAE@M@Z 300eb5c0 f   base:InlineText.obj
 0001:000ea780       ??0InlineText@text@@QAE@N@Z 300eb780 f   base:InlineText.obj
 0001:000ea940       ??0InlineText@text@@QAE@PBD@Z 300eb940 f   base:InlineText.obj
 0001:000eaaf0       ??0InlineText@text@@QAE@PBX@Z 300ebaf0 f   base:InlineText.obj
 0001:000eaca0       ??0InlineText@text@@QAE@XZ 300ebca0 f   base:InlineText.obj
 0001:000eae00       ??0InlineText@text@@QAE@_J@Z 300ebe00 f   base:InlineText.obj
 0001:000eafb0       ??0InlineText@text@@QAE@_K@Z 300ebfb0 f   base:InlineText.obj
 0001:000eb160       ??0InlineText@text@@QAE@_N@Z 300ec160 f   base:InlineText.obj
 0001:000eb310       ??0InlineVec3@text@@QAE@ABV01@@Z 300ec310 f   base:InlineText.obj
 0001:000eb380       ??0InlineVec3@text@@QAE@PBM@Z 300ec380 f   base:InlineText.obj
 0001:000eb450       ??0InlineVec3@text@@QAE@XZ 300ec450 f   base:InlineText.obj
 0001:000eb510       ??1InlineText@text@@QAE@XZ 300ec510 f   base:InlineText.obj
 0001:000eb750       ??1InlineVec3@text@@QAE@XZ 300ec750 f   base:InlineText.obj
 0001:000eb760       ??4InlineText@text@@QAEAAV01@ABV01@@Z 300ec760 f   base:InlineText.obj
 0001:000eb8c0       ??6?$basic_ostream@DU?$char_traits@D@std@@@std@@QAEAAV01@F@Z 300ec8c0 f i base:InlineText.obj
 0001:000ebb10       ??6?$basic_ostream@DU?$char_traits@D@std@@@std@@QAEAAV01@G@Z 300ecb10 f i base:InlineText.obj
 0001:000ebd40       ??6?$basic_ostream@DU?$char_traits@D@std@@@std@@QAEAAV01@PBX@Z 300ecd40 f i base:InlineText.obj
 0001:000ebf60       ??6?$basic_ostream@DU?$char_traits@D@std@@@std@@QAEAAV01@_J@Z 300ecf60 f i base:InlineText.obj
 0001:000ec190       ??6?$basic_ostream@DU?$char_traits@D@std@@@std@@QAEAAV01@_K@Z 300ed190 f i base:InlineText.obj
 0001:000ec3c0       ??6?$basic_ostream@DU?$char_traits@D@std@@@std@@QAEAAV01@_N@Z 300ed3c0 f i base:InlineText.obj
 0001:000ec5e0       ??RInlineText@text@@QAEAAV01@ABV?$basic_string@DU?$char_traits@D@std@@V?$allocator@D@2@@std@@@Z 300ed5e0 f   base:InlineText.obj
 0001:000ec600       ??RInlineText@text@@QAEAAV01@D@Z 300ed600 f   base:InlineText.obj
 0001:000ec710       ??RInlineText@text@@QAEAAV01@E@Z 300ed710 f   base:InlineText.obj
 0001:000ec820       ??RInlineText@text@@QAEAAV01@F@Z 300ed820 f   base:InlineText.obj
 0001:000ec920       ??RInlineText@text@@QAEAAV01@G@Z 300ed920 f   base:InlineText.obj
 0001:000eca20       ??RInlineText@text@@QAEAAV01@H@Z 300eda20 f   base:InlineText.obj
 0001:000ecb20       ??RInlineText@text@@QAEAAV01@I@Z 300edb20 f   base:InlineText.obj
 0001:000ecc20       ??RInlineText@text@@QAEAAV01@M@Z 300edc20 f   base:InlineText.obj
 0001:000ecd80       ??RInlineText@text@@QAEAAV01@N@Z 300edd80 f   base:InlineText.obj
 0001:000ecee0       ??RInlineText@text@@QAEAAV01@PBD@Z 300edee0 f   base:InlineText.obj
 0001:000ecfe0       ??RInlineText@text@@QAEAAV01@PBX@Z 300edfe0 f   base:InlineText.obj
 0001:000ed0f0       ??RInlineText@text@@QAEAAV01@_J@Z 300ee0f0 f   base:InlineText.obj
 0001:000ed200       ??RInlineText@text@@QAEAAV01@_K@Z 300ee200 f   base:InlineText.obj
 0001:000ed310       ??RInlineText@text@@QAEAAV01@_N@Z 300ee310 f   base:InlineText.obj
 0001:000ed410       ??RInlineVec3@text@@QAEAAV01@PBM@Z 300ee410 f   base:InlineText.obj
 0001:000ed690       ??_EColorManipulator@text@@UAEPAXI@Z 300ee690 f i base:InlineText.obj
 0001:000ed690       ??_GColorManipulator@text@@UAEPAXI@Z 300ee690 f i base:InlineText.obj
 0001:000ed6c0       ??_EManipulator@text@@UAEPAXI@Z 300ee6c0 f i base:InlineText.obj
 0001:000ed6c0       ??_GManipulator@text@@UAEPAXI@Z 300ee6c0 f i base:InlineText.obj
 0001:000ed6f0       ?_Makestr@_System_error@std@@CA?AV?$basic_string@DU?$char_traits@D@std@@V?$allocator@D@2@@2@Verror_code@2@V32@@Z 300ee6f0 f i base:InlineText.obj
 0001:000ed8b0       ?compute@InlineText@text@@AAEXABV?$basic_string@DU?$char_traits@D@std@@V?$allocator@D@2@@std@@@Z 300ee8b0 f   base:InlineText.obj
 0001:000edbc0       ??$_Copy_memmove@PAPAVBuffer@text@@PAPAV12@@std@@YAPAPAVBuffer@text@@PAPAV12@00@Z 300eebc0 f i base:Buffer.obj
 0001:000edbf0       ??$_Copy_memmove_tail@PAPAVBuffer@text@@@std@@YAPAPAVBuffer@text@@QBDQAPAV12@II@Z 300eebf0 f i base:Buffer.obj
 0001:000edc20       ??$_Emplace_reallocate@PAVBuffer@text@@@?$vector@PAVBuffer@text@@V?$allocator@PAVBuffer@text@@@std@@@std@@AAEPAPAVBuffer@text@@QAPAV23@$$QAPAV23@@Z 300eec20 f i base:Buffer.obj
 0001:000eddc0       ??0Buffer@text@@QAE@ABVColorManipulator@1@@Z 300eedc0 f   base:Buffer.obj
 0001:000ede30       ??0Buffer@text@@QAE@PBEIABVColorManipulator@1@@Z 300eee30 f   base:Buffer.obj
 0001:000edea0       ??1Buffer@text@@QAE@XZ     300eeea0 f   base:Buffer.obj
 0001:000edeb0       ??6Buffer@text@@QAEAAV01@ABV01@@Z 300eeeb0 f   base:Buffer.obj
 0001:000edf60       ??6Buffer@text@@QAEAAV01@ABVManipulator@1@@Z 300eef60 f   base:Buffer.obj
 0001:000edf80       ??6Buffer@text@@QAEAAV01@D@Z 300eef80 f   base:Buffer.obj
 0001:000ee070       ??6Buffer@text@@QAEAAV01@H@Z 300ef070 f   base:Buffer.obj
 0001:000ee200       ??6Buffer@text@@QAEAAV01@PBD@Z 300ef200 f   base:Buffer.obj
 0001:000ee300       ??6Buffer@text@@QAEAAV01@V?$basic_string@DU?$char_traits@D@std@@V?$allocator@D@2@@std@@@Z 300ef300 f   base:Buffer.obj
 0001:000ee3a0       ??6Buffer@text@@QAEAAV01@VInlineText@1@@Z 300ef3a0 f   base:Buffer.obj
 0001:000ee480       ?_Xlength@?$vector@PAVBuffer@text@@V?$allocator@PAVBuffer@text@@@std@@@std@@CAXXZ 300ef480 f i base:Buffer.obj
 0001:000ee490       ?append@?$basic_string@DU?$char_traits@D@std@@V?$allocator@D@2@@std@@QAEAAV12@QBD@Z 300ef490 f i base:Buffer.obj
 0001:000ee520       ?append@Buffer@text@@AAEXABV?$basic_string@DU?$char_traits@D@std@@V?$allocator@D@2@@std@@@Z 300ef520 f   base:Buffer.obj
 0001:000ee6f0       ?append@Buffer@text@@AAEXE@Z 300ef6f0 f   base:Buffer.obj
 0001:000ee780       ?assign@?$basic_string@DU?$char_traits@D@std@@V?$allocator@D@2@@std@@QAEAAV12@QBDI@Z 300ef780 f i base:Buffer.obj
 0001:000ee8e0       ?dump@Buffer@text@@QAEXXZ  300ef8e0 f   base:Buffer.obj
 0001:000eeb80       ?noshowbase@std@@YAAAVios_base@1@AAV21@@Z 300efb80 f i base:Buffer.obj
 0001:000eeb90       ?reset@Buffer@text@@QAEXABVColorManipulator@2@@Z 300efb90 f   base:Buffer.obj
 0001:000eebb0       ?toCommands@Buffer@text@@QBEXABV?$basic_string@DU?$char_traits@D@std@@V?$allocator@D@2@@std@@AAV?$list@V?$basic_string@DU?$char_traits@D@std@@V?$allocator@D@2@@std@@V?$allocator@V?$basic_string@DU?$char_traits@D@std@@V?$allocator@D@2@@std@@@2@@4@H@Z 300efbb0 f   base:Buffer.obj
 0001:000eef60       ?toReport@Buffer@text@@QBE_NAAV?$vector@PAVBuffer@text@@V?$allocator@PAVBuffer@text@@@std@@@std@@II@Z 300eff60 f   base:Buffer.obj
 0001:000ef200       ?decode@base64@@YAHPBEPAEI@Z 300f0200 f   base:baseUtil.obj
 0001:000ef430       ?encode@base64@@YAHPBEIPADI@Z 300f0430 f   base:baseUtil.obj
 0001:000ef5f0       ??0ColorManipulator@text@@QAE@E@Z 300f05f0 f   base:Manipulator.obj
 0001:000ef620       ??0Manipulator@text@@QAE@E@Z 300f0620 f   base:Manipulator.obj
 0001:000ef640       ??1ColorManipulator@text@@UAE@XZ 300f0640 f   base:Manipulator.obj
 0001:000ef650       ??1Manipulator@text@@UAE@XZ 300f0650 f   base:Manipulator.obj
 0001:000ef660       ??4ColorManipulator@text@@QAEAAV01@ABV01@@Z 300f0660 f   base:Manipulator.obj
 0001:000ef676       _GetSystemInfo@4           300f0676 f   kernel32:KERNEL32.dll
 0001:000ef67c       _GetSystemTimeAsFileTime@4 300f067c f   kernel32:KERNEL32.dll
 0001:000ef682       ??0_Init_locks@std@@QAE@XZ 300f0682 f   libcpmt:xlock.obj
 0001:000ef6ba       ??0_Lockit@std@@QAE@H@Z    300f06ba f   libcpmt:xlock.obj
 0001:000ef6f7       ??0_Lockit@std@@QAE@XZ     300f06f7 f   libcpmt:xlock.obj
 0001:000ef70d       ??1_Init_locks@std@@QAE@XZ 300f070d f   libcpmt:xlock.obj
 0001:000ef73d       ??1_Lockit@std@@QAE@XZ     300f073d f   libcpmt:xlock.obj
 0001:000ef763       ?_Init_locks_ctor@_Init_locks@std@@CAXPAV12@@Z 300f0763 f   libcpmt:xlock.obj
 0001:000ef793       ?_Init_locks_dtor@_Init_locks@std@@CAXPAV12@@Z 300f0793 f   libcpmt:xlock.obj
 0001:000ef7c3       ?_Lockit_ctor@_Lockit@std@@CAXPAV12@@Z 300f07c3 f   libcpmt:xlock.obj
 0001:000ef7d2       ?_Lockit_ctor@_Lockit@std@@CAXPAV12@H@Z 300f07d2 f   libcpmt:xlock.obj
 0001:000ef805       ?_Lockit_ctor@_Lockit@std@@SAXH@Z 300f0805 f   libcpmt:xlock.obj
 0001:000ef832       ?_Lockit_dtor@_Lockit@std@@CAXPAV12@@Z 300f0832 f   libcpmt:xlock.obj
 0001:000ef84e       ?_Lockit_dtor@_Lockit@std@@SAXH@Z 300f084e f   libcpmt:xlock.obj
 0001:00121740       ___std_adjacent_find_1@8   30122740 f   libcpmt:vector_algorithms.obj
 0001:00121750       ___std_adjacent_find_2@8   30122750 f   libcpmt:vector_algorithms.obj
 0001:00121760       ___std_adjacent_find_4@8   30122760 f   libcpmt:vector_algorithms.obj
 0001:00121770       ___std_adjacent_find_8@8   30122770 f   libcpmt:vector_algorithms.obj
 0001:00121780       ___std_bitset_from_string_1@28 30122780 f   libcpmt:vector_algorithms.obj
 0001:001218c0       ___std_bitset_from_string_2@28 301228c0 f   libcpmt:vector_algorithms.obj
 0001:00121a10       ___std_bitset_to_string_1@20 30122a10 f   libcpmt:vector_algorithms.obj
 0001:00121a20       ___std_bitset_to_string_2@20 30122a20 f   libcpmt:vector_algorithms.obj
 0001:00121a30       ___std_count_trivial_1@12  30122a30 f   libcpmt:vector_algorithms.obj
 0001:00121a40       ___std_count_trivial_2@12  30122a40 f   libcpmt:vector_algorithms.obj
 0001:00121a50       ___std_count_trivial_4@12  30122a50 f   libcpmt:vector_algorithms.obj
 0001:00121a60       ___std_count_trivial_8@16  30122a60 f   libcpmt:vector_algorithms.obj
 0001:00121a80       ___std_find_end_1@16       30122a80 f   libcpmt:vector_algorithms.obj
 0001:00121a90       ___std_find_end_2@16       30122a90 f   libcpmt:vector_algorithms.obj
 0001:00121aa0       ___std_find_end_4@16       30122aa0 f   libcpmt:vector_algorithms.obj
 0001:00121bc0       ___std_find_end_8@16       30122bc0 f   libcpmt:vector_algorithms.obj
 0001:00121d00       ___std_find_first_not_of_trivial_pos_1@16 30122d00 f   libcpmt:vector_algorithms.obj
 0001:00121dc0       ___std_find_first_not_of_trivial_pos_2@16 30122dc0 f   libcpmt:vector_algorithms.obj
 0001:00121dd0       ___std_find_first_of_trivial_1@16 30122dd0 f   libcpmt:vector_algorithms.obj
 0001:00121e50       ___std_find_first_of_trivial_2@16 30122e50 f   libcpmt:vector_algorithms.obj
 0001:00121ee0       ___std_find_first_of_trivial_4@16 30122ee0 f   libcpmt:vector_algorithms.obj
 0001:00121f70       ___std_find_first_of_trivial_8@16 30122f70 f   libcpmt:vector_algorithms.obj
 0001:00121fd0       ___std_find_first_of_trivial_pos_1@16 30122fd0 f   libcpmt:vector_algorithms.obj
 0001:00122090       ___std_find_first_of_trivial_pos_2@16 30123090 f   libcpmt:vector_algorithms.obj
 0001:001220a0       ___std_find_first_of_trivial_pos_4@16 301230a0 f   libcpmt:vector_algorithms.obj
 0001:001220b0       ___std_find_first_of_trivial_pos_8@16 301230b0 f   libcpmt:vector_algorithms.obj
 0001:00122200       ___std_find_last_not_ch_pos_1@12 30123200 f   libcpmt:vector_algorithms.obj
 0001:00122230       ___std_find_last_not_ch_pos_2@12 30123230 f   libcpmt:vector_algorithms.obj
 0001:00122260       ___std_find_last_not_ch_pos_4@12 30123260 f   libcpmt:vector_algorithms.obj
 0001:00122290       ___std_find_last_not_ch_pos_8@16 30123290 f   libcpmt:vector_algorithms.obj
 0001:001222d0       ___std_find_last_not_of_trivial_pos_1@16 301232d0 f   libcpmt:vector_algorithms.obj
 0001:001222e0       ___std_find_last_not_of_trivial_pos_2@16 301232e0 f   libcpmt:vector_algorithms.obj
 0001:001222f0       ___std_find_last_of_trivial_pos_1@16 301232f0 f   libcpmt:vector_algorithms.obj
 0001:00122300       ___std_find_last_of_trivial_pos_2@16 30123300 f   libcpmt:vector_algorithms.obj
 0001:00122310       ___std_find_last_trivial_1@12 30123310 f   libcpmt:vector_algorithms.obj
 0001:00122320       ___std_find_last_trivial_2@12 30123320 f   libcpmt:vector_algorithms.obj
 0001:00122330       ___std_find_last_trivial_4@12 30123330 f   libcpmt:vector_algorithms.obj
 0001:00122340       ___std_find_last_trivial_8@16 30123340 f   libcpmt:vector_algorithms.obj
 0001:00122360       ___std_find_not_ch_1@12    30123360 f   libcpmt:vector_algorithms.obj
 0001:00122370       ___std_find_not_ch_2@12    30123370 f   libcpmt:vector_algorithms.obj
 0001:00122380       ___std_find_not_ch_4@12    30123380 f   libcpmt:vector_algorithms.obj
 0001:00122390       ___std_find_not_ch_8@16    30123390 f   libcpmt:vector_algorithms.obj
 0001:001223b0       ___std_find_trivial_1@12   301233b0 f   libcpmt:vector_algorithms.obj
 0001:001223c0       ___std_find_trivial_2@12   301233c0 f   libcpmt:vector_algorithms.obj
 0001:001223d0       ___std_find_trivial_4@12   301233d0 f   libcpmt:vector_algorithms.obj
 0001:001223e0       ___std_find_trivial_8@16   301233e0 f   libcpmt:vector_algorithms.obj
 0001:00122400       ___std_find_trivial_unsized_1@8 30123400 f   libcpmt:vector_algorithms.obj
 0001:00122420       ___std_find_trivial_unsized_2@8 30123420 f   libcpmt:vector_algorithms.obj
 0001:00122450       ___std_find_trivial_unsized_4@8 30123450 f   libcpmt:vector_algorithms.obj
 0001:00122480       ___std_find_trivial_unsized_8@12 30123480 f   libcpmt:vector_algorithms.obj
 0001:001224b0       ___std_is_sorted_until_1i@12 301234b0 f   libcpmt:vector_algorithms.obj
 0001:001224c0       ___std_is_sorted_until_1u@12 301234c0 f   libcpmt:vector_algorithms.obj
 0001:001225e0       ___std_is_sorted_until_2i@12 301235e0 f   libcpmt:vector_algorithms.obj
 0001:001225f0       ___std_is_sorted_until_2u@12 301235f0 f   libcpmt:vector_algorithms.obj
 0001:00122600       ___std_is_sorted_until_4i@12 30123600 f   libcpmt:vector_algorithms.obj
 0001:00122610       ___std_is_sorted_until_4u@12 30123610 f   libcpmt:vector_algorithms.obj
 0001:00122620       ___std_is_sorted_until_8i@12 30123620 f   libcpmt:vector_algorithms.obj
 0001:00122630       ___std_is_sorted_until_8u@12 30123630 f   libcpmt:vector_algorithms.obj
 0001:00122640       ___std_is_sorted_until_d@12 30123640 f   libcpmt:vector_algorithms.obj
 0001:00122650       ___std_is_sorted_until_f@12 30123650 f   libcpmt:vector_algorithms.obj
 0001:00122660       ___std_max_1i@8            30123660 f   libcpmt:vector_algorithms.obj
 0001:001227d0       ___std_max_1u@8            301237d0 f   libcpmt:vector_algorithms.obj
 0001:001227e0       ___std_max_2i@8            301237e0 f   libcpmt:vector_algorithms.obj
 0001:00122930       ___std_max_2u@8            30123930 f   libcpmt:vector_algorithms.obj
 0001:00122940       ___std_max_4i@8            30123940 f   libcpmt:vector_algorithms.obj
 0001:00122950       ___std_max_4u@8            30123950 f   libcpmt:vector_algorithms.obj
 0001:00122960       ___std_max_8i@8            30123960 f   libcpmt:vector_algorithms.obj
 0001:00122970       ___std_max_8u@8            30123970 f   libcpmt:vector_algorithms.obj
 0001:00122ac0       ___std_max_d@8             30123ac0 f   libcpmt:vector_algorithms.obj
 0001:00122ad0       ___std_max_element_1@12    30123ad0 f   libcpmt:vector_algorithms.obj
 0001:00122b70       ___std_max_element_2@12    30123b70 f   libcpmt:vector_algorithms.obj
 0001:00122c10       ___std_max_element_4@12    30123c10 f   libcpmt:vector_algorithms.obj
 0001:00122cf0       ___std_max_element_8@12    30123cf0 f   libcpmt:vector_algorithms.obj
 0001:00122da0       ___std_max_element_d@12    30123da0 f   libcpmt:vector_algorithms.obj
 0001:00122e40       ___std_max_element_f@12    30123e40 f   libcpmt:vector_algorithms.obj
 0001:00122ee0       ___std_max_f@8             30123ee0 f   libcpmt:vector_algorithms.obj
 0001:00122ef0       ___std_min_1i@8            30123ef0 f   libcpmt:vector_algorithms.obj
 0001:00123060       ___std_min_1u@8            30124060 f   libcpmt:vector_algorithms.obj
 0001:00123070       ___std_min_2i@8            30124070 f   libcpmt:vector_algorithms.obj
 0001:001231c0       ___std_min_2u@8            301241c0 f   libcpmt:vector_algorithms.obj
 0001:001231d0       ___std_min_4i@8            301241d0 f   libcpmt:vector_algorithms.obj
 0001:001231e0       ___std_min_4u@8            301241e0 f   libcpmt:vector_algorithms.obj
 0001:001231f0       ___std_min_8i@8            301241f0 f   libcpmt:vector_algorithms.obj
 0001:00123200       ___std_min_8u@8            30124200 f   libcpmt:vector_algorithms.obj
 0001:00123350       ___std_min_d@8             30124350 f   libcpmt:vector_algorithms.obj
 0001:00123360       ___std_min_element_1@12    30124360 f   libcpmt:vector_algorithms.obj
 0001:00123400       ___std_min_element_2@12    30124400 f   libcpmt:vector_algorithms.obj
 0001:001234b0       ___std_min_element_4@12    301244b0 f   libcpmt:vector_algorithms.obj
 0001:00123590       ___std_min_element_8@12    30124590 f   libcpmt:vector_algorithms.obj
 0001:00123640       ___std_min_element_d@12    30124640 f   libcpmt:vector_algorithms.obj
 0001:001236e0       ___std_min_element_f@12    301246e0 f   libcpmt:vector_algorithms.obj
 0001:00123780       ___std_min_f@8             30124780 f   libcpmt:vector_algorithms.obj
 0001:00123790       ___std_minmax_1i@8         30124790 f   libcpmt:vector_algorithms.obj
 0001:001237a0       ___std_minmax_1u@8         301247a0 f   libcpmt:vector_algorithms.obj
 0001:001237b0       ___std_minmax_2i@8         301247b0 f   libcpmt:vector_algorithms.obj
 0001:001237c0       ___std_minmax_2u@8         301247c0 f   libcpmt:vector_algorithms.obj
 0001:001237d0       ___std_minmax_4i@8         301247d0 f   libcpmt:vector_algorithms.obj
 0001:001237e0       ___std_minmax_4u@8         301247e0 f   libcpmt:vector_algorithms.obj
 0001:001237f0       ___std_minmax_8i@8         301247f0 f   libcpmt:vector_algorithms.obj
 0001:00123820       ___std_minmax_8u@8         30124820 f   libcpmt:vector_algorithms.obj
 0001:00123850       ___std_minmax_d@8          30124850 f   libcpmt:vector_algorithms.obj
 0001:00123880       ___std_minmax_element_1@12 30124880 f   libcpmt:vector_algorithms.obj
 0001:001239b0       ___std_minmax_element_2@12 301249b0 f   libcpmt:vector_algorithms.obj
 0001:00123a80       ___std_minmax_element_4@12 30124a80 f   libcpmt:vector_algorithms.obj
 0001:00123b50       ___std_minmax_element_8@12 30124b50 f   libcpmt:vector_algorithms.obj
 0001:00123c20       ___std_minmax_element_d@12 30124c20 f   libcpmt:vector_algorithms.obj
 0001:00123cf0       ___std_minmax_element_f@12 30124cf0 f   libcpmt:vector_algorithms.obj
 0001:00123db0       ___std_minmax_f@8          30124db0 f   libcpmt:vector_algorithms.obj
 0001:00123dc0       ___std_mismatch_1@12       30124dc0 f   libcpmt:vector_algorithms.obj
 0001:00123dd0       ___std_mismatch_2@12       30124dd0 f   libcpmt:vector_algorithms.obj
 0001:00123de0       ___std_mismatch_4@12       30124de0 f   libcpmt:vector_algorithms.obj
 0001:00123df0       ___std_mismatch_8@12       30124df0 f   libcpmt:vector_algorithms.obj
 0001:00123e00       ___std_remove_1@12         30124e00 f   libcpmt:vector_algorithms.obj
 0001:00123ec0       ___std_remove_2@12         30124ec0 f   libcpmt:vector_algorithms.obj
 0001:00123f90       ___std_remove_4@12         30124f90 f   libcpmt:vector_algorithms.obj
 0001:001240c0       ___std_remove_8@16         301250c0 f   libcpmt:vector_algorithms.obj
 0001:00124200       ___std_remove_copy_1@16    30125200 f   libcpmt:vector_algorithms.obj
 0001:001243a0       ___std_remove_copy_2@16    301253a0 f   libcpmt:vector_algorithms.obj
 0001:00124550       ___std_remove_copy_4@16    30125550 f   libcpmt:vector_algorithms.obj
 0001:001247e0       ___std_remove_copy_8@20    301257e0 f   libcpmt:vector_algorithms.obj
 0001:00124ab0       ___std_replace_4@16        30125ab0 f   libcpmt:vector_algorithms.obj
 0001:00124b70       ___std_replace_8@24        30125b70 f   libcpmt:vector_algorithms.obj
 0001:00124c50       ___std_reverse_copy_trivially_copyable_1 30125c50 f   libcpmt:vector_algorithms.obj
 0001:00124c60       ___std_reverse_copy_trivially_copyable_2 30125c60 f   libcpmt:vector_algorithms.obj
 0001:00124c70       ___std_reverse_copy_trivially_copyable_4 30125c70 f   libcpmt:vector_algorithms.obj
 0001:00124d70       ___std_reverse_copy_trivially_copyable_8 30125d70 f   libcpmt:vector_algorithms.obj
 0001:00124e70       ___std_reverse_trivially_swappable_1 30125e70 f   libcpmt:vector_algorithms.obj
 0001:00124e80       ___std_reverse_trivially_swappable_2 30125e80 f   libcpmt:vector_algorithms.obj
 0001:00124e90       ___std_reverse_trivially_swappable_4 30125e90 f   libcpmt:vector_algorithms.obj
 0001:00124f70       ___std_reverse_trivially_swappable_8 30125f70 f   libcpmt:vector_algorithms.obj
 0001:00125080       ___std_rotate@12           30126080 f   libcpmt:vector_algorithms.obj
 0001:001253c0       ___std_search_1@16         301263c0 f   libcpmt:vector_algorithms.obj
 0001:001253d0       ___std_search_2@16         301263d0 f   libcpmt:vector_algorithms.obj
 0001:001253e0       ___std_search_4@16         301263e0 f   libcpmt:vector_algorithms.obj
 0001:00125520       ___std_search_8@16         30126520 f   libcpmt:vector_algorithms.obj
 0001:00125680       ___std_search_n_1@16       30126680 f   libcpmt:vector_algorithms.obj
 0001:00125690       ___std_search_n_2@16       30126690 f   libcpmt:vector_algorithms.obj
 0001:001256a0       ___std_search_n_4@16       301266a0 f   libcpmt:vector_algorithms.obj
 0001:001256b0       ___std_search_n_8@20       301266b0 f   libcpmt:vector_algorithms.obj
 0001:001256e0       ___std_swap_ranges_trivially_swappable 301266e0 f   libcpmt:vector_algorithms.obj
 0001:00125710       ___std_swap_ranges_trivially_swappable_noalias 30126710 f   libcpmt:vector_algorithms.obj
 0001:00125810       ___std_unique_1@8          30126810 f   libcpmt:vector_algorithms.obj
 0001:001258d0       ___std_unique_2@8          301268d0 f   libcpmt:vector_algorithms.obj
 0001:001259b0       ___std_unique_4@8          301269b0 f   libcpmt:vector_algorithms.obj
 0001:00125ae0       ___std_unique_8@8          30126ae0 f   libcpmt:vector_algorithms.obj
 0001:00125c30       ___std_unique_copy_1@12    30126c30 f   libcpmt:vector_algorithms.obj
 0001:00125dc0       ___std_unique_copy_2@12    30126dc0 f   libcpmt:vector_algorithms.obj
 0001:00125f50       ___std_unique_copy_4@12    30126f50 f   libcpmt:vector_algorithms.obj
 0001:001261b0       ___std_unique_copy_8@12    301271b0 f   libcpmt:vector_algorithms.obj
 0001:00126432       ??0bad_alloc@std@@QAE@XZ   30127432 f i libcpmt:xthrow.obj
 0001:00126457       ??0bad_function_call@std@@QAE@ABV01@@Z 30127457 f i libcpmt:xthrow.obj
 0001:00126478       ??0bad_function_call@std@@QAE@XZ 30127478 f i libcpmt:xthrow.obj
 0001:00126494       ??0exception@std@@QAE@QBD@Z 30127494 f i libcpmt:xthrow.obj
 0001:001264dd       ??0exception@std@@QAE@QBDH@Z 301274dd f i libcpmt:xthrow.obj
 0001:00126508       ??0exception@std@@QAE@XZ   30127508 f i libcpmt:xthrow.obj
 0001:00126524       ??0invalid_argument@std@@QAE@ABV01@@Z 30127524 f i libcpmt:xthrow.obj
 0001:00126545       ??0invalid_argument@std@@QAE@PBD@Z 30127545 f i libcpmt:xthrow.obj
 0001:0012656b       ??0length_error@std@@QAE@ABV01@@Z 3012756b f i libcpmt:xthrow.obj
 0001:0012658c       ??0length_error@std@@QAE@PBD@Z 3012758c f i libcpmt:xthrow.obj
 0001:001265b2       ??0logic_error@std@@QAE@ABV01@@Z 301275b2 f i libcpmt:xthrow.obj
 0001:001265d3       ??0logic_error@std@@QAE@PBD@Z 301275d3 f i libcpmt:xthrow.obj
 0001:001265f9       ??0out_of_range@std@@QAE@ABV01@@Z 301275f9 f i libcpmt:xthrow.obj
 0001:0012661a       ??0out_of_range@std@@QAE@PBD@Z 3012761a f i libcpmt:xthrow.obj
 0001:00126640       ??0overflow_error@std@@QAE@ABV01@@Z 30127640 f i libcpmt:xthrow.obj
 0001:00126661       ??0overflow_error@std@@QAE@PBD@Z 30127661 f i libcpmt:xthrow.obj
 0001:00126687       ??0regex_error@std@@QAE@ABV01@@Z 30127687 f i libcpmt:xthrow.obj
 0001:001266b4       ??0regex_error@std@@QAE@W4error_type@regex_constants@1@@Z 301276b4 f i libcpmt:xthrow.obj
 0001:001266ed       ??0runtime_error@std@@QAE@PBD@Z 301276ed f i libcpmt:xthrow.obj
 0001:00126713       ??1bad_alloc@std@@UAE@XZ   30127713 f i libcpmt:xthrow.obj
 0001:00126728       ??1bad_function_call@std@@UAE@XZ 30127728 f i libcpmt:xthrow.obj
 0001:0012673d       ??1invalid_argument@std@@UAE@XZ 3012773d f i libcpmt:xthrow.obj
 0001:00126752       ??1length_error@std@@UAE@XZ 30127752 f i libcpmt:xthrow.obj
 0001:00126767       ??1logic_error@std@@UAE@XZ 30127767 f i libcpmt:xthrow.obj
 0001:0012677c       ??1out_of_range@std@@UAE@XZ 3012777c f i libcpmt:xthrow.obj
 0001:00126791       ??1overflow_error@std@@UAE@XZ 30127791 f i libcpmt:xthrow.obj
 0001:001267a6       ??1regex_error@std@@UAE@XZ 301277a6 f i libcpmt:xthrow.obj
 0001:001267bb       ??1runtime_error@std@@UAE@XZ 301277bb f i libcpmt:xthrow.obj
 0001:001267d0       ??_Ebad_function_call@std@@UAEPAXI@Z 301277d0 f i libcpmt:xthrow.obj
 0001:001267d0       ??_Gbad_function_call@std@@UAEPAXI@Z 301277d0 f i libcpmt:xthrow.obj
 0001:00126808       ??_Einvalid_argument@std@@UAEPAXI@Z 30127808 f i libcpmt:xthrow.obj
 0001:00126808       ??_Ginvalid_argument@std@@UAEPAXI@Z 30127808 f i libcpmt:xthrow.obj
 0001:00126840       ??_Elength_error@std@@UAEPAXI@Z 30127840 f i libcpmt:xthrow.obj
 0001:00126840       ??_Glength_error@std@@UAEPAXI@Z 30127840 f i libcpmt:xthrow.obj
 0001:00126878       ??_Elogic_error@std@@UAEPAXI@Z 30127878 f i libcpmt:xthrow.obj
 0001:00126878       ??_Glogic_error@std@@UAEPAXI@Z 30127878 f i libcpmt:xthrow.obj
 0001:001268b0       ??_Eout_of_range@std@@UAEPAXI@Z 301278b0 f i libcpmt:xthrow.obj
 0001:001268b0       ??_Gout_of_range@std@@UAEPAXI@Z 301278b0 f i libcpmt:xthrow.obj
 0001:001268e8       ??_Eoverflow_error@std@@UAEPAXI@Z 301278e8 f i libcpmt:xthrow.obj
 0001:001268e8       ??_Goverflow_error@std@@UAEPAXI@Z 301278e8 f i libcpmt:xthrow.obj
 0001:00126920       ??_Eregex_error@std@@UAEPAXI@Z 30127920 f i libcpmt:xthrow.obj
 0001:00126920       ??_Gregex_error@std@@UAEPAXI@Z 30127920 f i libcpmt:xthrow.obj
 0001:00126958       ?_Stringify@regex_error@std@@CAPBDW4error_type@regex_constants@2@@Z 30127958 f i libcpmt:xthrow.obj
 0001:00126a48       ?_Xbad_alloc@std@@YAXXZ    30127a48 f   libcpmt:xthrow.obj
 0001:00126a6c       ?_Xbad_function_call@std@@YAXXZ 30127a6c f   libcpmt:xthrow.obj
 0001:00126a90       ?_Xinvalid_argument@std@@YAXPBD@Z 30127a90 f   libcpmt:xthrow.obj
 0001:00126ab8       ?_Xlength_error@std@@YAXPBD@Z 30127ab8 f   libcpmt:xthrow.obj
 0001:00126ae0       ?_Xout_of_range@std@@YAXPBD@Z 30127ae0 f   libcpmt:xthrow.obj
 0001:00126b08       ?_Xoverflow_error@std@@YAXPBD@Z 30127b08 f   libcpmt:xthrow.obj
 0001:00126b30       ?_Xregex_error@std@@YAXW4error_type@regex_constants@1@@Z 30127b30 f   libcpmt:xthrow.obj
 0001:00126b58       ?_Xruntime_error@std@@YAXPBD@Z 30127b58 f   libcpmt:xthrow.obj
 0001:00126b80       ?what@bad_function_call@std@@UBEPBDXZ 30127b80 f i libcpmt:xthrow.obj
 0001:00126b86       ?uncaught_exception@std@@YA_NXZ 30127b86 f   libcpmt:uncaught_exception.obj
 0001:00126b8b       ?_Syserror_map@std@@YAPBDH@Z 30127b8b f   libcpmt:syserror.obj
 0001:00126bb9       ?_Winerror_map@std@@YAHH@Z 30127bb9 f   libcpmt:syserror.obj
 0001:00126be3       ?_Winerror_message@std@@YAKKPADK@Z 30127be3 f   libcpmt:syserror.obj
 0001:00126c13       ??0?$_Yarn@D@std@@QAE@PBD@Z 30127c13 f i libcpmt:locale0.obj
 0001:00126c39       ??0_Fac_node@std@@QAE@PAU01@PAV_Facet_base@1@@Z 30127c39 f i libcpmt:locale0.obj
 0001:00126c52       ??0_Facet_base@std@@QAE@XZ 30127c52 f i libcpmt:locale0.obj
 0001:00126c5d       ??0_Locimp@locale@std@@AAE@ABV012@@Z 30127c5d f i libcpmt:locale0.obj
 0001:00126ce1       ??0_Locimp@locale@std@@AAE@_N@Z 30127ce1 f i libcpmt:locale0.obj
 0001:00126d32       ??0facet@locale@std@@IAE@I@Z 30127d32 f i libcpmt:locale0.obj
 0001:00126d4c       ??0id@locale@std@@QAE@I@Z  30127d4c f i libcpmt:locale0.obj
 0001:00126d5d       ??0locale@std@@AAE@U_Secret_locale_construct_tag@01@PAV_Locimp@01@@Z 30127d5d f i libcpmt:locale0.obj
 0001:00126d6f       ??0locale@std@@QAE@W4_Uninitialized@1@@Z 30127d6f f i libcpmt:locale0.obj
 0001:00126d74       ??1_Fac_node@std@@QAE@XZ   30127d74 f i libcpmt:locale0.obj
 0001:00126db1       ??1_Fac_tidy_reg_t@std@@QAE@XZ 30127db1 f i libcpmt:locale0.obj
 0001:00126dde       ??1_Locimp@locale@std@@MAE@XZ 30127dde f i libcpmt:locale0.obj
 0001:00126e06       ??2@YAPAXIPAX@Z            30127e06 f i libcpmt:locale0.obj
 0001:00126e10       ??2_Fac_node@std@@SAPAXI@Z 30127e10 f i libcpmt:locale0.obj
 0001:00126e36       ??3_Fac_node@std@@SAXPAX@Z 30127e36 f i libcpmt:locale0.obj
 0001:00126e3b       ??4?$_Yarn@D@std@@QAEAAV01@PBD@Z 30127e3b f i libcpmt:locale0.obj
 0001:00126e96       ??_G_Fac_node@std@@QAEPAXI@Z 30127e96 f i libcpmt:locale0.obj
 0001:00126ed2       ??_E_Locimp@locale@std@@MAEPAXI@Z 30127ed2 f i libcpmt:locale0.obj
 0001:00126ed2       ??_G_Locimp@locale@std@@MAEPAXI@Z 30127ed2 f i libcpmt:locale0.obj
 0001:00126efc       ?_C_str@?$_Yarn@D@std@@QBEPBDXZ 30127efc f i libcpmt:locale0.obj
 0001:00126f08       ?_Empty@?$_Yarn@D@std@@QBE_NXZ 30127f08 f i libcpmt:locale0.obj
 0001:00126f0f       ?_Facet_Register@std@@YAXPAV_Facet_base@1@@Z 30127f0f f   libcpmt:locale0.obj
 0001:00126f47       ?_Getgloballocale@locale@std@@CAPAV_Locimp@12@XZ 30127f47 f   libcpmt:locale0.obj
 0001:00126f4d       ?_Init@locale@std@@CAPAV_Locimp@12@_N@Z 30127f4d f   libcpmt:locale0.obj
 0001:00126ffd       ?_Locimp_dtor@_Locimp@locale@std@@CAXPAV123@@Z 30127ffd f   libcpmt:locale0.obj
 0001:0012708a       ?_Locinfo_ctor@_Locinfo@std@@SAXPAV12@PBD@Z 3012808a f   libcpmt:locale0.obj
 0001:001270e9       ?_Locinfo_dtor@_Locinfo@std@@SAXPAV12@@Z 301280e9 f   libcpmt:locale0.obj
 0001:00127109       ?_New_Locimp@_Locimp@locale@std@@CAPAV123@ABV123@@Z 30128109 f   libcpmt:locale0.obj
 0001:00127145       ?_New_Locimp@_Locimp@locale@std@@CAPAV123@_N@Z 30128145 f   libcpmt:locale0.obj
 0001:00127170       ?_Setgloballocale@locale@std@@CAXPAX@Z 30128170 f   libcpmt:locale0.obj
 0001:001271a2       ?_Tidy@?$_Yarn@D@std@@AAEXXZ 301281a2 f i libcpmt:locale0.obj
 0001:001271c0       ?__empty_global_delete@@YAXPAX@Z 301281c0 f i libcpmt:locale0.obj
 0001:001271c3       ?__empty_global_delete@@YAXPAXI@Z 301281c3 f i libcpmt:locale0.obj
 0001:001271c3       ?__global_delete@@YAXPAXI@Z 301281c3 f i libcpmt:locale0.obj
 0001:001271c6       ?__empty_global_delete@@YAXPAXIW4align_val_t@std@@@Z 301281c6 f i libcpmt:locale0.obj
 0001:001271c9       ?__empty_global_delete@@YAXPAXW4align_val_t@std@@@Z 301281c9 f i libcpmt:locale0.obj
 0001:001271cc       ?c_str@?$_Yarn@D@std@@QBEPBDXZ 301281cc f i libcpmt:locale0.obj
 0001:001271d8       ?classic@locale@std@@SAABV12@XZ 301281d8 f   libcpmt:locale0.obj
 0001:001271f4       ?empty@locale@std@@SA?AV12@XZ 301281f4 f   libcpmt:locale0.obj
 0001:00127219       __Deletegloballocale       30128219 f   libcpmt:locale0.obj
 0001:0012729a       __Getctype                 3012829a f   libcpmt:_tolower.obj
 0001:00127323       __Tolower                  30128323 f   libcpmt:_tolower.obj
 0001:0012744a       __Getcvt                   3012844a f   libcpmt:xwctomb.obj
 0001:001274d9       __Wcrtomb                  301284d9 f   libcpmt:xwctomb.obj
 0001:0012754c       ___Wcrtomb_lk              3012854c f   libcpmt:xwctomb.obj
 0001:00127557       __Toupper                  30128557 f   libcpmt:_toupper.obj
 0001:0012767e       ??_Glocale@std@@QAEPAXI@Z  3012867e f i libcpmt:ios.obj
 0001:001276a8       ?_Addstd@ios_base@std@@SAXPAV12@@Z 301286a8 f   libcpmt:ios.obj
 0001:00127707       ?_Callfns@ios_base@std@@AAEXW4event@12@@Z 30128707 f i libcpmt:ios.obj
 0001:00127746       ?_Ios_base_dtor@ios_base@std@@CAXPAV12@@Z 30128746 f   libcpmt:ios.obj
 0001:00127796       ?_Tidy@ios_base@std@@AAEXXZ 30128796 f i libcpmt:ios.obj
 0001:00127837       __Stolx                    30128837 f   libcpmt:xstol.obj
 0001:00127916       __Stoul                    30128916 f   libcpmt:xstoul.obj
 0001:00127934       __Stoulx                   30128934 f   libcpmt:xstoul.obj
 0001:00127b05       __Stoll                    30128b05 f   libcpmt:xstoll.obj
 0001:00127b23       __Stollx                   30128b23 f   libcpmt:xstoll.obj
 0001:00127c3b       __Stoull                   30128c3b f   libcpmt:xstoull.obj
 0001:00127c59       __Stoullx                  30128c59 f   libcpmt:xstoull.obj
 0001:00127edb       ??0?$_Smanip@H@std@@QAE@P6AXAAVios_base@1@H@ZH@Z 30128edb f i libcpmt:iomanip.obj
 0001:00127ef4       ??0?$_Smanip@_J@std@@QAE@P6AXAAVios_base@1@_J@Z1@Z 30128ef4 f i libcpmt:iomanip.obj
 0001:00127f14       ?precision@ios_base@std@@QAE_J_J@Z 30128f14 f i libcpmt:iomanip.obj
 0001:00127f38       ?resetiosflags@std@@YA?AU?$_Smanip@H@1@H@Z 30128f38 f   libcpmt:iomanip.obj
 0001:00127fae       ?setbase@std@@YA?AU?$_Smanip@H@1@H@Z 30128fae f   libcpmt:iomanip.obj
 0001:00127fc7       ?setf@ios_base@std@@QAEHHH@Z 30128fc7 f i libcpmt:iomanip.obj
 0001:00127ff5       ?setiosflags@std@@YA?AU?$_Smanip@H@1@H@Z 30128ff5 f   libcpmt:iomanip.obj
 0001:0012800e       ?setprecision@std@@YA?AU?$_Smanip@_J@1@_J@Z 3012900e f   libcpmt:iomanip.obj
 0001:0012802e       ?setw@std@@YA?AU?$_Smanip@_J@1@_J@Z 3012902e f   libcpmt:iomanip.obj
 0001:001280a0       ?width@ios_base@std@@QAE_J_J@Z 301290a0 f i libcpmt:iomanip.obj
 0001:001280c4       ??$?0$$V@?$_Compressed_pair@V?$allocator@D@std@@V?$_String_val@U?$_Simple_types@D@std@@@2@$00@std@@QAE@U_Zero_then_variadic_args_t@1@@Z 301290c4 f i libcpmt:cout.obj
 0001:001280e8       ??$?0AAPAV_Facet_base@std@@@?$_Compressed_pair@U?$default_delete@V_Facet_base@std@@@std@@PAV_Facet_base@2@$00@std@@QAE@U_Zero_then_variadic_args_t@1@AAPAV_Facet_base@1@@Z 301290e8 f i libcpmt:cout.obj
 0001:001280fc       ??$?0U?$default_delete@V_Facet_base@std@@@std@@$0A@@?$unique_ptr@V_Facet_base@std@@U?$default_delete@V_Facet_base@std@@@2@@std@@QAE@PAV_Facet_base@1@@Z 301290fc f i libcpmt:cout.obj
 0001:0012810d       ??$?0V?$allocator@D@std@@$$V@?$_Compressed_pair@V?$allocator@D@std@@V?$_String_val@U?$_Simple_types@D@std@@@2@$00@std@@QAE@U_One_then_variadic_args_t@1@$$QAV?$allocator@D@1@@Z 3012910d f i libcpmt:cout.obj
 0001:00128131       ??$_Adl_verify_range@PADPBD@std@@YAXABQADABQBD@Z 30129131 f i libcpmt:cout.obj
 0001:00128134       ??$_Adl_verify_range@PBDPBD@std@@YAXABQBD0@Z 30129134 f i libcpmt:cout.obj
 0001:00128137       ??$_Allocate@$07U_Default_allocate_traits@std@@@std@@YAPAXI@Z 30129137 f i libcpmt:cout.obj
 0001:00128162       ??$_Allocate_at_least_helper@V?$allocator@D@std@@@std@@YAPADAAV?$allocator@D@0@AAI@Z 30129162 f i libcpmt:cout.obj
 0001:00128176       ??$_Allocate_for_capacity@$0A@@?$basic_string@DU?$char_traits@D@std@@V?$allocator@D@2@@std@@CAPADAAV?$allocator@D@1@AAI@Z 30129176 f i libcpmt:cout.obj
 0001:00128191       ??$_Append@D@?$basic_string@DU?$char_traits@D@std@@V?$allocator@D@2@@std@@AAEAAV01@QBDI@Z 30129191 f i libcpmt:cout.obj
 0001:0012820e       ??$_Bit_cast@IT_Addr_storage@error_category@std@@$0A@@std@@YAIABT_Addr_storage@error_category@0@@Z 3012920e f i libcpmt:cout.obj
 0001:0012821a       ??$_Construct@$01PBD@?$basic_string@DU?$char_traits@D@std@@V?$allocator@D@2@@std@@AAEXQBDI@Z 3012921a f i libcpmt:cout.obj
 0001:001282a8       ??$_Construct_in_place@PADAAPAD@std@@YAXAAPAD0@Z 301292a8 f i libcpmt:cout.obj
 0001:001282ba       ??$_Construct_in_place@PADABQAD@std@@YAXAAPADABQAD@Z 301292ba f i libcpmt:cout.obj
 0001:001282cc       ??$_Convert_size@II@std@@YAII@Z 301292cc f i libcpmt:cout.obj
 0001:001282d6       ??$_Deallocate@$07@std@@YAXPAXI@Z 301292d6 f i libcpmt:cout.obj
 0001:0012830d       ??$_Destroy_in_place@PAD@std@@YAXAAPAD@Z 3012930d f i libcpmt:cout.obj
 0001:00128310       ??$_Fgetc@D@std@@YA_NAADPAU_iobuf@@@Z 30129310 f i libcpmt:cout.obj
 0001:00128338       ??$_Fputc@D@std@@YA_NDPAU_iobuf@@@Z 30129338 f i libcpmt:cout.obj
 0001:00128358       ??$_Get_index@$0A@@id@locale@std@@QAEIXZ 30129358 f i libcpmt:cout.obj
 0001:0012839a       ??$_Get_proxy_allocator@V?$allocator@D@std@@@std@@YA?AU_Fake_allocator@0@ABV?$allocator@D@0@@Z 3012939a f i libcpmt:cout.obj
 0001:0012839d       ??$_Get_size_of_n@$00@std@@YAII@Z 3012939d f i libcpmt:cout.obj
 0001:001283a7       ??$_Max_limit@H@std@@YAHXZ 301293a7 f i libcpmt:cout.obj
 0001:001283ad       ??$_Reallocate_grow_by@V<lambda_1>@?1???$_Append@D@?$basic_string@DU?$char_traits@D@std@@V?$allocator@D@2@@std@@AAEAAV23@QBDI@Z@PBDI@?$basic_string@DU?$char_traits@D@std@@V?$allocator@D@2@@std@@AAEAAV01@IV<lambda_1>@?1???$_Append@D@01@AAEAAV01@QBDI@Z@PBDI@Z 301293ad f i libcpmt:cout.obj
 0001:00128471       ??$_Reallocate_grow_by@V<lambda_1>@?1??push_back@?$basic_string@DU?$char_traits@D@std@@V?$allocator@D@2@@std@@QAEXD@Z@D@?$basic_string@DU?$char_traits@D@std@@V?$allocator@D@2@@std@@AAEAAV01@IV<lambda_1>@?1??push_back@01@QAEXD@Z@D@Z 30129471 f i libcpmt:cout.obj
 0001:00128559       ??$_Traits_copy_batch@U?$char_traits@D@std@@D@std@@YAXQADQBDI@Z 30129559 f i libcpmt:cout.obj
 0001:0012855e       ??$_Traits_move_batch@U?$char_traits@D@std@@D@std@@YAXQADQBDI@Z 3012955e f i libcpmt:cout.obj
 0001:00128563       ??$_Unfancy@D@std@@YAPADPAD@Z 30129563 f i libcpmt:cout.obj
 0001:0012856d       ??$_Ungetc@D@std@@YA_NABDPAU_iobuf@@@Z 3012956d f i libcpmt:cout.obj
 0001:00128590       ??$addressof@$$CBV?$codecvt@DDU_Mbstatet@@@std@@@std@@YAPBV?$codecvt@DDU_Mbstatet@@@0@ABV10@@Z 30129590 f i libcpmt:cout.obj
 0001:0012859a       ??$addressof@PAD@std@@YAPAPADAAPAD@Z 3012959a f i libcpmt:cout.obj
 0001:001285a4       ??$construct_at@D$$V@std@@YAPADQAD@Z 301295a4 f i libcpmt:cout.obj
 0001:001285b1       ??$construct_at@PADAAPAD@std@@YAPAPADQAPADAAPAD@Z 301295b1 f i libcpmt:cout.obj
 0001:001285c3       ??$construct_at@PADABQAD@std@@YAPAPADQAPADABQAD@Z 301295c3 f i libcpmt:cout.obj
 0001:001285d5       ??$exchange@PAV_Facet_base@std@@$$T@std@@YAPAV_Facet_base@0@AAPAV10@$$QA$$T@Z 301295d5 f i libcpmt:cout.obj
 0001:001285ea       ??$forward@AAPAD@std@@YAAAPADAAPAD@Z 301295ea f i libcpmt:cout.obj
 0001:001285f4       ??$forward@AAPAV_Facet_base@std@@@std@@YAAAPAV_Facet_base@0@AAPAV10@@Z 301295f4 f i libcpmt:cout.obj
 0001:001285fe       ??$forward@ABQAD@std@@YAABQADABQAD@Z 301295fe f i libcpmt:cout.obj
 0001:00128608       ??$forward@V?$allocator@D@std@@@std@@YA$$QAV?$allocator@D@0@AAV10@@Z 30129608 f i libcpmt:cout.obj
 0001:00128612       ??$max@I@std@@YAABIABI0@Z  30129612 f i libcpmt:cout.obj
 0001:00128628       ??$min@H@std@@YAABHABH0@Z  30129628 f i libcpmt:cout.obj
 0001:0012863e       ??$min@I@std@@YAABIABI0@Z  3012963e f i libcpmt:cout.obj
 0001:00128654       ??$move@AAV?$allocator@D@std@@@std@@YA$$QAV?$allocator@D@0@AAV10@@Z 30129654 f i libcpmt:cout.obj
 0001:0012865e       ??$use_facet@V?$codecvt@DDU_Mbstatet@@@std@@@std@@YAABV?$codecvt@DDU_Mbstatet@@@0@ABVlocale@0@@Z 3012965e f i libcpmt:cout.obj
 0001:0012871c       ??0?$_String_val@U?$_Simple_types@D@std@@@std@@QAE@XZ 3012971c f i libcpmt:cout.obj
 0001:0012873d       ??0?$_Yarn@D@std@@QAE@XZ   3012973d f i libcpmt:cout.obj
 0001:0012874d       ??0?$_Yarn@_W@std@@QAE@XZ  3012974d f i libcpmt:cout.obj
 0001:0012875f       ??0?$allocator@D@std@@QAE@XZ 3012975f f i libcpmt:cout.obj
 0001:00128762       ??0?$basic_filebuf@DU?$char_traits@D@std@@@std@@QAE@QAU_iobuf@@@Z 30129762 f i libcpmt:cout.obj
 0001:00128794       ??0?$basic_streambuf@DU?$char_traits@D@std@@@std@@IAE@XZ 30129794 f i libcpmt:cout.obj
 0001:00128821       ??0?$basic_string@DU?$char_traits@D@std@@V?$allocator@D@2@@std@@QAE@$$QAV01@@Z 30129821 f i libcpmt:cout.obj
 0001:00128859       ??0?$basic_string@DU?$char_traits@D@std@@V?$allocator@D@2@@std@@QAE@QBDI@Z 30129859 f i libcpmt:cout.obj
 0001:00128895       ??0?$codecvt@DDU_Mbstatet@@@std@@QAE@ABV_Locinfo@1@I@Z 30129895 f i libcpmt:cout.obj
 0001:001288b4       ??0?$ctype@D@std@@QAE@ABV_Locinfo@1@I@Z 301298b4 f i libcpmt:cout.obj
 0001:001288f7       ??0?$fpos@U_Mbstatet@@@std@@QAE@U_Mbstatet@@_J@Z 301298f7 f i libcpmt:cout.obj
 0001:00128935       ??0_Bxty@?$_String_val@U?$_Simple_types@D@std@@@std@@QAE@XZ 30129935 f i libcpmt:cout.obj
 0001:00128945       ??0_Fake_proxy_ptr_impl@std@@QAE@ABU_Fake_allocator@1@ABU_Container_base0@1@@Z 30129945 f i libcpmt:cout.obj
 0001:0012894a       ??0_Init_cout@std@@QAE@XZ  3012994a f i libcpmt:cout.obj
 0001:0012899a       ??0bad_alloc@std@@AAE@QBD@Z 3012999a f i libcpmt:cout.obj
 0001:001289c5       ??0codecvt_base@std@@QAE@I@Z 301299c5 f i libcpmt:cout.obj
 0001:001289df       ??0ctype_base@std@@QAE@I@Z 301299df f i libcpmt:cout.obj
 0001:001289f9       ??0error_code@std@@QAE@HABVerror_category@1@@Z 301299f9 f i libcpmt:cout.obj
 0001:00128a12       ??0error_condition@std@@QAE@HABVerror_category@1@@Z 30129a12 f i libcpmt:cout.obj
 0001:00128a2b       ??0ios_base@std@@IAE@XZ    30129a2b f i libcpmt:cout.obj
 0001:00128a62       ??0locale@std@@QAE@ABV01@@Z 30129a62 f i libcpmt:cout.obj
 0001:00128a97       ??0locale@std@@QAE@XZ      30129a97 f i libcpmt:cout.obj
 0001:00128aed       ??0runtime_error@std@@QAE@ABV?$basic_string@DU?$char_traits@D@std@@V?$allocator@D@2@@1@@Z 30129aed f i libcpmt:cout.obj
 0001:00128b1f       ??0system_error@std@@QAE@Verror_code@1@PBD@Z 30129b1f f i libcpmt:cout.obj
 0001:00128b83       ??1?$_Compressed_pair@V?$allocator@D@std@@V?$_String_val@U?$_Simple_types@D@std@@@2@$00@std@@QAE@XZ 30129b83 f i libcpmt:cout.obj
 0001:00128b86       ??1?$_String_val@U?$_Simple_types@D@std@@@std@@QAE@XZ 30129b86 f i libcpmt:cout.obj
 0001:00128b89       ??1?$basic_filebuf@DU?$char_traits@D@std@@@std@@UAE@XZ 30129b89 f i libcpmt:cout.obj
 0001:00128bfd       ??1?$codecvt@DDU_Mbstatet@@@std@@MAE@XZ 30129bfd f i libcpmt:cout.obj
 0001:00128c04       ??1_Bxty@?$_String_val@U?$_Simple_types@D@std@@@std@@QAE@XZ 30129c04 f i libcpmt:cout.obj
 0001:00128c07       ??1_Iostream_error_category2@std@@UAE@XZ 30129c07 f i libcpmt:cout.obj
 0001:00128c0a       ??1_System_error@std@@UAE@XZ 30129c0a f i libcpmt:cout.obj
 0001:00128c1f       ??1codecvt_base@std@@UAE@XZ 30129c1f f i libcpmt:cout.obj
 0001:00128c26       ??8error_category@std@@QBE_NABV01@@Z 30129c26 f i libcpmt:cout.obj
 0001:00128c3d       ??8std@@YA_NABVerror_condition@0@0@Z 30129c3d f i libcpmt:cout.obj
 0001:00128c6d       ??B?$fpos@U_Mbstatet@@@std@@QBE_JXZ 30129c6d f i libcpmt:cout.obj
 0001:00128c7c       ??R<lambda_1>@?1???$_Append@D@?$basic_string@DU?$char_traits@D@std@@V?$allocator@D@2@@std@@AAEAAV12@QBDI@Z@SA@QAD0I0I@Z 30129c7c f i libcpmt:cout.obj
 0001:00128cb6       ??R<lambda_1>@?1??push_back@?$basic_string@DU?$char_traits@D@std@@V?$allocator@D@2@@std@@QAEXD@Z@SA@QADQBDID@Z 30129cb6 f i libcpmt:cout.obj
 0001:00128ce6       ??R?$default_delete@V_Facet_base@std@@@std@@QBEXPAV_Facet_base@1@@Z 30129ce6 f i libcpmt:cout.obj
 0001:00128d13       ??_D?$basic_ostream@DU?$char_traits@D@std@@@std@@QAEXXZ 30129d13 f i libcpmt:cout.obj
 0001:00128d3d       ??_E?$basic_filebuf@DU?$char_traits@D@std@@@std@@UAEPAXI@Z 30129d3d f i libcpmt:cout.obj
 0001:00128d3d       ??_G?$basic_filebuf@DU?$char_traits@D@std@@@std@@UAEPAXI@Z 30129d3d f i libcpmt:cout.obj
 0001:00128d67       ??_E?$codecvt@DDU_Mbstatet@@@std@@MAEPAXI@Z 30129d67 f i libcpmt:cout.obj
 0001:00128d67       ??_G?$codecvt@DDU_Mbstatet@@@std@@MAEPAXI@Z 30129d67 f i libcpmt:cout.obj
 0001:00128d92       ??_Ecodecvt_base@std@@UAEPAXI@Z 30129d92 f i libcpmt:cout.obj
 0001:00128d92       ??_Gcodecvt_base@std@@UAEPAXI@Z 30129d92 f i libcpmt:cout.obj
 0001:00128dbd       ?_Activate_SSO_buffer@?$_String_val@U?$_Simple_types@D@std@@@std@@QAEXXZ 30129dbd f i libcpmt:cout.obj
 0001:00128dc0       ?_Adjust_manually_vector_aligned@std@@YAXAAPAXAAI@Z 30129dc0 f i libcpmt:cout.obj
 0001:00128ded       ?_Alloc_proxy@_Container_base0@std@@QAEXABU_Fake_allocator@2@@Z 30129ded f i libcpmt:cout.obj
 0001:00128df0       ?_Allocate@_Default_allocate_traits@std@@SAPAXI@Z 30129df0 f i libcpmt:cout.obj
 0001:00128dfb       ?_Apply_annotation@?$basic_string@DU?$char_traits@D@std@@V?$allocator@D@2@@std@@CAXQBDIII@Z 30129dfb f i libcpmt:cout.obj
 0001:00128e56       ?_C_str@locale@std@@QBEPBDXZ 30129e56 f i libcpmt:cout.obj
 0001:00128e74       ?_Calculate_growth@?$basic_string@DU?$char_traits@D@std@@V?$allocator@D@2@@std@@ABEII@Z 30129e74 f i libcpmt:cout.obj
 0001:00128e94       ?_Calculate_growth@?$basic_string@DU?$char_traits@D@std@@V?$allocator@D@2@@std@@CAIIII@Z 30129e94 f i libcpmt:cout.obj
 0001:00128ed1       ?_Check_offset@?$_String_val@U?$_Simple_types@D@std@@@std@@QBEXI@Z 30129ed1 f i libcpmt:cout.obj
 0001:00128eeb       ?_Clamp_suffix_size@?$_String_val@U?$_Simple_types@D@std@@@std@@QBEIII@Z 30129eeb f i libcpmt:cout.obj
 0001:00128f05       ?_Clamp_to_end@_Asan_aligned_pointers@std@@QBEPBXPBX@Z 30129f05 f i libcpmt:cout.obj
 0001:00128f1a       ?_Construct_empty@?$basic_string@DU?$char_traits@D@std@@V?$allocator@D@2@@std@@AAEXXZ 30129f1a f i libcpmt:cout.obj
 0001:00128f30       ?_Create_annotation@?$basic_string@DU?$char_traits@D@std@@V?$allocator@D@2@@std@@ABEXXZ 30129f30 f i libcpmt:cout.obj
 0001:00128f50       ?_Deallocate_for_capacity@?$basic_string@DU?$char_traits@D@std@@V?$allocator@D@2@@std@@CAXAAV?$allocator@D@2@QADI@Z 30129f50 f i libcpmt:cout.obj
 0001:00128f69       ?_Endwrite@?$basic_filebuf@DU?$char_traits@D@std@@@std@@IAE_NXZ 30129f69 f i libcpmt:cout.obj
 0001:00129043       ?_Erase_noexcept@?$basic_string@DU?$char_traits@D@std@@V?$allocator@D@2@@std@@AAEAAV12@II@Z 3012a043 f i libcpmt:cout.obj
 0001:001290b1       ?_Get_asan_aligned_after@std@@YAPBXQBX@Z 3012a0b1 f i libcpmt:cout.obj
 0001:001290c2       ?_Get_first@?$_Compressed_pair@U?$default_delete@V_Facet_base@std@@@std@@PAV_Facet_base@2@$00@std@@QAEAAU?$default_delete@V_Facet_base@std@@@2@XZ 3012a0c2 f i libcpmt:cout.obj
 0001:001290c5       ?_Get_first@?$_Compressed_pair@V?$allocator@D@std@@V?$_String_val@U?$_Simple_types@D@std@@@2@$00@std@@QAEAAV?$allocator@D@2@XZ 3012a0c5 f i libcpmt:cout.obj
 0001:001290c8       ?_Get_first@?$_Compressed_pair@V?$allocator@D@std@@V?$_String_val@U?$_Simple_types@D@std@@@2@$00@std@@QBEABV?$allocator@D@2@XZ 3012a0c8 f i libcpmt:cout.obj
 0001:001290cb       ?_Getal@?$basic_string@DU?$char_traits@D@std@@V?$allocator@D@2@@std@@AAEAAV?$allocator@D@2@XZ 3012a0cb f i libcpmt:cout.obj
 0001:001290ce       ?_Getal@?$basic_string@DU?$char_traits@D@std@@V?$allocator@D@2@@std@@ABEABV?$allocator@D@2@XZ 3012a0ce f i libcpmt:cout.obj
 0001:001290d1       ?_Getcat@?$codecvt@DDU_Mbstatet@@@std@@SAIPAPBVfacet@locale@2@PBV42@@Z 3012a0d1 f i libcpmt:cout.obj
 0001:00129156       ?_Getctype@_Locinfo@std@@QBE?AU_Ctypevec@@XZ 3012a156 f i libcpmt:cout.obj
 0001:00129181       ?_Getfacet@locale@std@@QBEPBVfacet@12@I@Z 3012a181 f i libcpmt:cout.obj
 0001:001291d2       ?_Gnavail@?$basic_streambuf@DU?$char_traits@D@std@@@std@@IBE_JXZ 3012a1d2 f i libcpmt:cout.obj
 0001:001291e8       ?_Gndec@?$basic_streambuf@DU?$char_traits@D@std@@@std@@IAEPADXZ 3012a1e8 f i libcpmt:cout.obj
 0001:001291f9       ?_Gninc@?$basic_streambuf@DU?$char_traits@D@std@@@std@@IAEPADXZ 3012a1f9 f i libcpmt:cout.obj
 0001:0012920d       ?_Init@?$basic_filebuf@DU?$char_traits@D@std@@@std@@IAEXPAU_iobuf@@W4_Initfl@12@@Z 3012a20d f i libcpmt:cout.obj
 0001:001292a9       ?_Init@?$basic_streambuf@DU?$char_traits@D@std@@@std@@IAEXPAPAD0PAH001@Z 3012a2a9 f i libcpmt:cout.obj
 0001:001292de       ?_Init@?$codecvt@DDU_Mbstatet@@@std@@IAEXABV_Locinfo@2@@Z 3012a2de f i libcpmt:cout.obj
 0001:001292e1       ?_Init@?$ctype@D@std@@IAEXABV_Locinfo@2@@Z 3012a2e1 f i libcpmt:cout.obj
 0001:0012930c       ?_Init@ios_base@std@@IAEXXZ 3012a30c f i libcpmt:cout.obj
 0001:00129391       ?_Initcvt@?$basic_filebuf@DU?$char_traits@D@std@@@std@@IAEXABV?$codecvt@DDU_Mbstatet@@@2@@Z 3012a391 f i libcpmt:cout.obj
 0001:001293ca       ?_Large_mode_engaged@?$_String_val@U?$_Simple_types@D@std@@@std@@QBE_NXZ 3012a3ca f i libcpmt:cout.obj
 0001:001293d4       ?_Lock@?$basic_filebuf@DU?$char_traits@D@std@@@std@@UAEXXZ 3012a3d4 f i libcpmt:cout.obj
 0001:001293e8       ?_Modify_annotation@?$basic_string@DU?$char_traits@D@std@@V?$allocator@D@2@@std@@ABEXII@Z 3012a3e8 f i libcpmt:cout.obj
 0001:00129418       ?_Myptr@?$_String_val@U?$_Simple_types@D@std@@@std@@QAEPADXZ 3012a418 f i libcpmt:cout.obj
 0001:00129425       ?_Myptr@?$_String_val@U?$_Simple_types@D@std@@@std@@QBEPBDXZ 3012a425 f i libcpmt:cout.obj
 0001:00129432       ?_Orphan_all@_Container_base0@std@@QAEXXZ 3012a432 f i libcpmt:cout.obj
 0001:00129435       ?_Pnavail@?$basic_streambuf@DU?$char_traits@D@std@@@std@@IBE_JXZ 3012a435 f i libcpmt:cout.obj
 0001:0012944b       ?_Pninc@?$basic_streambuf@DU?$char_traits@D@std@@@std@@IAEPADXZ 3012a44b f i libcpmt:cout.obj
 0001:0012945f       ?_Release@_Fake_proxy_ptr_impl@std@@QAEXXZ 3012a45f f i libcpmt:cout.obj
 0001:00129462       ?_Remove_annotation@?$basic_string@DU?$char_traits@D@std@@V?$allocator@D@2@@std@@ABEXXZ 3012a462 f i libcpmt:cout.obj
 0001:00129482       ?_Reset_back@?$basic_filebuf@DU?$char_traits@D@std@@@std@@AAEXXZ 3012a482 f i libcpmt:cout.obj
 0001:001294ad       ?_Set_back@?$basic_filebuf@DU?$char_traits@D@std@@@std@@AAEXXZ 3012a4ad f i libcpmt:cout.obj
 0001:001294f9       ?_Swap_proxy_and_iterators@?$basic_string@DU?$char_traits@D@std@@V?$allocator@D@2@@std@@AAEXAAV12@@Z 3012a4f9 f i libcpmt:cout.obj
 0001:001294fc       ?_Swap_proxy_and_iterators@_Container_base0@std@@QAEXAAU12@@Z 3012a4fc f i libcpmt:cout.obj
 0001:001294ff       ?_Switch_to_buf@_Bxty@?$_String_val@U?$_Simple_types@D@std@@@std@@QAEXXZ 3012a4ff f i libcpmt:cout.obj
 0001:00129502       ?_Take_contents@?$basic_string@DU?$char_traits@D@std@@V?$allocator@D@2@@std@@AAEXAAV12@@Z 3012a502 f i libcpmt:cout.obj
 0001:0012955c       ?_Tidy@?$_Yarn@_W@std@@AAEXXZ 3012a55c f i libcpmt:cout.obj
 0001:0012957a       ?_Tidy@?$ctype@D@std@@IAEXXZ 3012a57a f i libcpmt:cout.obj
 0001:001295ae       ?_Unlock@?$basic_filebuf@DU?$char_traits@D@std@@@std@@UAEXXZ 3012a5ae f i libcpmt:cout.obj
 0001:001295c2       ?allocate@?$allocator@D@std@@QAEPADI@Z 3012a5c2 f i libcpmt:cout.obj
 0001:001295d6       ?always_noconv@codecvt_base@std@@QBE_NXZ 3012a5d6 f i libcpmt:cout.obj
 0001:001295f4       ?assign@?$_Narrow_char_traits@DH@std@@SAXAADABD@Z 3012a5f4 f i libcpmt:cout.obj
 0001:00129606       ?c_str@?$basic_string@DU?$char_traits@D@std@@V?$allocator@D@2@@std@@QBEPBDXZ 3012a606 f i libcpmt:cout.obj
 0001:00129613       ?category@error_code@std@@QBEABVerror_category@2@XZ 3012a613 f i libcpmt:cout.obj
 0001:00129617       ?category@error_condition@std@@QBEABVerror_category@2@XZ 3012a617 f i libcpmt:cout.obj
 0001:0012961b       ?clear@?$basic_ios@DU?$char_traits@D@std@@@std@@QAEXH_N@Z 3012a61b f i libcpmt:cout.obj
 0001:00129640       ?clear@ios_base@std@@QAEXH@Z 3012a640 f i libcpmt:cout.obj
 0001:00129655       ?close@?$basic_filebuf@DU?$char_traits@D@std@@@std@@QAEPAV12@XZ 3012a655 f i libcpmt:cout.obj
 0001:001296d5       ?copy@?$_Char_traits@DH@std@@SAPADQADQBDI@Z 3012a6d5 f i libcpmt:cout.obj
 0001:001296f4       ?data@?$basic_string@DU?$char_traits@D@std@@V?$allocator@D@2@@std@@QAEPADXZ 3012a6f4 f i libcpmt:cout.obj
 0001:00129701       ?do_always_noconv@?$codecvt@DDU_Mbstatet@@@std@@MBE_NXZ 3012a701 f i libcpmt:cout.obj
 0001:00129704       ?do_always_noconv@codecvt_base@std@@MBE_NXZ 3012a704 f i libcpmt:cout.obj
 0001:00129707       ?do_encoding@codecvt_base@std@@MBEHXZ 3012a707 f i libcpmt:cout.obj
 0001:0012970b       ?do_in@?$codecvt@DDU_Mbstatet@@@std@@MBEHAAU_Mbstatet@@PBD1AAPBDPAD3AAPAD@Z 3012a70b f i libcpmt:cout.obj
 0001:0012972b       ?do_length@?$codecvt@DDU_Mbstatet@@@std@@MBEHAAU_Mbstatet@@PBD1I@Z 3012a72b f i libcpmt:cout.obj
 0001:00129745       ?do_max_length@codecvt_base@std@@MBEHXZ 3012a745 f i libcpmt:cout.obj
 0001:00129749       ?do_out@?$codecvt@DDU_Mbstatet@@@std@@MBEHAAU_Mbstatet@@PBD1AAPBDPAD3AAPAD@Z 3012a749 f i libcpmt:cout.obj
 0001:00129769       ?do_unshift@?$codecvt@DDU_Mbstatet@@@std@@MBEHAAU_Mbstatet@@PAD1AAPAD@Z 3012a769 f i libcpmt:cout.obj
 0001:0012977f       ?eback@?$basic_streambuf@DU?$char_traits@D@std@@@std@@IBEPADXZ 3012a77f f i libcpmt:cout.obj
 0001:00129785       ?egptr@?$basic_streambuf@DU?$char_traits@D@std@@@std@@IBEPADXZ 3012a785 f i libcpmt:cout.obj
 0001:00129792       ?empty@?$basic_string@DU?$char_traits@D@std@@V?$allocator@D@2@@std@@QBE_NXZ 3012a792 f i libcpmt:cout.obj
 0001:0012979c       ?eof@?$_Narrow_char_traits@DH@std@@SAHXZ 3012a79c f i libcpmt:cout.obj
 0001:001297a0       ?epptr@?$basic_streambuf@DU?$char_traits@D@std@@@std@@IBEPADXZ 3012a7a0 f i libcpmt:cout.obj
 0001:001297ad       ?eq_int_type@?$_Narrow_char_traits@DH@std@@SA_NHH@Z 3012a7ad f i libcpmt:cout.obj
 0001:001297be       ?erase@?$basic_string@DU?$char_traits@D@std@@V?$allocator@D@2@@std@@QAEAAV12@II@Z 3012a7be f i libcpmt:cout.obj
 0001:001297e3       ?front@?$basic_string@DU?$char_traits@D@std@@V?$allocator@D@2@@std@@QAEAADXZ 3012a7e3 f i libcpmt:cout.obj
 0001:001297f0       ?gbump@?$basic_streambuf@DU?$char_traits@D@std@@@std@@IAEXH@Z 3012a7f0 f i libcpmt:cout.obj
 0001:00129809       ?getloc@ios_base@std@@QBE?AVlocale@2@XZ 3012a809 f i libcpmt:cout.obj
 0001:00129823       ?gptr@?$basic_streambuf@DU?$char_traits@D@std@@@std@@IBEPADXZ 3012a823 f i libcpmt:cout.obj
 0001:00129829       ?imbue@?$basic_filebuf@DU?$char_traits@D@std@@@std@@MAEXABVlocale@2@@Z 3012a829 f i libcpmt:cout.obj
 0001:0012984c       ?in@?$codecvt@DDU_Mbstatet@@@std@@QBEHAAU_Mbstatet@@PBD1AAPBDPAD3AAPAD@Z 3012a84c f i libcpmt:cout.obj
 0001:0012988b       ?init@?$basic_ios@DU?$char_traits@D@std@@@std@@IAEXPAV?$basic_streambuf@DU?$char_traits@D@std@@@2@_N@Z 3012a88b f i libcpmt:cout.obj
 0001:001298ea       ?iostream_category@std@@YAABVerror_category@1@XZ 3012a8ea f i libcpmt:cout.obj
 0001:001298f0       ?is_constant_evaluated@std@@YA_NXZ 3012a8f0 f i libcpmt:cout.obj
 0001:001298f3       ?length@?$_Narrow_char_traits@DH@std@@SAIQBD@Z 3012a8f3 f i libcpmt:cout.obj
 0001:0012990c       ?max_size@?$_Default_allocator_traits@V?$allocator@D@std@@@std@@SAIABV?$allocator@D@2@@Z 3012a90c f i libcpmt:cout.obj
 0001:00129910       ?max_size@?$basic_string@DU?$char_traits@D@std@@V?$allocator@D@2@@std@@QBEIXZ 3012a910 f i libcpmt:cout.obj
 0001:00129916       ?message@error_code@std@@QBE?AV?$basic_string@DU?$char_traits@D@std@@V?$allocator@D@2@@2@XZ 3012a916 f i libcpmt:cout.obj
 0001:00129948       ?move@?$_Char_traits@DH@std@@SAPADQADQBDI@Z 3012a948 f i libcpmt:cout.obj
 0001:00129967       ?not_eof@?$_Narrow_char_traits@DH@std@@SAHH@Z 3012a967 f i libcpmt:cout.obj
 0001:0012997b       ?out@?$codecvt@DDU_Mbstatet@@@std@@QBEHAAU_Mbstatet@@PBD1AAPBDPAD3AAPAD@Z 3012a97b f i libcpmt:cout.obj
 0001:001299ba       ?overflow@?$basic_filebuf@DU?$char_traits@D@std@@@std@@MAEHH@Z 3012a9ba f i libcpmt:cout.obj
 0001:00129b09       ?pbackfail@?$basic_filebuf@DU?$char_traits@D@std@@@std@@MAEHH@Z 3012ab09 f i libcpmt:cout.obj
 0001:00129ba7       ?pbump@?$basic_streambuf@DU?$char_traits@D@std@@@std@@IAEXH@Z 3012aba7 f i libcpmt:cout.obj
 0001:00129bc0       ?pptr@?$basic_streambuf@DU?$char_traits@D@std@@@std@@IBEPADXZ 3012abc0 f i libcpmt:cout.obj
 0001:00129bc6       ?push_back@?$basic_string@DU?$char_traits@D@std@@V?$allocator@D@2@@std@@QAEXD@Z 3012abc6 f i libcpmt:cout.obj
 0001:00129c1e       ?rdstate@ios_base@std@@QBEHXZ 3012ac1e f i libcpmt:cout.obj
 0001:00129c22       ?release@?$unique_ptr@V_Facet_base@std@@U?$default_delete@V_Facet_base@std@@@2@@std@@QAEPAV_Facet_base@2@XZ 3012ac22 f i libcpmt:cout.obj
 0001:00129c2d       ?seekoff@?$basic_filebuf@DU?$char_traits@D@std@@@std@@MAE?AV?$fpos@U_Mbstatet@@@2@_JHH@Z 3012ac2d f i libcpmt:cout.obj
 0001:00129d27       ?seekpos@?$basic_filebuf@DU?$char_traits@D@std@@@std@@MAE?AV?$fpos@U_Mbstatet@@@2@V32@H@Z 3012ad27 f i libcpmt:cout.obj
 0001:00129dd4       ?select_on_container_copy_construction@?$_Default_allocator_traits@V?$allocator@D@std@@@std@@SA?AV?$allocator@D@2@ABV32@@Z 3012add4 f i libcpmt:cout.obj
 0001:00129dde       ?setbuf@?$basic_filebuf@DU?$char_traits@D@std@@@std@@MAEPAV?$basic_streambuf@DU?$char_traits@D@std@@@2@PAD_J@Z 3012adde f i libcpmt:cout.obj
 0001:00129e3f       ?setg@?$basic_streambuf@DU?$char_traits@D@std@@@std@@IAEXPAD00@Z 3012ae3f f i libcpmt:cout.obj
 0001:00129e6a       ?setp@?$basic_streambuf@DU?$char_traits@D@std@@@std@@IAEXPAD0@Z 3012ae6a f i libcpmt:cout.obj
 0001:00129e92       ?size@?$basic_string@DU?$char_traits@D@std@@V?$allocator@D@2@@std@@QBEIXZ 3012ae92 f i libcpmt:cout.obj
 0001:00129e96       ?state@?$fpos@U_Mbstatet@@@std@@QBE?AU_Mbstatet@@XZ 3012ae96 f i libcpmt:cout.obj
 0001:00129eb0       ?sync@?$basic_filebuf@DU?$char_traits@D@std@@@std@@MAEHXZ 3012aeb0 f i libcpmt:cout.obj
 0001:00129efb       ?tie@?$basic_ios@DU?$char_traits@D@std@@@std@@QAEPAV?$basic_ostream@DU?$char_traits@D@std@@@2@PAV32@@Z 3012aefb f i libcpmt:cout.obj
 0001:00129f0f       ?to_char_type@?$_Narrow_char_traits@DH@std@@SADH@Z 3012af0f f i libcpmt:cout.obj
 0001:00129f19       ?to_int_type@?$_Narrow_char_traits@DH@std@@SAHD@Z 3012af19 f i libcpmt:cout.obj
 0001:00129f24       ?uflow@?$basic_filebuf@DU?$char_traits@D@std@@@std@@MAEHXZ 3012af24 f i libcpmt:cout.obj
 0001:0012a12e       ?underflow@?$basic_filebuf@DU?$char_traits@D@std@@@std@@MAEHXZ 3012b12e f i libcpmt:cout.obj
 0001:0012a192       ?unshift@?$codecvt@DDU_Mbstatet@@@std@@QBEHAAU_Mbstatet@@PAD1AAPAD@Z 3012b192 f i libcpmt:cout.obj
 0001:0012a1c6       ?value@error_code@std@@QBEHXZ 3012b1c6 f i libcpmt:cout.obj
 0001:0012a1c9       ?value@error_condition@std@@QBEHXZ 3012b1c9 f i libcpmt:cout.obj
 0001:0012a1cc       ?widen@?$basic_ios@DU?$char_traits@D@std@@@std@@QBEDD@Z 3012b1cc f i libcpmt:cout.obj
 0001:0012a232       ?widen@?$ctype@D@std@@QBEDD@Z 3012b232 f i libcpmt:cout.obj
 0001:0012a25b       ?xsgetn@?$basic_filebuf@DU?$char_traits@D@std@@@std@@MAE_JPAD_J@Z 3012b25b f i libcpmt:cout.obj
 0001:0012a37d       ?xsputn@?$basic_filebuf@DU?$char_traits@D@std@@@std@@MAE_JPBD_J@Z 3012b37d f i libcpmt:cout.obj
 0001:0012a495       __Mtxdst                   3012b495 f   libcpmt:xmtx.obj
 0001:0012a4a6       __Mtxinit                  3012b4a6 f   libcpmt:xmtx.obj
 0001:0012a4c0       __Mtxlock                  3012b4c0 f   libcpmt:xmtx.obj
 0001:0012a4d1       __Mtxunlock                3012b4d1 f   libcpmt:xmtx.obj
 0001:0012a4f3       ___std_get_string_size_without_trailing_whitespace@8 3012b4f3 f   libcpmt:syserror_import_lib.obj
 0001:0012a520       ___std_system_error_allocate_message@8 3012b520 f   libcpmt:syserror_import_lib.obj
 0001:0012a5b8       ___std_system_error_deallocate_message@4 3012b5b8 f   libcpmt:syserror_import_lib.obj
 0001:0012a5be       ??$_Adl_verify_range@PADPAD@std@@YAXABQAD0@Z 3012b5be f i libcpmt:locale.obj
 0001:0012a5c1       ??$_Adl_verify_range@V?$istreambuf_iterator@DU?$char_traits@D@std@@@std@@V12@@std@@YAXABV?$istreambuf_iterator@DU?$char_traits@D@std@@@0@0@Z 3012b5c1 f i libcpmt:locale.obj
 0001:0012a5c4       ??$_Construct@$0A@D@?$basic_string@DU?$char_traits@D@std@@V?$allocator@D@2@@std@@AAEXDI@Z 3012b5c4 f i libcpmt:locale.obj
 0001:0012a66b       ??$_Could_compare_equal_to_value_type@PBDD@std@@YA_NABD@Z 3012b66b f i libcpmt:locale.obj
 0001:0012a66e       ??$_Find_unchecked@PBDD@std@@YAPBDPBDQBDABD@Z 3012b66e f i libcpmt:locale.obj
 0001:0012a691       ??$_Get_unwrapped@ABQAD@std@@YA?A_TABQAD@Z 3012b691 f i libcpmt:locale.obj
 0001:0012a69d       ??$_Pocma@V?$allocator@D@std@@@std@@YAXAAV?$allocator@D@0@0@Z 3012b69d f i libcpmt:locale.obj
 0001:0012a6a0       ??$_Reallocate_grow_by@V<lambda_1>@?1??append@?$basic_string@DU?$char_traits@D@std@@V?$allocator@D@2@@std@@QAEAAV34@ID@Z@ID@?$basic_string@DU?$char_traits@D@std@@V?$allocator@D@2@@std@@AAEAAV01@IV<lambda_1>@?1??append@01@QAEAAV01@ID@Z@ID@Z 3012b6a0 f i libcpmt:locale.obj
 0001:0012a764       ??$_Reallocate_grow_by@V<lambda_1>@?1??insert@?$basic_string@DU?$char_traits@D@std@@V?$allocator@D@2@@std@@QAEAAV34@IID@Z@IID@?$basic_string@DU?$char_traits@D@std@@V?$allocator@D@2@@std@@AAEAAV01@IV<lambda_1>@?1??insert@01@QAEAAV01@IID@Z@IID@Z 3012b764 f i libcpmt:locale.obj
 0001:0012a82c       ??$_To_address@PAD@std@@YA?A_PABQAD@Z 3012b82c f i libcpmt:locale.obj
 0001:0012a838       ??$_To_address@PBD@std@@YA?A_PABQBD@Z 3012b838 f i libcpmt:locale.obj
 0001:0012a844       ??$addressof@V?$basic_string@DU?$char_traits@D@std@@V?$allocator@D@2@@std@@@std@@YAPAV?$basic_string@DU?$char_traits@D@std@@V?$allocator@D@2@@0@AAV10@@Z 3012b844 f i libcpmt:locale.obj
 0001:0012a84e       ??$begin@$$CBD$0BL@@std@@YAPBDAAY0BL@$$CBD@Z 3012b84e f i libcpmt:locale.obj
 0001:0012a858       ??$begin@$$CBD$0BN@@std@@YAPBDAAY0BN@$$CBD@Z 3012b858 f i libcpmt:locale.obj
 0001:0012a862       ??$end@$$CBD$0BL@@std@@YAPBDAAY0BL@$$CBD@Z 3012b862 f i libcpmt:locale.obj
 0001:0012a86f       ??$end@$$CBD$0BN@@std@@YAPBDAAY0BN@$$CBD@Z 3012b86f f i libcpmt:locale.obj
 0001:0012a87c       ??$isfinite@N@@YA_NN@Z     3012b87c f i libcpmt:locale.obj
 0001:0012a89c       ??$isfinite@O@@YA_NO@Z     3012b89c f i libcpmt:locale.obj
 0001:0012a8bc       ??$move@AAD@std@@YA$$QADAAD@Z 3012b8bc f i libcpmt:locale.obj
 0001:0012a8c6       ??$move@AAV?$basic_string@DU?$char_traits@D@std@@V?$allocator@D@2@@std@@@std@@YA$$QAV?$basic_string@DU?$char_traits@D@std@@V?$allocator@D@2@@0@AAV10@@Z 3012b8c6 f i libcpmt:locale.obj
 0001:0012a8d0       ??$reverse@PAD@std@@YAXQAD0@Z 3012b8d0 f i libcpmt:locale.obj
 0001:0012a8d5       ??$swap@D$0A@@std@@YAXAAD0@Z 3012b8d5 f i libcpmt:locale.obj
 0001:0012a8ef       ??$to_address@$$CBD@std@@YAPBDQBD@Z 3012b8ef f i libcpmt:locale.obj
 0001:0012a8f9       ??$to_address@D@std@@YAPADQAD@Z 3012b8f9 f i libcpmt:locale.obj
 0001:0012a903       ??0?$num_get@DV?$istreambuf_iterator@DU?$char_traits@D@std@@@std@@@std@@QAE@ABV_Locinfo@1@I@Z 3012b903 f i libcpmt:locale.obj
 0001:0012a922       ??0?$num_put@DV?$ostreambuf_iterator@DU?$char_traits@D@std@@@std@@@std@@QAE@ABV_Locinfo@1@I@Z 3012b922 f i libcpmt:locale.obj
 0001:0012a941       ??0?$numpunct@D@std@@QAE@ABV_Locinfo@1@I_N@Z 3012b941 f i libcpmt:locale.obj
 0001:0012a988       ??4?$basic_string@DU?$char_traits@D@std@@V?$allocator@D@2@@std@@QAEAAV01@$$QAV01@@Z 3012b988 f i libcpmt:locale.obj
 0001:0012a9b1       ??4?$ostreambuf_iterator@DU?$char_traits@D@std@@@std@@QAEAAV01@D@Z 3012b9b1 f i libcpmt:locale.obj
 0001:0012a9de       ??A?$basic_string@DU?$char_traits@D@std@@V?$allocator@D@2@@std@@QAEAADI@Z 3012b9de f i libcpmt:locale.obj
 0001:0012a9f7       ??A?$basic_string@DU?$char_traits@D@std@@V?$allocator@D@2@@std@@QBEABDI@Z 3012b9f7 f i libcpmt:locale.obj
 0001:0012aa10       ??D?$istreambuf_iterator@DU?$char_traits@D@std@@@std@@QBEDXZ 3012ba10 f i libcpmt:locale.obj
 0001:0012aa27       ??D?$ostreambuf_iterator@DU?$char_traits@D@std@@@std@@QAEAAV01@XZ 3012ba27 f i libcpmt:locale.obj
 0001:0012aa2a       ??E?$istreambuf_iterator@DU?$char_traits@D@std@@@std@@QAEAAV01@XZ 3012ba2a f i libcpmt:locale.obj
 0001:0012aa39       ??E?$ostreambuf_iterator@DU?$char_traits@D@std@@@std@@QAEAAV01@XZ 3012ba39 f i libcpmt:locale.obj
 0001:0012aa3c       ??R<lambda_1>@?1??append@?$basic_string@DU?$char_traits@D@std@@V?$allocator@D@2@@std@@QAEAAV23@ID@Z@SA@QADQBDIID@Z 3012ba3c f i libcpmt:locale.obj
 0001:0012aa79       ??R<lambda_1>@?1??insert@?$basic_string@DU?$char_traits@D@std@@V?$allocator@D@2@@std@@QAEAAV23@IID@Z@SA@QADQBDIIID@Z 3012ba79 f i libcpmt:locale.obj
 0001:0012aad1       ??Y?$basic_string@DU?$char_traits@D@std@@V?$allocator@D@2@@std@@QAEAAV01@ABV01@@Z 3012bad1 f i libcpmt:locale.obj
 0001:0012aadc       ?_Addfac@_Locimp@locale@std@@AAEXPAVfacet@23@I@Z 3012badc f i libcpmt:locale.obj
 0001:0012aaf7       ?_Eos@?$basic_string@DU?$char_traits@D@std@@V?$allocator@D@2@@std@@AAEXI@Z 3012baf7 f i libcpmt:locale.obj
 0001:0012ab29       ?_Getcat@?$num_get@DV?$istreambuf_iterator@DU?$char_traits@D@std@@@std@@@std@@SAIPAPBVfacet@locale@2@PBV42@@Z 3012bb29 f i libcpmt:locale.obj
 0001:0012abae       ?_Getcat@?$num_put@DV?$ostreambuf_iterator@DU?$char_traits@D@std@@@std@@@std@@SAIPAPBVfacet@locale@2@PBV42@@Z 3012bbae f i libcpmt:locale.obj
 0001:0012ac33       ?_Getcat@?$numpunct@D@std@@SAIPAPBVfacet@locale@2@PBV42@@Z 3012bc33 f i libcpmt:locale.obj
 0001:0012acbb       ?_Getcvt@_Locinfo@std@@QBE?AU_Cvtvec@@XZ 3012bcbb f i libcpmt:locale.obj
 0001:0012ace8       ?_Getfalse@_Locinfo@std@@QBEPBDXZ 3012bce8 f i libcpmt:locale.obj
 0001:0012acee       ?_Getlconv@_Locinfo@std@@QBEPBUlconv@@XZ 3012bcee f i libcpmt:locale.obj
 0001:0012acf3       ?_Getname@_Locinfo@std@@QBEPBDXZ 3012bcf3 f i libcpmt:locale.obj
 0001:0012ad00       ?_Gettrue@_Locinfo@std@@QBEPBDXZ 3012bd00 f i libcpmt:locale.obj
 0001:0012ad06       ?_Ifmt@?$num_put@DV?$ostreambuf_iterator@DU?$char_traits@D@std@@@std@@@std@@ABAPADPADPBDH@Z 3012bd06 f i libcpmt:locale.obj
 0001:0012ad98       ?_Inc@?$istreambuf_iterator@DU?$char_traits@D@std@@@std@@AAEXXZ 3012bd98 f i libcpmt:locale.obj
 0001:0012adc5       ?_Init@?$num_get@DV?$istreambuf_iterator@DU?$char_traits@D@std@@@std@@@std@@IAEXABV_Locinfo@2@@Z 3012bdc5 f i libcpmt:locale.obj
 0001:0012adc8       ?_Init@?$num_put@DV?$ostreambuf_iterator@DU?$char_traits@D@std@@@std@@@std@@IAEXABV_Locinfo@2@@Z 3012bdc8 f i libcpmt:locale.obj
 0001:0012adcb       ?_Init@?$numpunct@D@std@@IAEXABV_Locinfo@2@_N@Z 3012bdcb f i libcpmt:locale.obj
 0001:0012ae93       ?_Locimp_Addfac@_Locimp@locale@std@@CAXPAV123@PAVfacet@23@I@Z 3012be93 f   libcpmt:locale.obj
 0001:0012af9a       ?_Locimp_ctor@_Locimp@locale@std@@CAXPAV123@ABV123@@Z 3012bf9a f   libcpmt:locale.obj
 0001:0012b082       ?_Locinfo_Addcats@_Locinfo@std@@SAAAV12@PAV12@HPBD@Z 3012c082 f   libcpmt:locale.obj
 0001:0012b13d       ?_Locinfo_ctor@_Locinfo@std@@SAXPAV12@HPBD@Z 3012c13d f   libcpmt:locale.obj
 0001:0012b181       ?_Makeloc@_Locimp@locale@std@@CAPAV123@ABV_Locinfo@3@HPAV123@PBV23@@Z 3012c181 f   libcpmt:locale.obj
 0001:0012b3f7       ?_Peek@?$istreambuf_iterator@DU?$char_traits@D@std@@@std@@ABEDXZ 3012c3f7 f i libcpmt:locale.obj
 0001:0012b427       ?_Stodx_v3@std@@YANPBDPAPADPAH@Z 3012c427 f i libcpmt:locale.obj
 0001:0012b460       ?_Stofx_v3@std@@YAMPBDPAPADPAH@Z 3012c460 f i libcpmt:locale.obj
 0001:0012b4a2       ?_Tidy@?$numpunct@D@std@@AAEXXZ 3012c4a2 f i libcpmt:locale.obj
 0001:0012b4ca       ?assign@?$_Char_traits@DH@std@@SAPADQADID@Z 3012c4ca f i libcpmt:locale.obj
 0001:0012b4f9       ?assign@?$_Narrow_char_traits@DH@std@@SAPADQADID@Z 3012c4f9 f i libcpmt:locale.obj
 0001:0012b517       ?assign@?$basic_string@DU?$char_traits@D@std@@V?$allocator@D@2@@std@@QAEAAV12@$$QAV12@@Z 3012c517 f i libcpmt:locale.obj
 0001:0012b531       ?data@?$basic_string@DU?$char_traits@D@std@@V?$allocator@D@2@@std@@QBEPBDXZ 3012c531 f i libcpmt:locale.obj
 0001:0012b53e       ?decimal_point@?$numpunct@D@std@@QBEDXZ 3012c53e f i libcpmt:locale.obj
 0001:0012b55c       ?equal@?$istreambuf_iterator@DU?$char_traits@D@std@@@std@@QBE_NABV12@@Z 3012c55c f i libcpmt:locale.obj
 0001:0012b5a4       ?falsename@?$numpunct@D@std@@QBE?AV?$basic_string@DU?$char_traits@D@std@@V?$allocator@D@2@@2@XZ 3012c5a4 f i libcpmt:locale.obj
 0001:0012b5d2       ?flags@ios_base@std@@QBEHXZ 3012c5d2 f i libcpmt:locale.obj
 0001:0012b5d6       ?fpclassify@@YAHN@Z        3012c5d6 f i libcpmt:locale.obj
 0001:0012b5f0       ?fpclassify@@YAHO@Z        3012c5f0 f i libcpmt:locale.obj
 0001:0012b60a       ?global@locale@std@@SA?AV12@ABV12@@Z 3012c60a f   libcpmt:locale.obj
 0001:0012b72c       ?grouping@?$numpunct@D@std@@QBE?AV?$basic_string@DU?$char_traits@D@std@@V?$allocator@D@2@@2@XZ 3012c72c f i libcpmt:locale.obj
 0001:0012b75a       ?insert@?$basic_string@DU?$char_traits@D@std@@V?$allocator@D@2@@std@@QAEAAV12@IID@Z 3012c75a f i libcpmt:locale.obj
 0001:0012b7fa       ?precision@ios_base@std@@QBE_JXZ 3012c7fa f i libcpmt:locale.obj
 0001:0012b801       ?sbumpc@?$basic_streambuf@DU?$char_traits@D@std@@@std@@QAEHXZ 3012c801 f i libcpmt:locale.obj
 0001:0012b848       ?sgetc@?$basic_streambuf@DU?$char_traits@D@std@@@std@@QAEHXZ 3012c848 f i libcpmt:locale.obj
 0001:0012b881       ?sputc@?$basic_streambuf@DU?$char_traits@D@std@@@std@@QAEHD@Z 3012c881 f i libcpmt:locale.obj
 0001:0012b8e6       ?thousands_sep@?$numpunct@D@std@@QBEDXZ 3012c8e6 f i libcpmt:locale.obj
 0001:0012b904       ?tolower@?$ctype@D@std@@QBEDD@Z 3012c904 f i libcpmt:locale.obj
 0001:0012b92d       ?truename@?$numpunct@D@std@@QBE?AV?$basic_string@DU?$char_traits@D@std@@V?$allocator@D@2@@2@XZ 3012c92d f i libcpmt:locale.obj
 0001:0012b95b       ?widen@?$ctype@D@std@@QBEPBDPBD0PAD@Z 3012c95b f i libcpmt:locale.obj
 0001:0012b98b       ?width@ios_base@std@@QBE_JXZ 3012c98b f i libcpmt:locale.obj
 0001:0012b992       __vsprintf_s_l             3012c992 f i libcpmt:locale.obj
 0001:0012b9cb       _fabsl                     3012c9cb f i libcpmt:locale.obj
 0001:0012b9ec       _frexpl                    3012c9ec f i libcpmt:locale.obj
 0001:0012ba0f       ??1_Init_atexit@@QAE@XZ    3012ca0f f i libcpmt:iosptrs.obj
 0001:0012ba91       ?_Atexit@@YAXP6AXXZ@Z      3012ca91 f   libcpmt:iosptrs.obj
 0001:0012bacb       ??0?$__crt_scoped_stack_ptr@_W@@QAE@U?$__crt_scoped_stack_ptr_tag@_W@@@Z 3012cacb f i libcpmt:StlLCMapStringA.obj
 0001:0012badc       ??0?$__crt_scoped_stack_ptr_tag@_W@@QAE@QA_W@Z 3012cadc f i libcpmt:StlLCMapStringA.obj
 0001:0012baed       ??1?$__crt_scoped_stack_ptr@_W@@QAE@XZ 3012caed f i libcpmt:StlLCMapStringA.obj
 0001:0012bb0c       ??B?$__crt_scoped_stack_ptr@_W@@QBE_NXZ 3012cb0c f i libcpmt:StlLCMapStringA.obj
 0001:0012bb13       ?get@?$__crt_scoped_stack_ptr@_W@@QBEPA_WXZ 3012cb13 f i libcpmt:StlLCMapStringA.obj
 0001:0012bb16       __MallocaComputeSize       3012cb16 f i libcpmt:StlLCMapStringA.obj
 0001:0012bb2b       __MarkAllocaS              3012cb2b f i libcpmt:StlLCMapStringA.obj
 0001:0012bb44       ___crtLCMapStringA         3012cb44 f   libcpmt:StlLCMapStringA.obj
 0001:0012bd88       __freea_crt                3012cd88 f i libcpmt:StlLCMapStringA.obj
 0001:0012bdad       ??$?0$$V@?$_Compressed_pair@V?$allocator@G@std@@V?$_String_val@U?$_Simple_types@G@std@@@2@$00@std@@QAE@U_Zero_then_variadic_args_t@1@@Z 3012cdad f i libcpmt:wlocale.obj
 0001:0012bdd1       ??$?0$$V@?$_Compressed_pair@V?$allocator@_W@std@@V?$_String_val@U?$_Simple_types@_W@std@@@2@$00@std@@QAE@U_Zero_then_variadic_args_t@1@@Z 3012cdd1 f i libcpmt:wlocale.obj
 0001:0012bdf5       ??$?0V?$allocator@G@std@@$$V@?$_Compressed_pair@V?$allocator@G@std@@V?$_String_val@U?$_Simple_types@G@std@@@2@$00@std@@QAE@U_One_then_variadic_args_t@1@$$QAV?$allocator@G@1@@Z 3012cdf5 f i libcpmt:wlocale.obj
 0001:0012be19       ??$?0V?$allocator@_W@std@@$$V@?$_Compressed_pair@V?$allocator@_W@std@@V?$_String_val@U?$_Simple_types@_W@std@@@2@$00@std@@QAE@U_One_then_variadic_args_t@1@$$QAV?$allocator@_W@1@@Z 3012ce19 f i libcpmt:wlocale.obj
 0001:0012be3d       ??$?8GU?$char_traits@G@std@@@std@@YA_NABV?$istreambuf_iterator@GU?$char_traits@G@std@@@0@0@Z 3012ce3d f i libcpmt:wlocale.obj
 0001:0012be51       ??$?8_WU?$char_traits@_W@std@@@std@@YA_NABV?$istreambuf_iterator@_WU?$char_traits@_W@std@@@0@0@Z 3012ce51 f i libcpmt:wlocale.obj
 0001:0012be65       ??$_Adl_verify_range@PAGPAG@std@@YAXABQAG0@Z 3012ce65 f i libcpmt:wlocale.obj
 0001:0012be68       ??$_Adl_verify_range@PAGPBG@std@@YAXABQAGABQBG@Z 3012ce68 f i libcpmt:wlocale.obj
 0001:0012be6b       ??$_Adl_verify_range@PA_WPA_W@std@@YAXABQA_W0@Z 3012ce6b f i libcpmt:wlocale.obj
 0001:0012be6e       ??$_Adl_verify_range@PA_WPB_W@std@@YAXABQA_WABQB_W@Z 3012ce6e f i libcpmt:wlocale.obj
 0001:0012be71       ??$_Adl_verify_range@PBGPBG@std@@YAXABQBG0@Z 3012ce71 f i libcpmt:wlocale.obj
 0001:0012be74       ??$_Adl_verify_range@PB_WPB_W@std@@YAXABQB_W0@Z 3012ce74 f i libcpmt:wlocale.obj
 0001:0012be77       ??$_Adl_verify_range@V?$istreambuf_iterator@GU?$char_traits@G@std@@@std@@V12@@std@@YAXABV?$istreambuf_iterator@GU?$char_traits@G@std@@@0@0@Z 3012ce77 f i libcpmt:wlocale.obj
 0001:0012be7a       ??$_Adl_verify_range@V?$istreambuf_iterator@_WU?$char_traits@_W@std@@@std@@V12@@std@@YAXABV?$istreambuf_iterator@_WU?$char_traits@_W@std@@@0@0@Z 3012ce7a f i libcpmt:wlocale.obj
 0001:0012be7d       ??$_Allocate_at_least_helper@V?$allocator@G@std@@@std@@YAPAGAAV?$allocator@G@0@AAI@Z 3012ce7d f i libcpmt:wlocale.obj
 0001:0012be93       ??$_Allocate_at_least_helper@V?$allocator@_W@std@@@std@@YAPA_WAAV?$allocator@_W@0@AAI@Z 3012ce93 f i libcpmt:wlocale.obj
 0001:0012bea9       ??$_Allocate_for_capacity@$0A@@?$basic_string@GU?$char_traits@G@std@@V?$allocator@G@2@@std@@CAPAGAAV?$allocator@G@1@AAI@Z 3012cea9 f i libcpmt:wlocale.obj
 0001:0012bec7       ??$_Allocate_for_capacity@$0A@@?$basic_string@_WU?$char_traits@_W@std@@V?$allocator@_W@2@@std@@CAPA_WAAV?$allocator@_W@1@AAI@Z 3012cec7 f i libcpmt:wlocale.obj
 0001:0012bee5       ??$_Append@G@?$basic_string@GU?$char_traits@G@std@@V?$allocator@G@2@@std@@AAEAAV01@QBGI@Z 3012cee5 f i libcpmt:wlocale.obj
 0001:0012bf6f       ??$_Append@_W@?$basic_string@_WU?$char_traits@_W@std@@V?$allocator@_W@2@@std@@AAEAAV01@QB_WI@Z 3012cf6f f i libcpmt:wlocale.obj
 0001:0012bff9       ??$_Construct@$00PBG@?$basic_string@GU?$char_traits@G@std@@V?$allocator@G@2@@std@@AAEXQBGI@Z 3012cff9 f i libcpmt:wlocale.obj
 0001:0012c0a3       ??$_Construct@$00PB_W@?$basic_string@_WU?$char_traits@_W@std@@V?$allocator@_W@2@@std@@AAEXQB_WI@Z 3012d0a3 f i libcpmt:wlocale.obj
 0001:0012c14d       ??$_Construct@$01PBG@?$basic_string@GU?$char_traits@G@std@@V?$allocator@G@2@@std@@AAEXQBGI@Z 3012d14d f i libcpmt:wlocale.obj
 0001:0012c1eb       ??$_Construct@$01PB_W@?$basic_string@_WU?$char_traits@_W@std@@V?$allocator@_W@2@@std@@AAEXQB_WI@Z 3012d1eb f i libcpmt:wlocale.obj
 0001:0012c289       ??$_Construct@$0A@G@?$basic_string@GU?$char_traits@G@std@@V?$allocator@G@2@@std@@AAEXGI@Z 3012d289 f i libcpmt:wlocale.obj
 0001:0012c331       ??$_Construct@$0A@_W@?$basic_string@_WU?$char_traits@_W@std@@V?$allocator@_W@2@@std@@AAEX_WI@Z 3012d331 f i libcpmt:wlocale.obj
 0001:0012c3d9       ??$_Construct_in_place@PAGAAPAG@std@@YAXAAPAG0@Z 3012d3d9 f i libcpmt:wlocale.obj
 0001:0012c3eb       ??$_Construct_in_place@PAGABQAG@std@@YAXAAPAGABQAG@Z 3012d3eb f i libcpmt:wlocale.obj
 0001:0012c3fd       ??$_Construct_in_place@PA_WAAPA_W@std@@YAXAAPA_W0@Z 3012d3fd f i libcpmt:wlocale.obj
 0001:0012c40f       ??$_Construct_in_place@PA_WABQA_W@std@@YAXAAPA_WABQA_W@Z 3012d40f f i libcpmt:wlocale.obj
 0001:0012c421       ??$_Copy_unchecked@PA_WPA_WV?$ostreambuf_iterator@GU?$char_traits@G@std@@@std@@@std@@YA?AV?$ostreambuf_iterator@GU?$char_traits@G@std@@@0@PA_W0V10@@Z 3012d421 f i libcpmt:wlocale.obj
 0001:0012c45a       ??$_Copy_unchecked@PA_WPA_WV?$ostreambuf_iterator@_WU?$char_traits@_W@std@@@std@@@std@@YA?AV?$ostreambuf_iterator@_WU?$char_traits@_W@std@@@0@PA_W0V10@@Z 3012d45a f i libcpmt:wlocale.obj
 0001:0012c493       ??$_Could_compare_equal_to_value_type@PBGG@std@@YA_NABG@Z 3012d493 f i libcpmt:wlocale.obj
 0001:0012c496       ??$_Could_compare_equal_to_value_type@PB_W_W@std@@YA_NAB_W@Z 3012d496 f i libcpmt:wlocale.obj
 0001:0012c499       ??$_Destroy_in_place@PAG@std@@YAXAAPAG@Z 3012d499 f i libcpmt:wlocale.obj
 0001:0012c49c       ??$_Destroy_in_place@PA_W@std@@YAXAAPA_W@Z 3012d49c f i libcpmt:wlocale.obj
 0001:0012c49f       ??$_Find_elem@G$0BL@@std@@YAIAAY0BL@$$CBGG@Z 3012d49f f i libcpmt:wlocale.obj
 0001:0012c4c0       ??$_Find_elem@G$0BN@@std@@YAIAAY0BN@$$CBGG@Z 3012d4c0 f i libcpmt:wlocale.obj
 0001:0012c4e1       ??$_Find_elem@G$0M@@std@@YAIAAY0M@$$CBGG@Z 3012d4e1 f i libcpmt:wlocale.obj
 0001:0012c502       ??$_Find_elem@_W$0BL@@std@@YAIAAY0BL@$$CB_W_W@Z 3012d502 f i libcpmt:wlocale.obj
 0001:0012c523       ??$_Find_elem@_W$0BN@@std@@YAIAAY0BN@$$CB_W_W@Z 3012d523 f i libcpmt:wlocale.obj
 0001:0012c544       ??$_Find_elem@_W$0M@@std@@YAIAAY0M@$$CB_W_W@Z 3012d544 f i libcpmt:wlocale.obj
 0001:0012c565       ??$_Find_unchecked@PBGG@std@@YAPBGPBGQBGABG@Z 3012d565 f i libcpmt:wlocale.obj
 0001:0012c581       ??$_Find_unchecked@PB_W_W@std@@YAPB_WPB_WQB_WAB_W@Z 3012d581 f i libcpmt:wlocale.obj
 0001:0012c59d       ??$_Find_vectorized@$$CBGG@std@@YAPBGQBG0G@Z 3012d59d f i libcpmt:wlocale.obj
 0001:0012c5b4       ??$_Find_vectorized@$$CB_W_W@std@@YAPB_WQB_W0_W@Z 3012d5b4 f i libcpmt:wlocale.obj
 0001:0012c5cb       ??$_Fput_v3@$0A@@?$num_put@GV?$ostreambuf_iterator@GU?$char_traits@G@std@@@std@@@std@@ABE?AV?$ostreambuf_iterator@GU?$char_traits@G@std@@@1@V21@AAVios_base@1@GPBDI_N@Z 3012d5cb f i libcpmt:wlocale.obj
 0001:0012c9ac       ??$_Fput_v3@$0A@@?$num_put@_WV?$ostreambuf_iterator@_WU?$char_traits@_W@std@@@std@@@std@@ABE?AV?$ostreambuf_iterator@_WU?$char_traits@_W@std@@@1@V21@AAVios_base@1@_WPBDI_N@Z 3012d9ac f i libcpmt:wlocale.obj
 0001:0012cd8d       ??$_Get_proxy_allocator@V?$allocator@G@std@@@std@@YA?AU_Fake_allocator@0@ABV?$allocator@G@0@@Z 3012dd8d f i libcpmt:wlocale.obj
 0001:0012cd90       ??$_Get_proxy_allocator@V?$allocator@_W@std@@@std@@YA?AU_Fake_allocator@0@ABV?$allocator@_W@0@@Z 3012dd90 f i libcpmt:wlocale.obj
 0001:0012cd93       ??$_Get_size_of_n@$01@std@@YAII@Z 3012dd93 f i libcpmt:wlocale.obj
 0001:0012cdad       ??$_Get_unwrapped@AAPA_W@std@@YA?A_TAAPA_W@Z 3012ddad f i libcpmt:wlocale.obj
 0001:0012cdb9       ??$_Get_unwrapped_n@V?$ostreambuf_iterator@GU?$char_traits@G@std@@@std@@H@std@@YA?A_T$$QAV?$ostreambuf_iterator@GU?$char_traits@G@std@@@0@H@Z 3012ddb9 f i libcpmt:wlocale.obj
 0001:0012cdc3       ??$_Get_unwrapped_n@V?$ostreambuf_iterator@_WU?$char_traits@_W@std@@@std@@H@std@@YA?A_T$$QAV?$ostreambuf_iterator@_WU?$char_traits@_W@std@@@0@H@Z 3012ddc3 f i libcpmt:wlocale.obj
 0001:0012cdcd       ??$_Getint_v2@V?$istreambuf_iterator@GU?$char_traits@G@std@@@std@@G@std@@YAHAAV?$istreambuf_iterator@GU?$char_traits@G@std@@@0@0HHAAH1ABV?$ctype@G@0@@Z 3012ddcd f i libcpmt:wlocale.obj
 0001:0012d094       ??$_Getint_v2@V?$istreambuf_iterator@_WU?$char_traits@_W@std@@@std@@_W@std@@YAHAAV?$istreambuf_iterator@_WU?$char_traits@_W@std@@@0@0HHAAH1ABV?$ctype@_W@0@@Z 3012e094 f i libcpmt:wlocale.obj
 0001:0012d35b       ??$_Getloctxt@V?$istreambuf_iterator@GU?$char_traits@G@std@@@std@@D@std@@YAHAAV?$istreambuf_iterator@GU?$char_traits@G@std@@@0@0IPBDW4_Case_sensitive@0@@Z 3012e35b f i libcpmt:wlocale.obj
 0001:0012d617       ??$_Getloctxt@V?$istreambuf_iterator@GU?$char_traits@G@std@@@std@@G@std@@YAHAAV?$istreambuf_iterator@GU?$char_traits@G@std@@@0@0IPBGW4_Case_sensitive@0@@Z 3012e617 f i libcpmt:wlocale.obj
 0001:0012d8e9       ??$_Getloctxt@V?$istreambuf_iterator@_WU?$char_traits@_W@std@@@std@@D@std@@YAHAAV?$istreambuf_iterator@_WU?$char_traits@_W@std@@@0@0IPBDW4_Case_sensitive@0@@Z 3012e8e9 f i libcpmt:wlocale.obj
 0001:0012dba5       ??$_Getloctxt@V?$istreambuf_iterator@_WU?$char_traits@_W@std@@@std@@_W@std@@YAHAAV?$istreambuf_iterator@_WU?$char_traits@_W@std@@@0@0IPB_WW4_Case_sensitive@0@@Z 3012eba5 f i libcpmt:wlocale.obj
 0001:0012de77       ??$_Getvals@G@?$time_get@GV?$istreambuf_iterator@GU?$char_traits@G@std@@@std@@@std@@IAEXGABV_Locinfo@1@@Z 3012ee77 f i libcpmt:wlocale.obj
 0001:0012defc       ??$_Getvals@_W@?$time_get@_WV?$istreambuf_iterator@_WU?$char_traits@_W@std@@@std@@@std@@IAEX_WABV_Locinfo@1@@Z 3012eefc f i libcpmt:wlocale.obj
 0001:0012df6b       ??$_Hash_array_representation@G@std@@YAIQBGI@Z 3012ef6b f i libcpmt:wlocale.obj
 0001:0012df8c       ??$_Hash_array_representation@_W@std@@YAIQB_WI@Z 3012ef8c f i libcpmt:wlocale.obj
 0001:0012dfad       ??$_Idl_distance@PA_WPA_W@std@@YA?A_PABQA_W0@Z 3012efad f i libcpmt:wlocale.obj
 0001:0012dfc2       ??$_LStrcoll@G@std@@YAHPBG000PBU_Collvec@@@Z 3012efc2 f i libcpmt:wlocale.obj
 0001:0012dfcd       ??$_LStrcoll@_W@std@@YAHPB_W000PBU_Collvec@@@Z 3012efcd f i libcpmt:wlocale.obj
 0001:0012dfd8       ??$_LStrxfrm@G@std@@YAIPAG0PBG1PBU_Collvec@@@Z 3012efd8 f i libcpmt:wlocale.obj
 0001:0012dfe3       ??$_LStrxfrm@_W@std@@YAIPA_W0PB_W1PBU_Collvec@@@Z 3012efe3 f i libcpmt:wlocale.obj
 0001:0012dfee       ??$_Maklocchr@G@std@@YAGDPAGABU_Cvtvec@@@Z 3012efee f i libcpmt:wlocale.obj
 0001:0012e02d       ??$_Maklocchr@_W@std@@YA_WDPA_WABU_Cvtvec@@@Z 3012f02d f i libcpmt:wlocale.obj
 0001:0012e06c       ??$_Maklocstr@G@std@@YAPAGPBDPAGABU_Cvtvec@@@Z 3012f06c f i libcpmt:wlocale.obj
 0001:0012e13e       ??$_Maklocstr@_W@std@@YAPA_WPBDPA_WABU_Cvtvec@@@Z 3012f13e f i libcpmt:wlocale.obj
 0001:0012e210       ??$_Parse_fp_with_locale@$0A@@?$num_get@GV?$istreambuf_iterator@GU?$char_traits@G@std@@@std@@@std@@CA?AU_Num_get_parse_result@1@QADHAAV?$istreambuf_iterator@GU?$char_traits@G@std@@@1@1ABVlocale@1@@Z 3012f210 f i libcpmt:wlocale.obj
 0001:0012ee5e       ??$_Parse_fp_with_locale@$0A@@?$num_get@_WV?$istreambuf_iterator@_WU?$char_traits@_W@std@@@std@@@std@@CA?AU_Num_get_parse_result@1@QADHAAV?$istreambuf_iterator@_WU?$char_traits@_W@std@@@1@1ABVlocale@1@@Z 3012fe5e f i libcpmt:wlocale.obj
 0001:0012faac       ??$_Parse_int_with_locale@$0A@@?$num_get@GV?$istreambuf_iterator@GU?$char_traits@G@std@@@std@@@std@@CA?AU_Num_get_parse_result@1@QADAAV?$istreambuf_iterator@GU?$char_traits@G@std@@@1@1HABVlocale@1@@Z 30130aac f i libcpmt:wlocale.obj
 0001:001300c9       ??$_Parse_int_with_locale@$0A@@?$num_get@_WV?$istreambuf_iterator@_WU?$char_traits@_W@std@@@std@@@std@@CA?AU_Num_get_parse_result@1@QADAAV?$istreambuf_iterator@_WU?$char_traits@_W@std@@@1@1HABVlocale@1@@Z 301310c9 f i libcpmt:wlocale.obj
 0001:001306e6       ??$_Pocma@V?$allocator@G@std@@@std@@YAXAAV?$allocator@G@0@0@Z 301316e6 f i libcpmt:wlocale.obj
 0001:001306e9       ??$_Pocma@V?$allocator@_W@std@@@std@@YAXAAV?$allocator@_W@0@0@Z 301316e9 f i libcpmt:wlocale.obj
 0001:001306ec       ??$_Reallocate_grow_by@V<lambda_1>@?1???$_Append@G@?$basic_string@GU?$char_traits@G@std@@V?$allocator@G@2@@std@@AAEAAV23@QBGI@Z@PBGI@?$basic_string@GU?$char_traits@G@std@@V?$allocator@G@2@@std@@AAEAAV01@IV<lambda_1>@?1???$_Append@G@01@AAEAAV01@QBGI@Z@PBGI@Z 301316ec f i libcpmt:wlocale.obj
 0001:001307ba       ??$_Reallocate_grow_by@V<lambda_1>@?1???$_Append@_W@?$basic_string@_WU?$char_traits@_W@std@@V?$allocator@_W@2@@std@@AAEAAV23@QB_WI@Z@PB_WI@?$basic_string@_WU?$char_traits@_W@std@@V?$allocator@_W@2@@std@@AAEAAV01@IV<lambda_1>@?1???$_Append@_W@01@AAEAAV01@QB_WI@Z@PB_WI@Z 301317ba f i libcpmt:wlocale.obj
 0001:00130888       ??$_Reallocate_grow_by@V<lambda_1>@?1??append@?$basic_string@GU?$char_traits@G@std@@V?$allocator@G@2@@std@@QAEAAV34@IG@Z@IG@?$basic_string@GU?$char_traits@G@std@@V?$allocator@G@2@@std@@AAEAAV01@IV<lambda_1>@?1??append@01@QAEAAV01@IG@Z@IG@Z 30131888 f i libcpmt:wlocale.obj
 0001:00130956       ??$_Reallocate_grow_by@V<lambda_1>@?1??append@?$basic_string@_WU?$char_traits@_W@std@@V?$allocator@_W@2@@std@@QAEAAV34@I_W@Z@I_W@?$basic_string@_WU?$char_traits@_W@std@@V?$allocator@_W@2@@std@@AAEAAV01@IV<lambda_1>@?1??append@01@QAEAAV01@I_W@Z@I_W@Z 30131956 f i libcpmt:wlocale.obj
 0001:00130a24       ??$_Reallocate_grow_by@V<lambda_1>@?1??insert@?$basic_string@GU?$char_traits@G@std@@V?$allocator@G@2@@std@@QAEAAV34@IIG@Z@IIG@?$basic_string@GU?$char_traits@G@std@@V?$allocator@G@2@@std@@AAEAAV01@IV<lambda_1>@?1??insert@01@QAEAAV01@IIG@Z@IIG@Z 30131a24 f i libcpmt:wlocale.obj
 0001:00130afb       ??$_Reallocate_grow_by@V<lambda_1>@?1??insert@?$basic_string@_WU?$char_traits@_W@std@@V?$allocator@_W@2@@std@@QAEAAV34@II_W@Z@II_W@?$basic_string@_WU?$char_traits@_W@std@@V?$allocator@_W@2@@std@@AAEAAV01@IV<lambda_1>@?1??insert@01@QAEAAV01@II_W@Z@II_W@Z 30131afb f i libcpmt:wlocale.obj
 0001:00130bd2       ??$_Reallocate_grow_by@V<lambda_1>@?1??push_back@?$basic_string@GU?$char_traits@G@std@@V?$allocator@G@2@@std@@QAEXG@Z@G@?$basic_string@GU?$char_traits@G@std@@V?$allocator@G@2@@std@@AAEAAV01@IV<lambda_1>@?1??push_back@01@QAEXG@Z@G@Z 30131bd2 f i libcpmt:wlocale.obj
 0001:00130cd4       ??$_Reallocate_grow_by@V<lambda_1>@?1??push_back@?$basic_string@_WU?$char_traits@_W@std@@V?$allocator@_W@2@@std@@QAEX_W@Z@_W@?$basic_string@_WU?$char_traits@_W@std@@V?$allocator@_W@2@@std@@AAEAAV01@IV<lambda_1>@?1??push_back@01@QAEX_W@Z@_W@Z 30131cd4 f i libcpmt:wlocale.obj
 0001:00130dd6       ??$_Refancy@PAG$0A@@std@@YAPAGPAG@Z 30131dd6 f i libcpmt:wlocale.obj
 0001:00130de0       ??$_Refancy@PA_W$0A@@std@@YAPA_WPA_W@Z 30131de0 f i libcpmt:wlocale.obj
 0001:00130dea       ??$_Seek_wrapped@V?$ostreambuf_iterator@GU?$char_traits@G@std@@@std@@V12@@std@@YAXAAV?$ostreambuf_iterator@GU?$char_traits@G@std@@@0@$$QAV10@@Z 30131dea f i libcpmt:wlocale.obj
 0001:00130e04       ??$_Seek_wrapped@V?$ostreambuf_iterator@_WU?$char_traits@_W@std@@@std@@V12@@std@@YAXAAV?$ostreambuf_iterator@_WU?$char_traits@_W@std@@@0@$$QAV10@@Z 30131e04 f i libcpmt:wlocale.obj
 0001:00130e1e       ??$_To_address@PBG@std@@YA?A_PABQBG@Z 30131e1e f i libcpmt:wlocale.obj
 0001:00130e2a       ??$_To_address@PB_W@std@@YA?A_PABQB_W@Z 30131e2a f i libcpmt:wlocale.obj
 0001:00130e36       ??$_Traits_copy_batch@U?$char_traits@G@std@@G@std@@YAXQAGQBGI@Z 30131e36 f i libcpmt:wlocale.obj
 0001:00130e55       ??$_Traits_copy_batch@U?$char_traits@_W@std@@_W@std@@YAXQA_WQB_WI@Z 30131e55 f i libcpmt:wlocale.obj
 0001:00130e74       ??$_Traits_move_batch@U?$char_traits@G@std@@G@std@@YAXQAGQBGI@Z 30131e74 f i libcpmt:wlocale.obj
 0001:00130e93       ??$_Traits_move_batch@U?$char_traits@_W@std@@_W@std@@YAXQA_WQB_WI@Z 30131e93 f i libcpmt:wlocale.obj
 0001:00130eb2       ??$_Unfancy@G@std@@YAPAGPAG@Z 30131eb2 f i libcpmt:wlocale.obj
 0001:00130ebc       ??$_Unfancy@_W@std@@YAPA_WPA_W@Z 30131ebc f i libcpmt:wlocale.obj
 0001:00130ec6       ??$addressof@$$CBV?$moneypunct@G$00@std@@@std@@YAPBV?$moneypunct@G$00@0@ABV10@@Z 30131ec6 f i libcpmt:wlocale.obj
 0001:00130ed0       ??$addressof@$$CBV?$moneypunct@G$0A@@std@@@std@@YAPBV?$moneypunct@G$0A@@0@ABV10@@Z 30131ed0 f i libcpmt:wlocale.obj
 0001:00130eda       ??$addressof@$$CBV?$moneypunct@_W$00@std@@@std@@YAPBV?$moneypunct@_W$00@0@ABV10@@Z 30131eda f i libcpmt:wlocale.obj
 0001:00130ee4       ??$addressof@$$CBV?$moneypunct@_W$0A@@std@@@std@@YAPBV?$moneypunct@_W$0A@@0@ABV10@@Z 30131ee4 f i libcpmt:wlocale.obj
 0001:00130eee       ??$addressof@PAG@std@@YAPAPAGAAPAG@Z 30131eee f i libcpmt:wlocale.obj
 0001:00130ef8       ??$addressof@PA_W@std@@YAPAPA_WAAPA_W@Z 30131ef8 f i libcpmt:wlocale.obj
 0001:00130f02       ??$addressof@V?$_String_val@U?$_Simple_types@G@std@@@std@@@std@@YAPAV?$_String_val@U?$_Simple_types@G@std@@@0@AAV10@@Z 30131f02 f i libcpmt:wlocale.obj
 0001:00130f0c       ??$addressof@V?$_String_val@U?$_Simple_types@_W@std@@@std@@@std@@YAPAV?$_String_val@U?$_Simple_types@_W@std@@@0@AAV10@@Z 30131f0c f i libcpmt:wlocale.obj
 0001:00130f16       ??$addressof@V?$basic_string@GU?$char_traits@G@std@@V?$allocator@G@2@@std@@@std@@YAPAV?$basic_string@GU?$char_traits@G@std@@V?$allocator@G@2@@0@AAV10@@Z 30131f16 f i libcpmt:wlocale.obj
 0001:00130f20       ??$addressof@V?$basic_string@_WU?$char_traits@_W@std@@V?$allocator@_W@2@@std@@@std@@YAPAV?$basic_string@_WU?$char_traits@_W@std@@V?$allocator@_W@2@@0@AAV10@@Z 30131f20 f i libcpmt:wlocale.obj
 0001:00130f2a       ??$begin@$$CBD$0M@@std@@YAPBDAAY0M@$$CBD@Z 30131f2a f i libcpmt:wlocale.obj
 0001:00130f34       ??$construct_at@G$$V@std@@YAPAGQAG@Z 30131f34 f i libcpmt:wlocale.obj
 0001:00130f44       ??$construct_at@PAGAAPAG@std@@YAPAPAGQAPAGAAPAG@Z 30131f44 f i libcpmt:wlocale.obj
 0001:00130f56       ??$construct_at@PAGABQAG@std@@YAPAPAGQAPAGABQAG@Z 30131f56 f i libcpmt:wlocale.obj
 0001:00130f68       ??$construct_at@PA_WAAPA_W@std@@YAPAPA_WQAPA_WAAPA_W@Z 30131f68 f i libcpmt:wlocale.obj
 0001:00130f7a       ??$construct_at@PA_WABQA_W@std@@YAPAPA_WQAPA_WABQA_W@Z 30131f7a f i libcpmt:wlocale.obj
 0001:00130f8c       ??$construct_at@_W$$V@std@@YAPA_WQA_W@Z 30131f8c f i libcpmt:wlocale.obj
 0001:00130f9c       ??$copy@PA_WV?$ostreambuf_iterator@GU?$char_traits@G@std@@@std@@@std@@YA?AV?$ostreambuf_iterator@GU?$char_traits@G@std@@@0@PA_W0V10@@Z 30131f9c f i libcpmt:wlocale.obj
 0001:00130fd3       ??$copy@PA_WV?$ostreambuf_iterator@_WU?$char_traits@_W@std@@@std@@@std@@YA?AV?$ostreambuf_iterator@_WU?$char_traits@_W@std@@@0@PA_W0V10@@Z 30131fd3 f i libcpmt:wlocale.obj
 0001:0013100a       ??$end@$$CBD$0M@@std@@YAPBDAAY0M@$$CBD@Z 3013200a f i libcpmt:wlocale.obj
 0001:00131017       ??$forward@AAPAG@std@@YAAAPAGAAPAG@Z 30132017 f i libcpmt:wlocale.obj
 0001:00131021       ??$forward@AAPA_W@std@@YAAAPA_WAAPA_W@Z 30132021 f i libcpmt:wlocale.obj
 0001:0013102b       ??$forward@ABQAG@std@@YAABQAGABQAG@Z 3013202b f i libcpmt:wlocale.obj
 0001:00131035       ??$forward@ABQA_W@std@@YAABQA_WABQA_W@Z 30132035 f i libcpmt:wlocale.obj
 0001:0013103f       ??$forward@V?$allocator@G@std@@@std@@YA$$QAV?$allocator@G@0@AAV10@@Z 3013203f f i libcpmt:wlocale.obj
 0001:00131049       ??$forward@V?$allocator@_W@std@@@std@@YA$$QAV?$allocator@_W@0@AAV10@@Z 30132049 f i libcpmt:wlocale.obj
 0001:00131053       ??$forward@V?$ostreambuf_iterator@GU?$char_traits@G@std@@@std@@@std@@YA$$QAV?$ostreambuf_iterator@GU?$char_traits@G@std@@@0@AAV10@@Z 30132053 f i libcpmt:wlocale.obj
 0001:0013105d       ??$forward@V?$ostreambuf_iterator@_WU?$char_traits@_W@std@@@std@@@std@@YA$$QAV?$ostreambuf_iterator@_WU?$char_traits@_W@std@@@0@AAV10@@Z 3013205d f i libcpmt:wlocale.obj
 0001:00131067       ??$move@AAV?$allocator@G@std@@@std@@YA$$QAV?$allocator@G@0@AAV10@@Z 30132067 f i libcpmt:wlocale.obj
 0001:00131071       ??$move@AAV?$allocator@_W@std@@@std@@YA$$QAV?$allocator@_W@0@AAV10@@Z 30132071 f i libcpmt:wlocale.obj
 0001:0013107b       ??$move@AAV?$basic_string@GU?$char_traits@G@std@@V?$allocator@G@2@@std@@@std@@YA$$QAV?$basic_string@GU?$char_traits@G@std@@V?$allocator@G@2@@0@AAV10@@Z 3013207b f i libcpmt:wlocale.obj
 0001:00131085       ??$move@AAV?$basic_string@_WU?$char_traits@_W@std@@V?$allocator@_W@2@@std@@@std@@YA$$QAV?$basic_string@_WU?$char_traits@_W@std@@V?$allocator@_W@2@@0@AAV10@@Z 30132085 f i libcpmt:wlocale.obj
 0001:0013108f       ??$move@AAV?$ostreambuf_iterator@GU?$char_traits@G@std@@@std@@@std@@YA$$QAV?$ostreambuf_iterator@GU?$char_traits@G@std@@@0@AAV10@@Z 3013208f f i libcpmt:wlocale.obj
 0001:00131099       ??$move@AAV?$ostreambuf_iterator@_WU?$char_traits@_W@std@@@std@@@std@@YA$$QAV?$ostreambuf_iterator@_WU?$char_traits@_W@std@@@0@AAV10@@Z 30132099 f i libcpmt:wlocale.obj
 0001:001310a3       ??$to_address@$$CBG@std@@YAPBGQBG@Z 301320a3 f i libcpmt:wlocale.obj
 0001:001310ad       ??$to_address@$$CB_W@std@@YAPB_WQB_W@Z 301320ad f i libcpmt:wlocale.obj
 0001:001310b7       ??$use_facet@V?$codecvt@GDU_Mbstatet@@@std@@@std@@YAABV?$codecvt@GDU_Mbstatet@@@0@ABVlocale@0@@Z 301320b7 f i libcpmt:wlocale.obj
 0001:00131175       ??$use_facet@V?$codecvt@_WDU_Mbstatet@@@std@@@std@@YAABV?$codecvt@_WDU_Mbstatet@@@0@ABVlocale@0@@Z 30132175 f i libcpmt:wlocale.obj
 0001:00131233       ??$use_facet@V?$collate@G@std@@@std@@YAABV?$collate@G@0@ABVlocale@0@@Z 30132233 f i libcpmt:wlocale.obj
 0001:001312f1       ??$use_facet@V?$collate@_W@std@@@std@@YAABV?$collate@_W@0@ABVlocale@0@@Z 301322f1 f i libcpmt:wlocale.obj
 0001:001313af       ??$use_facet@V?$ctype@G@std@@@std@@YAABV?$ctype@G@0@ABVlocale@0@@Z 301323af f i libcpmt:wlocale.obj
 0001:0013146d       ??$use_facet@V?$ctype@_W@std@@@std@@YAABV?$ctype@_W@0@ABVlocale@0@@Z 3013246d f i libcpmt:wlocale.obj
 0001:0013152b       ??$use_facet@V?$messages@G@std@@@std@@YAABV?$messages@G@0@ABVlocale@0@@Z 3013252b f i libcpmt:wlocale.obj
 0001:001315e9       ??$use_facet@V?$messages@_W@std@@@std@@YAABV?$messages@_W@0@ABVlocale@0@@Z 301325e9 f i libcpmt:wlocale.obj
 0001:001316a7       ??$use_facet@V?$money_get@GV?$istreambuf_iterator@GU?$char_traits@G@std@@@std@@@std@@@std@@YAABV?$money_get@GV?$istreambuf_iterator@GU?$char_traits@G@std@@@std@@@0@ABVlocale@0@@Z 301326a7 f i libcpmt:wlocale.obj
 0001:00131765       ??$use_facet@V?$money_get@_WV?$istreambuf_iterator@_WU?$char_traits@_W@std@@@std@@@std@@@std@@YAABV?$money_get@_WV?$istreambuf_iterator@_WU?$char_traits@_W@std@@@std@@@0@ABVlocale@0@@Z 30132765 f i libcpmt:wlocale.obj
 0001:00131823       ??$use_facet@V?$money_put@GV?$ostreambuf_iterator@GU?$char_traits@G@std@@@std@@@std@@@std@@YAABV?$money_put@GV?$ostreambuf_iterator@GU?$char_traits@G@std@@@std@@@0@ABVlocale@0@@Z 30132823 f i libcpmt:wlocale.obj
 0001:001318e1       ??$use_facet@V?$money_put@_WV?$ostreambuf_iterator@_WU?$char_traits@_W@std@@@std@@@std@@@std@@YAABV?$money_put@_WV?$ostreambuf_iterator@_WU?$char_traits@_W@std@@@std@@@0@ABVlocale@0@@Z 301328e1 f i libcpmt:wlocale.obj
 0001:0013199f       ??$use_facet@V?$moneypunct@G$00@std@@@std@@YAABV?$moneypunct@G$00@0@ABVlocale@0@@Z 3013299f f i libcpmt:wlocale.obj
 0001:00131a5d       ??$use_facet@V?$moneypunct@G$0A@@std@@@std@@YAABV?$moneypunct@G$0A@@0@ABVlocale@0@@Z 30132a5d f i libcpmt:wlocale.obj
 0001:00131b1b       ??$use_facet@V?$moneypunct@_W$00@std@@@std@@YAABV?$moneypunct@_W$00@0@ABVlocale@0@@Z 30132b1b f i libcpmt:wlocale.obj
 0001:00131bd9       ??$use_facet@V?$moneypunct@_W$0A@@std@@@std@@YAABV?$moneypunct@_W$0A@@0@ABVlocale@0@@Z 30132bd9 f i libcpmt:wlocale.obj
 0001:00131c97       ??$use_facet@V?$num_get@GV?$istreambuf_iterator@GU?$char_traits@G@std@@@std@@@std@@@std@@YAABV?$num_get@GV?$istreambuf_iterator@GU?$char_traits@G@std@@@std@@@0@ABVlocale@0@@Z 30132c97 f i libcpmt:wlocale.obj
 0001:00131d55       ??$use_facet@V?$num_get@_WV?$istreambuf_iterator@_WU?$char_traits@_W@std@@@std@@@std@@@std@@YAABV?$num_get@_WV?$istreambuf_iterator@_WU?$char_traits@_W@std@@@std@@@0@ABVlocale@0@@Z 30132d55 f i libcpmt:wlocale.obj
 0001:00131e13       ??$use_facet@V?$num_put@GV?$ostreambuf_iterator@GU?$char_traits@G@std@@@std@@@std@@@std@@YAABV?$num_put@GV?$ostreambuf_iterator@GU?$char_traits@G@std@@@std@@@0@ABVlocale@0@@Z 30132e13 f i libcpmt:wlocale.obj
 0001:00131ed1       ??$use_facet@V?$num_put@_WV?$ostreambuf_iterator@_WU?$char_traits@_W@std@@@std@@@std@@@std@@YAABV?$num_put@_WV?$ostreambuf_iterator@_WU?$char_traits@_W@std@@@std@@@0@ABVlocale@0@@Z 30132ed1 f i libcpmt:wlocale.obj
 0001:00131f8f       ??$use_facet@V?$numpunct@G@std@@@std@@YAABV?$numpunct@G@0@ABVlocale@0@@Z 30132f8f f i libcpmt:wlocale.obj
 0001:0013204d       ??$use_facet@V?$numpunct@_W@std@@@std@@YAABV?$numpunct@_W@0@ABVlocale@0@@Z 3013304d f i libcpmt:wlocale.obj
 0001:0013210b       ??$use_facet@V?$time_get@GV?$istreambuf_iterator@GU?$char_traits@G@std@@@std@@@std@@@std@@YAABV?$time_get@GV?$istreambuf_iterator@GU?$char_traits@G@std@@@std@@@0@ABVlocale@0@@Z 3013310b f i libcpmt:wlocale.obj
 0001:001321c9       ??$use_facet@V?$time_get@_WV?$istreambuf_iterator@_WU?$char_traits@_W@std@@@std@@@std@@@std@@YAABV?$time_get@_WV?$istreambuf_iterator@_WU?$char_traits@_W@std@@@std@@@0@ABVlocale@0@@Z 301331c9 f i libcpmt:wlocale.obj
 0001:00132287       ??$use_facet@V?$time_put@GV?$ostreambuf_iterator@GU?$char_traits@G@std@@@std@@@std@@@std@@YAABV?$time_put@GV?$ostreambuf_iterator@GU?$char_traits@G@std@@@std@@@0@ABVlocale@0@@Z 30133287 f i libcpmt:wlocale.obj
 0001:00132345       ??$use_facet@V?$time_put@_WV?$ostreambuf_iterator@_WU?$char_traits@_W@std@@@std@@@std@@@std@@YAABV?$time_put@_WV?$ostreambuf_iterator@_WU?$char_traits@_W@std@@@std@@@0@ABVlocale@0@@Z 30133345 f i libcpmt:wlocale.obj
 0001:00132403       ??0?$_Mpunct@G@std@@QAE@ABV_Locinfo@1@I_N1@Z 30133403 f i libcpmt:wlocale.obj
 0001:00132451       ??0?$_Mpunct@_W@std@@QAE@ABV_Locinfo@1@I_N1@Z 30133451 f i libcpmt:wlocale.obj
 0001:0013249f       ??0?$_String_const_iterator@V?$_String_val@U?$_Simple_types@G@std@@@std@@@std@@QAE@PBGPBU_Container_base0@1@@Z 3013349f f i libcpmt:wlocale.obj
 0001:001324b0       ??0?$_String_const_iterator@V?$_String_val@U?$_Simple_types@G@std@@@std@@@std@@QAE@XZ 301334b0 f i libcpmt:wlocale.obj
 0001:001324bb       ??0?$_String_const_iterator@V?$_String_val@U?$_Simple_types@_W@std@@@std@@@std@@QAE@PB_WPBU_Container_base0@1@@Z 301334bb f i libcpmt:wlocale.obj
 0001:001324cc       ??0?$_String_const_iterator@V?$_String_val@U?$_Simple_types@_W@std@@@std@@@std@@QAE@XZ 301334cc f i libcpmt:wlocale.obj
 0001:001324d7       ??0?$_String_iterator@V?$_String_val@U?$_Simple_types@G@std@@@std@@@std@@QAE@PBGPBU_Container_base0@1@@Z 301334d7 f i libcpmt:wlocale.obj
 0001:001324e8       ??0?$_String_iterator@V?$_String_val@U?$_Simple_types@_W@std@@@std@@@std@@QAE@PB_WPBU_Container_base0@1@@Z 301334e8 f i libcpmt:wlocale.obj
 0001:001324f9       ??0?$_String_val@U?$_Simple_types@G@std@@@std@@QAE@XZ 301334f9 f i libcpmt:wlocale.obj
 0001:0013251a       ??0?$_String_val@U?$_Simple_types@_W@std@@@std@@QAE@XZ 3013351a f i libcpmt:wlocale.obj
 0001:0013253b       ??0?$allocator@G@std@@QAE@XZ 3013353b f i libcpmt:wlocale.obj
 0001:0013253e       ??0?$allocator@_W@std@@QAE@XZ 3013353e f i libcpmt:wlocale.obj
 0001:00132541       ??0?$basic_string@GU?$char_traits@G@std@@V?$allocator@G@2@@std@@QAE@$$QAV01@@Z 30133541 f i libcpmt:wlocale.obj
 0001:00132579       ??0?$basic_string@GU?$char_traits@G@std@@V?$allocator@G@2@@std@@QAE@ABV01@@Z 30133579 f i libcpmt:wlocale.obj
 0001:001325c4       ??0?$basic_string@GU?$char_traits@G@std@@V?$allocator@G@2@@std@@QAE@IG@Z 301335c4 f i libcpmt:wlocale.obj
 0001:00132600       ??0?$basic_string@GU?$char_traits@G@std@@V?$allocator@G@2@@std@@QAE@QBG@Z 30133600 f i libcpmt:wlocale.obj
 0001:0013264e       ??0?$basic_string@GU?$char_traits@G@std@@V?$allocator@G@2@@std@@QAE@QBGI@Z 3013364e f i libcpmt:wlocale.obj
 0001:0013268a       ??0?$basic_string@GU?$char_traits@G@std@@V?$allocator@G@2@@std@@QAE@XZ 3013368a f i libcpmt:wlocale.obj
 0001:001326b2       ??0?$basic_string@_WU?$char_traits@_W@std@@V?$allocator@_W@2@@std@@QAE@$$QAV01@@Z 301336b2 f i libcpmt:wlocale.obj
 0001:001326ea       ??0?$basic_string@_WU?$char_traits@_W@std@@V?$allocator@_W@2@@std@@QAE@ABV01@@Z 301336ea f i libcpmt:wlocale.obj
 0001:00132735       ??0?$basic_string@_WU?$char_traits@_W@std@@V?$allocator@_W@2@@std@@QAE@I_W@Z 30133735 f i libcpmt:wlocale.obj
 0001:00132771       ??0?$basic_string@_WU?$char_traits@_W@std@@V?$allocator@_W@2@@std@@QAE@QB_W@Z 30133771 f i libcpmt:wlocale.obj
 0001:001327bf       ??0?$basic_string@_WU?$char_traits@_W@std@@V?$allocator@_W@2@@std@@QAE@QB_WI@Z 301337bf f i libcpmt:wlocale.obj
 0001:001327fb       ??0?$basic_string@_WU?$char_traits@_W@std@@V?$allocator@_W@2@@std@@QAE@XZ 301337fb f i libcpmt:wlocale.obj
 0001:00132823       ??0?$codecvt@GDU_Mbstatet@@@std@@QAE@ABV_Locinfo@1@I@Z 30133823 f i libcpmt:wlocale.obj
 0001:00132867       ??0?$codecvt@_WDU_Mbstatet@@@std@@QAE@ABV_Locinfo@1@I@Z 30133867 f i libcpmt:wlocale.obj
 0001:001328ab       ??0?$collate@G@std@@QAE@ABV_Locinfo@1@I@Z 301338ab f i libcpmt:wlocale.obj
 0001:001328dd       ??0?$collate@_W@std@@QAE@ABV_Locinfo@1@I@Z 301338dd f i libcpmt:wlocale.obj
 0001:0013290f       ??0?$ctype@G@std@@QAE@ABV_Locinfo@1@I@Z 3013390f f i libcpmt:wlocale.obj
 0001:0013293d       ??0?$ctype@_W@std@@QAE@ABV_Locinfo@1@I@Z 3013393d f i libcpmt:wlocale.obj
 0001:0013296b       ??0?$messages@G@std@@QAE@ABV_Locinfo@1@I@Z 3013396b f i libcpmt:wlocale.obj
 0001:0013298a       ??0?$messages@_W@std@@QAE@ABV_Locinfo@1@I@Z 3013398a f i libcpmt:wlocale.obj
 0001:001329a9       ??0?$money_get@GV?$istreambuf_iterator@GU?$char_traits@G@std@@@std@@@std@@QAE@ABV_Locinfo@1@I@Z 301339a9 f i libcpmt:wlocale.obj
 0001:001329c8       ??0?$money_get@_WV?$istreambuf_iterator@_WU?$char_traits@_W@std@@@std@@@std@@QAE@ABV_Locinfo@1@I@Z 301339c8 f i libcpmt:wlocale.obj
 0001:001329e7       ??0?$money_put@GV?$ostreambuf_iterator@GU?$char_traits@G@std@@@std@@@std@@QAE@ABV_Locinfo@1@I@Z 301339e7 f i libcpmt:wlocale.obj
 0001:00132a06       ??0?$money_put@_WV?$ostreambuf_iterator@_WU?$char_traits@_W@std@@@std@@@std@@QAE@ABV_Locinfo@1@I@Z 30133a06 f i libcpmt:wlocale.obj
 0001:00132a25       ??0?$moneypunct@G$00@std@@QAE@ABV_Locinfo@1@I_N@Z 30133a25 f i libcpmt:wlocale.obj
 0001:00132a55       ??0?$moneypunct@G$0A@@std@@QAE@ABV_Locinfo@1@I_N@Z 30133a55 f i libcpmt:wlocale.obj
 0001:00132a85       ??0?$moneypunct@_W$00@std@@QAE@ABV_Locinfo@1@I_N@Z 30133a85 f i libcpmt:wlocale.obj
 0001:00132ab5       ??0?$moneypunct@_W$0A@@std@@QAE@ABV_Locinfo@1@I_N@Z 30133ab5 f i libcpmt:wlocale.obj
 0001:00132ae5       ??0?$num_get@GV?$istreambuf_iterator@GU?$char_traits@G@std@@@std@@@std@@QAE@ABV_Locinfo@1@I@Z 30133ae5 f i libcpmt:wlocale.obj
 0001:00132b04       ??0?$num_get@_WV?$istreambuf_iterator@_WU?$char_traits@_W@std@@@std@@@std@@QAE@ABV_Locinfo@1@I@Z 30133b04 f i libcpmt:wlocale.obj
 0001:00132b23       ??0?$num_put@GV?$ostreambuf_iterator@GU?$char_traits@G@std@@@std@@@std@@QAE@ABV_Locinfo@1@I@Z 30133b23 f i libcpmt:wlocale.obj
 0001:00132b42       ??0?$num_put@_WV?$ostreambuf_iterator@_WU?$char_traits@_W@std@@@std@@@std@@QAE@ABV_Locinfo@1@I@Z 30133b42 f i libcpmt:wlocale.obj
 0001:00132b61       ??0?$numpunct@G@std@@QAE@ABV_Locinfo@1@I_N@Z 30133b61 f i libcpmt:wlocale.obj
 0001:00132ba8       ??0?$numpunct@_W@std@@QAE@ABV_Locinfo@1@I_N@Z 30133ba8 f i libcpmt:wlocale.obj
 0001:00132bef       ??0?$time_get@GV?$istreambuf_iterator@GU?$char_traits@G@std@@@std@@@std@@QAE@ABV_Locinfo@1@I@Z 30133bef f i libcpmt:wlocale.obj
 0001:00132c32       ??0?$time_get@_WV?$istreambuf_iterator@_WU?$char_traits@_W@std@@@std@@@std@@QAE@ABV_Locinfo@1@I@Z 30133c32 f i libcpmt:wlocale.obj
 0001:00132c75       ??0?$time_put@GV?$ostreambuf_iterator@GU?$char_traits@G@std@@@std@@@std@@QAE@ABV_Locinfo@1@I@Z 30133c75 f i libcpmt:wlocale.obj
 0001:00132cac       ??0?$time_put@_WV?$ostreambuf_iterator@_WU?$char_traits@_W@std@@@std@@@std@@QAE@ABV_Locinfo@1@I@Z 30133cac f i libcpmt:wlocale.obj
 0001:00132ce3       ??0_Bxty@?$_String_val@U?$_Simple_types@G@std@@@std@@QAE@XZ 30133ce3 f i libcpmt:wlocale.obj
 0001:00132cf3       ??0_Bxty@?$_String_val@U?$_Simple_types@_W@std@@@std@@QAE@XZ 30133cf3 f i libcpmt:wlocale.obj
 0001:00132d03       ??0_Timevec@std@@QAE@PAX@Z 30133d03 f i libcpmt:wlocale.obj
 0001:00132d14       ??0messages_base@std@@QAE@I@Z 30133d14 f i libcpmt:wlocale.obj
 0001:00132d2e       ??0money_base@std@@QAE@I@Z 30133d2e f i libcpmt:wlocale.obj
 0001:00132d48       ??0time_base@std@@QAE@I@Z  30133d48 f i libcpmt:wlocale.obj
 0001:00132d62       ??1?$_Compressed_pair@V?$allocator@G@std@@V?$_String_val@U?$_Simple_types@G@std@@@2@$00@std@@QAE@XZ 30133d62 f i libcpmt:wlocale.obj
 0001:00132d65       ??1?$_Compressed_pair@V?$allocator@_W@std@@V?$_String_val@U?$_Simple_types@_W@std@@@2@$00@std@@QAE@XZ 30133d65 f i libcpmt:wlocale.obj
 0001:00132d68       ??1?$_Mpunct@G@std@@MAE@XZ 30133d68 f i libcpmt:wlocale.obj
 0001:00132d83       ??1?$_Mpunct@_W@std@@MAE@XZ 30133d83 f i libcpmt:wlocale.obj
 0001:00132d9e       ??1?$_String_val@U?$_Simple_types@G@std@@@std@@QAE@XZ 30133d9e f i libcpmt:wlocale.obj
 0001:00132da1       ??1?$_String_val@U?$_Simple_types@_W@std@@@std@@QAE@XZ 30133da1 f i libcpmt:wlocale.obj
 0001:00132da4       ??1?$_Tidy_guard@V?$_Mpunct@G@std@@@std@@QAE@XZ 30133da4 f i libcpmt:wlocale.obj
 0001:00132db1       ??1?$_Tidy_guard@V?$_Mpunct@_W@std@@@std@@QAE@XZ 30133db1 f i libcpmt:wlocale.obj
 0001:00132dbe       ??1?$_Tidy_guard@V?$numpunct@G@std@@@std@@QAE@XZ 30133dbe f i libcpmt:wlocale.obj
 0001:00132dcb       ??1?$_Tidy_guard@V?$numpunct@_W@std@@@std@@QAE@XZ 30133dcb f i libcpmt:wlocale.obj
 0001:00132dd8       ??1?$_Tidy_guard@V?$time_get@GV?$istreambuf_iterator@GU?$char_traits@G@std@@@std@@@std@@@std@@QAE@XZ 30133dd8 f i libcpmt:wlocale.obj
 0001:00132de5       ??1?$_Tidy_guard@V?$time_get@_WV?$istreambuf_iterator@_WU?$char_traits@_W@std@@@std@@@std@@@std@@QAE@XZ 30133de5 f i libcpmt:wlocale.obj
 0001:00132df2       ??1?$basic_string@GU?$char_traits@G@std@@V?$allocator@G@2@@std@@QAE@XZ 30133df2 f i libcpmt:wlocale.obj
 0001:00132df7       ??1?$basic_string@_WU?$char_traits@_W@std@@V?$allocator@_W@2@@std@@QAE@XZ 30133df7 f i libcpmt:wlocale.obj
 0001:00132dfc       ??1?$codecvt@GDU_Mbstatet@@@std@@MAE@XZ 30133dfc f i libcpmt:wlocale.obj
 0001:00132e03       ??1?$codecvt@_WDU_Mbstatet@@@std@@MAE@XZ 30133e03 f i libcpmt:wlocale.obj
 0001:00132e0a       ??1?$collate@G@std@@MAE@XZ 30133e0a f i libcpmt:wlocale.obj
 0001:00132e2a       ??1?$collate@_W@std@@MAE@XZ 30133e2a f i libcpmt:wlocale.obj
 0001:00132e4a       ??1?$ctype@G@std@@MAE@XZ   30133e4a f i libcpmt:wlocale.obj
 0001:00132e7d       ??1?$ctype@_W@std@@MAE@XZ  30133e7d f i libcpmt:wlocale.obj
 0001:00132eb0       ??1?$messages@G@std@@MAE@XZ 30133eb0 f i libcpmt:wlocale.obj
 0001:00132eb7       ??1?$messages@_W@std@@MAE@XZ 30133eb7 f i libcpmt:wlocale.obj
 0001:00132ebe       ??1?$money_get@GV?$istreambuf_iterator@GU?$char_traits@G@std@@@std@@@std@@MAE@XZ 30133ebe f i libcpmt:wlocale.obj
 0001:00132ec5       ??1?$money_get@_WV?$istreambuf_iterator@_WU?$char_traits@_W@std@@@std@@@std@@MAE@XZ 30133ec5 f i libcpmt:wlocale.obj
 0001:00132ecc       ??1?$money_put@GV?$ostreambuf_iterator@GU?$char_traits@G@std@@@std@@@std@@MAE@XZ 30133ecc f i libcpmt:wlocale.obj
 0001:00132ed3       ??1?$money_put@_WV?$ostreambuf_iterator@_WU?$char_traits@_W@std@@@std@@@std@@MAE@XZ 30133ed3 f i libcpmt:wlocale.obj
 0001:00132eda       ??1?$moneypunct@G$00@std@@MAE@XZ 30133eda f i libcpmt:wlocale.obj
 0001:00132ef5       ??1?$moneypunct@G$0A@@std@@MAE@XZ 30133ef5 f i libcpmt:wlocale.obj
 0001:00132f10       ??1?$moneypunct@_W$00@std@@MAE@XZ 30133f10 f i libcpmt:wlocale.obj
 0001:00132f2b       ??1?$moneypunct@_W$0A@@std@@MAE@XZ 30133f2b f i libcpmt:wlocale.obj
 0001:00132f46       ??1?$num_get@GV?$istreambuf_iterator@GU?$char_traits@G@std@@@std@@@std@@MAE@XZ 30133f46 f i libcpmt:wlocale.obj
 0001:00132f4d       ??1?$num_get@_WV?$istreambuf_iterator@_WU?$char_traits@_W@std@@@std@@@std@@MAE@XZ 30133f4d f i libcpmt:wlocale.obj
 0001:00132f54       ??1?$num_put@GV?$ostreambuf_iterator@GU?$char_traits@G@std@@@std@@@std@@MAE@XZ 30133f54 f i libcpmt:wlocale.obj
 0001:00132f5b       ??1?$num_put@_WV?$ostreambuf_iterator@_WU?$char_traits@_W@std@@@std@@@std@@MAE@XZ 30133f5b f i libcpmt:wlocale.obj
 0001:00132f62       ??1?$numpunct@G@std@@MAE@XZ 30133f62 f i libcpmt:wlocale.obj
 0001:00132f7d       ??1?$numpunct@_W@std@@MAE@XZ 30133f7d f i libcpmt:wlocale.obj
 0001:00132f98       ??1?$time_get@GV?$istreambuf_iterator@GU?$char_traits@G@std@@@std@@@std@@MAE@XZ 30133f98 f i libcpmt:wlocale.obj
 0001:00132fb3       ??1?$time_get@_WV?$istreambuf_iterator@_WU?$char_traits@_W@std@@@std@@@std@@MAE@XZ 30133fb3 f i libcpmt:wlocale.obj
 0001:00132fce       ??1?$time_put@GV?$ostreambuf_iterator@GU?$char_traits@G@std@@@std@@@std@@MAE@XZ 30133fce f i libcpmt:wlocale.obj
 0001:00132fee       ??1?$time_put@_WV?$ostreambuf_iterator@_WU?$char_traits@_W@std@@@std@@@std@@MAE@XZ 30133fee f i libcpmt:wlocale.obj
 0001:0013300e       ??1_Bxty@?$_String_val@U?$_Simple_types@G@std@@@std@@QAE@XZ 3013400e f i libcpmt:wlocale.obj
 0001:00133011       ??1_Bxty@?$_String_val@U?$_Simple_types@_W@std@@@std@@QAE@XZ 30134011 f i libcpmt:wlocale.obj
 0001:00133014       ??1_Timevec@std@@QAE@XZ    30134014 f i libcpmt:wlocale.obj
 0001:0013301f       ??1messages_base@std@@UAE@XZ 3013401f f i libcpmt:wlocale.obj
 0001:00133026       ??1money_base@std@@UAE@XZ  30134026 f i libcpmt:wlocale.obj
 0001:0013302d       ??1time_base@std@@UAE@XZ   3013402d f i libcpmt:wlocale.obj
 0001:00133034       ??4?$_Yarn@_W@std@@QAEAAV01@PB_W@Z 30134034 f i libcpmt:wlocale.obj
 0001:0013309a       ??4?$basic_string@GU?$char_traits@G@std@@V?$allocator@G@2@@std@@QAEAAV01@$$QAV01@@Z 3013409a f i libcpmt:wlocale.obj
 0001:001330c3       ??4?$basic_string@_WU?$char_traits@_W@std@@V?$allocator@_W@2@@std@@QAEAAV01@$$QAV01@@Z 301340c3 f i libcpmt:wlocale.obj
 0001:001330ec       ??4?$ostreambuf_iterator@GU?$char_traits@G@std@@@std@@QAEAAV01@G@Z 301340ec f i libcpmt:wlocale.obj
 0001:0013311f       ??4?$ostreambuf_iterator@_WU?$char_traits@_W@std@@@std@@QAEAAV01@_W@Z 3013411f f i libcpmt:wlocale.obj
 0001:00133152       ??4_Timevec@std@@QAEAAV01@ABV01@@Z 30134152 f i libcpmt:wlocale.obj
 0001:00133184       ??8?$_String_const_iterator@V?$_String_val@U?$_Simple_types@G@std@@@std@@@std@@QBE_NABV01@@Z 30134184 f i libcpmt:wlocale.obj
 0001:00133199       ??8?$_String_const_iterator@V?$_String_val@U?$_Simple_types@_W@std@@@std@@@std@@QBE_NABV01@@Z 30134199 f i libcpmt:wlocale.obj
 0001:001331ae       ??A?$basic_string@GU?$char_traits@G@std@@V?$allocator@G@2@@std@@QAEAAGI@Z 301341ae f i libcpmt:wlocale.obj
 0001:001331c8       ??A?$basic_string@GU?$char_traits@G@std@@V?$allocator@G@2@@std@@QBEABGI@Z 301341c8 f i libcpmt:wlocale.obj
 0001:001331e2       ??A?$basic_string@_WU?$char_traits@_W@std@@V?$allocator@_W@2@@std@@QAEAA_WI@Z 301341e2 f i libcpmt:wlocale.obj
 0001:001331fc       ??A?$basic_string@_WU?$char_traits@_W@std@@V?$allocator@_W@2@@std@@QBEAB_WI@Z 301341fc f i libcpmt:wlocale.obj
 0001:00133216       ??D?$_String_const_iterator@V?$_String_val@U?$_Simple_types@G@std@@@std@@@std@@QBEABGXZ 30134216 f i libcpmt:wlocale.obj
 0001:00133219       ??D?$_String_const_iterator@V?$_String_val@U?$_Simple_types@_W@std@@@std@@@std@@QBEAB_WXZ 30134219 f i libcpmt:wlocale.obj
 0001:0013321c       ??D?$_String_iterator@V?$_String_val@U?$_Simple_types@G@std@@@std@@@std@@QBEAAGXZ 3013421c f i libcpmt:wlocale.obj
 0001:0013321f       ??D?$_String_iterator@V?$_String_val@U?$_Simple_types@_W@std@@@std@@@std@@QBEAA_WXZ 3013421f f i libcpmt:wlocale.obj
 0001:00133222       ??D?$istreambuf_iterator@GU?$char_traits@G@std@@@std@@QBEGXZ 30134222 f i libcpmt:wlocale.obj
 0001:0013323b       ??D?$istreambuf_iterator@_WU?$char_traits@_W@std@@@std@@QBE_WXZ 3013423b f i libcpmt:wlocale.obj
 0001:00133254       ??D?$ostreambuf_iterator@GU?$char_traits@G@std@@@std@@QAEAAV01@XZ 30134254 f i libcpmt:wlocale.obj
 0001:00133257       ??D?$ostreambuf_iterator@_WU?$char_traits@_W@std@@@std@@QAEAAV01@XZ 30134257 f i libcpmt:wlocale.obj
 0001:0013325a       ??E?$_String_const_iterator@V?$_String_val@U?$_Simple_types@G@std@@@std@@@std@@QAEAAV01@XZ 3013425a f i libcpmt:wlocale.obj
 0001:00133260       ??E?$_String_const_iterator@V?$_String_val@U?$_Simple_types@_W@std@@@std@@@std@@QAEAAV01@XZ 30134260 f i libcpmt:wlocale.obj
 0001:00133266       ??E?$_String_iterator@V?$_String_val@U?$_Simple_types@G@std@@@std@@@std@@QAEAAV01@XZ 30134266 f i libcpmt:wlocale.obj
 0001:0013326c       ??E?$_String_iterator@V?$_String_val@U?$_Simple_types@_W@std@@@std@@@std@@QAEAAV01@XZ 3013426c f i libcpmt:wlocale.obj
 0001:00133272       ??E?$istreambuf_iterator@GU?$char_traits@G@std@@@std@@QAEAAV01@XZ 30134272 f i libcpmt:wlocale.obj
 0001:00133281       ??E?$istreambuf_iterator@_WU?$char_traits@_W@std@@@std@@QAEAAV01@XZ 30134281 f i libcpmt:wlocale.obj
 0001:00133290       ??E?$ostreambuf_iterator@GU?$char_traits@G@std@@@std@@QAEAAV01@H@Z 30134290 f i libcpmt:wlocale.obj
 0001:00133295       ??E?$ostreambuf_iterator@GU?$char_traits@G@std@@@std@@QAEAAV01@XZ 30134295 f i libcpmt:wlocale.obj
 0001:00133298       ??E?$ostreambuf_iterator@_WU?$char_traits@_W@std@@@std@@QAEAAV01@H@Z 30134298 f i libcpmt:wlocale.obj
 0001:0013329d       ??E?$ostreambuf_iterator@_WU?$char_traits@_W@std@@@std@@QAEAAV01@XZ 3013429d f i libcpmt:wlocale.obj
 0001:001332a0       ??G?$_String_iterator@V?$_String_val@U?$_Simple_types@G@std@@@std@@@std@@QBE?AV01@H@Z 301342a0 f i libcpmt:wlocale.obj
 0001:001332ba       ??G?$_String_iterator@V?$_String_val@U?$_Simple_types@_W@std@@@std@@@std@@QBE?AV01@H@Z 301342ba f i libcpmt:wlocale.obj
 0001:001332d4       ??H?$_String_iterator@V?$_String_val@U?$_Simple_types@G@std@@@std@@@std@@QBE?AV01@H@Z 301342d4 f i libcpmt:wlocale.obj
 0001:001332ed       ??H?$_String_iterator@V?$_String_val@U?$_Simple_types@_W@std@@@std@@@std@@QBE?AV01@H@Z 301342ed f i libcpmt:wlocale.obj
 0001:00133306       ??R<lambda_1>@?1???$_Append@G@?$basic_string@GU?$char_traits@G@std@@V?$allocator@G@2@@std@@AAEAAV12@QBGI@Z@SA@QAG0I0I@Z 30134306 f i libcpmt:wlocale.obj
 0001:00133352       ??R<lambda_1>@?1???$_Append@_W@?$basic_string@_WU?$char_traits@_W@std@@V?$allocator@_W@2@@std@@AAEAAV12@QB_WI@Z@SA@QA_W0I0I@Z 30134352 f i libcpmt:wlocale.obj
 0001:0013339e       ??R<lambda_1>@?1??append@?$basic_string@GU?$char_traits@G@std@@V?$allocator@G@2@@std@@QAEAAV23@IG@Z@SA@QAGQBGIIG@Z 3013439e f i libcpmt:wlocale.obj
 0001:001333e6       ??R<lambda_1>@?1??append@?$basic_string@_WU?$char_traits@_W@std@@V?$allocator@_W@2@@std@@QAEAAV23@I_W@Z@SA@QA_WQB_WII0@Z 301343e6 f i libcpmt:wlocale.obj
 0001:0013342e       ??R<lambda_1>@?1??insert@?$basic_string@GU?$char_traits@G@std@@V?$allocator@G@2@@std@@QAEAAV23@IIG@Z@SA@QAGQBGIIIG@Z 3013442e f i libcpmt:wlocale.obj
 0001:00133493       ??R<lambda_1>@?1??insert@?$basic_string@_WU?$char_traits@_W@std@@V?$allocator@_W@2@@std@@QAEAAV23@II_W@Z@SA@QA_WQB_WIII0@Z 30134493 f i libcpmt:wlocale.obj
 0001:001334f8       ??R<lambda_1>@?1??push_back@?$basic_string@GU?$char_traits@G@std@@V?$allocator@G@2@@std@@QAEXG@Z@SA@QAGQBGIG@Z 301344f8 f i libcpmt:wlocale.obj
 0001:00133531       ??R<lambda_1>@?1??push_back@?$basic_string@_WU?$char_traits@_W@std@@V?$allocator@_W@2@@std@@QAEX_W@Z@SA@QA_WQB_WI0@Z 30134531 f i libcpmt:wlocale.obj
 0001:0013356a       ??Y?$_String_const_iterator@V?$_String_val@U?$_Simple_types@G@std@@@std@@@std@@QAEAAV01@H@Z 3013456a f i libcpmt:wlocale.obj
 0001:0013357e       ??Y?$_String_const_iterator@V?$_String_val@U?$_Simple_types@_W@std@@@std@@@std@@QAEAAV01@H@Z 3013457e f i libcpmt:wlocale.obj
 0001:00133592       ??Y?$_String_iterator@V?$_String_val@U?$_Simple_types@G@std@@@std@@@std@@QAEAAV01@H@Z 30134592 f i libcpmt:wlocale.obj
 0001:001335a6       ??Y?$_String_iterator@V?$_String_val@U?$_Simple_types@_W@std@@@std@@@std@@QAEAAV01@H@Z 301345a6 f i libcpmt:wlocale.obj
 0001:001335ba       ??Y?$basic_string@DU?$char_traits@D@std@@V?$allocator@D@2@@std@@QAEAAV01@D@Z 301345ba f i libcpmt:wlocale.obj
 0001:001335d4       ??Y?$basic_string@GU?$char_traits@G@std@@V?$allocator@G@2@@std@@QAEAAV01@ABV01@@Z 301345d4 f i libcpmt:wlocale.obj
 0001:001335df       ??Y?$basic_string@_WU?$char_traits@_W@std@@V?$allocator@_W@2@@std@@QAEAAV01@ABV01@@Z 301345df f i libcpmt:wlocale.obj
 0001:001335ea       ??Z?$_String_const_iterator@V?$_String_val@U?$_Simple_types@G@std@@@std@@@std@@QAEAAV01@H@Z 301345ea f i libcpmt:wlocale.obj
 0001:00133600       ??Z?$_String_const_iterator@V?$_String_val@U?$_Simple_types@_W@std@@@std@@@std@@QAEAAV01@H@Z 30134600 f i libcpmt:wlocale.obj
 0001:00133616       ??Z?$_String_iterator@V?$_String_val@U?$_Simple_types@G@std@@@std@@@std@@QAEAAV01@H@Z 30134616 f i libcpmt:wlocale.obj
 0001:0013362c       ??Z?$_String_iterator@V?$_String_val@U?$_Simple_types@_W@std@@@std@@@std@@QAEAAV01@H@Z 3013462c f i libcpmt:wlocale.obj
 0001:00133642       ??_E?$_Mpunct@G@std@@MAEPAXI@Z 30134642 f i libcpmt:wlocale.obj
 0001:00133642       ??_G?$_Mpunct@G@std@@MAEPAXI@Z 30134642 f i libcpmt:wlocale.obj
 0001:0013367b       ??_E?$_Mpunct@_W@std@@MAEPAXI@Z 3013467b f i libcpmt:wlocale.obj
 0001:0013367b       ??_G?$_Mpunct@_W@std@@MAEPAXI@Z 3013467b f i libcpmt:wlocale.obj
 0001:001336b4       ??_E?$codecvt@GDU_Mbstatet@@@std@@MAEPAXI@Z 301346b4 f i libcpmt:wlocale.obj
 0001:001336b4       ??_G?$codecvt@GDU_Mbstatet@@@std@@MAEPAXI@Z 301346b4 f i libcpmt:wlocale.obj
 0001:001336df       ??_E?$codecvt@_WDU_Mbstatet@@@std@@MAEPAXI@Z 301346df f i libcpmt:wlocale.obj
 0001:001336df       ??_G?$codecvt@_WDU_Mbstatet@@@std@@MAEPAXI@Z 301346df f i libcpmt:wlocale.obj
 0001:0013370a       ??_E?$collate@G@std@@MAEPAXI@Z 3013470a f i libcpmt:wlocale.obj
 0001:0013370a       ??_G?$collate@G@std@@MAEPAXI@Z 3013470a f i libcpmt:wlocale.obj
 0001:00133734       ??_E?$collate@_W@std@@MAEPAXI@Z 30134734 f i libcpmt:wlocale.obj
 0001:00133734       ??_G?$collate@_W@std@@MAEPAXI@Z 30134734 f i libcpmt:wlocale.obj
 0001:0013375e       ??_E?$ctype@G@std@@MAEPAXI@Z 3013475e f i libcpmt:wlocale.obj
 0001:0013375e       ??_G?$ctype@G@std@@MAEPAXI@Z 3013475e f i libcpmt:wlocale.obj
 0001:00133788       ??_E?$ctype@_W@std@@MAEPAXI@Z 30134788 f i libcpmt:wlocale.obj
 0001:00133788       ??_G?$ctype@_W@std@@MAEPAXI@Z 30134788 f i libcpmt:wlocale.obj
 0001:001337b2       ??_E?$messages@G@std@@MAEPAXI@Z 301347b2 f i libcpmt:wlocale.obj
 0001:001337b2       ??_G?$messages@G@std@@MAEPAXI@Z 301347b2 f i libcpmt:wlocale.obj
 0001:001337dd       ??_E?$messages@_W@std@@MAEPAXI@Z 301347dd f i libcpmt:wlocale.obj
 0001:001337dd       ??_G?$messages@_W@std@@MAEPAXI@Z 301347dd f i libcpmt:wlocale.obj
 0001:00133808       ??_E?$money_get@GV?$istreambuf_iterator@GU?$char_traits@G@std@@@std@@@std@@MAEPAXI@Z 30134808 f i libcpmt:wlocale.obj
 0001:00133808       ??_G?$money_get@GV?$istreambuf_iterator@GU?$char_traits@G@std@@@std@@@std@@MAEPAXI@Z 30134808 f i libcpmt:wlocale.obj
 0001:00133833       ??_E?$money_get@_WV?$istreambuf_iterator@_WU?$char_traits@_W@std@@@std@@@std@@MAEPAXI@Z 30134833 f i libcpmt:wlocale.obj
 0001:00133833       ??_G?$money_get@_WV?$istreambuf_iterator@_WU?$char_traits@_W@std@@@std@@@std@@MAEPAXI@Z 30134833 f i libcpmt:wlocale.obj
 0001:0013385e       ??_E?$money_put@GV?$ostreambuf_iterator@GU?$char_traits@G@std@@@std@@@std@@MAEPAXI@Z 3013485e f i libcpmt:wlocale.obj
 0001:0013385e       ??_G?$money_put@GV?$ostreambuf_iterator@GU?$char_traits@G@std@@@std@@@std@@MAEPAXI@Z 3013485e f i libcpmt:wlocale.obj
 0001:00133889       ??_E?$money_put@_WV?$ostreambuf_iterator@_WU?$char_traits@_W@std@@@std@@@std@@MAEPAXI@Z 30134889 f i libcpmt:wlocale.obj
 0001:00133889       ??_G?$money_put@_WV?$ostreambuf_iterator@_WU?$char_traits@_W@std@@@std@@@std@@MAEPAXI@Z 30134889 f i libcpmt:wlocale.obj
 0001:001338b4       ??_E?$moneypunct@G$00@std@@MAEPAXI@Z 301348b4 f i libcpmt:wlocale.obj
 0001:001338b4       ??_G?$moneypunct@G$00@std@@MAEPAXI@Z 301348b4 f i libcpmt:wlocale.obj
 0001:001338ed       ??_E?$moneypunct@G$0A@@std@@MAEPAXI@Z 301348ed f i libcpmt:wlocale.obj
 0001:001338ed       ??_G?$moneypunct@G$0A@@std@@MAEPAXI@Z 301348ed f i libcpmt:wlocale.obj
 0001:00133926       ??_E?$moneypunct@_W$00@std@@MAEPAXI@Z 30134926 f i libcpmt:wlocale.obj
 0001:00133926       ??_G?$moneypunct@_W$00@std@@MAEPAXI@Z 30134926 f i libcpmt:wlocale.obj
 0001:0013395f       ??_E?$moneypunct@_W$0A@@std@@MAEPAXI@Z 3013495f f i libcpmt:wlocale.obj
 0001:0013395f       ??_G?$moneypunct@_W$0A@@std@@MAEPAXI@Z 3013495f f i libcpmt:wlocale.obj
 0001:00133998       ??_E?$num_get@GV?$istreambuf_iterator@GU?$char_traits@G@std@@@std@@@std@@MAEPAXI@Z 30134998 f i libcpmt:wlocale.obj
 0001:00133998       ??_G?$num_get@GV?$istreambuf_iterator@GU?$char_traits@G@std@@@std@@@std@@MAEPAXI@Z 30134998 f i libcpmt:wlocale.obj
 0001:001339c3       ??_E?$num_get@_WV?$istreambuf_iterator@_WU?$char_traits@_W@std@@@std@@@std@@MAEPAXI@Z 301349c3 f i libcpmt:wlocale.obj
 0001:001339c3       ??_G?$num_get@_WV?$istreambuf_iterator@_WU?$char_traits@_W@std@@@std@@@std@@MAEPAXI@Z 301349c3 f i libcpmt:wlocale.obj
 0001:001339ee       ??_E?$num_put@GV?$ostreambuf_iterator@GU?$char_traits@G@std@@@std@@@std@@MAEPAXI@Z 301349ee f i libcpmt:wlocale.obj
 0001:001339ee       ??_G?$num_put@GV?$ostreambuf_iterator@GU?$char_traits@G@std@@@std@@@std@@MAEPAXI@Z 301349ee f i libcpmt:wlocale.obj
 0001:00133a19       ??_E?$num_put@_WV?$ostreambuf_iterator@_WU?$char_traits@_W@std@@@std@@@std@@MAEPAXI@Z 30134a19 f i libcpmt:wlocale.obj
 0001:00133a19       ??_G?$num_put@_WV?$ostreambuf_iterator@_WU?$char_traits@_W@std@@@std@@@std@@MAEPAXI@Z 30134a19 f i libcpmt:wlocale.obj
 0001:00133a44       ??_E?$numpunct@G@std@@MAEPAXI@Z 30134a44 f i libcpmt:wlocale.obj
 0001:00133a44       ??_G?$numpunct@G@std@@MAEPAXI@Z 30134a44 f i libcpmt:wlocale.obj
 0001:00133a7d       ??_E?$numpunct@_W@std@@MAEPAXI@Z 30134a7d f i libcpmt:wlocale.obj
 0001:00133a7d       ??_G?$numpunct@_W@std@@MAEPAXI@Z 30134a7d f i libcpmt:wlocale.obj
 0001:00133ab6       ??_E?$time_get@GV?$istreambuf_iterator@GU?$char_traits@G@std@@@std@@@std@@MAEPAXI@Z 30134ab6 f i libcpmt:wlocale.obj
 0001:00133ab6       ??_G?$time_get@GV?$istreambuf_iterator@GU?$char_traits@G@std@@@std@@@std@@MAEPAXI@Z 30134ab6 f i libcpmt:wlocale.obj
 0001:00133aef       ??_E?$time_get@_WV?$istreambuf_iterator@_WU?$char_traits@_W@std@@@std@@@std@@MAEPAXI@Z 30134aef f i libcpmt:wlocale.obj
 0001:00133aef       ??_G?$time_get@_WV?$istreambuf_iterator@_WU?$char_traits@_W@std@@@std@@@std@@MAEPAXI@Z 30134aef f i libcpmt:wlocale.obj
 0001:00133b28       ??_E?$time_put@GV?$ostreambuf_iterator@GU?$char_traits@G@std@@@std@@@std@@MAEPAXI@Z 30134b28 f i libcpmt:wlocale.obj
 0001:00133b28       ??_G?$time_put@GV?$ostreambuf_iterator@GU?$char_traits@G@std@@@std@@@std@@MAEPAXI@Z 30134b28 f i libcpmt:wlocale.obj
 0001:00133b52       ??_E?$time_put@_WV?$ostreambuf_iterator@_WU?$char_traits@_W@std@@@std@@@std@@MAEPAXI@Z 30134b52 f i libcpmt:wlocale.obj
 0001:00133b52       ??_G?$time_put@_WV?$ostreambuf_iterator@_WU?$char_traits@_W@std@@@std@@@std@@MAEPAXI@Z 30134b52 f i libcpmt:wlocale.obj
 0001:00133b7c       ??_Emessages_base@std@@UAEPAXI@Z 30134b7c f i libcpmt:wlocale.obj
 0001:00133b7c       ??_Gmessages_base@std@@UAEPAXI@Z 30134b7c f i libcpmt:wlocale.obj
 0001:00133ba7       ??_Emoney_base@std@@UAEPAXI@Z 30134ba7 f i libcpmt:wlocale.obj
 0001:00133ba7       ??_Gmoney_base@std@@UAEPAXI@Z 30134ba7 f i libcpmt:wlocale.obj
 0001:00133bd2       ??_Etime_base@std@@UAEPAXI@Z 30134bd2 f i libcpmt:wlocale.obj
 0001:00133bd2       ??_Gtime_base@std@@UAEPAXI@Z 30134bd2 f i libcpmt:wlocale.obj
 0001:00133bfd       ?_Activate_SSO_buffer@?$_String_val@U?$_Simple_types@G@std@@@std@@QAEXXZ 30134bfd f i libcpmt:wlocale.obj
 0001:00133c00       ?_Activate_SSO_buffer@?$_String_val@U?$_Simple_types@_W@std@@@std@@QAEXXZ 30134c00 f i libcpmt:wlocale.obj
 0001:00133c03       ?_Adopt@_Iterator_base0@std@@QAEXPBX@Z 30134c03 f i libcpmt:wlocale.obj
 0001:00133c06       ?_Apply_annotation@?$basic_string@GU?$char_traits@G@std@@V?$allocator@G@2@@std@@CAXQBGIII@Z 30134c06 f i libcpmt:wlocale.obj
 0001:00133c68       ?_Apply_annotation@?$basic_string@_WU?$char_traits@_W@std@@V?$allocator@_W@2@@std@@CAXQB_WIII@Z 30134c68 f i libcpmt:wlocale.obj
 0001:00133cca       ?_C_str@?$_Yarn@_W@std@@QBEPB_WXZ 30134cca f i libcpmt:wlocale.obj
 0001:00133cd6       ?_Calculate_growth@?$basic_string@GU?$char_traits@G@std@@V?$allocator@G@2@@std@@ABEII@Z 30134cd6 f i libcpmt:wlocale.obj
 0001:00133cf6       ?_Calculate_growth@?$basic_string@GU?$char_traits@G@std@@V?$allocator@G@2@@std@@CAIIII@Z 30134cf6 f i libcpmt:wlocale.obj
 0001:00133d33       ?_Calculate_growth@?$basic_string@_WU?$char_traits@_W@std@@V?$allocator@_W@2@@std@@ABEII@Z 30134d33 f i libcpmt:wlocale.obj
 0001:00133d53       ?_Calculate_growth@?$basic_string@_WU?$char_traits@_W@std@@V?$allocator@_W@2@@std@@CAIIII@Z 30134d53 f i libcpmt:wlocale.obj
 0001:00133d90       ?_Check_offset@?$_String_val@U?$_Simple_types@G@std@@@std@@QBEXI@Z 30134d90 f i libcpmt:wlocale.obj
 0001:00133daa       ?_Check_offset@?$_String_val@U?$_Simple_types@_W@std@@@std@@QBEXI@Z 30134daa f i libcpmt:wlocale.obj
 0001:00133dc4       ?_Compat@?$_String_const_iterator@V?$_String_val@U?$_Simple_types@G@std@@@std@@@std@@QBEXABV12@@Z 30134dc4 f i libcpmt:wlocale.obj
 0001:00133dc7       ?_Compat@?$_String_const_iterator@V?$_String_val@U?$_Simple_types@_W@std@@@std@@@std@@QBEXABV12@@Z 30134dc7 f i libcpmt:wlocale.obj
 0001:00133dca       ?_Construct_empty@?$basic_string@GU?$char_traits@G@std@@V?$allocator@G@2@@std@@AAEXXZ 30134dca f i libcpmt:wlocale.obj
 0001:00133de3       ?_Construct_empty@?$basic_string@_WU?$char_traits@_W@std@@V?$allocator@_W@2@@std@@AAEXXZ 30134de3 f i libcpmt:wlocale.obj
 0001:00133dfc       ?_Create_annotation@?$basic_string@GU?$char_traits@G@std@@V?$allocator@G@2@@std@@ABEXXZ 30134dfc f i libcpmt:wlocale.obj
 0001:00133e1c       ?_Create_annotation@?$basic_string@_WU?$char_traits@_W@std@@V?$allocator@_W@2@@std@@ABEXXZ 30134e1c f i libcpmt:wlocale.obj
 0001:00133e3c       ?_Deallocate_for_capacity@?$basic_string@GU?$char_traits@G@std@@V?$allocator@G@2@@std@@CAXAAV?$allocator@G@2@QAGI@Z 30134e3c f i libcpmt:wlocale.obj
 0001:00133e5c       ?_Deallocate_for_capacity@?$basic_string@_WU?$char_traits@_W@std@@V?$allocator@_W@2@@std@@CAXAAV?$allocator@_W@2@QA_WI@Z 30134e5c f i libcpmt:wlocale.obj
 0001:00133e7c       ?_Donarrow@?$ctype@G@std@@IBEDGD@Z 30134e7c f i libcpmt:wlocale.obj
 0001:00133edc       ?_Donarrow@?$ctype@_W@std@@IBED_WD@Z 30134edc f i libcpmt:wlocale.obj
 0001:00133f3c       ?_Dowiden@?$ctype@G@std@@IBEGD@Z 30134f3c f i libcpmt:wlocale.obj
 0001:00133f85       ?_Dowiden@?$ctype@_W@std@@IBE_WD@Z 30134f85 f i libcpmt:wlocale.obj
 0001:00133fd1       ?_Empty@?$_Yarn@_W@std@@QBE_NXZ 30134fd1 f i libcpmt:wlocale.obj
 0001:00133fd8       ?_Eos@?$basic_string@GU?$char_traits@G@std@@V?$allocator@G@2@@std@@AAEXI@Z 30134fd8 f i libcpmt:wlocale.obj
 0001:0013400c       ?_Eos@?$basic_string@_WU?$char_traits@_W@std@@V?$allocator@_W@2@@std@@AAEXI@Z 3013500c f i libcpmt:wlocale.obj
 0001:00134040       ?_Ffmt@?$num_put@GV?$ostreambuf_iterator@GU?$char_traits@G@std@@@std@@@std@@ABAPADPADDH@Z 30135040 f i libcpmt:wlocale.obj
 0001:001340ff       ?_Ffmt@?$num_put@_WV?$ostreambuf_iterator@_WU?$char_traits@_W@std@@@std@@@std@@ABAPADPADDH@Z 301350ff f i libcpmt:wlocale.obj
 0001:001341be       ?_Fnv1a_append_bytes@std@@YAIIQBEI@Z 301351be f i libcpmt:wlocale.obj
 0001:001341f0       ?_Get_first@?$_Compressed_pair@V?$allocator@G@std@@V?$_String_val@U?$_Simple_types@G@std@@@2@$00@std@@QAEAAV?$allocator@G@2@XZ 301351f0 f i libcpmt:wlocale.obj
 0001:001341f3       ?_Get_first@?$_Compressed_pair@V?$allocator@G@std@@V?$_String_val@U?$_Simple_types@G@std@@@2@$00@std@@QBEABV?$allocator@G@2@XZ 301351f3 f i libcpmt:wlocale.obj
 0001:001341f6       ?_Get_first@?$_Compressed_pair@V?$allocator@_W@std@@V?$_String_val@U?$_Simple_types@_W@std@@@2@$00@std@@QAEAAV?$allocator@_W@2@XZ 301351f6 f i libcpmt:wlocale.obj
 0001:001341f9       ?_Get_first@?$_Compressed_pair@V?$allocator@_W@std@@V?$_String_val@U?$_Simple_types@_W@std@@@2@$00@std@@QBEABV?$allocator@_W@2@XZ 301351f9 f i libcpmt:wlocale.obj
 0001:001341fc       ?_Getal@?$basic_string@GU?$char_traits@G@std@@V?$allocator@G@2@@std@@AAEAAV?$allocator@G@2@XZ 301351fc f i libcpmt:wlocale.obj
 0001:001341ff       ?_Getal@?$basic_string@GU?$char_traits@G@std@@V?$allocator@G@2@@std@@ABEABV?$allocator@G@2@XZ 301351ff f i libcpmt:wlocale.obj
 0001:00134202       ?_Getal@?$basic_string@_WU?$char_traits@_W@std@@V?$allocator@_W@2@@std@@AAEAAV?$allocator@_W@2@XZ 30135202 f i libcpmt:wlocale.obj
 0001:00134205       ?_Getal@?$basic_string@_WU?$char_traits@_W@std@@V?$allocator@_W@2@@std@@ABEABV?$allocator@_W@2@XZ 30135205 f i libcpmt:wlocale.obj
 0001:00134208       ?_Getcat@?$codecvt@GDU_Mbstatet@@@std@@SAIPAPBVfacet@locale@2@PBV42@@Z 30135208 f i libcpmt:wlocale.obj
 0001:00134287       ?_Getcat@?$codecvt@_WDU_Mbstatet@@@std@@SAIPAPBVfacet@locale@2@PBV42@@Z 30135287 f i libcpmt:wlocale.obj
 0001:00134306       ?_Getcat@?$collate@G@std@@SAIPAPBVfacet@locale@2@PBV42@@Z 30135306 f i libcpmt:wlocale.obj
 0001:001343d4       ?_Getcat@?$collate@_W@std@@SAIPAPBVfacet@locale@2@PBV42@@Z 301353d4 f i libcpmt:wlocale.obj
 0001:001344a2       ?_Getcat@?$ctype@G@std@@SAIPAPBVfacet@locale@2@PBV42@@Z 301354a2 f i libcpmt:wlocale.obj
 0001:00134531       ?_Getcat@?$ctype@_W@std@@SAIPAPBVfacet@locale@2@PBV42@@Z 30135531 f i libcpmt:wlocale.obj
 0001:001345c0       ?_Getcat@?$messages@G@std@@SAIPAPBVfacet@locale@2@PBV42@@Z 301355c0 f i libcpmt:wlocale.obj
 0001:00134645       ?_Getcat@?$messages@_W@std@@SAIPAPBVfacet@locale@2@PBV42@@Z 30135645 f i libcpmt:wlocale.obj
 0001:001346ca       ?_Getcat@?$money_get@GV?$istreambuf_iterator@GU?$char_traits@G@std@@@std@@@std@@SAIPAPBVfacet@locale@2@PBV42@@Z 301356ca f i libcpmt:wlocale.obj
 0001:0013474f       ?_Getcat@?$money_get@_WV?$istreambuf_iterator@_WU?$char_traits@_W@std@@@std@@@std@@SAIPAPBVfacet@locale@2@PBV42@@Z 3013574f f i libcpmt:wlocale.obj
 0001:001347d4       ?_Getcat@?$money_put@GV?$ostreambuf_iterator@GU?$char_traits@G@std@@@std@@@std@@SAIPAPBVfacet@locale@2@PBV42@@Z 301357d4 f i libcpmt:wlocale.obj
 0001:00134859       ?_Getcat@?$money_put@_WV?$ostreambuf_iterator@_WU?$char_traits@_W@std@@@std@@@std@@SAIPAPBVfacet@locale@2@PBV42@@Z 30135859 f i libcpmt:wlocale.obj
 0001:001348de       ?_Getcat@?$moneypunct@G$00@std@@SAIPAPBVfacet@locale@2@PBV42@@Z 301358de f i libcpmt:wlocale.obj
 0001:00134971       ?_Getcat@?$moneypunct@G$0A@@std@@SAIPAPBVfacet@locale@2@PBV42@@Z 30135971 f i libcpmt:wlocale.obj
 0001:00134a05       ?_Getcat@?$moneypunct@_W$00@std@@SAIPAPBVfacet@locale@2@PBV42@@Z 30135a05 f i libcpmt:wlocale.obj
 0001:00134a98       ?_Getcat@?$moneypunct@_W$0A@@std@@SAIPAPBVfacet@locale@2@PBV42@@Z 30135a98 f i libcpmt:wlocale.obj
 0001:00134b2c       ?_Getcat@?$num_get@GV?$istreambuf_iterator@GU?$char_traits@G@std@@@std@@@std@@SAIPAPBVfacet@locale@2@PBV42@@Z 30135b2c f i libcpmt:wlocale.obj
 0001:00134bb1       ?_Getcat@?$num_get@_WV?$istreambuf_iterator@_WU?$char_traits@_W@std@@@std@@@std@@SAIPAPBVfacet@locale@2@PBV42@@Z 30135bb1 f i libcpmt:wlocale.obj
 0001:00134c36       ?_Getcat@?$num_put@GV?$ostreambuf_iterator@GU?$char_traits@G@std@@@std@@@std@@SAIPAPBVfacet@locale@2@PBV42@@Z 30135c36 f i libcpmt:wlocale.obj
 0001:00134cbb       ?_Getcat@?$num_put@_WV?$ostreambuf_iterator@_WU?$char_traits@_W@std@@@std@@@std@@SAIPAPBVfacet@locale@2@PBV42@@Z 30135cbb f i libcpmt:wlocale.obj
 0001:00134d40       ?_Getcat@?$numpunct@G@std@@SAIPAPBVfacet@locale@2@PBV42@@Z 30135d40 f i libcpmt:wlocale.obj
 0001:00134dc8       ?_Getcat@?$numpunct@_W@std@@SAIPAPBVfacet@locale@2@PBV42@@Z 30135dc8 f i libcpmt:wlocale.obj
 0001:00134e50       ?_Getcat@?$time_get@GV?$istreambuf_iterator@GU?$char_traits@G@std@@@std@@@std@@SAIPAPBVfacet@locale@2@PBV42@@Z 30135e50 f i libcpmt:wlocale.obj
 0001:00134ed7       ?_Getcat@?$time_get@_WV?$istreambuf_iterator@_WU?$char_traits@_W@std@@@std@@@std@@SAIPAPBVfacet@locale@2@PBV42@@Z 30135ed7 f i libcpmt:wlocale.obj
 0001:00134f5e       ?_Getcat@?$time_put@GV?$ostreambuf_iterator@GU?$char_traits@G@std@@@std@@@std@@SAIPAPBVfacet@locale@2@PBV42@@Z 30135f5e f i libcpmt:wlocale.obj
 0001:00134ff6       ?_Getcat@?$time_put@_WV?$ostreambuf_iterator@_WU?$char_traits@_W@std@@@std@@@std@@SAIPAPBVfacet@locale@2@PBV42@@Z 30135ff6 f i libcpmt:wlocale.obj
 0001:0013508e       ?_Getcoll@_Locinfo@std@@QBE?AU_Collvec@@XZ 3013608e f i libcpmt:wlocale.obj
 0001:001350a9       ?_Getdateorder@_Locinfo@std@@QBEHXZ 301360a9 f i libcpmt:wlocale.obj
 0001:001350ae       ?_Getdays@_Locinfo@std@@QBEPBDXZ 301360ae f i libcpmt:wlocale.obj
 0001:001350e8       ?_Getfmt@?$time_get@GV?$istreambuf_iterator@GU?$char_traits@G@std@@@std@@@std@@IBE?AV?$istreambuf_iterator@GU?$char_traits@G@std@@@2@V32@0AAVios_base@2@AAHPAUtm@@PBD@Z 301360e8 f i libcpmt:wlocale.obj
 0001:001352b6       ?_Getfmt@?$time_get@_WV?$istreambuf_iterator@_WU?$char_traits@_W@std@@@std@@@std@@IBE?AV?$istreambuf_iterator@_WU?$char_traits@_W@std@@@2@V32@0AAVios_base@2@AAHPAUtm@@PBD@Z 301362b6 f i libcpmt:wlocale.obj
 0001:00135484       ?_Getint@?$time_get@GV?$istreambuf_iterator@GU?$char_traits@G@std@@@std@@@std@@ABAHAAV?$istreambuf_iterator@GU?$char_traits@G@std@@@2@0HHAAHABV?$ctype@G@2@@Z 30136484 f i libcpmt:wlocale.obj
 0001:001354b1       ?_Getint@?$time_get@_WV?$istreambuf_iterator@_WU?$char_traits@_W@std@@@std@@@std@@ABAHAAV?$istreambuf_iterator@_WU?$char_traits@_W@std@@@2@0HHAAHABV?$ctype@_W@2@@Z 301364b1 f i libcpmt:wlocale.obj
 0001:001354de       ?_Getmfld@?$money_get@GV?$istreambuf_iterator@GU?$char_traits@G@std@@@std@@@std@@ABE?AV?$basic_string@DU?$char_traits@D@std@@V?$allocator@D@2@@2@AAV?$istreambuf_iterator@GU?$char_traits@G@std@@@2@0_NAAVios_base@2@AAY0M@G@Z 301364de f i libcpmt:wlocale.obj
 0001:00136453       ?_Getmfld@?$money_get@_WV?$istreambuf_iterator@_WU?$char_traits@_W@std@@@std@@@std@@ABE?AV?$basic_string@DU?$char_traits@D@std@@V?$allocator@D@2@@2@AAV?$istreambuf_iterator@_WU?$char_traits@_W@std@@@2@0_NAAVios_base@2@AAY0M@_W@Z 30137453 f i libcpmt:wlocale.obj
 0001:001373c8       ?_Getmonths@_Locinfo@std@@QBEPBDXZ 301383c8 f i libcpmt:wlocale.obj
 0001:00137402       ?_Getptr@_Timevec@std@@QBEPAXXZ 30138402 f i libcpmt:wlocale.obj
 0001:00137405       ?_Gnavail@?$basic_streambuf@GU?$char_traits@G@std@@@std@@IBE_JXZ 30138405 f i libcpmt:wlocale.obj
 0001:0013741b       ?_Gnavail@?$basic_streambuf@_WU?$char_traits@_W@std@@@std@@IBE_JXZ 3013841b f i libcpmt:wlocale.obj
 0001:00137431       ?_Gninc@?$basic_streambuf@GU?$char_traits@G@std@@@std@@IAEPAGXZ 30138431 f i libcpmt:wlocale.obj
 0001:00137445       ?_Gninc@?$basic_streambuf@_WU?$char_traits@_W@std@@@std@@IAEPA_WXZ 30138445 f i libcpmt:wlocale.obj
 0001:00137459       ?_Ifmt@?$num_put@GV?$ostreambuf_iterator@GU?$char_traits@G@std@@@std@@@std@@ABAPADPADPBDH@Z 30138459 f i libcpmt:wlocale.obj
 0001:001374eb       ?_Ifmt@?$num_put@_WV?$ostreambuf_iterator@_WU?$char_traits@_W@std@@@std@@@std@@ABAPADPADPBDH@Z 301384eb f i libcpmt:wlocale.obj
 0001:0013757d       ?_Inc@?$istreambuf_iterator@GU?$char_traits@G@std@@@std@@AAEXXZ 3013857d f i libcpmt:wlocale.obj
 0001:001375b0       ?_Inc@?$istreambuf_iterator@_WU?$char_traits@_W@std@@@std@@AAEXXZ 301385b0 f i libcpmt:wlocale.obj
 0001:001375e3       ?_Init@?$_Mpunct@G@std@@IAEXABV_Locinfo@2@_N@Z 301385e3 f i libcpmt:wlocale.obj
 0001:00137766       ?_Init@?$_Mpunct@_W@std@@IAEXABV_Locinfo@2@_N@Z 30138766 f i libcpmt:wlocale.obj
 0001:001378c9       ?_Init@?$codecvt@GDU_Mbstatet@@@std@@IAEXABV_Locinfo@2@@Z 301388c9 f i libcpmt:wlocale.obj
 0001:001378f6       ?_Init@?$codecvt@_WDU_Mbstatet@@@std@@IAEXABV_Locinfo@2@@Z 301388f6 f i libcpmt:wlocale.obj
 0001:00137923       ?_Init@?$collate@G@std@@IAEXABV_Locinfo@2@@Z 30138923 f i libcpmt:wlocale.obj
 0001:00137939       ?_Init@?$collate@_W@std@@IAEXABV_Locinfo@2@@Z 30138939 f i libcpmt:wlocale.obj
 0001:0013794f       ?_Init@?$ctype@G@std@@IAEXABV_Locinfo@2@@Z 3013894f f i libcpmt:wlocale.obj
 0001:00137996       ?_Init@?$ctype@_W@std@@IAEXABV_Locinfo@2@@Z 30138996 f i libcpmt:wlocale.obj
 0001:001379dd       ?_Init@?$messages@G@std@@IAEXABV_Locinfo@2@@Z 301389dd f i libcpmt:wlocale.obj
 0001:001379e0       ?_Init@?$messages@_W@std@@IAEXABV_Locinfo@2@@Z 301389e0 f i libcpmt:wlocale.obj
 0001:001379e3       ?_Init@?$money_get@GV?$istreambuf_iterator@GU?$char_traits@G@std@@@std@@@std@@IAEXABV_Locinfo@2@@Z 301389e3 f i libcpmt:wlocale.obj
 0001:001379e6       ?_Init@?$money_get@_WV?$istreambuf_iterator@_WU?$char_traits@_W@std@@@std@@@std@@IAEXABV_Locinfo@2@@Z 301389e6 f i libcpmt:wlocale.obj
 0001:001379e9       ?_Init@?$money_put@GV?$ostreambuf_iterator@GU?$char_traits@G@std@@@std@@@std@@IAEXABV_Locinfo@2@@Z 301389e9 f i libcpmt:wlocale.obj
 0001:001379ec       ?_Init@?$money_put@_WV?$ostreambuf_iterator@_WU?$char_traits@_W@std@@@std@@@std@@IAEXABV_Locinfo@2@@Z 301389ec f i libcpmt:wlocale.obj
 0001:001379ef       ?_Init@?$num_get@GV?$istreambuf_iterator@GU?$char_traits@G@std@@@std@@@std@@IAEXABV_Locinfo@2@@Z 301389ef f i libcpmt:wlocale.obj
 0001:001379f2       ?_Init@?$num_get@_WV?$istreambuf_iterator@_WU?$char_traits@_W@std@@@std@@@std@@IAEXABV_Locinfo@2@@Z 301389f2 f i libcpmt:wlocale.obj
 0001:001379f5       ?_Init@?$num_put@GV?$ostreambuf_iterator@GU?$char_traits@G@std@@@std@@@std@@IAEXABV_Locinfo@2@@Z 301389f5 f i libcpmt:wlocale.obj
 0001:001379f8       ?_Init@?$num_put@_WV?$ostreambuf_iterator@_WU?$char_traits@_W@std@@@std@@@std@@IAEXABV_Locinfo@2@@Z 301389f8 f i libcpmt:wlocale.obj
 0001:001379fb       ?_Init@?$numpunct@G@std@@IAEXABV_Locinfo@2@_N@Z 301389fb f i libcpmt:wlocale.obj
 0001:00137b02       ?_Init@?$numpunct@_W@std@@IAEXABV_Locinfo@2@_N@Z 30138b02 f i libcpmt:wlocale.obj
 0001:00137bfa       ?_Init@?$time_get@GV?$istreambuf_iterator@GU?$char_traits@G@std@@@std@@@std@@IAEXABV_Locinfo@2@@Z 30138bfa f i libcpmt:wlocale.obj
 0001:00137c40       ?_Init@?$time_get@_WV?$istreambuf_iterator@_WU?$char_traits@_W@std@@@std@@@std@@IAEXABV_Locinfo@2@@Z 30138c40 f i libcpmt:wlocale.obj
 0001:00137c86       ?_Init@?$time_put@GV?$ostreambuf_iterator@GU?$char_traits@G@std@@@std@@@std@@IAEXABV_Locinfo@2@@Z 30138c86 f i libcpmt:wlocale.obj
 0001:00137cb9       ?_Init@?$time_put@_WV?$ostreambuf_iterator@_WU?$char_traits@_W@std@@@std@@@std@@IAEXABV_Locinfo@2@@Z 30138cb9 f i libcpmt:wlocale.obj
 0001:00137cec       ?_Iput@?$num_put@GV?$ostreambuf_iterator@GU?$char_traits@G@std@@@std@@@std@@ABA?AV?$ostreambuf_iterator@GU?$char_traits@G@std@@@2@V32@AAVios_base@2@GPADI@Z 30138cec f i libcpmt:wlocale.obj
 0001:00138059       ?_Iput@?$num_put@_WV?$ostreambuf_iterator@_WU?$char_traits@_W@std@@@std@@@std@@ABA?AV?$ostreambuf_iterator@_WU?$char_traits@_W@std@@@2@V32@AAVios_base@2@_WPADI@Z 30139059 f i libcpmt:wlocale.obj
 0001:001383c6       ?_Is_constant_evaluated@std@@YA_NXZ 301393c6 f i libcpmt:wlocale.obj
 0001:001383c9       ?_Large_mode_engaged@?$_String_val@U?$_Simple_types@G@std@@@std@@QBE_NXZ 301393c9 f i libcpmt:wlocale.obj
 0001:001383d3       ?_Large_mode_engaged@?$_String_val@U?$_Simple_types@_W@std@@@std@@QBE_NXZ 301393d3 f i libcpmt:wlocale.obj
 0001:001383dd       ?_Makeushloc@_Locimp@locale@std@@CAXABV_Locinfo@3@HPAV123@PBV23@@Z 301393dd f   libcpmt:wlocale.obj
 0001:001389c0       ?_Makewloc@_Locimp@locale@std@@CAXABV_Locinfo@3@HPAV123@PBV23@@Z 301399c0 f   libcpmt:wlocale.obj
 0001:00138fa3       ?_Maklocwcs@std@@YAPA_WPB_W@Z 30139fa3 f i libcpmt:wlocale.obj
 0001:00138ffe       ?_Makpat@?$_Mpunct@G@std@@AAEXAAUpattern@money_base@2@III@Z 30139ffe f i libcpmt:wlocale.obj
 0001:0013904f       ?_Makpat@?$_Mpunct@_W@std@@AAEXAAUpattern@money_base@2@III@Z 3013a04f f i libcpmt:wlocale.obj
 0001:001390a0       ?_Modify_annotation@?$basic_string@GU?$char_traits@G@std@@V?$allocator@G@2@@std@@ABEXII@Z 3013a0a0 f i libcpmt:wlocale.obj
 0001:001390d0       ?_Modify_annotation@?$basic_string@_WU?$char_traits@_W@std@@V?$allocator@_W@2@@std@@ABEXII@Z 3013a0d0 f i libcpmt:wlocale.obj
 0001:00139100       ?_Myptr@?$_String_val@U?$_Simple_types@G@std@@@std@@QAEPAGXZ 3013a100 f i libcpmt:wlocale.obj
 0001:0013910d       ?_Myptr@?$_String_val@U?$_Simple_types@G@std@@@std@@QBEPBGXZ 3013a10d f i libcpmt:wlocale.obj
 0001:0013911a       ?_Myptr@?$_String_val@U?$_Simple_types@_W@std@@@std@@QAEPA_WXZ 3013a11a f i libcpmt:wlocale.obj
 0001:00139127       ?_Myptr@?$_String_val@U?$_Simple_types@_W@std@@@std@@QBEPB_WXZ 3013a127 f i libcpmt:wlocale.obj
 0001:00139134       ?_Peek@?$istreambuf_iterator@GU?$char_traits@G@std@@@std@@ABEGXZ 3013a134 f i libcpmt:wlocale.obj
 0001:00139171       ?_Peek@?$istreambuf_iterator@_WU?$char_traits@_W@std@@@std@@ABE_WXZ 3013a171 f i libcpmt:wlocale.obj
 0001:001391ae       ?_Pnavail@?$basic_streambuf@GU?$char_traits@G@std@@@std@@IBE_JXZ 3013a1ae f i libcpmt:wlocale.obj
 0001:001391c4       ?_Pnavail@?$basic_streambuf@_WU?$char_traits@_W@std@@@std@@IBE_JXZ 3013a1c4 f i libcpmt:wlocale.obj
 0001:001391da       ?_Pninc@?$basic_streambuf@GU?$char_traits@G@std@@@std@@IAEPAGXZ 3013a1da f i libcpmt:wlocale.obj
 0001:001391ee       ?_Pninc@?$basic_streambuf@_WU?$char_traits@_W@std@@@std@@IAEPA_WXZ 3013a1ee f i libcpmt:wlocale.obj
 0001:00139202       ?_Put@?$money_put@GV?$ostreambuf_iterator@GU?$char_traits@G@std@@@std@@@std@@CA?AV?$ostreambuf_iterator@GU?$char_traits@G@std@@@2@V32@V?$_String_const_iterator@V?$_String_val@U?$_Simple_types@G@std@@@std@@@2@I@Z 3013a202 f i libcpmt:wlocale.obj
 0001:00139249       ?_Put@?$money_put@_WV?$ostreambuf_iterator@_WU?$char_traits@_W@std@@@std@@@std@@CA?AV?$ostreambuf_iterator@_WU?$char_traits@_W@std@@@2@V32@V?$_String_const_iterator@V?$_String_val@U?$_Simple_types@_W@std@@@std@@@2@I@Z 3013a249 f i libcpmt:wlocale.obj
 0001:00139290       ?_Put@?$num_put@GV?$ostreambuf_iterator@GU?$char_traits@G@std@@@std@@@std@@ABA?AV?$ostreambuf_iterator@GU?$char_traits@G@std@@@2@V32@PBGI@Z 3013a290 f i libcpmt:wlocale.obj
 0001:001392d2       ?_Put@?$num_put@_WV?$ostreambuf_iterator@_WU?$char_traits@_W@std@@@std@@@std@@ABA?AV?$ostreambuf_iterator@_WU?$char_traits@_W@std@@@2@V32@PB_WI@Z 3013a2d2 f i libcpmt:wlocale.obj
 0001:00139314       ?_Putmfld@?$money_put@GV?$ostreambuf_iterator@GU?$char_traits@G@std@@@std@@@std@@ABE?AV?$ostreambuf_iterator@GU?$char_traits@G@std@@@2@V32@_NAAVios_base@2@G1V?$basic_string@GU?$char_traits@G@std@@V?$allocator@G@2@@2@G@Z 3013a314 f i libcpmt:wlocale.obj
 0001:00139a37       ?_Putmfld@?$money_put@_WV?$ostreambuf_iterator@_WU?$char_traits@_W@std@@@std@@@std@@ABE?AV?$ostreambuf_iterator@_WU?$char_traits@_W@std@@@2@V32@_NAAVios_base@2@_W1V?$basic_string@_WU?$char_traits@_W@std@@V?$allocator@_W@2@@2@3@Z 3013aa37 f i libcpmt:wlocale.obj
 0001:0013a15a       ?_Remove_annotation@?$basic_string@GU?$char_traits@G@std@@V?$allocator@G@2@@std@@ABEXXZ 3013b15a f i libcpmt:wlocale.obj
 0001:0013a17a       ?_Remove_annotation@?$basic_string@_WU?$char_traits@_W@std@@V?$allocator@_W@2@@std@@ABEXXZ 3013b17a f i libcpmt:wlocale.obj
 0001:0013a19a       ?_Rep@?$money_put@GV?$ostreambuf_iterator@GU?$char_traits@G@std@@@std@@@std@@CA?AV?$ostreambuf_iterator@GU?$char_traits@G@std@@@2@V32@GI@Z 3013b19a f i libcpmt:wlocale.obj
 0001:0013a1d1       ?_Rep@?$money_put@_WV?$ostreambuf_iterator@_WU?$char_traits@_W@std@@@std@@@std@@CA?AV?$ostreambuf_iterator@_WU?$char_traits@_W@std@@@2@V32@_WI@Z 3013b1d1 f i libcpmt:wlocale.obj
 0001:0013a208       ?_Rep@?$num_put@GV?$ostreambuf_iterator@GU?$char_traits@G@std@@@std@@@std@@ABA?AV?$ostreambuf_iterator@GU?$char_traits@G@std@@@2@V32@GI@Z 3013b208 f i libcpmt:wlocale.obj
 0001:0013a23f       ?_Rep@?$num_put@_WV?$ostreambuf_iterator@_WU?$char_traits@_W@std@@@std@@@std@@ABA?AV?$ostreambuf_iterator@_WU?$char_traits@_W@std@@@2@V32@_WI@Z 3013b23f f i libcpmt:wlocale.obj
 0001:0013a276       ?_Swap_proxy_and_iterators@?$basic_string@GU?$char_traits@G@std@@V?$allocator@G@2@@std@@AAEXAAV12@@Z 3013b276 f i libcpmt:wlocale.obj
 0001:0013a279       ?_Swap_proxy_and_iterators@?$basic_string@_WU?$char_traits@_W@std@@V?$allocator@_W@2@@std@@AAEXAAV12@@Z 3013b279 f i libcpmt:wlocale.obj
 0001:0013a27c       ?_Switch_to_buf@_Bxty@?$_String_val@U?$_Simple_types@G@std@@@std@@QAEXXZ 3013b27c f i libcpmt:wlocale.obj
 0001:0013a27f       ?_Switch_to_buf@_Bxty@?$_String_val@U?$_Simple_types@_W@std@@@std@@QAEXXZ 3013b27f f i libcpmt:wlocale.obj
 0001:0013a282       ?_Take_contents@?$basic_string@GU?$char_traits@G@std@@V?$allocator@G@2@@std@@AAEXAAV12@@Z 3013b282 f i libcpmt:wlocale.obj
 0001:0013a2e6       ?_Take_contents@?$basic_string@_WU?$char_traits@_W@std@@V?$allocator@_W@2@@std@@AAEXAAV12@@Z 3013b2e6 f i libcpmt:wlocale.obj
 0001:0013a34a       ?_Tidy@?$_Mpunct@G@std@@AAEXXZ 3013b34a f i libcpmt:wlocale.obj
 0001:0013a37c       ?_Tidy@?$_Mpunct@_W@std@@AAEXXZ 3013b37c f i libcpmt:wlocale.obj
 0001:0013a3ae       ?_Tidy@?$numpunct@G@std@@AAEXXZ 3013b3ae f i libcpmt:wlocale.obj
 0001:0013a3d6       ?_Tidy@?$numpunct@_W@std@@AAEXXZ 3013b3d6 f i libcpmt:wlocale.obj
 0001:0013a3fe       ?_Tidy@?$time_get@GV?$istreambuf_iterator@GU?$char_traits@G@std@@@std@@@std@@AAEXXZ 3013b3fe f i libcpmt:wlocale.obj
 0001:0013a426       ?_Tidy@?$time_get@_WV?$istreambuf_iterator@_WU?$char_traits@_W@std@@@std@@@std@@AAEXXZ 3013b426 f i libcpmt:wlocale.obj
 0001:0013a44e       ?_Tidy_deallocate@?$basic_string@GU?$char_traits@G@std@@V?$allocator@G@2@@std@@AAEXXZ 3013b44e f i libcpmt:wlocale.obj
 0001:0013a492       ?_Tidy_deallocate@?$basic_string@_WU?$char_traits@_W@std@@V?$allocator@_W@2@@std@@AAEXXZ 3013b492 f i libcpmt:wlocale.obj
 0001:0013a4d6       ?_W_Getdays@_Locinfo@std@@QBEPBGXZ 3013b4d6 f i libcpmt:wlocale.obj
 0001:0013a510       ?_W_Getmonths@_Locinfo@std@@QBEPBGXZ 3013b510 f i libcpmt:wlocale.obj
 0001:0013a54a       ?_W_Gettnames@_Locinfo@std@@QBE?AV_Timevec@2@XZ 3013b54a f i libcpmt:wlocale.obj
 0001:0013a563       ?_Xran@?$_String_val@U?$_Simple_types@G@std@@@std@@SAXXZ 3013b563 f i libcpmt:wlocale.obj
 0001:0013a570       ?_Xran@?$_String_val@U?$_Simple_types@_W@std@@@std@@SAXXZ 3013b570 f i libcpmt:wlocale.obj
 0001:0013a57d       ?allocate@?$allocator@G@std@@QAEPAGI@Z 3013b57d f i libcpmt:wlocale.obj
 0001:0013a5a5       ?allocate@?$allocator@_W@std@@QAEPA_WI@Z 3013b5a5 f i libcpmt:wlocale.obj
 0001:0013a5cd       ?append@?$basic_string@GU?$char_traits@G@std@@V?$allocator@G@2@@std@@QAEAAV12@ABV12@@Z 3013b5cd f i libcpmt:wlocale.obj
 0001:0013a5f0       ?append@?$basic_string@GU?$char_traits@G@std@@V?$allocator@G@2@@std@@QAEAAV12@IG@Z 3013b5f0 f i libcpmt:wlocale.obj
 0001:0013a679       ?append@?$basic_string@_WU?$char_traits@_W@std@@V?$allocator@_W@2@@std@@QAEAAV12@ABV12@@Z 3013b679 f i libcpmt:wlocale.obj
 0001:0013a69c       ?append@?$basic_string@_WU?$char_traits@_W@std@@V?$allocator@_W@2@@std@@QAEAAV12@I_W@Z 3013b69c f i libcpmt:wlocale.obj
 0001:0013a725       ?assign@?$_Char_traits@GG@std@@SAPAGQAGIG@Z 3013b725 f i libcpmt:wlocale.obj
 0001:0013a762       ?assign@?$_Char_traits@_WG@std@@SAPA_WQA_WI_W@Z 3013b762 f i libcpmt:wlocale.obj
 0001:0013a79f       ?assign@?$_WChar_traits@G@std@@SAPAGQAGIG@Z 3013b79f f i libcpmt:wlocale.obj
 0001:0013a7ba       ?assign@?$_WChar_traits@G@std@@SAXAAGABG@Z 3013b7ba f i libcpmt:wlocale.obj
 0001:0013a7cf       ?assign@?$_WChar_traits@_W@std@@SAPA_WQA_WI_W@Z 3013b7cf f i libcpmt:wlocale.obj
 0001:0013a7ea       ?assign@?$_WChar_traits@_W@std@@SAXAA_WAB_W@Z 3013b7ea f i libcpmt:wlocale.obj
 0001:0013a7ff       ?assign@?$basic_string@GU?$char_traits@G@std@@V?$allocator@G@2@@std@@QAEAAV12@$$QAV12@@Z 3013b7ff f i libcpmt:wlocale.obj
 0001:0013a819       ?assign@?$basic_string@_WU?$char_traits@_W@std@@V?$allocator@_W@2@@std@@QAEAAV12@$$QAV12@@Z 3013b819 f i libcpmt:wlocale.obj
 0001:0013a833       ?begin@?$basic_string@GU?$char_traits@G@std@@V?$allocator@G@2@@std@@QAE?AV?$_String_iterator@V?$_String_val@U?$_Simple_types@G@std@@@std@@@2@XZ 3013b833 f i libcpmt:wlocale.obj
 0001:0013a84c       ?begin@?$basic_string@_WU?$char_traits@_W@std@@V?$allocator@_W@2@@std@@QAE?AV?$_String_iterator@V?$_String_val@U?$_Simple_types@_W@std@@@std@@@2@XZ 3013b84c f i libcpmt:wlocale.obj
 0001:0013a865       ?c_str@?$basic_string@GU?$char_traits@G@std@@V?$allocator@G@2@@std@@QBEPBGXZ 3013b865 f i libcpmt:wlocale.obj
 0001:0013a872       ?c_str@?$basic_string@_WU?$char_traits@_W@std@@V?$allocator@_W@2@@std@@QBEPB_WXZ 3013b872 f i libcpmt:wlocale.obj
 0001:0013a87f       ?copy@?$_Char_traits@GG@std@@SAPAGQAGQBGI@Z 3013b87f f i libcpmt:wlocale.obj
 0001:0013a8a2       ?copy@?$_Char_traits@_WG@std@@SAPA_WQA_WQB_WI@Z 3013b8a2 f i libcpmt:wlocale.obj
 0001:0013a8c5       ?curr_symbol@?$_Mpunct@G@std@@QBE?AV?$basic_string@GU?$char_traits@G@std@@V?$allocator@G@2@@2@XZ 3013b8c5 f i libcpmt:wlocale.obj
 0001:0013a8f3       ?curr_symbol@?$_Mpunct@_W@std@@QBE?AV?$basic_string@_WU?$char_traits@_W@std@@V?$allocator@_W@2@@2@XZ 3013b8f3 f i libcpmt:wlocale.obj
 0001:0013a921       ?data@?$basic_string@GU?$char_traits@G@std@@V?$allocator@G@2@@std@@QBEPBGXZ 3013b921 f i libcpmt:wlocale.obj
 0001:0013a92e       ?data@?$basic_string@_WU?$char_traits@_W@std@@V?$allocator@_W@2@@std@@QBEPB_WXZ 3013b92e f i libcpmt:wlocale.obj
 0001:0013a93b       ?date_order@?$time_get@GV?$istreambuf_iterator@GU?$char_traits@G@std@@@std@@@std@@QBE?AW4dateorder@time_base@2@XZ 3013b93b f i libcpmt:wlocale.obj
 0001:0013a959       ?date_order@?$time_get@_WV?$istreambuf_iterator@_WU?$char_traits@_W@std@@@std@@@std@@QBE?AW4dateorder@time_base@2@XZ 3013b959 f i libcpmt:wlocale.obj
 0001:0013a977       ?deallocate@?$allocator@G@std@@QAEXQAGI@Z 3013b977 f i libcpmt:wlocale.obj
 0001:0013a993       ?deallocate@?$allocator@_W@std@@QAEXQA_WI@Z 3013b993 f i libcpmt:wlocale.obj
 0001:0013a9af       ?decimal_point@?$_Mpunct@G@std@@QBEGXZ 3013b9af f i libcpmt:wlocale.obj
 0001:0013a9cd       ?decimal_point@?$_Mpunct@_W@std@@QBE_WXZ 3013b9cd f i libcpmt:wlocale.obj
 0001:0013a9eb       ?decimal_point@?$numpunct@G@std@@QBEGXZ 3013b9eb f i libcpmt:wlocale.obj
 0001:0013aa09       ?decimal_point@?$numpunct@_W@std@@QBE_WXZ 3013ba09 f i libcpmt:wlocale.obj
 0001:0013aa27       ?do_always_noconv@?$codecvt@GDU_Mbstatet@@@std@@MBE_NXZ 3013ba27 f i libcpmt:wlocale.obj
 0001:0013aa2a       ?do_always_noconv@?$codecvt@_WDU_Mbstatet@@@std@@MBE_NXZ 3013ba2a f i libcpmt:wlocale.obj
 0001:0013aa2d       ?do_close@?$messages@G@std@@MBEXH@Z 3013ba2d f i libcpmt:wlocale.obj
 0001:0013aa30       ?do_close@?$messages@_W@std@@MBEXH@Z 3013ba30 f i libcpmt:wlocale.obj
 0001:0013aa33       ?do_compare@?$collate@G@std@@MBEHPBG000@Z 3013ba33 f i libcpmt:wlocale.obj
 0001:0013aa6f       ?do_compare@?$collate@_W@std@@MBEHPB_W000@Z 3013ba6f f i libcpmt:wlocale.obj
 0001:0013aaab       ?do_curr_symbol@?$_Mpunct@G@std@@MBE?AV?$basic_string@GU?$char_traits@G@std@@V?$allocator@G@2@@2@XZ 3013baab f i libcpmt:wlocale.obj
 0001:0013aac6       ?do_curr_symbol@?$_Mpunct@_W@std@@MBE?AV?$basic_string@_WU?$char_traits@_W@std@@V?$allocator@_W@2@@2@XZ 3013bac6 f i libcpmt:wlocale.obj
 0001:0013aae1       ?do_date_order@?$time_get@GV?$istreambuf_iterator@GU?$char_traits@G@std@@@std@@@std@@MBE?AW4dateorder@time_base@2@XZ 3013bae1 f i libcpmt:wlocale.obj
 0001:0013aae5       ?do_date_order@?$time_get@_WV?$istreambuf_iterator@_WU?$char_traits@_W@std@@@std@@@std@@MBE?AW4dateorder@time_base@2@XZ 3013bae5 f i libcpmt:wlocale.obj
 0001:0013aae9       ?do_decimal_point@?$_Mpunct@G@std@@MBEGXZ 3013bae9 f i libcpmt:wlocale.obj
 0001:0013aaee       ?do_decimal_point@?$_Mpunct@_W@std@@MBE_WXZ 3013baee f i libcpmt:wlocale.obj
 0001:0013aaf3       ?do_decimal_point@?$numpunct@G@std@@MBEGXZ 3013baf3 f i libcpmt:wlocale.obj
 0001:0013aaf8       ?do_decimal_point@?$numpunct@_W@std@@MBE_WXZ 3013baf8 f i libcpmt:wlocale.obj
 0001:0013aafd       ?do_encoding@?$codecvt@GDU_Mbstatet@@@std@@MBEHXZ 3013bafd f i libcpmt:wlocale.obj
 0001:0013ab09       ?do_encoding@?$codecvt@_WDU_Mbstatet@@@std@@MBEHXZ 3013bb09 f i libcpmt:wlocale.obj
 0001:0013ab15       ?do_falsename@?$numpunct@G@std@@MBE?AV?$basic_string@GU?$char_traits@G@std@@V?$allocator@G@2@@2@XZ 3013bb15 f i libcpmt:wlocale.obj
 0001:0013ab30       ?do_falsename@?$numpunct@_W@std@@MBE?AV?$basic_string@_WU?$char_traits@_W@std@@V?$allocator@_W@2@@2@XZ 3013bb30 f i libcpmt:wlocale.obj
 0001:0013ab4b       ?do_frac_digits@?$_Mpunct@G@std@@MBEHXZ 3013bb4b f i libcpmt:wlocale.obj
 0001:0013ab4f       ?do_frac_digits@?$_Mpunct@_W@std@@MBEHXZ 3013bb4f f i libcpmt:wlocale.obj
 0001:0013ab53       ?do_get@?$messages@G@std@@MBE?AV?$basic_string@GU?$char_traits@G@std@@V?$allocator@G@2@@2@HHHABV32@@Z 3013bb53 f i libcpmt:wlocale.obj
 0001:0013ab6e       ?do_get@?$messages@_W@std@@MBE?AV?$basic_string@_WU?$char_traits@_W@std@@V?$allocator@_W@2@@2@HHHABV32@@Z 3013bb6e f i libcpmt:wlocale.obj
 0001:0013ab89       ?do_get@?$money_get@GV?$istreambuf_iterator@GU?$char_traits@G@std@@@std@@@std@@MBE?AV?$istreambuf_iterator@GU?$char_traits@G@std@@@2@V32@0_NAAVios_base@2@AAHAAO@Z 3013bb89 f i libcpmt:wlocale.obj
 0001:0013ac68       ?do_get@?$money_get@GV?$istreambuf_iterator@GU?$char_traits@G@std@@@std@@@std@@MBE?AV?$istreambuf_iterator@GU?$char_traits@G@std@@@2@V32@0_NAAVios_base@2@AAHAAV?$basic_string@GU?$char_traits@G@std@@V?$allocator@G@2@@2@@Z 3013bc68 f i libcpmt:wlocale.obj
 0001:0013ad76       ?do_get@?$money_get@_WV?$istreambuf_iterator@_WU?$char_traits@_W@std@@@std@@@std@@MBE?AV?$istreambuf_iterator@_WU?$char_traits@_W@std@@@2@V32@0_NAAVios_base@2@AAHAAO@Z 3013bd76 f i libcpmt:wlocale.obj
 0001:0013ae55       ?do_get@?$money_get@_WV?$istreambuf_iterator@_WU?$char_traits@_W@std@@@std@@@std@@MBE?AV?$istreambuf_iterator@_WU?$char_traits@_W@std@@@2@V32@0_NAAVios_base@2@AAHAAV?$basic_string@_WU?$char_traits@_W@std@@V?$allocator@_W@2@@2@@Z 3013be55 f i libcpmt:wlocale.obj
 0001:0013af63       ?do_get@?$num_get@GV?$istreambuf_iterator@GU?$char_traits@G@std@@@std@@@std@@MBE?AV?$istreambuf_iterator@GU?$char_traits@G@std@@@2@V32@0AAVios_base@2@AAHAAG@Z 3013bf63 f i libcpmt:wlocale.obj
 0001:0013b09a       ?do_get@?$num_get@GV?$istreambuf_iterator@GU?$char_traits@G@std@@@std@@@std@@MBE?AV?$istreambuf_iterator@GU?$char_traits@G@std@@@2@V32@0AAVios_base@2@AAHAAI@Z 3013c09a f i libcpmt:wlocale.obj
 0001:0013b0ea       ?do_get@?$num_get@GV?$istreambuf_iterator@GU?$char_traits@G@std@@@std@@@std@@MBE?AV?$istreambuf_iterator@GU?$char_traits@G@std@@@2@V32@0AAVios_base@2@AAHAAJ@Z 3013c0ea f i libcpmt:wlocale.obj
 0001:0013b1f1       ?do_get@?$num_get@GV?$istreambuf_iterator@GU?$char_traits@G@std@@@std@@@std@@MBE?AV?$istreambuf_iterator@GU?$char_traits@G@std@@@2@V32@0AAVios_base@2@AAHAAK@Z 3013c1f1 f i libcpmt:wlocale.obj
 0001:0013b2f8       ?do_get@?$num_get@GV?$istreambuf_iterator@GU?$char_traits@G@std@@@std@@@std@@MBE?AV?$istreambuf_iterator@GU?$char_traits@G@std@@@2@V32@0AAVios_base@2@AAHAAM@Z 3013c2f8 f i libcpmt:wlocale.obj
 0001:0013b424       ?do_get@?$num_get@GV?$istreambuf_iterator@GU?$char_traits@G@std@@@std@@@std@@MBE?AV?$istreambuf_iterator@GU?$char_traits@G@std@@@2@V32@0AAVios_base@2@AAHAAN@Z 3013c424 f i libcpmt:wlocale.obj
 0001:0013b551       ?do_get@?$num_get@GV?$istreambuf_iterator@GU?$char_traits@G@std@@@std@@@std@@MBE?AV?$istreambuf_iterator@GU?$char_traits@G@std@@@2@V32@0AAVios_base@2@AAHAAO@Z 3013c551 f i libcpmt:wlocale.obj
 0001:0013b5a3       ?do_get@?$num_get@GV?$istreambuf_iterator@GU?$char_traits@G@std@@@std@@@std@@MBE?AV?$istreambuf_iterator@GU?$char_traits@G@std@@@2@V32@0AAVios_base@2@AAHAAPAX@Z 3013c5a3 f i libcpmt:wlocale.obj
 0001:0013b6aa       ?do_get@?$num_get@GV?$istreambuf_iterator@GU?$char_traits@G@std@@@std@@@std@@MBE?AV?$istreambuf_iterator@GU?$char_traits@G@std@@@2@V32@0AAVios_base@2@AAHAA_J@Z 3013c6aa f i libcpmt:wlocale.obj
 0001:0013b7b8       ?do_get@?$num_get@GV?$istreambuf_iterator@GU?$char_traits@G@std@@@std@@@std@@MBE?AV?$istreambuf_iterator@GU?$char_traits@G@std@@@2@V32@0AAVios_base@2@AAHAA_K@Z 3013c7b8 f i libcpmt:wlocale.obj
 0001:0013b8c6       ?do_get@?$num_get@GV?$istreambuf_iterator@GU?$char_traits@G@std@@@std@@@std@@MBE?AV?$istreambuf_iterator@GU?$char_traits@G@std@@@2@V32@0AAVios_base@2@AAHAA_N@Z 3013c8c6 f i libcpmt:wlocale.obj
 0001:0013bb43       ?do_get@?$num_get@_WV?$istreambuf_iterator@_WU?$char_traits@_W@std@@@std@@@std@@MBE?AV?$istreambuf_iterator@_WU?$char_traits@_W@std@@@2@V32@0AAVios_base@2@AAHAAG@Z 3013cb43 f i libcpmt:wlocale.obj
 0001:0013bc7a       ?do_get@?$num_get@_WV?$istreambuf_iterator@_WU?$char_traits@_W@std@@@std@@@std@@MBE?AV?$istreambuf_iterator@_WU?$char_traits@_W@std@@@2@V32@0AAVios_base@2@AAHAAI@Z 3013cc7a f i libcpmt:wlocale.obj
 0001:0013bcca       ?do_get@?$num_get@_WV?$istreambuf_iterator@_WU?$char_traits@_W@std@@@std@@@std@@MBE?AV?$istreambuf_iterator@_WU?$char_traits@_W@std@@@2@V32@0AAVios_base@2@AAHAAJ@Z 3013ccca f i libcpmt:wlocale.obj
 0001:0013bdd1       ?do_get@?$num_get@_WV?$istreambuf_iterator@_WU?$char_traits@_W@std@@@std@@@std@@MBE?AV?$istreambuf_iterator@_WU?$char_traits@_W@std@@@2@V32@0AAVios_base@2@AAHAAK@Z 3013cdd1 f i libcpmt:wlocale.obj
 0001:0013bed8       ?do_get@?$num_get@_WV?$istreambuf_iterator@_WU?$char_traits@_W@std@@@std@@@std@@MBE?AV?$istreambuf_iterator@_WU?$char_traits@_W@std@@@2@V32@0AAVios_base@2@AAHAAM@Z 3013ced8 f i libcpmt:wlocale.obj
 0001:0013c004       ?do_get@?$num_get@_WV?$istreambuf_iterator@_WU?$char_traits@_W@std@@@std@@@std@@MBE?AV?$istreambuf_iterator@_WU?$char_traits@_W@std@@@2@V32@0AAVios_base@2@AAHAAN@Z 3013d004 f i libcpmt:wlocale.obj
 0001:0013c131       ?do_get@?$num_get@_WV?$istreambuf_iterator@_WU?$char_traits@_W@std@@@std@@@std@@MBE?AV?$istreambuf_iterator@_WU?$char_traits@_W@std@@@2@V32@0AAVios_base@2@AAHAAO@Z 3013d131 f i libcpmt:wlocale.obj
 0001:0013c183       ?do_get@?$num_get@_WV?$istreambuf_iterator@_WU?$char_traits@_W@std@@@std@@@std@@MBE?AV?$istreambuf_iterator@_WU?$char_traits@_W@std@@@2@V32@0AAVios_base@2@AAHAAPAX@Z 3013d183 f i libcpmt:wlocale.obj
 0001:0013c28a       ?do_get@?$num_get@_WV?$istreambuf_iterator@_WU?$char_traits@_W@std@@@std@@@std@@MBE?AV?$istreambuf_iterator@_WU?$char_traits@_W@std@@@2@V32@0AAVios_base@2@AAHAA_J@Z 3013d28a f i libcpmt:wlocale.obj
 0001:0013c398       ?do_get@?$num_get@_WV?$istreambuf_iterator@_WU?$char_traits@_W@std@@@std@@@std@@MBE?AV?$istreambuf_iterator@_WU?$char_traits@_W@std@@@2@V32@0AAVios_base@2@AAHAA_K@Z 3013d398 f i libcpmt:wlocale.obj
 0001:0013c4a6       ?do_get@?$num_get@_WV?$istreambuf_iterator@_WU?$char_traits@_W@std@@@std@@@std@@MBE?AV?$istreambuf_iterator@_WU?$char_traits@_W@std@@@2@V32@0AAVios_base@2@AAHAA_N@Z 3013d4a6 f i libcpmt:wlocale.obj
 0001:0013c723       ?do_get@?$time_get@GV?$istreambuf_iterator@GU?$char_traits@G@std@@@std@@@std@@MBE?AV?$istreambuf_iterator@GU?$char_traits@G@std@@@2@V32@0AAVios_base@2@AAHPAUtm@@DD@Z 3013d723 f i libcpmt:wlocale.obj
 0001:0013cc12       ?do_get@?$time_get@_WV?$istreambuf_iterator@_WU?$char_traits@_W@std@@@std@@@std@@MBE?AV?$istreambuf_iterator@_WU?$char_traits@_W@std@@@2@V32@0AAVios_base@2@AAHPAUtm@@DD@Z 3013dc12 f i libcpmt:wlocale.obj
 0001:0013d101       ?do_get_date@?$time_get@GV?$istreambuf_iterator@GU?$char_traits@G@std@@@std@@@std@@MBE?AV?$istreambuf_iterator@GU?$char_traits@G@std@@@2@V32@0AAVios_base@2@AAHPAUtm@@@Z 3013e101 f i libcpmt:wlocale.obj
 0001:0013d6f7       ?do_get_date@?$time_get@_WV?$istreambuf_iterator@_WU?$char_traits@_W@std@@@std@@@std@@MBE?AV?$istreambuf_iterator@_WU?$char_traits@_W@std@@@2@V32@0AAVios_base@2@AAHPAUtm@@@Z 3013e6f7 f i libcpmt:wlocale.obj
 0001:0013dced       ?do_get_monthname@?$time_get@GV?$istreambuf_iterator@GU?$char_traits@G@std@@@std@@@std@@MBE?AV?$istreambuf_iterator@GU?$char_traits@G@std@@@2@V32@0AAVios_base@2@AAHPAUtm@@@Z 3013eced f i libcpmt:wlocale.obj
 0001:0013dd3f       ?do_get_monthname@?$time_get@_WV?$istreambuf_iterator@_WU?$char_traits@_W@std@@@std@@@std@@MBE?AV?$istreambuf_iterator@_WU?$char_traits@_W@std@@@2@V32@0AAVios_base@2@AAHPAUtm@@@Z 3013ed3f f i libcpmt:wlocale.obj
 0001:0013dd91       ?do_get_time@?$time_get@GV?$istreambuf_iterator@GU?$char_traits@G@std@@@std@@@std@@MBE?AV?$istreambuf_iterator@GU?$char_traits@G@std@@@2@V32@0AAVios_base@2@AAHPAUtm@@@Z 3013ed91 f i libcpmt:wlocale.obj
 0001:0013df08       ?do_get_time@?$time_get@_WV?$istreambuf_iterator@_WU?$char_traits@_W@std@@@std@@@std@@MBE?AV?$istreambuf_iterator@_WU?$char_traits@_W@std@@@2@V32@0AAVios_base@2@AAHPAUtm@@@Z 3013ef08 f i libcpmt:wlocale.obj
 0001:0013e07f       ?do_get_weekday@?$time_get@GV?$istreambuf_iterator@GU?$char_traits@G@std@@@std@@@std@@MBE?AV?$istreambuf_iterator@GU?$char_traits@G@std@@@2@V32@0AAVios_base@2@AAHPAUtm@@@Z 3013f07f f i libcpmt:wlocale.obj
 0001:0013e0d1       ?do_get_weekday@?$time_get@_WV?$istreambuf_iterator@_WU?$char_traits@_W@std@@@std@@@std@@MBE?AV?$istreambuf_iterator@_WU?$char_traits@_W@std@@@2@V32@0AAVios_base@2@AAHPAUtm@@@Z 3013f0d1 f i libcpmt:wlocale.obj
 0001:0013e123       ?do_get_year@?$time_get@GV?$istreambuf_iterator@GU?$char_traits@G@std@@@std@@@std@@MBE?AV?$istreambuf_iterator@GU?$char_traits@G@std@@@2@V32@0AAVios_base@2@AAHPAUtm@@@Z 3013f123 f i libcpmt:wlocale.obj
 0001:0013e1f5       ?do_get_year@?$time_get@_WV?$istreambuf_iterator@_WU?$char_traits@_W@std@@@std@@@std@@MBE?AV?$istreambuf_iterator@_WU?$char_traits@_W@std@@@2@V32@0AAVios_base@2@AAHPAUtm@@@Z 3013f1f5 f i libcpmt:wlocale.obj
 0001:0013e2c7       ?do_grouping@?$_Mpunct@G@std@@MBE?AV?$basic_string@DU?$char_traits@D@std@@V?$allocator@D@2@@2@XZ 3013f2c7 f i libcpmt:wlocale.obj
 0001:0013e2e2       ?do_grouping@?$_Mpunct@_W@std@@MBE?AV?$basic_string@DU?$char_traits@D@std@@V?$allocator@D@2@@2@XZ 3013f2e2 f i libcpmt:wlocale.obj
 0001:0013e2fd       ?do_grouping@?$numpunct@G@std@@MBE?AV?$basic_string@DU?$char_traits@D@std@@V?$allocator@D@2@@2@XZ 3013f2fd f i libcpmt:wlocale.obj
 0001:0013e318       ?do_grouping@?$numpunct@_W@std@@MBE?AV?$basic_string@DU?$char_traits@D@std@@V?$allocator@D@2@@2@XZ 3013f318 f i libcpmt:wlocale.obj
 0001:0013e333       ?do_hash@?$collate@G@std@@MBEJPBG0@Z 3013f333 f i libcpmt:wlocale.obj
 0001:0013e3a6       ?do_hash@?$collate@_W@std@@MBEJPB_W0@Z 3013f3a6 f i libcpmt:wlocale.obj
 0001:0013e419       ?do_in@?$codecvt@GDU_Mbstatet@@@std@@MBEHAAU_Mbstatet@@PBD1AAPBDPAG3AAPAG@Z 3013f419 f i libcpmt:wlocale.obj
 0001:0013e4aa       ?do_in@?$codecvt@_WDU_Mbstatet@@@std@@MBEHAAU_Mbstatet@@PBD1AAPBDPA_W3AAPA_W@Z 3013f4aa f i libcpmt:wlocale.obj
 0001:0013e53b       ?do_is@?$ctype@G@std@@MBEPBGPBG0PAF@Z 3013f53b f i libcpmt:wlocale.obj
 0001:0013e55e       ?do_is@?$ctype@G@std@@MBE_NFG@Z 3013f55e f i libcpmt:wlocale.obj
 0001:0013e581       ?do_is@?$ctype@_W@std@@MBEPB_WPB_W0PAF@Z 3013f581 f i libcpmt:wlocale.obj
 0001:0013e5a4       ?do_is@?$ctype@_W@std@@MBE_NF_W@Z 3013f5a4 f i libcpmt:wlocale.obj
 0001:0013e5c7       ?do_length@?$codecvt@GDU_Mbstatet@@@std@@MBEHAAU_Mbstatet@@PBD1I@Z 3013f5c7 f i libcpmt:wlocale.obj
 0001:0013e635       ?do_length@?$codecvt@_WDU_Mbstatet@@@std@@MBEHAAU_Mbstatet@@PBD1I@Z 3013f635 f i libcpmt:wlocale.obj
 0001:0013e6a3       ?do_max_length@?$codecvt@GDU_Mbstatet@@@std@@MBEHXZ 3013f6a3 f i libcpmt:wlocale.obj
 0001:0013e6a7       ?do_max_length@?$codecvt@_WDU_Mbstatet@@@std@@MBEHXZ 3013f6a7 f i libcpmt:wlocale.obj
 0001:0013e6ab       ?do_narrow@?$ctype@G@std@@MBEDGD@Z 3013f6ab f i libcpmt:wlocale.obj
 0001:0013e6b6       ?do_narrow@?$ctype@G@std@@MBEPBGPBG0DPAD@Z 3013f6b6 f i libcpmt:wlocale.obj
 0001:0013e6f8       ?do_narrow@?$ctype@_W@std@@MBED_WD@Z 3013f6f8 f i libcpmt:wlocale.obj
 0001:0013e703       ?do_narrow@?$ctype@_W@std@@MBEPB_WPB_W0DPAD@Z 3013f703 f i libcpmt:wlocale.obj
 0001:0013e745       ?do_neg_format@?$_Mpunct@G@std@@MBE?AUpattern@money_base@2@XZ 3013f745 f i libcpmt:wlocale.obj
 0001:0013e757       ?do_neg_format@?$_Mpunct@_W@std@@MBE?AUpattern@money_base@2@XZ 3013f757 f i libcpmt:wlocale.obj
 0001:0013e769       ?do_negative_sign@?$_Mpunct@G@std@@MBE?AV?$basic_string@GU?$char_traits@G@std@@V?$allocator@G@2@@2@XZ 3013f769 f i libcpmt:wlocale.obj
 0001:0013e784       ?do_negative_sign@?$_Mpunct@_W@std@@MBE?AV?$basic_string@_WU?$char_traits@_W@std@@V?$allocator@_W@2@@2@XZ 3013f784 f i libcpmt:wlocale.obj
 0001:0013e79f       ?do_open@?$messages@G@std@@MBEHABV?$basic_string@DU?$char_traits@D@std@@V?$allocator@D@2@@2@ABVlocale@2@@Z 3013f79f f i libcpmt:wlocale.obj
 0001:0013e7a5       ?do_open@?$messages@_W@std@@MBEHABV?$basic_string@DU?$char_traits@D@std@@V?$allocator@D@2@@2@ABVlocale@2@@Z 3013f7a5 f i libcpmt:wlocale.obj
 0001:0013e7ab       ?do_out@?$codecvt@GDU_Mbstatet@@@std@@MBEHAAU_Mbstatet@@PBG1AAPBGPAD3AAPAD@Z 3013f7ab f i libcpmt:wlocale.obj
 0001:0013e8ca       ?do_out@?$codecvt@_WDU_Mbstatet@@@std@@MBEHAAU_Mbstatet@@PB_W1AAPB_WPAD3AAPAD@Z 3013f8ca f i libcpmt:wlocale.obj
 0001:0013e9e9       ?do_pos_format@?$_Mpunct@G@std@@MBE?AUpattern@money_base@2@XZ 3013f9e9 f i libcpmt:wlocale.obj
 0001:0013e9fb       ?do_pos_format@?$_Mpunct@_W@std@@MBE?AUpattern@money_base@2@XZ 3013f9fb f i libcpmt:wlocale.obj
 0001:0013ea0d       ?do_positive_sign@?$_Mpunct@G@std@@MBE?AV?$basic_string@GU?$char_traits@G@std@@V?$allocator@G@2@@2@XZ 3013fa0d f i libcpmt:wlocale.obj
 0001:0013ea28       ?do_positive_sign@?$_Mpunct@_W@std@@MBE?AV?$basic_string@_WU?$char_traits@_W@std@@V?$allocator@_W@2@@2@XZ 3013fa28 f i libcpmt:wlocale.obj
 0001:0013ea43       ?do_put@?$money_put@GV?$ostreambuf_iterator@GU?$char_traits@G@std@@@std@@@std@@MBE?AV?$ostreambuf_iterator@GU?$char_traits@G@std@@@2@V32@_NAAVios_base@2@GABV?$basic_string@GU?$char_traits@G@std@@V?$allocator@G@2@@2@@Z 3013fa43 f i libcpmt:wlocale.obj
 0001:0013ebc0       ?do_put@?$money_put@GV?$ostreambuf_iterator@GU?$char_traits@G@std@@@std@@@std@@MBE?AV?$ostreambuf_iterator@GU?$char_traits@G@std@@@2@V32@_NAAVios_base@2@GO@Z 3013fbc0 f i libcpmt:wlocale.obj
 0001:0013ed83       ?do_put@?$money_put@_WV?$ostreambuf_iterator@_WU?$char_traits@_W@std@@@std@@@std@@MBE?AV?$ostreambuf_iterator@_WU?$char_traits@_W@std@@@2@V32@_NAAVios_base@2@_WABV?$basic_string@_WU?$char_traits@_W@std@@V?$allocator@_W@2@@2@@Z 3013fd83 f i libcpmt:wlocale.obj
 0001:0013ef00       ?do_put@?$money_put@_WV?$ostreambuf_iterator@_WU?$char_traits@_W@std@@@std@@@std@@MBE?AV?$ostreambuf_iterator@_WU?$char_traits@_W@std@@@2@V32@_NAAVios_base@2@_WO@Z 3013ff00 f i libcpmt:wlocale.obj
 0001:0013f0c3       ?do_put@?$num_put@GV?$ostreambuf_iterator@GU?$char_traits@G@std@@@std@@@std@@MBE?AV?$ostreambuf_iterator@GU?$char_traits@G@std@@@2@V32@AAVios_base@2@GJ@Z 301400c3 f i libcpmt:wlocale.obj
 0001:0013f148       ?do_put@?$num_put@GV?$ostreambuf_iterator@GU?$char_traits@G@std@@@std@@@std@@MBE?AV?$ostreambuf_iterator@GU?$char_traits@G@std@@@2@V32@AAVios_base@2@GK@Z 30140148 f i libcpmt:wlocale.obj
 0001:0013f1cd       ?do_put@?$num_put@GV?$ostreambuf_iterator@GU?$char_traits@G@std@@@std@@@std@@MBE?AV?$ostreambuf_iterator@GU?$char_traits@G@std@@@2@V32@AAVios_base@2@GN@Z 301401cd f i libcpmt:wlocale.obj
 0001:0013f485       ?do_put@?$num_put@GV?$ostreambuf_iterator@GU?$char_traits@G@std@@@std@@@std@@MBE?AV?$ostreambuf_iterator@GU?$char_traits@G@std@@@2@V32@AAVios_base@2@GO@Z 30140485 f i libcpmt:wlocale.obj
 0001:0013f73d       ?do_put@?$num_put@GV?$ostreambuf_iterator@GU?$char_traits@G@std@@@std@@@std@@MBE?AV?$ostreambuf_iterator@GU?$char_traits@G@std@@@2@V32@AAVios_base@2@GPBX@Z 3014073d f i libcpmt:wlocale.obj
 0001:0013f7ae       ?do_put@?$num_put@GV?$ostreambuf_iterator@GU?$char_traits@G@std@@@std@@@std@@MBE?AV?$ostreambuf_iterator@GU?$char_traits@G@std@@@2@V32@AAVios_base@2@G_J@Z 301407ae f i libcpmt:wlocale.obj
 0001:0013f837       ?do_put@?$num_put@GV?$ostreambuf_iterator@GU?$char_traits@G@std@@@std@@@std@@MBE?AV?$ostreambuf_iterator@GU?$char_traits@G@std@@@2@V32@AAVios_base@2@G_K@Z 30140837 f i libcpmt:wlocale.obj
 0001:0013f8c0       ?do_put@?$num_put@GV?$ostreambuf_iterator@GU?$char_traits@G@std@@@std@@@std@@MBE?AV?$ostreambuf_iterator@GU?$char_traits@G@std@@@2@V32@AAVios_base@2@G_N@Z 301408c0 f i libcpmt:wlocale.obj
 0001:0013fb51       ?do_put@?$num_put@_WV?$ostreambuf_iterator@_WU?$char_traits@_W@std@@@std@@@std@@MBE?AV?$ostreambuf_iterator@_WU?$char_traits@_W@std@@@2@V32@AAVios_base@2@_WJ@Z 30140b51 f i libcpmt:wlocale.obj
 0001:0013fbd6       ?do_put@?$num_put@_WV?$ostreambuf_iterator@_WU?$char_traits@_W@std@@@std@@@std@@MBE?AV?$ostreambuf_iterator@_WU?$char_traits@_W@std@@@2@V32@AAVios_base@2@_WK@Z 30140bd6 f i libcpmt:wlocale.obj
 0001:0013fc5b       ?do_put@?$num_put@_WV?$ostreambuf_iterator@_WU?$char_traits@_W@std@@@std@@@std@@MBE?AV?$ostreambuf_iterator@_WU?$char_traits@_W@std@@@2@V32@AAVios_base@2@_WN@Z 30140c5b f i libcpmt:wlocale.obj
 0001:0013ff13       ?do_put@?$num_put@_WV?$ostreambuf_iterator@_WU?$char_traits@_W@std@@@std@@@std@@MBE?AV?$ostreambuf_iterator@_WU?$char_traits@_W@std@@@2@V32@AAVios_base@2@_WO@Z 30140f13 f i libcpmt:wlocale.obj
 0001:001401cb       ?do_put@?$num_put@_WV?$ostreambuf_iterator@_WU?$char_traits@_W@std@@@std@@@std@@MBE?AV?$ostreambuf_iterator@_WU?$char_traits@_W@std@@@2@V32@AAVios_base@2@_WPBX@Z 301411cb f i libcpmt:wlocale.obj
 0001:0014023c       ?do_put@?$num_put@_WV?$ostreambuf_iterator@_WU?$char_traits@_W@std@@@std@@@std@@MBE?AV?$ostreambuf_iterator@_WU?$char_traits@_W@std@@@2@V32@AAVios_base@2@_W_J@Z 3014123c f i libcpmt:wlocale.obj
 0001:001402c5       ?do_put@?$num_put@_WV?$ostreambuf_iterator@_WU?$char_traits@_W@std@@@std@@@std@@MBE?AV?$ostreambuf_iterator@_WU?$char_traits@_W@std@@@2@V32@AAVios_base@2@_W_K@Z 301412c5 f i libcpmt:wlocale.obj
 0001:0014034e       ?do_put@?$num_put@_WV?$ostreambuf_iterator@_WU?$char_traits@_W@std@@@std@@@std@@MBE?AV?$ostreambuf_iterator@_WU?$char_traits@_W@std@@@2@V32@AAVios_base@2@_W_N@Z 3014134e f i libcpmt:wlocale.obj
 0001:001405df       ?do_put@?$time_put@GV?$ostreambuf_iterator@GU?$char_traits@G@std@@@std@@@std@@MBE?AV?$ostreambuf_iterator@GU?$char_traits@G@std@@@2@V32@AAVios_base@2@GPBUtm@@DD@Z 301415df f i libcpmt:wlocale.obj
 0001:0014086a       ?do_put@?$time_put@_WV?$ostreambuf_iterator@_WU?$char_traits@_W@std@@@std@@@std@@MBE?AV?$ostreambuf_iterator@_WU?$char_traits@_W@std@@@2@V32@AAVios_base@2@_WPBUtm@@DD@Z 3014186a f i libcpmt:wlocale.obj
 0001:00140af5       ?do_scan_is@?$ctype@G@std@@MBEPBGFPBG0@Z 30141af5 f i libcpmt:wlocale.obj
 0001:00140b41       ?do_scan_is@?$ctype@_W@std@@MBEPB_WFPB_W0@Z 30141b41 f i libcpmt:wlocale.obj
 0001:00140b8d       ?do_scan_not@?$ctype@G@std@@MBEPBGFPBG0@Z 30141b8d f i libcpmt:wlocale.obj
 0001:00140bd9       ?do_scan_not@?$ctype@_W@std@@MBEPB_WFPB_W0@Z 30141bd9 f i libcpmt:wlocale.obj
 0001:00140c25       ?do_thousands_sep@?$_Mpunct@G@std@@MBEGXZ 30141c25 f i libcpmt:wlocale.obj
 0001:00140c2a       ?do_thousands_sep@?$_Mpunct@_W@std@@MBE_WXZ 30141c2a f i libcpmt:wlocale.obj
 0001:00140c2f       ?do_thousands_sep@?$numpunct@G@std@@MBEGXZ 30141c2f f i libcpmt:wlocale.obj
 0001:00140c34       ?do_thousands_sep@?$numpunct@_W@std@@MBE_WXZ 30141c34 f i libcpmt:wlocale.obj
 0001:00140c39       ?do_tolower@?$ctype@G@std@@MBEGG@Z 30141c39 f i libcpmt:wlocale.obj
 0001:00140c53       ?do_tolower@?$ctype@G@std@@MBEPBGPAGPBG@Z 30141c53 f i libcpmt:wlocale.obj
 0001:00140c8d       ?do_tolower@?$ctype@_W@std@@MBEPB_WPA_WPB_W@Z 30141c8d f i libcpmt:wlocale.obj
 0001:00140cc7       ?do_tolower@?$ctype@_W@std@@MBE_W_W@Z 30141cc7 f i libcpmt:wlocale.obj
 0001:00140ce1       ?do_toupper@?$ctype@G@std@@MBEGG@Z 30141ce1 f i libcpmt:wlocale.obj
 0001:00140cfb       ?do_toupper@?$ctype@G@std@@MBEPBGPAGPBG@Z 30141cfb f i libcpmt:wlocale.obj
 0001:00140d35       ?do_toupper@?$ctype@_W@std@@MBEPB_WPA_WPB_W@Z 30141d35 f i libcpmt:wlocale.obj
 0001:00140d6f       ?do_toupper@?$ctype@_W@std@@MBE_W_W@Z 30141d6f f i libcpmt:wlocale.obj
 0001:00140d89       ?do_transform@?$collate@G@std@@MBE?AV?$basic_string@GU?$char_traits@G@std@@V?$allocator@G@2@@2@PBG0@Z 30141d89 f i libcpmt:wlocale.obj
 0001:00140e33       ?do_transform@?$collate@_W@std@@MBE?AV?$basic_string@_WU?$char_traits@_W@std@@V?$allocator@_W@2@@2@PB_W0@Z 30141e33 f i libcpmt:wlocale.obj
 0001:00140edd       ?do_truename@?$numpunct@G@std@@MBE?AV?$basic_string@GU?$char_traits@G@std@@V?$allocator@G@2@@2@XZ 30141edd f i libcpmt:wlocale.obj
 0001:00140ef8       ?do_truename@?$numpunct@_W@std@@MBE?AV?$basic_string@_WU?$char_traits@_W@std@@V?$allocator@_W@2@@2@XZ 30141ef8 f i libcpmt:wlocale.obj
 0001:00140f13       ?do_unshift@?$codecvt@GDU_Mbstatet@@@std@@MBEHAAU_Mbstatet@@PAD1AAPAD@Z 30141f13 f i libcpmt:wlocale.obj
 0001:00140fc7       ?do_unshift@?$codecvt@_WDU_Mbstatet@@@std@@MBEHAAU_Mbstatet@@PAD1AAPAD@Z 30141fc7 f i libcpmt:wlocale.obj
 0001:0014107b       ?do_widen@?$ctype@G@std@@MBEGD@Z 3014207b f i libcpmt:wlocale.obj
 0001:00141086       ?do_widen@?$ctype@G@std@@MBEPBDPBD0PAG@Z 30142086 f i libcpmt:wlocale.obj
 0001:001410c5       ?do_widen@?$ctype@_W@std@@MBEPBDPBD0PA_W@Z 301420c5 f i libcpmt:wlocale.obj
 0001:00141104       ?do_widen@?$ctype@_W@std@@MBE_WD@Z 30142104 f i libcpmt:wlocale.obj
 0001:0014110f       ?empty@?$basic_string@GU?$char_traits@G@std@@V?$allocator@G@2@@std@@QBE_NXZ 3014210f f i libcpmt:wlocale.obj
 0001:00141119       ?empty@?$basic_string@_WU?$char_traits@_W@std@@V?$allocator@_W@2@@std@@QBE_NXZ 30142119 f i libcpmt:wlocale.obj
 0001:00141123       ?end@?$basic_string@GU?$char_traits@G@std@@V?$allocator@G@2@@std@@QAE?AV?$_String_iterator@V?$_String_val@U?$_Simple_types@G@std@@@std@@@2@XZ 30142123 f i libcpmt:wlocale.obj
 0001:00141146       ?end@?$basic_string@_WU?$char_traits@_W@std@@V?$allocator@_W@2@@std@@QAE?AV?$_String_iterator@V?$_String_val@U?$_Simple_types@_W@std@@@std@@@2@XZ 30142146 f i libcpmt:wlocale.obj
 0001:00141169       ?eof@?$_WChar_traits@G@std@@SAGXZ 30142169 f i libcpmt:wlocale.obj
 0001:0014116f       ?eof@?$_WChar_traits@_W@std@@SAGXZ 3014216f f i libcpmt:wlocale.obj
 0001:00141175       ?eq_int_type@?$_WChar_traits@G@std@@SA_NGG@Z 30142175 f i libcpmt:wlocale.obj
 0001:00141189       ?eq_int_type@?$_WChar_traits@_W@std@@SA_NGG@Z 30142189 f i libcpmt:wlocale.obj
 0001:0014119d       ?equal@?$istreambuf_iterator@GU?$char_traits@G@std@@@std@@QBE_NABV12@@Z 3014219d f i libcpmt:wlocale.obj
 0001:001411e5       ?equal@?$istreambuf_iterator@_WU?$char_traits@_W@std@@@std@@QBE_NABV12@@Z 301421e5 f i libcpmt:wlocale.obj
 0001:0014122d       ?erase@?$basic_string@DU?$char_traits@D@std@@V?$allocator@D@2@@std@@QAEAAV12@I@Z 3014222d f i libcpmt:wlocale.obj
 0001:00141256       ?erase@?$basic_string@GU?$char_traits@G@std@@V?$allocator@G@2@@std@@QAEAAV12@I@Z 30142256 f i libcpmt:wlocale.obj
 0001:0014127f       ?erase@?$basic_string@_WU?$char_traits@_W@std@@V?$allocator@_W@2@@std@@QAEAAV12@I@Z 3014227f f i libcpmt:wlocale.obj
 0001:001412a8       ?falsename@?$numpunct@G@std@@QBE?AV?$basic_string@GU?$char_traits@G@std@@V?$allocator@G@2@@2@XZ 301422a8 f i libcpmt:wlocale.obj
 0001:001412d6       ?falsename@?$numpunct@_W@std@@QBE?AV?$basic_string@_WU?$char_traits@_W@std@@V?$allocator@_W@2@@2@XZ 301422d6 f i libcpmt:wlocale.obj
 0001:00141304       ?frac_digits@?$_Mpunct@G@std@@QBEHXZ 30142304 f i libcpmt:wlocale.obj
 0001:00141322       ?frac_digits@?$_Mpunct@_W@std@@QBEHXZ 30142322 f i libcpmt:wlocale.obj
 0001:00141340       ?get_monthname@?$time_get@GV?$istreambuf_iterator@GU?$char_traits@G@std@@@std@@@std@@QBE?AV?$istreambuf_iterator@GU?$char_traits@G@std@@@2@V32@0AAVios_base@2@AAHPAUtm@@@Z 30142340 f i libcpmt:wlocale.obj
 0001:00141386       ?get_monthname@?$time_get@_WV?$istreambuf_iterator@_WU?$char_traits@_W@std@@@std@@@std@@QBE?AV?$istreambuf_iterator@_WU?$char_traits@_W@std@@@2@V32@0AAVios_base@2@AAHPAUtm@@@Z 30142386 f i libcpmt:wlocale.obj
 0001:001413cc       ?get_weekday@?$time_get@GV?$istreambuf_iterator@GU?$char_traits@G@std@@@std@@@std@@QBE?AV?$istreambuf_iterator@GU?$char_traits@G@std@@@2@V32@0AAVios_base@2@AAHPAUtm@@@Z 301423cc f i libcpmt:wlocale.obj
 0001:00141412       ?get_weekday@?$time_get@_WV?$istreambuf_iterator@_WU?$char_traits@_W@std@@@std@@@std@@QBE?AV?$istreambuf_iterator@_WU?$char_traits@_W@std@@@2@V32@0AAVios_base@2@AAHPAUtm@@@Z 30142412 f i libcpmt:wlocale.obj
 0001:00141458       ?get_year@?$time_get@GV?$istreambuf_iterator@GU?$char_traits@G@std@@@std@@@std@@QBE?AV?$istreambuf_iterator@GU?$char_traits@G@std@@@2@V32@0AAVios_base@2@AAHPAUtm@@@Z 30142458 f i libcpmt:wlocale.obj
 0001:0014149e       ?get_year@?$time_get@_WV?$istreambuf_iterator@_WU?$char_traits@_W@std@@@std@@@std@@QBE?AV?$istreambuf_iterator@_WU?$char_traits@_W@std@@@2@V32@0AAVios_base@2@AAHPAUtm@@@Z 3014249e f i libcpmt:wlocale.obj
 0001:001414e4       ?gptr@?$basic_streambuf@GU?$char_traits@G@std@@@std@@IBEPAGXZ 301424e4 f i libcpmt:wlocale.obj
 0001:001414ea       ?gptr@?$basic_streambuf@_WU?$char_traits@_W@std@@@std@@IBEPA_WXZ 301424ea f i libcpmt:wlocale.obj
 0001:001414f0       ?grouping@?$_Mpunct@G@std@@QBE?AV?$basic_string@DU?$char_traits@D@std@@V?$allocator@D@2@@2@XZ 301424f0 f i libcpmt:wlocale.obj
 0001:0014151e       ?grouping@?$_Mpunct@_W@std@@QBE?AV?$basic_string@DU?$char_traits@D@std@@V?$allocator@D@2@@2@XZ 3014251e f i libcpmt:wlocale.obj
 0001:0014154c       ?grouping@?$numpunct@G@std@@QBE?AV?$basic_string@DU?$char_traits@D@std@@V?$allocator@D@2@@2@XZ 3014254c f i libcpmt:wlocale.obj
 0001:0014157a       ?grouping@?$numpunct@_W@std@@QBE?AV?$basic_string@DU?$char_traits@D@std@@V?$allocator@D@2@@2@XZ 3014257a f i libcpmt:wlocale.obj
 0001:001415a8       ?insert@?$basic_string@GU?$char_traits@G@std@@V?$allocator@G@2@@std@@QAEAAV12@IIG@Z 301425a8 f i libcpmt:wlocale.obj
 0001:0014164e       ?insert@?$basic_string@_WU?$char_traits@_W@std@@V?$allocator@_W@2@@std@@QAEAAV12@II_W@Z 3014264e f i libcpmt:wlocale.obj
 0001:001416f4       ?is@?$ctype@G@std@@QBE_NFG@Z 301426f4 f i libcpmt:wlocale.obj
 0001:00141721       ?is@?$ctype@_W@std@@QBE_NF_W@Z 30142721 f i libcpmt:wlocale.obj
 0001:0014174e       ?length@?$_Char_traits@GG@std@@SAIPBG@Z 3014274e f i libcpmt:wlocale.obj
 0001:0014176a       ?length@?$_WChar_traits@G@std@@SAIPBG@Z 3014276a f i libcpmt:wlocale.obj
 0001:0014178a       ?length@?$_WChar_traits@_W@std@@SAIPB_W@Z 3014278a f i libcpmt:wlocale.obj
 0001:001417aa       ?max_size@?$_Default_allocator_traits@V?$allocator@G@std@@@std@@SAIABV?$allocator@G@2@@Z 301427aa f i libcpmt:wlocale.obj
 0001:001417b0       ?max_size@?$_Default_allocator_traits@V?$allocator@_W@std@@@std@@SAIABV?$allocator@_W@2@@Z 301427b0 f i libcpmt:wlocale.obj
 0001:001417b6       ?max_size@?$basic_string@GU?$char_traits@G@std@@V?$allocator@G@2@@std@@QBEIXZ 301427b6 f i libcpmt:wlocale.obj
 0001:001417bc       ?max_size@?$basic_string@_WU?$char_traits@_W@std@@V?$allocator@_W@2@@std@@QBEIXZ 301427bc f i libcpmt:wlocale.obj
 0001:001417c2       ?move@?$_Char_traits@GG@std@@SAPAGQAGQBGI@Z 301427c2 f i libcpmt:wlocale.obj
 0001:001417e5       ?move@?$_Char_traits@_WG@std@@SAPA_WQA_WQB_WI@Z 301427e5 f i libcpmt:wlocale.obj
 0001:00141808       ?name@locale@std@@QBE?AV?$basic_string@DU?$char_traits@D@std@@V?$allocator@D@2@@2@XZ 30142808 f i libcpmt:wlocale.obj
 0001:00141962       ?narrow@?$ctype@G@std@@QBEDGD@Z 30142962 f i libcpmt:wlocale.obj
 0001:0014198f       ?narrow@?$ctype@_W@std@@QBED_WD@Z 3014298f f i libcpmt:wlocale.obj
 0001:001419bc       ?neg_format@?$_Mpunct@G@std@@QBE?AUpattern@money_base@2@XZ 301429bc f i libcpmt:wlocale.obj
 0001:001419e9       ?neg_format@?$_Mpunct@_W@std@@QBE?AUpattern@money_base@2@XZ 301429e9 f i libcpmt:wlocale.obj
 0001:00141a16       ?negative_sign@?$_Mpunct@G@std@@QBE?AV?$basic_string@GU?$char_traits@G@std@@V?$allocator@G@2@@2@XZ 30142a16 f i libcpmt:wlocale.obj
 0001:00141a44       ?negative_sign@?$_Mpunct@_W@std@@QBE?AV?$basic_string@_WU?$char_traits@_W@std@@V?$allocator@_W@2@@2@XZ 30142a44 f i libcpmt:wlocale.obj
 0001:00141a72       ?pos_format@?$_Mpunct@G@std@@QBE?AUpattern@money_base@2@XZ 30142a72 f i libcpmt:wlocale.obj
 0001:00141a9f       ?pos_format@?$_Mpunct@_W@std@@QBE?AUpattern@money_base@2@XZ 30142a9f f i libcpmt:wlocale.obj
 0001:00141acc       ?positive_sign@?$_Mpunct@G@std@@QBE?AV?$basic_string@GU?$char_traits@G@std@@V?$allocator@G@2@@2@XZ 30142acc f i libcpmt:wlocale.obj
 0001:00141afa       ?positive_sign@?$_Mpunct@_W@std@@QBE?AV?$basic_string@_WU?$char_traits@_W@std@@V?$allocator@_W@2@@2@XZ 30142afa f i libcpmt:wlocale.obj
 0001:00141b28       ?push_back@?$basic_string@GU?$char_traits@G@std@@V?$allocator@G@2@@std@@QAEXG@Z 30142b28 f i libcpmt:wlocale.obj
 0001:00141b85       ?push_back@?$basic_string@_WU?$char_traits@_W@std@@V?$allocator@_W@2@@std@@QAEX_W@Z 30142b85 f i libcpmt:wlocale.obj
 0001:00141be2       ?resize@?$basic_string@GU?$char_traits@G@std@@V?$allocator@G@2@@std@@QAEXIG@Z 30142be2 f i libcpmt:wlocale.obj
 0001:00141c0d       ?resize@?$basic_string@_WU?$char_traits@_W@std@@V?$allocator@_W@2@@std@@QAEXI_W@Z 30142c0d f i libcpmt:wlocale.obj
 0001:00141c38       ?sbumpc@?$basic_streambuf@GU?$char_traits@G@std@@@std@@QAEGXZ 30142c38 f i libcpmt:wlocale.obj
 0001:00141c83       ?sbumpc@?$basic_streambuf@_WU?$char_traits@_W@std@@@std@@QAEGXZ 30142c83 f i libcpmt:wlocale.obj
 0001:00141cce       ?select_on_container_copy_construction@?$_Default_allocator_traits@V?$allocator@G@std@@@std@@SA?AV?$allocator@G@2@ABV32@@Z 30142cce f i libcpmt:wlocale.obj
 0001:00141cd8       ?select_on_container_copy_construction@?$_Default_allocator_traits@V?$allocator@_W@std@@@std@@SA?AV?$allocator@_W@2@ABV32@@Z 30142cd8 f i libcpmt:wlocale.obj
 0001:00141ce2       ?setstate@ios_base@std@@QAEXH@Z 30142ce2 f i libcpmt:wlocale.obj
 0001:00141cfc       ?sgetc@?$basic_streambuf@GU?$char_traits@G@std@@@std@@QAEGXZ 30142cfc f i libcpmt:wlocale.obj
 0001:00141d39       ?sgetc@?$basic_streambuf@_WU?$char_traits@_W@std@@@std@@QAEGXZ 30142d39 f i libcpmt:wlocale.obj
 0001:00141d76       ?size@?$basic_string@GU?$char_traits@G@std@@V?$allocator@G@2@@std@@QBEIXZ 30142d76 f i libcpmt:wlocale.obj
 0001:00141d7a       ?size@?$basic_string@_WU?$char_traits@_W@std@@V?$allocator@_W@2@@std@@QBEIXZ 30142d7a f i libcpmt:wlocale.obj
 0001:00141d7e       ?sputc@?$basic_streambuf@GU?$char_traits@G@std@@@std@@QAEGG@Z 30142d7e f i libcpmt:wlocale.obj
 0001:00141dd8       ?sputc@?$basic_streambuf@_WU?$char_traits@_W@std@@@std@@QAEG_W@Z 30142dd8 f i libcpmt:wlocale.obj
 0001:00141e32       ?thousands_sep@?$_Mpunct@G@std@@QBEGXZ 30142e32 f i libcpmt:wlocale.obj
 0001:00141e50       ?thousands_sep@?$_Mpunct@_W@std@@QBE_WXZ 30142e50 f i libcpmt:wlocale.obj
 0001:00141e6e       ?thousands_sep@?$numpunct@G@std@@QBEGXZ 30142e6e f i libcpmt:wlocale.obj
 0001:00141e8c       ?thousands_sep@?$numpunct@_W@std@@QBE_WXZ 30142e8c f i libcpmt:wlocale.obj
 0001:00141eaa       ?to_char_type@?$_WChar_traits@G@std@@SAGG@Z 30142eaa f i libcpmt:wlocale.obj
 0001:00141eb5       ?to_char_type@?$_WChar_traits@_W@std@@SA_WG@Z 30142eb5 f i libcpmt:wlocale.obj
 0001:00141ec0       ?to_int_type@?$_WChar_traits@G@std@@SAGG@Z 30142ec0 f i libcpmt:wlocale.obj
 0001:00141ecb       ?to_int_type@?$_WChar_traits@_W@std@@SAG_W@Z 30142ecb f i libcpmt:wlocale.obj
 0001:00141ed6       ?tolower@?$ctype@G@std@@QBEGG@Z 30142ed6 f i libcpmt:wlocale.obj
 0001:00141eff       ?tolower@?$ctype@_W@std@@QBE_W_W@Z 30142eff f i libcpmt:wlocale.obj
 0001:00141f28       ?truename@?$numpunct@G@std@@QBE?AV?$basic_string@GU?$char_traits@G@std@@V?$allocator@G@2@@2@XZ 30142f28 f i libcpmt:wlocale.obj
 0001:00141f56       ?truename@?$numpunct@_W@std@@QBE?AV?$basic_string@_WU?$char_traits@_W@std@@V?$allocator@_W@2@@2@XZ 30142f56 f i libcpmt:wlocale.obj
 0001:00141f84       ?widen@?$ctype@G@std@@QBEGD@Z 30142f84 f i libcpmt:wlocale.obj
 0001:00141fad       ?widen@?$ctype@G@std@@QBEPBDPBD0PAG@Z 30142fad f i libcpmt:wlocale.obj
 0001:00141fdd       ?widen@?$ctype@_W@std@@QBEPBDPBD0PA_W@Z 30142fdd f i libcpmt:wlocale.obj
 0001:0014200d       ?widen@?$ctype@_W@std@@QBE_WD@Z 3014300d f i libcpmt:wlocale.obj
 0001:00142036       _wmemcpy                   30143036 f i libcpmt:wlocale.obj
 0001:00142055       _wmemset                   30143055 f i libcpmt:wlocale.obj
 0001:00142092       ??$_Copy_unchecked@PADPADV?$ostreambuf_iterator@DU?$char_traits@D@std@@@std@@@std@@YA?AV?$ostreambuf_iterator@DU?$char_traits@D@std@@@0@PAD0V10@@Z 30143092 f i libcpmt:xlocale.obj
 0001:001420c9       ??$_Find_elem@D$0M@@std@@YAIAAY0M@$$CBDD@Z 301430c9 f i libcpmt:xlocale.obj
 0001:001420e8       ??$_Get_unwrapped@AAPAD@std@@YA?A_TAAPAD@Z 301430e8 f i libcpmt:xlocale.obj
 0001:001420f4       ??$_Get_unwrapped_n@V?$ostreambuf_iterator@DU?$char_traits@D@std@@@std@@H@std@@YA?A_T$$QAV?$ostreambuf_iterator@DU?$char_traits@D@std@@@0@H@Z 301430f4 f i libcpmt:xlocale.obj
 0001:001420fe       ??$_Getint_v2@V?$istreambuf_iterator@DU?$char_traits@D@std@@@std@@D@std@@YAHAAV?$istreambuf_iterator@DU?$char_traits@D@std@@@0@0HHAAH1ABV?$ctype@D@0@@Z 301430fe f i libcpmt:xlocale.obj
 0001:001423b5       ??$_Getvals@D@?$time_get@DV?$istreambuf_iterator@DU?$char_traits@D@std@@@std@@@std@@IAEXDABV_Locinfo@1@@Z 301433b5 f i libcpmt:xlocale.obj
 0001:0014243a       ??$_Hash_array_representation@D@std@@YAIQBDI@Z 3014343a f i libcpmt:xlocale.obj
 0001:00142458       ??$_Idl_distance@PADPAD@std@@YA?A_PABQAD0@Z 30143458 f i libcpmt:xlocale.obj
 0001:0014246a       ??$_LStrcoll@D@std@@YAHPBD000PBU_Collvec@@@Z 3014346a f i libcpmt:xlocale.obj
 0001:00142475       ??$_LStrxfrm@D@std@@YAIPAD0PBD1PBU_Collvec@@@Z 30143475 f i libcpmt:xlocale.obj
 0001:00142480       ??$_Refancy@PAD$0A@@std@@YAPADPAD@Z 30143480 f i libcpmt:xlocale.obj
 0001:0014248a       ??$_Seek_wrapped@V?$ostreambuf_iterator@DU?$char_traits@D@std@@@std@@V12@@std@@YAXAAV?$ostreambuf_iterator@DU?$char_traits@D@std@@@0@$$QAV10@@Z 3014348a f i libcpmt:xlocale.obj
 0001:001424a4       ??$addressof@$$CBV?$moneypunct@D$00@std@@@std@@YAPBV?$moneypunct@D$00@0@ABV10@@Z 301434a4 f i libcpmt:xlocale.obj
 0001:001424ae       ??$addressof@$$CBV?$moneypunct@D$0A@@std@@@std@@YAPBV?$moneypunct@D$0A@@0@ABV10@@Z 301434ae f i libcpmt:xlocale.obj
 0001:001424b8       ??$addressof@V?$_String_val@U?$_Simple_types@D@std@@@std@@@std@@YAPAV?$_String_val@U?$_Simple_types@D@std@@@0@AAV10@@Z 301434b8 f i libcpmt:xlocale.obj
 0001:001424c2       ??$copy@PADV?$ostreambuf_iterator@DU?$char_traits@D@std@@@std@@@std@@YA?AV?$ostreambuf_iterator@DU?$char_traits@D@std@@@0@PAD0V10@@Z 301434c2 f i libcpmt:xlocale.obj
 0001:001424f9       ??$forward@V?$ostreambuf_iterator@DU?$char_traits@D@std@@@std@@@std@@YA$$QAV?$ostreambuf_iterator@DU?$char_traits@D@std@@@0@AAV10@@Z 301434f9 f i libcpmt:xlocale.obj
 0001:00142503       ??$move@AAV?$ostreambuf_iterator@DU?$char_traits@D@std@@@std@@@std@@YA$$QAV?$ostreambuf_iterator@DU?$char_traits@D@std@@@0@AAV10@@Z 30143503 f i libcpmt:xlocale.obj
 0001:0014250d       ??$use_facet@V?$collate@D@std@@@std@@YAABV?$collate@D@0@ABVlocale@0@@Z 3014350d f i libcpmt:xlocale.obj
 0001:001425cb       ??$use_facet@V?$messages@D@std@@@std@@YAABV?$messages@D@0@ABVlocale@0@@Z 301435cb f i libcpmt:xlocale.obj
 0001:00142689       ??$use_facet@V?$money_get@DV?$istreambuf_iterator@DU?$char_traits@D@std@@@std@@@std@@@std@@YAABV?$money_get@DV?$istreambuf_iterator@DU?$char_traits@D@std@@@std@@@0@ABVlocale@0@@Z 30143689 f i libcpmt:xlocale.obj
 0001:00142747       ??$use_facet@V?$money_put@DV?$ostreambuf_iterator@DU?$char_traits@D@std@@@std@@@std@@@std@@YAABV?$money_put@DV?$ostreambuf_iterator@DU?$char_traits@D@std@@@std@@@0@ABVlocale@0@@Z 30143747 f i libcpmt:xlocale.obj
 0001:00142805       ??$use_facet@V?$moneypunct@D$00@std@@@std@@YAABV?$moneypunct@D$00@0@ABVlocale@0@@Z 30143805 f i libcpmt:xlocale.obj
 0001:001428c3       ??$use_facet@V?$moneypunct@D$0A@@std@@@std@@YAABV?$moneypunct@D$0A@@0@ABVlocale@0@@Z 301438c3 f i libcpmt:xlocale.obj
 0001:00142981       ??$use_facet@V?$time_get@DV?$istreambuf_iterator@DU?$char_traits@D@std@@@std@@@std@@@std@@YAABV?$time_get@DV?$istreambuf_iterator@DU?$char_traits@D@std@@@std@@@0@ABVlocale@0@@Z 30143981 f i libcpmt:xlocale.obj
 0001:00142a3f       ??$use_facet@V?$time_put@DV?$ostreambuf_iterator@DU?$char_traits@D@std@@@std@@@std@@@std@@YAABV?$time_put@DV?$ostreambuf_iterator@DU?$char_traits@D@std@@@std@@@0@ABVlocale@0@@Z 30143a3f f i libcpmt:xlocale.obj
 0001:00142afd       ??0?$_Mpunct@D@std@@QAE@ABV_Locinfo@1@I_N1@Z 30143afd f i libcpmt:xlocale.obj
 0001:00142b4b       ??0?$_String_const_iterator@V?$_String_val@U?$_Simple_types@D@std@@@std@@@std@@QAE@PBDPBU_Container_base0@1@@Z 30143b4b f i libcpmt:xlocale.obj
 0001:00142b5c       ??0?$_String_const_iterator@V?$_String_val@U?$_Simple_types@D@std@@@std@@@std@@QAE@XZ 30143b5c f i libcpmt:xlocale.obj
 0001:00142b67       ??0?$_String_iterator@V?$_String_val@U?$_Simple_types@D@std@@@std@@@std@@QAE@PBDPBU_Container_base0@1@@Z 30143b67 f i libcpmt:xlocale.obj
 0001:00142b78       ??0?$collate@D@std@@QAE@ABV_Locinfo@1@I@Z 30143b78 f i libcpmt:xlocale.obj
 0001:00142baa       ??0?$messages@D@std@@QAE@ABV_Locinfo@1@I@Z 30143baa f i libcpmt:xlocale.obj
 0001:00142bc9       ??0?$money_get@DV?$istreambuf_iterator@DU?$char_traits@D@std@@@std@@@std@@QAE@ABV_Locinfo@1@I@Z 30143bc9 f i libcpmt:xlocale.obj
 0001:00142be8       ??0?$money_put@DV?$ostreambuf_iterator@DU?$char_traits@D@std@@@std@@@std@@QAE@ABV_Locinfo@1@I@Z 30143be8 f i libcpmt:xlocale.obj
 0001:00142c07       ??0?$moneypunct@D$00@std@@QAE@ABV_Locinfo@1@I_N@Z 30143c07 f i libcpmt:xlocale.obj
 0001:00142c37       ??0?$moneypunct@D$0A@@std@@QAE@ABV_Locinfo@1@I_N@Z 30143c37 f i libcpmt:xlocale.obj
 0001:00142c67       ??0?$time_get@DV?$istreambuf_iterator@DU?$char_traits@D@std@@@std@@@std@@QAE@ABV_Locinfo@1@I@Z 30143c67 f i libcpmt:xlocale.obj
 0001:00142caa       ??0?$time_put@DV?$ostreambuf_iterator@DU?$char_traits@D@std@@@std@@@std@@QAE@ABV_Locinfo@1@I@Z 30143caa f i libcpmt:xlocale.obj
 0001:00142ce1       ??1?$_Mpunct@D@std@@MAE@XZ 30143ce1 f i libcpmt:xlocale.obj
 0001:00142cfc       ??1?$_Tidy_guard@V?$_Mpunct@D@std@@@std@@QAE@XZ 30143cfc f i libcpmt:xlocale.obj
 0001:00142d09       ??1?$_Tidy_guard@V?$time_get@DV?$istreambuf_iterator@DU?$char_traits@D@std@@@std@@@std@@@std@@QAE@XZ 30143d09 f i libcpmt:xlocale.obj
 0001:00142d16       ??1?$collate@D@std@@MAE@XZ 30143d16 f i libcpmt:xlocale.obj
 0001:00142d36       ??1?$messages@D@std@@MAE@XZ 30143d36 f i libcpmt:xlocale.obj
 0001:00142d3d       ??1?$money_get@DV?$istreambuf_iterator@DU?$char_traits@D@std@@@std@@@std@@MAE@XZ 30143d3d f i libcpmt:xlocale.obj
 0001:00142d44       ??1?$money_put@DV?$ostreambuf_iterator@DU?$char_traits@D@std@@@std@@@std@@MAE@XZ 30143d44 f i libcpmt:xlocale.obj
 0001:00142d4b       ??1?$moneypunct@D$00@std@@MAE@XZ 30143d4b f i libcpmt:xlocale.obj
 0001:00142d66       ??1?$moneypunct@D$0A@@std@@MAE@XZ 30143d66 f i libcpmt:xlocale.obj
 0001:00142d81       ??1?$time_get@DV?$istreambuf_iterator@DU?$char_traits@D@std@@@std@@@std@@MAE@XZ 30143d81 f i libcpmt:xlocale.obj
 0001:00142d9c       ??1?$time_put@DV?$ostreambuf_iterator@DU?$char_traits@D@std@@@std@@@std@@MAE@XZ 30143d9c f i libcpmt:xlocale.obj
 0001:00142dbc       ??8?$_String_const_iterator@V?$_String_val@U?$_Simple_types@D@std@@@std@@@std@@QBE_NABV01@@Z 30143dbc f i libcpmt:xlocale.obj
 0001:00142dd1       ??D?$_String_const_iterator@V?$_String_val@U?$_Simple_types@D@std@@@std@@@std@@QBEABDXZ 30143dd1 f i libcpmt:xlocale.obj
 0001:00142dd4       ??D?$_String_iterator@V?$_String_val@U?$_Simple_types@D@std@@@std@@@std@@QBEAADXZ 30143dd4 f i libcpmt:xlocale.obj
 0001:00142dd7       ??E?$_String_const_iterator@V?$_String_val@U?$_Simple_types@D@std@@@std@@@std@@QAEAAV01@XZ 30143dd7 f i libcpmt:xlocale.obj
 0001:00142ddc       ??E?$_String_iterator@V?$_String_val@U?$_Simple_types@D@std@@@std@@@std@@QAEAAV01@XZ 30143ddc f i libcpmt:xlocale.obj
 0001:00142de1       ??E?$ostreambuf_iterator@DU?$char_traits@D@std@@@std@@QAEAAV01@H@Z 30143de1 f i libcpmt:xlocale.obj
 0001:00142de6       ??G?$_String_iterator@V?$_String_val@U?$_Simple_types@D@std@@@std@@@std@@QBE?AV01@H@Z 30143de6 f i libcpmt:xlocale.obj
 0001:00142dfb       ??H?$_String_iterator@V?$_String_val@U?$_Simple_types@D@std@@@std@@@std@@QBE?AV01@H@Z 30143dfb f i libcpmt:xlocale.obj
 0001:00142e10       ??Y?$_String_const_iterator@V?$_String_val@U?$_Simple_types@D@std@@@std@@@std@@QAEAAV01@H@Z 30143e10 f i libcpmt:xlocale.obj
 0001:00142e21       ??Y?$_String_iterator@V?$_String_val@U?$_Simple_types@D@std@@@std@@@std@@QAEAAV01@H@Z 30143e21 f i libcpmt:xlocale.obj
 0001:00142e32       ??Z?$_String_const_iterator@V?$_String_val@U?$_Simple_types@D@std@@@std@@@std@@QAEAAV01@H@Z 30143e32 f i libcpmt:xlocale.obj
 0001:00142e43       ??Z?$_String_iterator@V?$_String_val@U?$_Simple_types@D@std@@@std@@@std@@QAEAAV01@H@Z 30143e43 f i libcpmt:xlocale.obj
 0001:00142e54       ??_E?$_Mpunct@D@std@@MAEPAXI@Z 30143e54 f i libcpmt:xlocale.obj
 0001:00142e54       ??_G?$_Mpunct@D@std@@MAEPAXI@Z 30143e54 f i libcpmt:xlocale.obj
 0001:00142e8d       ??_E?$collate@D@std@@MAEPAXI@Z 30143e8d f i libcpmt:xlocale.obj
 0001:00142e8d       ??_G?$collate@D@std@@MAEPAXI@Z 30143e8d f i libcpmt:xlocale.obj
 0001:00142eb7       ??_E?$messages@D@std@@MAEPAXI@Z 30143eb7 f i libcpmt:xlocale.obj
 0001:00142eb7       ??_G?$messages@D@std@@MAEPAXI@Z 30143eb7 f i libcpmt:xlocale.obj
 0001:00142ee2       ??_E?$money_get@DV?$istreambuf_iterator@DU?$char_traits@D@std@@@std@@@std@@MAEPAXI@Z 30143ee2 f i libcpmt:xlocale.obj
 0001:00142ee2       ??_G?$money_get@DV?$istreambuf_iterator@DU?$char_traits@D@std@@@std@@@std@@MAEPAXI@Z 30143ee2 f i libcpmt:xlocale.obj
 0001:00142f0d       ??_E?$money_put@DV?$ostreambuf_iterator@DU?$char_traits@D@std@@@std@@@std@@MAEPAXI@Z 30143f0d f i libcpmt:xlocale.obj
 0001:00142f0d       ??_G?$money_put@DV?$ostreambuf_iterator@DU?$char_traits@D@std@@@std@@@std@@MAEPAXI@Z 30143f0d f i libcpmt:xlocale.obj
 0001:00142f38       ??_E?$moneypunct@D$00@std@@MAEPAXI@Z 30143f38 f i libcpmt:xlocale.obj
 0001:00142f38       ??_G?$moneypunct@D$00@std@@MAEPAXI@Z 30143f38 f i libcpmt:xlocale.obj
 0001:00142f71       ??_E?$moneypunct@D$0A@@std@@MAEPAXI@Z 30143f71 f i libcpmt:xlocale.obj
 0001:00142f71       ??_G?$moneypunct@D$0A@@std@@MAEPAXI@Z 30143f71 f i libcpmt:xlocale.obj
 0001:00142faa       ??_E?$time_get@DV?$istreambuf_iterator@DU?$char_traits@D@std@@@std@@@std@@MAEPAXI@Z 30143faa f i libcpmt:xlocale.obj
 0001:00142faa       ??_G?$time_get@DV?$istreambuf_iterator@DU?$char_traits@D@std@@@std@@@std@@MAEPAXI@Z 30143faa f i libcpmt:xlocale.obj
 0001:00142fe3       ??_E?$time_put@DV?$ostreambuf_iterator@DU?$char_traits@D@std@@@std@@@std@@MAEPAXI@Z 30143fe3 f i libcpmt:xlocale.obj
 0001:00142fe3       ??_G?$time_put@DV?$ostreambuf_iterator@DU?$char_traits@D@std@@@std@@@std@@MAEPAXI@Z 30143fe3 f i libcpmt:xlocale.obj
 0001:0014300d       ?_Compat@?$_String_const_iterator@V?$_String_val@U?$_Simple_types@D@std@@@std@@@std@@QBEXABV12@@Z 3014400d f i libcpmt:xlocale.obj
 0001:00143010       ?_Getcat@?$collate@D@std@@SAIPAPBVfacet@locale@2@PBV42@@Z 30144010 f i libcpmt:xlocale.obj
 0001:001430de       ?_Getcat@?$messages@D@std@@SAIPAPBVfacet@locale@2@PBV42@@Z 301440de f i libcpmt:xlocale.obj
 0001:00143163       ?_Getcat@?$money_get@DV?$istreambuf_iterator@DU?$char_traits@D@std@@@std@@@std@@SAIPAPBVfacet@locale@2@PBV42@@Z 30144163 f i libcpmt:xlocale.obj
 0001:001431e8       ?_Getcat@?$money_put@DV?$ostreambuf_iterator@DU?$char_traits@D@std@@@std@@@std@@SAIPAPBVfacet@locale@2@PBV42@@Z 301441e8 f i libcpmt:xlocale.obj
 0001:0014326d       ?_Getcat@?$moneypunct@D$00@std@@SAIPAPBVfacet@locale@2@PBV42@@Z 3014426d f i libcpmt:xlocale.obj
 0001:00143300       ?_Getcat@?$moneypunct@D$0A@@std@@SAIPAPBVfacet@locale@2@PBV42@@Z 30144300 f i libcpmt:xlocale.obj
 0001:00143394       ?_Getcat@?$time_get@DV?$istreambuf_iterator@DU?$char_traits@D@std@@@std@@@std@@SAIPAPBVfacet@locale@2@PBV42@@Z 30144394 f i libcpmt:xlocale.obj
 0001:0014341b       ?_Getcat@?$time_put@DV?$ostreambuf_iterator@DU?$char_traits@D@std@@@std@@@std@@SAIPAPBVfacet@locale@2@PBV42@@Z 3014441b f i libcpmt:xlocale.obj
 0001:001434b3       ?_Getfmt@?$time_get@DV?$istreambuf_iterator@DU?$char_traits@D@std@@@std@@@std@@IBE?AV?$istreambuf_iterator@DU?$char_traits@D@std@@@2@V32@0AAVios_base@2@AAHPAUtm@@PBD@Z 301444b3 f i libcpmt:xlocale.obj
 0001:00143659       ?_Getint@?$time_get@DV?$istreambuf_iterator@DU?$char_traits@D@std@@@std@@@std@@ABAHAAV?$istreambuf_iterator@DU?$char_traits@D@std@@@2@0HHAAHABV?$ctype@D@2@@Z 30144659 f i libcpmt:xlocale.obj
 0001:00143686       ?_Getmfld@?$money_get@DV?$istreambuf_iterator@DU?$char_traits@D@std@@@std@@@std@@ABE?AV?$basic_string@DU?$char_traits@D@std@@V?$allocator@D@2@@2@AAV?$istreambuf_iterator@DU?$char_traits@D@std@@@2@0_NAAVios_base@2@AAY0M@D@Z 30144686 f i libcpmt:xlocale.obj
 0001:001446e0       ?_Gettnames@_Locinfo@std@@QBE?AV_Timevec@2@XZ 301456e0 f i libcpmt:xlocale.obj
 0001:001446f9       ?_Init@?$_Mpunct@D@std@@IAEXABV_Locinfo@2@_N@Z 301456f9 f i libcpmt:xlocale.obj
 0001:00144861       ?_Init@?$collate@D@std@@IAEXABV_Locinfo@2@@Z 30145861 f i libcpmt:xlocale.obj
 0001:00144877       ?_Init@?$messages@D@std@@IAEXABV_Locinfo@2@@Z 30145877 f i libcpmt:xlocale.obj
 0001:0014487a       ?_Init@?$money_get@DV?$istreambuf_iterator@DU?$char_traits@D@std@@@std@@@std@@IAEXABV_Locinfo@2@@Z 3014587a f i libcpmt:xlocale.obj
 0001:0014487d       ?_Init@?$money_put@DV?$ostreambuf_iterator@DU?$char_traits@D@std@@@std@@@std@@IAEXABV_Locinfo@2@@Z 3014587d f i libcpmt:xlocale.obj
 0001:00144880       ?_Init@?$time_get@DV?$istreambuf_iterator@DU?$char_traits@D@std@@@std@@@std@@IAEXABV_Locinfo@2@@Z 30145880 f i libcpmt:xlocale.obj
 0001:001448c6       ?_Init@?$time_put@DV?$ostreambuf_iterator@DU?$char_traits@D@std@@@std@@@std@@IAEXABV_Locinfo@2@@Z 301458c6 f i libcpmt:xlocale.obj
 0001:001448f9       ?_Makexloc@_Locimp@locale@std@@CAXABV_Locinfo@3@HPAV123@PBV23@@Z 301458f9 f   libcpmt:xlocale.obj
 0001:00144cb7       ?_Makpat@?$_Mpunct@D@std@@AAEXAAUpattern@money_base@2@III@Z 30145cb7 f i libcpmt:xlocale.obj
 0001:00144d08       ?_Put@?$money_put@DV?$ostreambuf_iterator@DU?$char_traits@D@std@@@std@@@std@@CA?AV?$ostreambuf_iterator@DU?$char_traits@D@std@@@2@V32@V?$_String_const_iterator@V?$_String_val@U?$_Simple_types@D@std@@@std@@@2@I@Z 30145d08 f i libcpmt:xlocale.obj
 0001:00144d4c       ?_Putmfld@?$money_put@DV?$ostreambuf_iterator@DU?$char_traits@D@std@@@std@@@std@@ABE?AV?$ostreambuf_iterator@DU?$char_traits@D@std@@@2@V32@_NAAVios_base@2@D1V?$basic_string@DU?$char_traits@D@std@@V?$allocator@D@2@@2@D@Z 30145d4c f i libcpmt:xlocale.obj
 0001:0014551e       ?_Rep@?$money_put@DV?$ostreambuf_iterator@DU?$char_traits@D@std@@@std@@@std@@CA?AV?$ostreambuf_iterator@DU?$char_traits@D@std@@@2@V32@DI@Z 3014651e f i libcpmt:xlocale.obj
 0001:00145555       ?_Tidy@?$_Mpunct@D@std@@AAEXXZ 30146555 f i libcpmt:xlocale.obj
 0001:00145587       ?_Tidy@?$time_get@DV?$istreambuf_iterator@DU?$char_traits@D@std@@@std@@@std@@AAEXXZ 30146587 f i libcpmt:xlocale.obj
 0001:001455af       ?begin@?$basic_string@DU?$char_traits@D@std@@V?$allocator@D@2@@std@@QAE?AV?$_String_iterator@V?$_String_val@U?$_Simple_types@D@std@@@std@@@2@XZ 301465af f i libcpmt:xlocale.obj
 0001:001455c8       ?curr_symbol@?$_Mpunct@D@std@@QBE?AV?$basic_string@DU?$char_traits@D@std@@V?$allocator@D@2@@2@XZ 301465c8 f i libcpmt:xlocale.obj
 0001:001455f6       ?date_order@?$time_get@DV?$istreambuf_iterator@DU?$char_traits@D@std@@@std@@@std@@QBE?AW4dateorder@time_base@2@XZ 301465f6 f i libcpmt:xlocale.obj
 0001:00145614       ?decimal_point@?$_Mpunct@D@std@@QBEDXZ 30146614 f i libcpmt:xlocale.obj
 0001:00145632       ?do_close@?$messages@D@std@@MBEXH@Z 30146632 f i libcpmt:xlocale.obj
 0001:00145635       ?do_compare@?$collate@D@std@@MBEHPBD000@Z 30146635 f i libcpmt:xlocale.obj
 0001:00145671       ?do_curr_symbol@?$_Mpunct@D@std@@MBE?AV?$basic_string@DU?$char_traits@D@std@@V?$allocator@D@2@@2@XZ 30146671 f i libcpmt:xlocale.obj
 0001:0014568c       ?do_date_order@?$time_get@DV?$istreambuf_iterator@DU?$char_traits@D@std@@@std@@@std@@MBE?AW4dateorder@time_base@2@XZ 3014668c f i libcpmt:xlocale.obj
 0001:00145690       ?do_decimal_point@?$_Mpunct@D@std@@MBEDXZ 30146690 f i libcpmt:xlocale.obj
 0001:00145694       ?do_frac_digits@?$_Mpunct@D@std@@MBEHXZ 30146694 f i libcpmt:xlocale.obj
 0001:00145698       ?do_get@?$messages@D@std@@MBE?AV?$basic_string@DU?$char_traits@D@std@@V?$allocator@D@2@@2@HHHABV32@@Z 30146698 f i libcpmt:xlocale.obj
 0001:001456b3       ?do_get@?$money_get@DV?$istreambuf_iterator@DU?$char_traits@D@std@@@std@@@std@@MBE?AV?$istreambuf_iterator@DU?$char_traits@D@std@@@2@V32@0_NAAVios_base@2@AAHAAO@Z 301466b3 f i libcpmt:xlocale.obj
 0001:00145792       ?do_get@?$money_get@DV?$istreambuf_iterator@DU?$char_traits@D@std@@@std@@@std@@MBE?AV?$istreambuf_iterator@DU?$char_traits@D@std@@@2@V32@0_NAAVios_base@2@AAHAAV?$basic_string@DU?$char_traits@D@std@@V?$allocator@D@2@@2@@Z 30146792 f i libcpmt:xlocale.obj
 0001:00145896       ?do_get@?$time_get@DV?$istreambuf_iterator@DU?$char_traits@D@std@@@std@@@std@@MBE?AV?$istreambuf_iterator@DU?$char_traits@D@std@@@2@V32@0AAVios_base@2@AAHPAUtm@@DD@Z 30146896 f i libcpmt:xlocale.obj
 0001:00145d85       ?do_get_date@?$time_get@DV?$istreambuf_iterator@DU?$char_traits@D@std@@@std@@@std@@MBE?AV?$istreambuf_iterator@DU?$char_traits@D@std@@@2@V32@0AAVios_base@2@AAHPAUtm@@@Z 30146d85 f i libcpmt:xlocale.obj
 0001:0014630d       ?do_get_monthname@?$time_get@DV?$istreambuf_iterator@DU?$char_traits@D@std@@@std@@@std@@MBE?AV?$istreambuf_iterator@DU?$char_traits@D@std@@@2@V32@0AAVios_base@2@AAHPAUtm@@@Z 3014730d f i libcpmt:xlocale.obj
 0001:0014635f       ?do_get_time@?$time_get@DV?$istreambuf_iterator@DU?$char_traits@D@std@@@std@@@std@@MBE?AV?$istreambuf_iterator@DU?$char_traits@D@std@@@2@V32@0AAVios_base@2@AAHPAUtm@@@Z 3014735f f i libcpmt:xlocale.obj
 0001:001464e0       ?do_get_weekday@?$time_get@DV?$istreambuf_iterator@DU?$char_traits@D@std@@@std@@@std@@MBE?AV?$istreambuf_iterator@DU?$char_traits@D@std@@@2@V32@0AAVios_base@2@AAHPAUtm@@@Z 301474e0 f i libcpmt:xlocale.obj
 0001:00146532       ?do_get_year@?$time_get@DV?$istreambuf_iterator@DU?$char_traits@D@std@@@std@@@std@@MBE?AV?$istreambuf_iterator@DU?$char_traits@D@std@@@2@V32@0AAVios_base@2@AAHPAUtm@@@Z 30147532 f i libcpmt:xlocale.obj
 0001:00146604       ?do_grouping@?$_Mpunct@D@std@@MBE?AV?$basic_string@DU?$char_traits@D@std@@V?$allocator@D@2@@2@XZ 30147604 f i libcpmt:xlocale.obj
 0001:0014661f       ?do_hash@?$collate@D@std@@MBEJPBD0@Z 3014761f f i libcpmt:xlocale.obj
 0001:0014668e       ?do_neg_format@?$_Mpunct@D@std@@MBE?AUpattern@money_base@2@XZ 3014768e f i libcpmt:xlocale.obj
 0001:001466a0       ?do_negative_sign@?$_Mpunct@D@std@@MBE?AV?$basic_string@DU?$char_traits@D@std@@V?$allocator@D@2@@2@XZ 301476a0 f i libcpmt:xlocale.obj
 0001:001466bb       ?do_open@?$messages@D@std@@MBEHABV?$basic_string@DU?$char_traits@D@std@@V?$allocator@D@2@@2@ABVlocale@2@@Z 301476bb f i libcpmt:xlocale.obj
 0001:001466c1       ?do_pos_format@?$_Mpunct@D@std@@MBE?AUpattern@money_base@2@XZ 301476c1 f i libcpmt:xlocale.obj
 0001:001466d3       ?do_positive_sign@?$_Mpunct@D@std@@MBE?AV?$basic_string@DU?$char_traits@D@std@@V?$allocator@D@2@@2@XZ 301476d3 f i libcpmt:xlocale.obj
 0001:001466ee       ?do_put@?$money_put@DV?$ostreambuf_iterator@DU?$char_traits@D@std@@@std@@@std@@MBE?AV?$ostreambuf_iterator@DU?$char_traits@D@std@@@2@V32@_NAAVios_base@2@DABV?$basic_string@DU?$char_traits@D@std@@V?$allocator@D@2@@2@@Z 301476ee f i libcpmt:xlocale.obj
 0001:00146868       ?do_put@?$money_put@DV?$ostreambuf_iterator@DU?$char_traits@D@std@@@std@@@std@@MBE?AV?$ostreambuf_iterator@DU?$char_traits@D@std@@@2@V32@_NAAVios_base@2@DO@Z 30147868 f i libcpmt:xlocale.obj
 0001:00146a27       ?do_put@?$time_put@DV?$ostreambuf_iterator@DU?$char_traits@D@std@@@std@@@std@@MBE?AV?$ostreambuf_iterator@DU?$char_traits@D@std@@@2@V32@AAVios_base@2@DPBUtm@@DD@Z 30147a27 f i libcpmt:xlocale.obj
 0001:00146c94       ?do_thousands_sep@?$_Mpunct@D@std@@MBEDXZ 30147c94 f i libcpmt:xlocale.obj
 0001:00146c98       ?do_transform@?$collate@D@std@@MBE?AV?$basic_string@DU?$char_traits@D@std@@V?$allocator@D@2@@2@PBD0@Z 30147c98 f i libcpmt:xlocale.obj
 0001:00146d4d       ?end@?$basic_string@DU?$char_traits@D@std@@V?$allocator@D@2@@std@@QAE?AV?$_String_iterator@V?$_String_val@U?$_Simple_types@D@std@@@std@@@2@XZ 30147d4d f i libcpmt:xlocale.obj
 0001:00146d6e       ?frac_digits@?$_Mpunct@D@std@@QBEHXZ 30147d6e f i libcpmt:xlocale.obj
 0001:00146d8c       ?get_monthname@?$time_get@DV?$istreambuf_iterator@DU?$char_traits@D@std@@@std@@@std@@QBE?AV?$istreambuf_iterator@DU?$char_traits@D@std@@@2@V32@0AAVios_base@2@AAHPAUtm@@@Z 30147d8c f i libcpmt:xlocale.obj
 0001:00146dd2       ?get_weekday@?$time_get@DV?$istreambuf_iterator@DU?$char_traits@D@std@@@std@@@std@@QBE?AV?$istreambuf_iterator@DU?$char_traits@D@std@@@2@V32@0AAVios_base@2@AAHPAUtm@@@Z 30147dd2 f i libcpmt:xlocale.obj
 0001:00146e18       ?get_year@?$time_get@DV?$istreambuf_iterator@DU?$char_traits@D@std@@@std@@@std@@QBE?AV?$istreambuf_iterator@DU?$char_traits@D@std@@@2@V32@0AAVios_base@2@AAHPAUtm@@@Z 30147e18 f i libcpmt:xlocale.obj
 0001:00146e5e       ?grouping@?$_Mpunct@D@std@@QBE?AV?$basic_string@DU?$char_traits@D@std@@V?$allocator@D@2@@2@XZ 30147e5e f i libcpmt:xlocale.obj
 0001:00146e8c       ?is@?$ctype@D@std@@QBE_NFD@Z 30147e8c f i libcpmt:xlocale.obj
 0001:00146eab       ?narrow@?$ctype@D@std@@QBEDDD@Z 30147eab f i libcpmt:xlocale.obj
 0001:00146ed8       ?neg_format@?$_Mpunct@D@std@@QBE?AUpattern@money_base@2@XZ 30147ed8 f i libcpmt:xlocale.obj
 0001:00146f05       ?negative_sign@?$_Mpunct@D@std@@QBE?AV?$basic_string@DU?$char_traits@D@std@@V?$allocator@D@2@@2@XZ 30147f05 f i libcpmt:xlocale.obj
 0001:00146f33       ?pos_format@?$_Mpunct@D@std@@QBE?AUpattern@money_base@2@XZ 30147f33 f i libcpmt:xlocale.obj
 0001:00146f60       ?positive_sign@?$_Mpunct@D@std@@QBE?AV?$basic_string@DU?$char_traits@D@std@@V?$allocator@D@2@@2@XZ 30147f60 f i libcpmt:xlocale.obj
 0001:00146f8e       ?thousands_sep@?$_Mpunct@D@std@@QBEDXZ 30147f8e f i libcpmt:xlocale.obj
 0001:00146fac       __Getcoll                  30147fac f   libcpmt:xstrcoll.obj
 0001:00146fd5       __Strcoll                  30147fd5 f   libcpmt:xstrcoll.obj
 0001:00147087       __Getdateorder             30148087 f   libcpmt:xdateord.obj
 0001:00147117       __Mbrtowc                  30148117 f   libcpmt:xmbtowc.obj
 0001:00147301       __Wcscoll                  30148301 f   libcpmt:xwcscoll.obj
 0001:001473a6       _wmemcmp                   301483a6 f i libcpmt:xwcscoll.obj
 0001:001474e9       ??$?RE@__crt_internal_free_policy@@QBEXQBE@Z 301484e9 f i libcpmt:xwcsxfrm.obj
 0001:001474fd       ??0?$__crt_unique_heap_ptr@EU__crt_internal_free_policy@@@@QAE@QAE@Z 301484fd f i libcpmt:xwcsxfrm.obj
 0001:0014750e       ??1?$__crt_unique_heap_ptr@EU__crt_internal_free_policy@@@@QAE@XZ 3014850e f i libcpmt:xwcsxfrm.obj
 0001:00147525       ??B?$__crt_unique_heap_ptr@EU__crt_internal_free_policy@@@@QBE_NXZ 30148525 f i libcpmt:xwcsxfrm.obj
 0001:0014752c       ?get@?$__crt_unique_heap_ptr@EU__crt_internal_free_policy@@@@QBEPAEXZ 3014852c f i libcpmt:xwcsxfrm.obj
 0001:0014752f       ?is_valid@?$__crt_unique_heap_ptr@EU__crt_internal_free_policy@@@@QBE_NXZ 3014852f f i libcpmt:xwcsxfrm.obj
 0001:00147536       ?release@?$__crt_unique_heap_ptr@EU__crt_internal_free_policy@@@@QAEXXZ 30148536 f i libcpmt:xwcsxfrm.obj
 0001:0014754d       __Wcsxfrm                  3014854d f   libcpmt:xwcsxfrm.obj
 0001:00147643       __Getwctype                30148643 f   libcpmt:xgetwctype.obj
 0001:0014766b       __Getwctypes               3014866b f   libcpmt:xgetwctype.obj
 0001:00147691       __Towlower                 30148691 f   libcpmt:xtowlower.obj
 0001:00147709       __Towupper                 30148709 f   libcpmt:xtowupper.obj
 0001:00147786       __Strxfrm                  30148786 f   libcpmt:xstrxfrm.obj
 0001:0014785a       ___crtCompareStringA       3014885a f   libcpmt:StlCompareStringA.obj
 0001:00147b6c       ___crtCompareStringW       30148b6c f   libcpmt:StlCompareStringW.obj
 0001:00147bea       ___crtLCMapStringW         30148bea f   libcpmt:StlLCMapStringW.obj
 0001:00147c36       ??3@YAXPAXI@Z              30148c36 f   LIBCMT:delete_scalar_size.obj
 0001:00147c50       __ftol2_sse_excpt          30148c50 f   LIBCMT:ftol2.obj
 0001:00147c60       __ftol2_sse                30148c60 f   LIBCMT:ftol2.obj
 0001:00147c70       __ftoi2                    30148c70 f   LIBCMT:ftol2.obj
 0001:00147d10       __ftoui2                   30148d10 f   LIBCMT:ftol2.obj
 0001:00147de0       __ftol2                    30148de0 f   LIBCMT:ftol2.obj
 0001:00147ec0       __ftoul2                   30148ec0 f   LIBCMT:ftol2.obj
 0001:00147fb0       __ftoul2_legacy            30148fb0 f   LIBCMT:ftol2.obj
 0001:00147fcb       ??2@YAPAXI@Z               30148fcb f   LIBCMT:new_scalar.obj
 0001:00148007       ??_V@YAXPAX@Z              30149007 f   LIBCMT:delete_array.obj
 0001:0014800c       ?configure_argv@__scrt_narrow_argv_policy@@SAHXZ 3014900c f i LIBCMT:utility.obj
 0001:0014806e       ?initialize_environment@__scrt_narrow_environment_policy@@SAHXZ 3014906e f i LIBCMT:utility.obj
 0001:001480b2       _NtCurrentTeb              301490b2 f i LIBCMT:utility.obj
 0001:001480b9       ___scrt_acquire_startup_lock 301490b9 f   LIBCMT:utility.obj
 0001:001480f7       ___scrt_dllmain_after_initialize_c 301490f7 f   LIBCMT:utility.obj
 0001:0014812c       ___scrt_dllmain_before_initialize_c 3014912c f   LIBCMT:utility.obj
 0001:0014813d       ___scrt_dllmain_crt_thread_attach 3014913d f   LIBCMT:utility.obj
 0001:00148163       ___scrt_dllmain_crt_thread_detach 30149163 f   LIBCMT:utility.obj
 0001:00148173       ___scrt_dllmain_exception_filter 30149173 f   LIBCMT:utility.obj
 0001:001481b4       ___scrt_dllmain_uninitialize_c 301491b4 f   LIBCMT:utility.obj
 0001:001481df       ___scrt_dllmain_uninitialize_critical 301491df f   LIBCMT:utility.obj
 0001:001481ef       ___scrt_initialize_crt     301491ef f   LIBCMT:utility.obj
 0001:00148236       ___scrt_initialize_onexit_tables 30149236 f   LIBCMT:utility.obj
 0001:001482de       ___scrt_is_nonwritable_in_current_image 301492de f   LIBCMT:utility.obj
 0001:0014839a       ___scrt_release_startup_lock 3014939a f   LIBCMT:utility.obj
 0001:001483be       ___scrt_uninitialize_crt   301493be f   LIBCMT:utility.obj
 0001:001483f0       __onexit                   301493f0 f   LIBCMT:utility.obj
 0001:00148429       _at_quick_exit             30149429 f   LIBCMT:utility.obj
 0001:00148454       _atexit                    30149454 f   LIBCMT:utility.obj
 0001:0014846e       ??1type_info@@UAE@XZ       3014946e f   LIBCMT:std_type_info_static.obj
 0001:00148475       ??_Etype_info@@UAEPAXI@Z   30149475 f i LIBCMT:std_type_info_static.obj
 0001:00148475       ??_Gtype_info@@UAEPAXI@Z   30149475 f i LIBCMT:std_type_info_static.obj
 0001:001484a0       ??_L@YGXPAXIHP6EX0@Z1@Z    301494a0 f   LIBCMT:ehvecctr.obj
 0001:001484a5       ??_L@YGXPAXIIP6EX0@Z1@Z    301494a5 f   LIBCMT:ehvecctr.obj
 0001:00148536       ??_M@YGXPAXIHP6EX0@Z@Z     30149536 f   LIBCMT:ehvecdtr.obj
 0001:0014853b       ??_M@YGXPAXIIP6EX0@Z@Z     3014953b f   LIBCMT:ehvecdtr.obj
 0001:0014861f       ?__ArrayUnwind@@YGXPAXIIP6EX0@Z@Z 3014961f f   LIBCMT:ehvecdtr.obj
 0001:001486e0       __alloca_probe             301496e0 f   LIBCMT:chkstk.obj
 0001:001486e0       __chkstk                   301496e0 f   LIBCMT:chkstk.obj
 0001:00148715       ??_N@YGXPAXIHP6EX0@Z1@Z    30149715 f   LIBCMT:ehveccvb.obj
 0001:0014871a       ??_N@YGXPAXIIP6EX0@Z1@Z    3014971a f   LIBCMT:ehveccvb.obj
 0001:001487b0       __ftoui3                   301497b0 f   LIBCMT:ftol3.obj
 0001:00148810       __ftoul3                   30149810 f   LIBCMT:ftol3.obj
 0001:001488a0       __ftoul3_legacy            301498a0 f   LIBCMT:ftol3.obj
 0001:001488d0       __ftol3                    301498d0 f   LIBCMT:ftol3.obj
 0001:00148960       __dtoui3                   30149960 f   LIBCMT:ftol3.obj
 0001:00148a00       __dtoul3                   30149a00 f   LIBCMT:ftol3.obj
 0001:00148ad0       __dtoul3_legacy            30149ad0 f   LIBCMT:ftol3.obj
 0001:00148b10       __dtol3                    30149b10 f   LIBCMT:ftol3.obj
 0001:00148bf0       __ultod3                   30149bf0 f   LIBCMT:ftol3.obj
 0001:00148c50       __ltod3                    30149c50 f   LIBCMT:ftol3.obj
 0001:00148cb0       __ultof3                   30149cb0 f   LIBCMT:ftol3.obj
 0001:00148d50       __ltof3                    30149d50 f   LIBCMT:ftol3.obj
 0001:001491c4       __CRT_INIT@12              3014a1c4 f   LIBCMT:dll_dllmain.obj
 0001:001491cf       __DllMainCRTStartup@12     3014a1cf f   LIBCMT:dll_dllmain.obj
 0001:001491fa       @__security_check_cookie@4 3014a1fa f   LIBCMT:secchk.obj
 0001:0014920b       ??_U@YAPAXI@Z              3014a20b f   LIBCMT:new_array.obj
 0001:00149216       ___isa_available_init      3014a216 f   LIBCMT:cpu_disp.obj
 0001:001495f6       __EH_epilog3               3014a5f6 f   LIBCMT:ehprolg3.obj
 0001:0014960f       __EH_epilog3_GS            3014a60f f   LIBCMT:ehprolg3.obj
 0001:00149621       __EH_epilog3_catch_GS      3014a621 f   LIBCMT:ehprolg3.obj
 0001:00149633       __EH_prolog3               3014a633 f   LIBCMT:ehprolg3.obj
 0001:00149672       __EH_prolog3_GS            3014a672 f   LIBCMT:ehprolg3.obj
 0001:001496b5       __EH_prolog3_catch         3014a6b5 f   LIBCMT:ehprolg3.obj
 0001:001496f8       __EH_prolog3_catch_GS      3014a6f8 f   LIBCMT:ehprolg3.obj
 0001:0014973f       @_guard_check_icall_nop@4  3014a73f f i LIBCMT:guard_support.obj
 0001:00149742       _ReadNoFence               3014a742 f i LIBCMT:guard_support.obj
 0001:0014974e       _ReadPointerNoFence        3014a74e f i LIBCMT:guard_support.obj
 0001:0014975a       __InlineInterlockedExchangePointer 3014a75a f i LIBCMT:guard_support.obj
 0001:0014976a       ___castguard_check_failure_debugbreak 3014a76a f i LIBCMT:guard_support.obj
 0001:0014978b       ___castguard_check_failure_fastfail 3014a78b f i LIBCMT:guard_support.obj
 0001:001497b1       ___castguard_check_failure_nop 3014a7b1 f i LIBCMT:guard_support.obj
 0001:001497b4       ___castguard_check_failure_os_handled 3014a7b4 f i LIBCMT:guard_support.obj
 0001:001497f8       ___castguard_check_failure_user_handled 3014a7f8 f i LIBCMT:guard_support.obj
 0001:00149880       ___castguard_set_user_handler 3014a880 f i LIBCMT:guard_support.obj
 0001:00149892       ___castguard_slow_path_check_debugbreak 3014a892 f i LIBCMT:guard_support.obj
 0001:001498ca       ___castguard_slow_path_check_fastfail 3014a8ca f i LIBCMT:guard_support.obj
 0001:00149907       ___castguard_slow_path_check_nop 3014a907 f i LIBCMT:guard_support.obj
 0001:0014990a       ___castguard_slow_path_check_os_handled 3014a90a f i LIBCMT:guard_support.obj
 0001:00149955       ___castguard_slow_path_check_user_handled 3014a955 f i LIBCMT:guard_support.obj
 0001:001499cd       __guard_icall_checks_enforced 3014a9cd f i LIBCMT:guard_support.obj
 0001:001499f0       __allmul                   3014a9f0 f   LIBCMT:llmul.obj
 0001:00149a40       __aulldiv                  3014aa40 f   LIBCMT:ulldiv.obj
 0001:00149ad0       __alloca_probe_16          3014aad0 f   LIBCMT:alloca16.obj
 0001:00149ae6       __alloca_probe_8           3014aae6     LIBCMT:alloca16.obj
 0001:00149b07       ??3@YAXPAX@Z               3014ab07 f   LIBCMT:delete_scalar.obj
 0001:00149b0c       ?__scrt_throw_std_bad_alloc@@YAXXZ 3014ab0c f   LIBCMT:throw_bad_alloc.obj
 0001:00149b30       ?__scrt_throw_std_bad_array_new_length@@YAXXZ 3014ab30 f   LIBCMT:throw_bad_alloc.obj
 0001:00149b54       __get_startup_argv_mode    3014ab54 f   LIBCMT:argv_mode.obj
 0001:00149b58       ___scrt_is_ucrt_dll_in_use 3014ab58 f   LIBCMT:ucrt_detection.obj
 0001:00149b67       ___scrt_fastfail           3014ab67 f   LIBCMT:utility_desktop.obj
 0001:00149b73       ___scrt_get_show_window_mode 3014ab73 f   LIBCMT:utility_desktop.obj
 0001:00149baf       ___scrt_initialize_mta     3014abaf f   LIBCMT:utility_desktop.obj
 0001:00149bb4       ___scrt_initialize_winrt   3014abb4 f   LIBCMT:utility_desktop.obj
 0001:00149bb7       ___scrt_is_managed_app     3014abb7 f   LIBCMT:utility_desktop.obj
 0001:00149c09       ___scrt_set_unhandled_exception_filter 3014ac09 f   LIBCMT:utility_desktop.obj
 0001:00149c18       ___scrt_exe_initialize_mta 3014ac18 f   LIBCMT:utility_desktop.obj
 0001:00149c18       ___scrt_stub_for_initialize_mta 3014ac18 f   LIBCMT:utility_desktop.obj
 0001:00149c1b       ___scrt_unhandled_exception_filter@4 3014ac1b f   LIBCMT:utility_desktop.obj
 0001:00149c86       __crt_debugger_hook        3014ac86 f   LIBCMT:utility_desktop.obj
 0001:00149ca0       __SEH_prolog4              3014aca0 f   LIBCMT:sehprolg4.obj
 0001:00149d00       __SEH_epilog4              3014ad00 f   LIBCMT:sehprolg4.obj
 0001:00149d79       ___security_init_cookie    3014ad79 f   LIBCMT:gs_support.obj
 0001:00149dd6       _DllMain@12                3014add6 f   LIBCMT:dll_dllmain_stub.obj
 0001:00149ddc       ?__scrt_initialize_type_info@@YAXXZ 3014addc f   LIBCMT:tncleanup.obj
 0001:00149deb       ?__scrt_uninitialize_type_info@@YAXXZ 3014adeb f   LIBCMT:tncleanup.obj
 0001:00149dfa       ___scrt_initialize_default_local_stdio_options 3014adfa f   LIBCMT:default_local_stdio_options.obj
 0001:00149e1e       ___scrt_get_dyn_tls_init_callback 3014ae1e f   LIBCMT:dyn_tls_init.obj
 0001:00149e24       __RTC_Initialize           3014ae24 f   LIBCMT:initsect.obj
 0001:00149e5b       __RTC_Terminate            3014ae5b f   LIBCMT:initsect.obj
 0001:00149e92       ___report_gsfailure        3014ae92 f   LIBCMT:gs_report.obj
 0001:00149e98       ___report_rangecheckfailure 3014ae98 f   LIBCMT:gs_report.obj
 0001:00149e9e       ___report_securityfailure  3014ae9e f   LIBCMT:gs_report.obj
 0001:00149eaa       ___report_securityfailureEx 3014aeaa f   LIBCMT:gs_report.obj
 0001:00149ec0       _strstr                    3014aec0 f   libvcruntime:strstr.obj
 0001:0014a1c5       ??$?0AAViterator@TryBlockMap@__FrameHandler3@@AAV012@$0A@@?$pair@Viterator@TryBlockMap@__FrameHandler3@@V123@@std@@QAE@AAViterator@TryBlockMap@__FrameHandler3@@0@Z 3014b1c5 f i libvcruntime:trnsctrl.obj
 0001:0014a1f2       ??$forward@AAViterator@TryBlockMap@__FrameHandler3@@@std@@YAAAViterator@TryBlockMap@__FrameHandler3@@AAV123@@Z 3014b1f2 f i libvcruntime:trnsctrl.obj
 0001:0014a1fc       ??0iterator@TryBlockMap@__FrameHandler3@@QAE@AAV12@I@Z 3014b1fc f i libvcruntime:trnsctrl.obj
 0001:0014a215       ?GetRangeOfTrysToCheck@__FrameHandler3@@SA?AU?$pair@Viterator@TryBlockMap@__FrameHandler3@@V123@@std@@AAVTryBlockMap@1@HPAXPBU_s_FuncInfo@@H@Z 3014b215 f   libvcruntime:trnsctrl.obj
 0001:0014a2b3       ?_CallCatchBlock2@@YAPAXPAUEHRegistrationNode@@PBU_s_FuncInfo@@PAXHK@Z 3014b2b3 f   libvcruntime:trnsctrl.obj
 0001:0014a32b       ?_CallSETranslator@@YAHPAUEHExceptionRecord@@PAUEHRegistrationNode@@PAX2PBU_s_FuncInfo@@H1@Z 3014b32b f   libvcruntime:trnsctrl.obj
 0001:0014a469       ?_JumpToContinuation@@YGXPAXPAUEHRegistrationNode@@@Z 3014b469 f   libvcruntime:trnsctrl.obj
 0001:0014a4a5       ?_UnwindNestedFrames@@YGXPAUEHRegistrationNode@@PAUEHExceptionRecord@@@Z 3014b4a5 f   libvcruntime:trnsctrl.obj
 0001:0014a50e       __CatchGuardHandler        3014b50e f   libvcruntime:trnsctrl.obj
 0001:0014a54b       __CreateFrameInfo          3014b54b f   libvcruntime:trnsctrl.obj
 0001:0014a578       __FindAndUnlinkFrame       3014b578 f   libvcruntime:trnsctrl.obj
 0001:0014a5d0       __TranslatorGuardHandler   3014b5d0 f   libvcruntime:trnsctrl.obj
 0001:0014a696       ___CxxFrameHandler         3014b696 f   libvcruntime:trnsctrl.obj
 0001:0014a6d9       ___CxxFrameHandler2        3014b6d9 f   libvcruntime:trnsctrl.obj
 0001:0014a71c       ___CxxFrameHandler3        3014b71c f   libvcruntime:trnsctrl.obj
 0001:0014a75f       ___CxxLongjmpUnwind@4      3014b75f f   libvcruntime:trnsctrl.obj
 0001:0014a790       _memcpy                    3014b790 f   libvcruntime:memcpy.obj
 0001:0014ae70       _memset                    3014be70 f   libvcruntime:memset.obj
 0001:0014b020       ??$__crt_interlocked_exchange_pointer@$$A6AXXZP6AXXZ@@YAP6AXXZPDS6AXXZQ6AXXZ@Z 3014c020 f i libvcruntime:purevirt.obj
 0001:0014b030       ??$__crt_interlocked_read_pointer@$$A6AXXZ@@YAP6AXXZPDS6AXXZ@Z 3014c030 f i libvcruntime:purevirt.obj
 0001:0014b03d       ?__crt_interlocked_read_32@@YAHPDH@Z 3014c03d f i libvcruntime:purevirt.obj
 0001:0014b04a       __get_purecall_handler     3014c04a f   libvcruntime:purevirt.obj
 0001:0014b051       __purecall                 3014c051 f   libvcruntime:purevirt.obj
 0001:0014b074       __set_purecall_handler     3014c074 f   libvcruntime:purevirt.obj
 0001:0014b086       ___DestructExceptionObject 3014c086 f   libvcruntime:ehhelpers.obj
 0001:0014b158       ?_CallMemberFunction0@@YGXQAX0@Z 3014c158 f i libvcruntime:ehhelpers.obj
 0001:0014b1d6       ?raw_name@type_info@@QBEPBDXZ 3014c1d6 f i libvcruntime:ehhelpers.obj
 0001:0014b1da       __IsExceptionObjectToBeDestroyed 3014c1da f   libvcruntime:ehhelpers.obj
 0001:0014b209       __SetWinRTOutOfMemoryExceptionCallback 3014c209 f   libvcruntime:ehhelpers.obj
 0001:0014b219       ___AdjustPointer           3014c219 f   libvcruntime:ehhelpers.obj
 0001:0014b247       ___FrameUnwindFilter       3014c247 f   libvcruntime:ehhelpers.obj
 0001:0014b2b2       ___GetPlatformExceptionInfo 3014c2b2 f   libvcruntime:ehhelpers.obj
 0001:0014b318       ___current_exception       3014c318 f   libvcruntime:ehhelpers.obj
 0001:0014b323       ___current_exception_context 3014c323 f   libvcruntime:ehhelpers.obj
 0001:0014b32e       ___processing_throw        3014c32e f   libvcruntime:ehhelpers.obj
 0001:0014b339       ___std_terminate           3014c339 f   libvcruntime:ehhelpers.obj
 0001:0014b33e       __is_exception_typeof      3014c33e f   libvcruntime:ehhelpers.obj
 0001:0014b40d       ??$?RD@__crt_public_free_policy@@QBEXQBD@Z 3014c40d f i libvcruntime:std_exception.obj
 0001:0014b421       ??0?$__crt_unique_heap_ptr@DU__crt_public_free_policy@@@@QAE@QAD@Z 3014c421 f i libvcruntime:std_exception.obj
 0001:0014b432       ??1?$__crt_unique_heap_ptr@DU__crt_public_free_policy@@@@QAE@XZ 3014c432 f i libvcruntime:std_exception.obj
 0001:0014b449       ??B?$__crt_unique_heap_ptr@DU__crt_public_free_policy@@@@QBE_NXZ 3014c449 f i libvcruntime:std_exception.obj
 0001:0014b450       ?detach@?$__crt_unique_heap_ptr@DU__crt_public_free_policy@@@@QAEPADXZ 3014c450 f i libvcruntime:std_exception.obj
 0001:0014b45b       ?get@?$__crt_unique_heap_ptr@DU__crt_public_free_policy@@@@QBEPADXZ 3014c45b f i libvcruntime:std_exception.obj
 0001:0014b45e       ?is_valid@?$__crt_unique_heap_ptr@DU__crt_public_free_policy@@@@QBE_NXZ 3014c45e f i libvcruntime:std_exception.obj
 0001:0014b465       ?release@?$__crt_unique_heap_ptr@DU__crt_public_free_policy@@@@QAEXXZ 3014c465 f i libvcruntime:std_exception.obj
 0001:0014b47c       ___std_exception_copy      3014c47c f   libvcruntime:std_exception.obj
 0001:0014b4f7       ___std_exception_destroy   3014c4f7 f   libvcruntime:std_exception.obj
 0001:0014b521       __CxxThrowException@8      3014c521 f   libvcruntime:throw.obj
 0001:0014b5b0       _memmove                   3014c5b0 f   libvcruntime:memmove.obj
 0001:0014bc90       _strchr                    3014cc90 f   libvcruntime:strchr.obj
 0001:0014bcfe       ___from_strstr_to_strchr   3014ccfe     libvcruntime:strchr.obj
 0001:0014be10       _memchr                    3014ce10 f   libvcruntime:memchr.obj
 0001:0014bee8       ___uncaught_exception      3014cee8 f   libvcruntime:uncaught_exception.obj
 0001:0014c04f       _memcmp                    3014d04f f   libvcruntime:memcmp.obj
 0001:0014f1f5       ___vcrt_initialize         301501f5 f   libvcruntime:initialization.obj
 0001:0014f21b       ___vcrt_thread_attach      3015021b f   libvcruntime:initialization.obj
 0001:0014f228       ___vcrt_thread_detach      30150228 f   libvcruntime:initialization.obj
 0001:0014f232       ___vcrt_uninitialize       30150232 f   libvcruntime:initialization.obj
 0001:0014f24e       ___vcrt_uninitialize_critical 3015024e f   libvcruntime:initialization.obj
 0001:0014f2a0       __except_handler4          301502a0 f   libvcruntime:chandler4.obj
 0001:0014f470       ??$?RD@__crt_internal_free_policy@@QBEXQBD@Z 30150470 f i libvcruntime:std_type_info.obj
 0001:0014f484       ??$?RX@__crt_internal_free_policy@@QBEXQBX@Z 30150484 f i libvcruntime:std_type_info.obj
 0001:0014f498       ??$__crt_interlocked_compare_exchange_pointer@$$CBDPAD$$T@@YAPBDPDSBDQAD$$T@Z 30150498 f i libvcruntime:std_type_info.obj
 0001:0014f4ae       ??$__crt_interlocked_read_pointer@$$CBD@@YAPBDPDSBD@Z 301504ae f i libvcruntime:std_type_info.obj
 0001:0014f4bb       ??0?$__crt_unique_heap_ptr@DU__crt_internal_free_policy@@@@QAE@QAD@Z 301504bb f i libvcruntime:std_type_info.obj
 0001:0014f4cc       ??0?$__crt_unique_heap_ptr@XU__crt_internal_free_policy@@@@QAE@QAX@Z 301504cc f i libvcruntime:std_type_info.obj
 0001:0014f4dd       ??1?$__crt_unique_heap_ptr@DU__crt_internal_free_policy@@@@QAE@XZ 301504dd f i libvcruntime:std_type_info.obj
 0001:0014f4f4       ??1?$__crt_unique_heap_ptr@XU__crt_internal_free_policy@@@@QAE@XZ 301504f4 f i libvcruntime:std_type_info.obj
 0001:0014f50b       ??B?$__crt_unique_heap_ptr@DU__crt_internal_free_policy@@@@QBE_NXZ 3015050b f i libvcruntime:std_type_info.obj
 0001:0014f512       ??B?$__crt_unique_heap_ptr@XU__crt_internal_free_policy@@@@QBE_NXZ 30150512 f i libvcruntime:std_type_info.obj
 0001:0014f541       ?detach@?$__crt_unique_heap_ptr@XU__crt_internal_free_policy@@@@QAEPAXXZ 30150541 f i libvcruntime:std_type_info.obj
 0001:0014f54c       ?get@?$__crt_unique_heap_ptr@DU__crt_internal_free_policy@@@@QBEPADXZ 3015054c f i libvcruntime:std_type_info.obj
 0001:0014f54f       ?get@?$__crt_unique_heap_ptr@XU__crt_internal_free_policy@@@@QBEPAXXZ 3015054f f i libvcruntime:std_type_info.obj
 0001:0014f552       ?is_valid@?$__crt_unique_heap_ptr@DU__crt_internal_free_policy@@@@QBE_NXZ 30150552 f i libvcruntime:std_type_info.obj
 0001:0014f559       ?is_valid@?$__crt_unique_heap_ptr@XU__crt_internal_free_policy@@@@QBE_NXZ 30150559 f i libvcruntime:std_type_info.obj
 0001:0014f560       ?release@?$__crt_unique_heap_ptr@DU__crt_internal_free_policy@@@@QAEXXZ 30150560 f i libvcruntime:std_type_info.obj
 0001:0014f577       ?release@?$__crt_unique_heap_ptr@XU__crt_internal_free_policy@@@@QAEXXZ 30150577 f i libvcruntime:std_type_info.obj
 0001:0014f58e       ___std_type_info_compare   3015058e f   libvcruntime:std_type_info.obj
 0001:0014f5d9       ___std_type_info_destroy_list 301505d9 f   libvcruntime:std_type_info.obj
 0001:0014f604       ___std_type_info_hash      30150604 f   libvcruntime:std_type_info.obj
 0001:0014f633       ___std_type_info_name      30150633 f   libvcruntime:std_type_info.obj
 0001:0014f728       ??$?RU__vcrt_ptd@@@__crt_internal_free_policy@@QBEXQBU__vcrt_ptd@@@Z 30150728 f i libvcruntime:per_thread_data.obj
 0001:0014f73c       ??0?$__crt_unique_heap_ptr@U__vcrt_ptd@@U__crt_internal_free_policy@@@@QAE@QAU__vcrt_ptd@@@Z 3015073c f i libvcruntime:per_thread_data.obj
 0001:0014f75f       ??1?$__crt_unique_heap_ptr@U__vcrt_ptd@@U__crt_internal_free_policy@@@@QAE@XZ 3015075f f i libvcruntime:per_thread_data.obj
 0001:0014f781       ??B?$__crt_unique_heap_ptr@U__vcrt_ptd@@U__crt_internal_free_policy@@@@QBE_NXZ 30150781 f i libvcruntime:per_thread_data.obj
 0001:0014f788       ?detach@?$__crt_unique_heap_ptr@U__vcrt_ptd@@U__crt_internal_free_policy@@@@QAEPAU__vcrt_ptd@@XZ 30150788 f i libvcruntime:per_thread_data.obj
 0001:0014f793       ?get@?$__crt_unique_heap_ptr@U__vcrt_ptd@@U__crt_internal_free_policy@@@@QBEPAU__vcrt_ptd@@XZ 30150793 f i libvcruntime:per_thread_data.obj
 0001:0014f796       ?is_valid@?$__crt_unique_heap_ptr@U__vcrt_ptd@@U__crt_internal_free_policy@@@@QBE_NXZ 30150796 f i libvcruntime:per_thread_data.obj
 0001:0014f79d       ?release@?$__crt_unique_heap_ptr@U__vcrt_ptd@@U__crt_internal_free_policy@@@@QAEXXZ 3015079d f i libvcruntime:per_thread_data.obj
 0001:0014f7d3       ___vcrt_freefls@4          301507d3 f   libvcruntime:per_thread_data.obj
 0001:0014f7f6       ___vcrt_freeptd_for_this_thread 301507f6 f   libvcruntime:per_thread_data.obj
 0001:0014f82a       ___vcrt_getptd             3015082a f   libvcruntime:per_thread_data.obj
 0001:0014f83b       ___vcrt_getptd_noexit      3015083b f   libvcruntime:per_thread_data.obj
 0001:0014f8ed       ___vcrt_getptd_noinit      301508ed f   libvcruntime:per_thread_data.obj
 0001:0014f933       ___vcrt_initialize_ptd     30150933 f   libvcruntime:per_thread_data.obj
 0001:0014f971       ___vcrt_uninitialize_ptd   30150971 f   libvcruntime:per_thread_data.obj
 0001:00150270       ??$TypeMatchHelper@V__FrameHandler3@@@@YAHPBU_s_HandlerType@@PBU_s_CatchableType@@PBU_s_ThrowInfo@@@Z 30151270 f i libvcruntime:frame.obj
 0001:00150321       ??$__InternalCxxFrameHandler@V__FrameHandler3@@@@YA?AW4_EXCEPTION_DISPOSITION@@PAUEHExceptionRecord@@PAUEHRegistrationNode@@PAU_CONTEXT@@PAXPBU_s_FuncInfo@@H1E@Z 30151321 f i libvcruntime:frame.obj
 0001:00150463       ??$__InternalCxxFrameHandlerWrapper@V__FrameHandler3@@@@YA?AW4_EXCEPTION_DISPOSITION@@PAUEHExceptionRecord@@PAUEHRegistrationNode@@PAU_CONTEXT@@PAXPBU_s_FuncInfo@@H1E@Z 30151463 f i libvcruntime:frame.obj
 0001:0015046e       ??0HandlerMap@__FrameHandler3@@QAE@PBU_s_TryBlockMapEntry@@II@Z 3015146e f i libvcruntime:frame.obj
 0001:0015048a       ??0TryBlockMap@__FrameHandler3@@QAE@PBU_s_FuncInfo@@I@Z 3015148a f i libvcruntime:frame.obj
 0001:001504a3       ??0bad_exception@std@@QAE@ABV01@@Z 301514a3 f i libvcruntime:frame.obj
 0001:001504c4       ??0bad_exception@std@@QAE@XZ 301514c4 f i libvcruntime:frame.obj
 0001:001504e9       ??0iterator@HandlerMap@__FrameHandler3@@QAE@AAV12@I@Z 301514e9 f i libvcruntime:frame.obj
 0001:00150502       ??1bad_exception@std@@UAE@XZ 30151502 f i libvcruntime:frame.obj
 0001:00150517       ??8iterator@HandlerMap@__FrameHandler3@@QBE_NABV012@@Z 30151517 f i libvcruntime:frame.obj
 0001:0015052e       ??8type_info@@QBE_NABV0@@Z 3015152e f i libvcruntime:frame.obj
 0001:00150554       ??9iterator@HandlerMap@__FrameHandler3@@QBE_NABV012@@Z 30151554 f i libvcruntime:frame.obj
 0001:0015056b       ??Diterator@HandlerMap@__FrameHandler3@@QAE?BU_s_HandlerType@@XZ 3015156b f i libvcruntime:frame.obj
 0001:00150591       ??Diterator@TryBlockMap@__FrameHandler3@@QAE?BU_s_TryBlockMapEntry@@XZ 30151591 f i libvcruntime:frame.obj
 0001:001505bb       ??Eiterator@HandlerMap@__FrameHandler3@@QAEAAV012@XZ 301515bb f i libvcruntime:frame.obj
 0001:001505c1       ??Eiterator@TryBlockMap@__FrameHandler3@@QAEAAV012@XZ 301515c1 f i libvcruntime:frame.obj
 0001:001505c7       ??Miterator@TryBlockMap@__FrameHandler3@@QBE_NABV012@@Z 301515c7 f i libvcruntime:frame.obj
 0001:001505de       ??_Ebad_exception@std@@UAEPAXI@Z 301515de f i libvcruntime:frame.obj
 0001:001505de       ??_Gbad_exception@std@@UAEPAXI@Z 301515de f i libvcruntime:frame.obj
 0001:00150616       ?BuildCatchObject@__FrameHandler3@@SAXPAUEHExceptionRecord@@PAXPBU_s_HandlerType@@PBU_s_CatchableType@@@Z 30151616 f   libvcruntime:frame.obj
 0001:0015061b       ?BuildCatchObjectHelper@__FrameHandler3@@SAHPAUEHExceptionRecord@@PAXPBU_s_HandlerType@@PBU_s_CatchableType@@@Z 3015161b f   libvcruntime:frame.obj
 0001:00150925       ?FrameUnwindToEmptyState@__FrameHandler3@@SAXPAUEHRegistrationNode@@PAXPBU_s_FuncInfo@@@Z 30151925 f   libvcruntime:frame.obj
 0001:00150943       ?FrameUnwindToState@__FrameHandler3@@SAXPAUEHRegistrationNode@@PAXPBU_s_FuncInfo@@H@Z 30151943 f   libvcruntime:frame.obj
 0001:00150a74       ?GetMaxState@__FrameHandler3@@SAHPAXPBU_s_FuncInfo@@@Z 30151a74 f i libvcruntime:frame.obj
 0001:00150b73       ?TypeMatch@__FrameHandler3@@SAHPBU_s_HandlerType@@PBU_s_CatchableType@@PBU_s_ThrowInfo@@@Z 30151b73 f   libvcruntime:frame.obj
 0001:00150b7e       ?_CallMemberFunction1@@YGXQAX00@Z 30151b7e f i libvcruntime:frame.obj
 0001:00150b92       ?_CallMemberFunction2@@YGXQAX00H@Z 30151b92 f i libvcruntime:frame.obj
 0001:00150ba9       ?begin@HandlerMap@__FrameHandler3@@QAE?AViterator@12@XZ 30151ba9 f i libvcruntime:frame.obj
 0001:00150bc0       ?end@HandlerMap@__FrameHandler3@@QAE?AViterator@12@XZ 30151bc0 f i libvcruntime:frame.obj
 0001:00150bd5       ?getESTypes@__FrameHandler3@@SAPBU_s_ESTypeList@@PBU_s_FuncInfo@@@Z 30151bd5 f i libvcruntime:frame.obj
 0001:00150be2       ?getLastEntry@HandlerMap@__FrameHandler3@@QAEPBU_s_HandlerType@@XZ 30151be2 f i libvcruntime:frame.obj
 0001:00150bf3       ?getMagicNum@__FrameHandler3@@SAIPBU_s_FuncInfo@@@Z 30151bf3 f i libvcruntime:frame.obj
 0001:00150c05       ?getNumTryBlocks@TryBlockMap@__FrameHandler3@@QAEIXZ 30151c05 f i libvcruntime:frame.obj
 0001:00150c0b       ?isEHs@__FrameHandler3@@SA_NPBU_s_FuncInfo@@@Z 30151c0b f i libvcruntime:frame.obj
 0001:00150c1b       ?isNoExcept@__FrameHandler3@@SA_NPBU_s_FuncInfo@@@Z 30151c1b f i libvcruntime:frame.obj
 0001:00150c2f       ___BuildCatchObject        30151c2f f   libvcruntime:frame.obj
 0001:00150c34       ___BuildCatchObjectHelper  30151c34 f   libvcruntime:frame.obj
 0001:00150c3f       ___TypeMatch               30151c3f f   libvcruntime:frame.obj
 0001:00150c50       __CallSettingFrame@12      30151c50 f   libvcruntime:lowhelpr.obj
 0001:00150c77       __NLG_Return               30151c77     libvcruntime:lowhelpr.obj
 0001:00150cbc       ___except_validate_context_record 30151cbc f   libvcruntime:jbcxrval.obj
 0001:00150cf8       ___except_validate_jump_buffer 30151cf8 f   libvcruntime:jbcxrval.obj
 0001:00150d30       ___except_validate_jump_buffer_common 30151d30 f i libvcruntime:jbcxrval.obj
 0001:00150d77       ___vcrt_initialize_locks   30151d77 f   libvcruntime:locks.obj
 0001:00150dba       ___vcrt_lock               30151dba f   libvcruntime:locks.obj
 0001:00150dd4       ___vcrt_uninitialize_locks 30151dd4 f   libvcruntime:locks.obj
 0001:00150e08       ___vcrt_unlock             30151e08 f   libvcruntime:locks.obj
 0001:00150e30       __local_unwind4            30151e30 f   libvcruntime:exsup4.obj
 0001:00150f60       __seh_longjmp_unwind4@4    30151f60 f   libvcruntime:exsup4.obj
 0001:00150fa0       @_EH4_CallFilterFunc@8     30151fa0 f   libvcruntime:exsup4.obj
 0001:00150fc0       @_EH4_TransferToHandler@8  30151fc0 f   libvcruntime:exsup4.obj
 0001:00150fe0       @_EH4_GlobalUnwind2@8      30151fe0 f   libvcruntime:exsup4.obj
 0001:00151000       @_EH4_LocalUnwind@16       30152000 f   libvcruntime:exsup4.obj
 0001:0015101c       ??$?0$00@DName@@QAE@PAVUnDecorator@@PBDU?$StringLifeSelector@$00@@@Z 3015201c f i libvcruntime:undname.obj
 0001:00151065       ??$?0$00@pcharNode@@QAE@PBDHU?$StringLifeSelector@$00@@AAV_HeapManager@@@Z 30152065 f i libvcruntime:undname.obj
 0001:00151086       ??$?0$01@DName@@QAE@PAVUnDecorator@@PBDU?$StringLifeSelector@$01@@@Z 30152086 f i libvcruntime:undname.obj
 0001:001510cf       ??$?0$01@pcharNode@@QAE@PBDHU?$StringLifeSelector@$01@@AAV_HeapManager@@@Z 301520cf f i libvcruntime:undname.obj
 0001:0015112e       ??$?0$0A@@DName@@QAE@PAVUnDecorator@@PBDU?$StringLifeSelector@$0A@@@@Z 3015212e f i libvcruntime:undname.obj
 0001:00151177       ??$?0$0A@@pcharNode@@QAE@PBDHU?$StringLifeSelector@$0A@@@AAV_HeapManager@@@Z 30152177 f i libvcruntime:undname.obj
 0001:001511d6       ??$?0_K$0A@@?$optional@_K@std@@QAE@$$QA_K@Z 301521d6 f i libvcruntime:undname.obj
 0001:001511f6       ??$?0_K@?$_Optional_construct_base@_K@std@@QAE@Uin_place_t@1@$$QA_K@Z 301521f6 f i libvcruntime:undname.obj
 0001:00151216       ??$?0_K@?$_Optional_destruct_base@_K$00@std@@QAE@Uin_place_t@1@$$QA_K@Z 30152216 f i libvcruntime:undname.obj
 0001:00151236       ??$append@VDNameNode@@@DName@@AAEXPBVDNameNode@@@Z 30152236 f i libvcruntime:undname.obj
 0001:00151290       ??$append@VDNameStatusNode@@@DName@@AAEXPBVDNameStatusNode@@@Z 30152290 f i libvcruntime:undname.obj
 0001:001512ea       ??$append@VcharNode@@@DName@@AAEXPBVcharNode@@@Z 301522ea f i libvcruntime:undname.obj
 0001:00151344       ??$append@VpDNameNode@@@DName@@AAEXPBVpDNameNode@@@Z 30152344 f i libvcruntime:undname.obj
 0001:0015139e       ??$append@VpcharNode@@@DName@@AAEXPBVpcharNode@@@Z 3015239e f i libvcruntime:undname.obj
 0001:001513f8       ??$doPchar@$00@DName@@AAEXPBDH@Z 301523f8 f i libvcruntime:undname.obj
 0001:00151480       ??$doPchar@$01@DName@@AAEXPBDH@Z 30152480 f i libvcruntime:undname.obj
 0001:00151517       ??$doPchar@$0A@@DName@@AAEXPBDH@Z 30152517 f i libvcruntime:undname.obj
 0001:001515ae       ??$forward@_K@std@@YA$$QA_KAA_K@Z 301525ae f i libvcruntime:undname.obj
 0001:001516d6       ??0?$_Optional_construct_base@_K@std@@QAE@XZ 301526d6 f i libvcruntime:undname.obj
 0001:001516dd       ??0?$_Optional_destruct_base@_K$00@std@@QAE@XZ 301526dd f i libvcruntime:undname.obj
 0001:001516e4       ??0?$optional@_K@std@@QAE@XZ 301526e4 f i libvcruntime:undname.obj
 0001:001516eb       ??0Block@_HeapManager@@QAE@XZ 301526eb f i libvcruntime:undname.obj
 0001:001516f6       ??0DName@@QAE@ABV0@@Z      301526f6 f i libvcruntime:undname.obj
 0001:00151719       ??0DName@@QAE@PAVUnDecorator@@@Z 30152719 f i libvcruntime:undname.obj
 0001:0015173c       ??0DName@@QAE@PAVUnDecorator@@AAPBDD@Z 3015273c f   libvcruntime:undname.obj
 0001:001517f2       ??0DName@@QAE@PAVUnDecorator@@ABUStringLiteral@@@Z 301527f2 f   libvcruntime:undname.obj
 0001:00151831       ??0DName@@QAE@PAVUnDecorator@@D@Z 30152831 f   libvcruntime:undname.obj
 0001:00151863       ??0DName@@QAE@PAVUnDecorator@@PAV0@@Z 30152863 f   libvcruntime:undname.obj
 0001:001518c0       ??0DName@@QAE@PAVUnDecorator@@W4DNameStatus@@@Z 301528c0 f   libvcruntime:undname.obj
 0001:0015191f       ??0DName@@QAE@PAVUnDecorator@@_J@Z 3015291f f   libvcruntime:undname.obj
 0001:001519d0       ??0DName@@QAE@PAVUnDecorator@@_K@Z 301529d0 f   libvcruntime:undname.obj
 0001:00151a5c       ??0DNameNode@@IAE@XZ       30152a5c f i libvcruntime:undname.obj
 0001:00151a67       ??0Replicator@@QAE@PAVUnDecorator@@@Z 30152a67 f i libvcruntime:undname.obj
 0001:00151aa6       ??0UnDecorator@@QAE@PBDP6APADJ@ZKP6APAXI@ZP6AXPAX@Z@Z 30152aa6 f i libvcruntime:undname.obj
 0001:00151b52       ??0_HeapManager@@QAE@P6APAXI@ZP6AXPAX@Z@Z 30152b52 f i libvcruntime:undname.obj
 0001:00151b78       ??0_Nontrivial_dummy_type@std@@QAE@XZ 30152b78 f i libvcruntime:undname.obj
 0001:00151b7b       ??0charNode@@QAE@D@Z       30152b7b f i libvcruntime:undname.obj
 0001:00151b95       ??0pDNameNode@@QAE@PAVDName@@@Z 30152b95 f   libvcruntime:undname.obj
 0001:00151bc7       ??0pairNode@@QAE@PBVDNameNode@@0@Z 30152bc7 f i libvcruntime:undname.obj
 0001:00151bf6       ??2@YAPAXIAAV_HeapManager@@H@Z 30152bf6 f   libvcruntime:undname.obj
 0001:00151c1a       ??4DName@@QAEAAV0@ABUStringLiteral@@@Z 30152c1a f   libvcruntime:undname.obj
 0001:00151c4a       ??4DName@@QAEAAV0@ABV0@@Z  30152c4a f   libvcruntime:undname.obj
 0001:00151c65       ??4DName@@QAEAAV0@D@Z      30152c65 f i libvcruntime:undname.obj
 0001:00151c8f       ??4DName@@QAEAAV0@PAV0@@Z  30152c8f f   libvcruntime:undname.obj
 0001:00151cef       ??4DName@@QAEAAV0@W4DNameStatus@@@Z 30152cef f   libvcruntime:undname.obj
 0001:00151d35       ??AReplicator@@QBE?AVDName@@H@Z 30152d35 f   libvcruntime:undname.obj
 0001:00151d8b       ??B?$optional@_K@std@@QBE_NXZ 30152d8b f i libvcruntime:undname.obj
 0001:00151d8f       ??D?$_Optional_construct_base@_K@std@@QGAEAA_KXZ 30152d8f f i libvcruntime:undname.obj
 0001:00151d92       ??H@YA?AVDName@@ABUStringLiteral@@ABV0@@Z 30152d92 f i libvcruntime:undname.obj
 0001:00151dc5       ??H@YA?AVDName@@DABV0@@Z   30152dc5 f i libvcruntime:undname.obj
 0001:00151df8       ??H@YA?AVDName@@W4DNameStatus@@ABV0@@Z 30152df8 f i libvcruntime:undname.obj
 0001:00151e2b       ??HDName@@QBE?AV0@ABUStringLiteral@@@Z 30152e2b f   libvcruntime:undname.obj
 0001:00151e5d       ??HDName@@QBE?AV0@ABV0@@Z  30152e5d f   libvcruntime:undname.obj
 0001:00151e8f       ??HDName@@QBE?AV0@D@Z      30152e8f f   libvcruntime:undname.obj
 0001:00151ec1       ??HDName@@QBE?AV0@PAV0@@Z  30152ec1 f   libvcruntime:undname.obj
 0001:00151ef3       ??HDName@@QBE?AV0@W4DNameStatus@@@Z 30152ef3 f   libvcruntime:undname.obj
 0001:00151f25       ??HStringLiteral@@QBE?AU0@H@Z 30152f25 f i libvcruntime:undname.obj
 0001:00151fb3       ??YDName@@QAEAAV0@ABUStringLiteral@@@Z 30152fb3 f   libvcruntime:undname.obj
 0001:00152022       ??YDName@@QAEAAV0@ABV0@@Z  30153022 f   libvcruntime:undname.obj
 0001:0015208e       ??YDName@@QAEAAV0@D@Z      3015308e f   libvcruntime:undname.obj
 0001:001520f0       ??YDName@@QAEAAV0@PAV0@@Z  301530f0 f   libvcruntime:undname.obj
 0001:0015216e       ??YDName@@QAEAAV0@W4DNameStatus@@@Z 3015316e f   libvcruntime:undname.obj
 0001:001521be       ??YReplicator@@QAEAAV0@ABVDName@@@Z 301531be f   libvcruntime:undname.obj
 0001:00152216       ??_5DName@@QAEAAV0@ABV0@@Z 30153216 f   libvcruntime:undname.obj
 0001:00152240       ??__K_l@@YA?AUStringLiteral@@PBDI@Z 30153240 f i libvcruntime:undname.obj
 0001:0015224d       ?Destructor@UnDecorator@@QAEXXZ 3015324d f i libvcruntime:undname.obj
 0001:00152257       ?Destructor@_HeapManager@@QAEXXZ 30153257 f i libvcruntime:undname.obj
 0001:001522ab       ?UScore@UnDecorator@@QAE?AUStringLiteral@@W4Tokens@@@Z 301532ab f   libvcruntime:undname.obj
 0001:001522fb       ?composeDeclaration@UnDecorator@@AAE?AVDName@@ABV2@@Z 301532fb f i libvcruntime:undname.obj
 0001:0015324e       ?doAccessSpecifiers@UnDecorator@@QAEHXZ 3015424e f i libvcruntime:undname.obj
 0001:00153260       ?doAllocationLanguage@UnDecorator@@QAEHXZ 30154260 f i libvcruntime:undname.obj
 0001:00153272       ?doAllocationModel@UnDecorator@@QAEHXZ 30154272 f i libvcruntime:undname.obj
 0001:00153284       ?doEcsu@UnDecorator@@QAEHXZ 30154284 f i libvcruntime:undname.obj
 0001:00153296       ?doEllipsis@UnDecorator@@QAEHXZ 30154296 f i libvcruntime:undname.obj
 0001:001532a8       ?doFunctionReturns@UnDecorator@@QAEHXZ 301542a8 f i libvcruntime:undname.obj
 0001:001532ba       ?doMSKeywords@UnDecorator@@QAEHXZ 301542ba f i libvcruntime:undname.obj
 0001:001532cb       ?doMemberTypes@UnDecorator@@QAEHXZ 301542cb f i libvcruntime:undname.obj
 0001:001532dd       ?doNameOnly@UnDecorator@@QAEHXZ 301542dd f i libvcruntime:undname.obj
 0001:001532ec       ?doNoIdentCharCheck@UnDecorator@@QAEHXZ 301542ec f i libvcruntime:undname.obj
 0001:001532fb       ?doPchar@DName@@AAEXD@Z    301542fb f   libvcruntime:undname.obj
 0001:00153346       ?doPtr64@UnDecorator@@QAEHXZ 30154346 f i libvcruntime:undname.obj
 0001:00153358       ?doRestrictionSpec@UnDecorator@@QAEHXZ 30154358 f i libvcruntime:undname.obj
 0001:0015336a       ?doThisTypes@UnDecorator@@QAEHXZ 3015436a f i libvcruntime:undname.obj
 0001:00153380       ?doThrowTypes@UnDecorator@@QAEHXZ 30154380 f i libvcruntime:undname.obj
 0001:00153392       ?doTypeOnly@UnDecorator@@QAEHXZ 30154392 f i libvcruntime:undname.obj
 0001:001533a1       ?doUnderScore@UnDecorator@@QAEHXZ 301543a1 f i libvcruntime:undname.obj
 0001:001533b0       ?getAddressOf@UnDecorator@@AAE?AVDName@@XZ 301543b0 f   libvcruntime:undname.obj
 0001:0015343e       ?getArgumentList@UnDecorator@@AAE?AVDName@@XZ 3015443e f   libvcruntime:undname.obj
 0001:001535e4       ?getArgumentTypes@UnDecorator@@AAE?AVDName@@XZ 301545e4 f   libvcruntime:undname.obj
 0001:00153752       ?getArrayAccess@UnDecorator@@AAE?AVDName@@XZ 30154752 f   libvcruntime:undname.obj
 0001:001537f7       ?getArrayObject@UnDecorator@@AAE?AVDName@@XZ 301547f7 f   libvcruntime:undname.obj
 0001:001538d6       ?getArrayType@UnDecorator@@AAE?AVDName@@ABV2@@Z 301548d6 f i libvcruntime:undname.obj
 0001:00153b13       ?getBasedType@UnDecorator@@AAE?AVDName@@XZ 30154b13 f   libvcruntime:undname.obj
 0001:00153bfb       ?getBasicDataType@UnDecorator@@AAE?AVDName@@ABV2@@Z 30154bfb f   libvcruntime:undname.obj
 0001:00154326       ?getCHPEName@UnDecorator@@QAEPADPADH@Z 30155326 f i libvcruntime:undname.obj
 0001:00154444       ?getCallIndex@UnDecorator@@AAE?AVDName@@XZ 30155444 f i libvcruntime:undname.obj
 0001:0015445d       ?getCallingConvention@UnDecorator@@AAE?AVDName@@XZ 3015545d f   libvcruntime:undname.obj
 0001:00154572       ?getDataIndirectType@UnDecorator@@AAE?AVDName@@ABV2@W4IndirectionKind@@0H@Z 30155572 f   libvcruntime:undname.obj
 0001:00154dd0       ?getDataIndirectType@UnDecorator@@AAE?AVDName@@XZ 30155dd0 f i libvcruntime:undname.obj
 0001:00154e0f       ?getDataType@UnDecorator@@AAE?AVDName@@PAV2@@Z 30155e0f f   libvcruntime:undname.obj
 0001:00154f24       ?getDecoratedName@UnDecorator@@AAE?AVDName@@XZ 30155f24 f   libvcruntime:undname.obj
 0001:00155264       ?getDimension@UnDecorator@@AAE?AVDName@@_N@Z 30156264 f   libvcruntime:undname.obj
 0001:0015539f       ?getDispatchTarget@UnDecorator@@AAE?AVDName@@XZ 3015639f f   libvcruntime:undname.obj
 0001:00155417       ?getDisplacement@UnDecorator@@AAE?AVDName@@XZ 30156417 f i libvcruntime:undname.obj
 0001:00155430       ?getECSUDataType@UnDecorator@@AAE?AVDName@@XZ 30156430 f   libvcruntime:undname.obj
 0001:0015564f       ?getECSUName@UnDecorator@@AAE?AVDName@@XZ 3015664f f i libvcruntime:undname.obj
 0001:00155665       ?getEnumEncoding@UnDecorator@@AAE?AVDName@@XZ 30156665 f   libvcruntime:undname.obj
 0001:00155702       ?getEnumType@UnDecorator@@AAE?AVDName@@XZ 30156702 f i libvcruntime:undname.obj
 0001:0015587e       ?getExtendedDataIndirectType@UnDecorator@@AAE?AVDName@@AAW4IndirectionKind@@AA_NH@Z 3015687e f   libvcruntime:undname.obj
 0001:00155b00       ?getExternalDataType@UnDecorator@@AAE?AVDName@@ABV2@@Z 30156b00 f i libvcruntime:undname.obj
 0001:00155b8f       ?getFloatingPoint@UnDecorator@@AAE?AVDName@@H@Z 30156b8f f   libvcruntime:undname.obj
 0001:00155c69       ?getFunctionIndirectType@UnDecorator@@AAE?AVDName@@ABV2@@Z 30156c69 f   libvcruntime:undname.obj
 0001:00156135       ?getGuardNumber@UnDecorator@@AAE?AVDName@@XZ 30157135 f i libvcruntime:undname.obj
 0001:0015614e       ?getHeap@UnDecorator@@QAEAAV_HeapManager@@XZ 3015714e f i libvcruntime:undname.obj
 0001:00156152       ?getLastChar@DName@@QBEDXZ 30157152 f i libvcruntime:undname.obj
 0001:0015617a       ?getLastChar@DNameStatusNode@@UBEDXZ 3015717a f i libvcruntime:undname.obj
 0001:00156189       ?getLastChar@charNode@@UBEDXZ 30157189 f i libvcruntime:undname.obj
 0001:0015618d       ?getLastChar@pDNameNode@@UBEDXZ 3015718d f i libvcruntime:undname.obj
 0001:0015619e       ?getLastChar@pairNode@@UBEDXZ 3015719e f i libvcruntime:undname.obj
 0001:001561e0       ?getLastChar@pcharNode@@UBEDXZ 301571e0 f i libvcruntime:undname.obj
 0001:001561f6       ?getLexicalFrame@UnDecorator@@AAE?AVDName@@XZ 301571f6 f i libvcruntime:undname.obj
 0001:00156235       ?getMemberAccess@UnDecorator@@AAE?AVDName@@XZ 30157235 f   libvcruntime:undname.obj
 0001:001562d2       ?getMemoryWithBuffer@_HeapManager@@QAEPAXI@Z 301572d2 f   libvcruntime:undname.obj
 0001:00156356       ?getMemoryWithoutBuffer@_HeapManager@@QAEPAXI@Z 30157356 f   libvcruntime:undname.obj
 0001:0015637e       ?getModuleOwner@UnDecorator@@AAE?AVDName@@ABV2@@Z 3015737e f   libvcruntime:undname.obj
 0001:0015647f       ?getNoexcept@UnDecorator@@AAE?AVDName@@XZ 3015747f f   libvcruntime:undname.obj
 0001:001564ea       ?getNumberOfDimensions@UnDecorator@@AAEHXZ 301574ea f   libvcruntime:undname.obj
 0001:00156567       ?getOperatorName@UnDecorator@@AAE?AVDName@@_NPA_N@Z 30157567 f i libvcruntime:undname.obj
 0001:00156faa       ?getPointerToMember@UnDecorator@@AAE?AVDName@@XZ 30157faa f   libvcruntime:undname.obj
 0001:00157098       ?getPointerType@UnDecorator@@AAE?AVDName@@ABV2@0@Z 30158098 f i libvcruntime:undname.obj
 0001:001570b8       ?getPointerTypeArray@UnDecorator@@AAE?AVDName@@ABV2@0@Z 301580b8 f i libvcruntime:undname.obj
 0001:001570d8       ?getPrimaryDataType@UnDecorator@@AAE?AVDName@@ABV2@@Z 301580d8 f   libvcruntime:undname.obj
 0001:001576e6       ?getPtrRefDataType@UnDecorator@@AAE?AVDName@@ABV2@H@Z 301586e6 f   libvcruntime:undname.obj
 0001:001578cb       ?getPtrRefType@UnDecorator@@AAE?AVDName@@ABV2@0W4IndirectionKind@@@Z 301588cb f   libvcruntime:undname.obj
 0001:00157a2f       ?getReferenceType@UnDecorator@@AAE?AVDName@@ABV2@0W4IndirectionKind@@@Z 30158a2f f i libvcruntime:undname.obj
 0001:00157a50       ?getRestrictionSpec@UnDecorator@@AAE?AVDName@@XZ 30158a50 f   libvcruntime:undname.obj
 0001:00157c22       ?getReturnType@UnDecorator@@AAE?AVDName@@PAV2@@Z 30158c22 f   libvcruntime:undname.obj
 0001:00157c60       ?getScope@UnDecorator@@AAE?AVDName@@XZ 30158c60 f   libvcruntime:undname.obj
 0001:00158117       ?getScopedName@UnDecorator@@AAE?AVDName@@XZ 30159117 f   libvcruntime:undname.obj
 0001:0015825e       ?getSignedDimension@UnDecorator@@AAE?AVDName@@XZ 3015925e f   libvcruntime:undname.obj
 0001:001582c9       ?getStorageConvention@UnDecorator@@AAE?AVDName@@XZ 301592c9 f i libvcruntime:undname.obj
 0001:001582df       ?getString@DName@@QBEPADPAD0@Z 301592df f i libvcruntime:undname.obj
 0001:00158317       ?getString@DName@@QBEPADPADH@Z 30159317 f i libvcruntime:undname.obj
 0001:00158382       ?getString@DNameStatusNode@@UBEPADPAD0@Z 30159382 f i libvcruntime:undname.obj
 0001:001583ca       ?getString@charNode@@UBEPADPAD0@Z 301593ca f i libvcruntime:undname.obj
 0001:001583e4       ?getString@pDNameNode@@UBEPADPAD0@Z 301593e4 f i libvcruntime:undname.obj
 0001:00158400       ?getString@pairNode@@UBEPADPAD0@Z 30159400 f i libvcruntime:undname.obj
 0001:00158457       ?getString@pcharNode@@UBEPADPAD0@Z 30159457 f i libvcruntime:undname.obj
 0001:00158478       ?getStringEncoding@UnDecorator@@AAE?AVDName@@W4PrefixKind@@H@Z 30159478 f   libvcruntime:undname.obj
 0001:0015856f       ?getStringHelper@@YAPADPADPBD1H@Z 3015956f f i libvcruntime:undname.obj
 0001:001585ab       ?getStringObject@UnDecorator@@AAE?AVDName@@XZ 301595ab f   libvcruntime:undname.obj
 0001:0015864c       ?getSymbolName@UnDecorator@@AAE?AVDName@@XZ 3015964c f i libvcruntime:undname.obj
 0001:001586a4       ?getTemplateArgumentList@UnDecorator@@AAE?AVDName@@XZ 301596a4 f   libvcruntime:undname.obj
 0001:001588e6       ?getTemplateName@UnDecorator@@AAE?AVDName@@_N@Z 301598e6 f   libvcruntime:undname.obj
 0001:00158ba7       ?getTemplateNonTypeArgument@UnDecorator@@AAE?AVDName@@XZ 30159ba7 f   libvcruntime:undname.obj
 0001:001590b6       ?getTemplateTypeArgument@UnDecorator@@AAE?AVDName@@XZ 3015a0b6 f   libvcruntime:undname.obj
 0001:00159271       ?getThisType@UnDecorator@@AAE?AVDName@@XZ 3015a271 f i libvcruntime:undname.obj
 0001:001592b2       ?getThrowTypes@UnDecorator@@AAE?AVDName@@XZ 3015a2b2 f   libvcruntime:undname.obj
 0001:001592e9       ?getTypeEncoding@UnDecorator@@AAEHXZ 3015a2e9 f i libvcruntime:undname.obj
 0001:00159753       ?getUndecoratedName@UnDecorator@@QAEPADPADH@Z 3015a753 f i libvcruntime:undname.obj
 0001:001598c7       ?getUnionObject@UnDecorator@@AAE?AVDName@@XZ 3015a8c7 f   libvcruntime:undname.obj
 0001:001599ab       ?getVCallThunkType@UnDecorator@@AAE?AVDName@@XZ 3015a9ab f i libvcruntime:undname.obj
 0001:00159a10       ?getValue@UnDecorator@@AAE?AV?$optional@_K@std@@XZ 3015aa10 f   libvcruntime:undname.obj
 0001:00159a8f       ?getValueObject@UnDecorator@@AAE?AVDName@@XZ 3015aa8f f   libvcruntime:undname.obj
 0001:00159c42       ?getVbTableType@UnDecorator@@AAE?AVDName@@ABV2@@Z 3015ac42 f i libvcruntime:undname.obj
 0001:00159c5c       ?getVdispMapType@UnDecorator@@AAE?AVDName@@ABV2@@Z 3015ac5c f i libvcruntime:undname.obj
 0001:00159ce6       ?getVfTableType@UnDecorator@@AAE?AVDName@@ABV2@@Z 3015ace6 f i libvcruntime:undname.obj
 0001:00159e9f       ?getZName@UnDecorator@@AAE?AVDName@@_N0@Z 3015ae9f f   libvcruntime:undname.obj
 0001:0015a17f       ?get_current_character_and_increment_buffer@UnDecorator@@AAEDXZ 3015b17f f i libvcruntime:undname.obj
 0001:0015a198       ?haveTemplateParameters@UnDecorator@@QAEHXZ 3015b198 f i libvcruntime:undname.obj
 0001:0015a1a7       ?increment_buffer@UnDecorator@@AAE_NI@Z 3015b1a7 f i libvcruntime:undname.obj
 0001:0015a1de       ?increment_buffer_no_check@UnDecorator@@AAEXI@Z 3015b1de f i libvcruntime:undname.obj
 0001:0015a1f2       ?increment_buffer_no_check@UnDecorator@@AAEXXZ 3015b1f2 f i libvcruntime:undname.obj
 0001:0015a1f9       ?isArray@DName@@QBEHXZ     3015b1f9 f i libvcruntime:undname.obj
 0001:0015a205       ?isComArray@DName@@QBEHXZ  3015b205 f i libvcruntime:undname.obj
 0001:0015a211       ?isEmpty@DName@@QBEHXZ     3015b211 f i libvcruntime:undname.obj
 0001:0015a21b       ?isFull@Replicator@@QBEHXZ 3015b21b f i libvcruntime:undname.obj
 0001:0015a226       ?isNoTE@DName@@QBEHXZ      3015b226 f i libvcruntime:undname.obj
 0001:0015a232       ?isPinPtr@DName@@QBEHXZ    3015b232 f i libvcruntime:undname.obj
 0001:0015a23e       ?isPtrRef@DName@@QBEHXZ    3015b23e f i libvcruntime:undname.obj
 0001:0015a24a       ?isUDC@DName@@QBEHXZ       3015b24a f i libvcruntime:undname.obj
 0001:0015a25f       ?isUDTThunk@DName@@QBEHXZ  3015b25f f i libvcruntime:undname.obj
 0001:0015a274       ?isVCallThunk@DName@@QBEHXZ 3015b274 f i libvcruntime:undname.obj
 0001:0015a280       ?isValid@DName@@QBEHXZ     3015b280 f i libvcruntime:undname.obj
 0001:0015a28c       ?length@DName@@QBEHXZ      3015b28c f i libvcruntime:undname.obj
 0001:0015a2b2       ?length@DNameStatusNode@@UBEHXZ 3015b2b2 f i libvcruntime:undname.obj
 0001:0015a2b6       ?length@charNode@@UBEHXZ   3015b2b6 f i libvcruntime:undname.obj
 0001:0015a2ba       ?length@pDNameNode@@UBEHXZ 3015b2ba f i libvcruntime:undname.obj
 0001:0015a2cb       ?length@pairNode@@UBEHXZ   3015b2cb f i libvcruntime:undname.obj
 0001:0015a326       ?length@pcharNode@@UBEHXZ  3015b326 f i libvcruntime:undname.obj
 0001:0015a32a       ?make@DNameStatusNode@@SAPBV1@W4DNameStatus@@@Z 3015b32a f i libvcruntime:undname.obj
 0001:0015a34d       ?parseDecoratedName@UnDecorator@@AAE?AVDName@@XZ 3015b34d f   libvcruntime:undname.obj
 0001:0015a486       ?raw_length@DNameStatusNode@@UBEHXZ 3015b486 f i libvcruntime:undname.obj
 0001:0015a48a       ?raw_length@charNode@@UBEHXZ 3015b48a f i libvcruntime:undname.obj
 0001:0015a48e       ?raw_length@pDNameNode@@UBEHXZ 3015b48e f i libvcruntime:undname.obj
 0001:0015a492       ?raw_length@pairNode@@UBEHXZ 3015b492 f i libvcruntime:undname.obj
 0001:0015a496       ?raw_length@pcharNode@@UBEHXZ 3015b496 f i libvcruntime:undname.obj
 0001:0015a49a       ?setIsArray@DName@@QAEXXZ  3015b49a f i libvcruntime:undname.obj
 0001:0015a4a4       ?setIsComArray@DName@@QAEXXZ 3015b4a4 f i libvcruntime:undname.obj
 0001:0015a4ae       ?setIsNoTE@DName@@QAEXXZ   3015b4ae f i libvcruntime:undname.obj
 0001:0015a4b8       ?setIsPinPtr@DName@@QAEXXZ 3015b4b8 f i libvcruntime:undname.obj
 0001:0015a4c2       ?setIsUDC@DName@@QAEXXZ    3015b4c2 f i libvcruntime:undname.obj
 0001:0015a4d2       ?setIsVCallThunk@DName@@QAEXXZ 3015b4d2 f i libvcruntime:undname.obj
 0001:0015a4dc       ?setPtrRef@DName@@QAEAAV1@XZ 3015b4dc f i libvcruntime:undname.obj
 0001:0015a4e8       ?status@DName@@QBE?AW4DNameStatus@@XZ 3015b4e8 f i libvcruntime:undname.obj
 0001:0015a56c       ___unDName                 3015b56c f   libvcruntime:undname.obj
 0001:0015a597       ___unDNameEx               3015b597 f   libvcruntime:undname.obj
 0001:0015a64c       _snprintf                  3015b64c f i libvcruntime:undname.obj
 0001:0015a66c       _unDNameGenerateCHPE       3015b66c f   libvcruntime:undname.obj
 0001:0015a6cc       _vsnprintf                 3015b6cc f i libvcruntime:undname.obj
 0001:0015a725       __get_unexpected           3015b725 f   libvcruntime:unexpected.obj
 0001:0015a73f       _set_unexpected            3015b73f f   libvcruntime:unexpected.obj
 0001:0015a765       _unexpected                3015b765 f   libvcruntime:unexpected.obj
 0001:0015a789       ?GetCurrentState@__FrameHandler3@@SAHPAUEHRegistrationNode@@PAXPBU_s_FuncInfo@@@Z 3015b789 f   libvcruntime:ehstate.obj
 0001:0015a7ad       ?SetState@__FrameHandler3@@SAXPAUEHRegistrationNode@@PAXPBU_s_FuncInfo@@H@Z 3015b7ad f   libvcruntime:ehstate.obj
 0001:0015a7c0       __global_unwind2           3015b7c0 f   libvcruntime:exsup.obj
 0001:0015a850       __local_unwind2            3015b850 f   libvcruntime:exsup.obj
 0001:0015a910       __abnormal_termination     3015b910 f   libvcruntime:exsup.obj
 0001:0015a950       __NLG_Notify1              3015b950 f   libvcruntime:exsup.obj
 0001:0015a960       __NLG_Notify               3015b960 f   libvcruntime:exsup.obj
 0001:0015a977       __NLG_Dispatch             3015b977     libvcruntime:exsup.obj
 0001:0015a977       __NLG_Dispatch2            3015b977     libvcruntime:exsup.obj
 0001:0015a990       __NLG_Call                 3015b990 f   libvcruntime:exsup.obj
 0001:0015a992       __NLG_Return2              3015b992     libvcruntime:exsup.obj
 0001:0015a993       ??$assemble_floating_point_ind@M@__crt_strtox@@YAXAAM@Z 3015b993 f i libucrt:atof.obj
 0001:0015a9a7       ??$assemble_floating_point_ind@N@__crt_strtox@@YAXAAN@Z 3015b9a7 f i libucrt:atof.obj
 0001:0015a9c0       ??$assemble_floating_point_infinity@M@__crt_strtox@@YAX_NAAM@Z 3015b9c0 f i libucrt:atof.obj
 0001:0015a9df       ??$assemble_floating_point_infinity@N@__crt_strtox@@YAX_NAAN@Z 3015b9df f i libucrt:atof.obj
 0001:0015aa03       ??$assemble_floating_point_qnan@M@__crt_strtox@@YAX_NAAM@Z 3015ba03 f i libucrt:atof.obj
 0001:0015aa22       ??$assemble_floating_point_qnan@N@__crt_strtox@@YAX_NAAN@Z 3015ba22 f i libucrt:atof.obj
 0001:0015aa46       ??$assemble_floating_point_snan@M@__crt_strtox@@YAX_NAAM@Z 3015ba46 f i libucrt:atof.obj
 0001:0015aa65       ??$assemble_floating_point_snan@N@__crt_strtox@@YAX_NAAN@Z 3015ba65 f i libucrt:atof.obj
 0001:0015aa8e       ??$assemble_floating_point_value_t@M@__crt_strtox@@YA?AW4SLD_STATUS@@_NH_KAAM@Z 3015ba8e f i libucrt:atof.obj
 0001:0015aadc       ??$assemble_floating_point_value_t@N@__crt_strtox@@YA?AW4SLD_STATUS@@_NH_KAAN@Z 3015badc f i libucrt:atof.obj
 0001:0015ab2e       ??$assemble_floating_point_zero@M@__crt_strtox@@YAX_NAAM@Z 3015bb2e f i libucrt:atof.obj
 0001:0015ab45       ??$assemble_floating_point_zero@N@__crt_strtox@@YAX_NAAN@Z 3015bb45 f i libucrt:atof.obj
 0001:0015ade9       ??$convert_decimal_string_to_floating_type@M@__crt_strtox@@YA?AW4SLD_STATUS@@ABUfloating_point_string@0@AAM@Z 3015bde9 f i libucrt:atof.obj
 0001:0015ae12       ??$convert_decimal_string_to_floating_type@N@__crt_strtox@@YA?AW4SLD_STATUS@@ABUfloating_point_string@0@AAN@Z 3015be12 f i libucrt:atof.obj
 0001:0015ae3b       ??$convert_hexadecimal_string_to_floating_type@M@__crt_strtox@@YA?AW4SLD_STATUS@@ABUfloating_point_string@0@AAM@Z 3015be3b f i libucrt:atof.obj
 0001:0015ae64       ??$convert_hexadecimal_string_to_floating_type@N@__crt_strtox@@YA?AW4SLD_STATUS@@ABUfloating_point_string@0@AAN@Z 3015be64 f i libucrt:atof.obj
 0001:0015ae8d       ??$make_c_string_character_source@D$$T@__crt_strtox@@YA?AV?$c_string_character_source@D@0@QBD$$T@Z 3015be8d f i libucrt:atof.obj
 0001:0015aeae       ??$make_c_string_character_source@_W$$T@__crt_strtox@@YA?AV?$c_string_character_source@_W@0@QB_W$$T@Z 3015beae f i libucrt:atof.obj
 0001:0015aecf       ??$parse_floating_point@V?$c_string_character_source@D@__crt_strtox@@M@__crt_strtox@@YA?AW4SLD_STATUS@@QAU__crt_locale_pointers@@V?$c_string_character_source@D@0@QAM@Z 3015becf f i libucrt:atof.obj
 0001:0015af6f       ??$parse_floating_point@V?$c_string_character_source@D@__crt_strtox@@N@__crt_strtox@@YA?AW4SLD_STATUS@@QAU__crt_locale_pointers@@V?$c_string_character_source@D@0@QAN@Z 3015bf6f f i libucrt:atof.obj
 0001:0015b00f       ??$parse_floating_point@V?$c_string_character_source@_W@__crt_strtox@@N@__crt_strtox@@YA?AW4SLD_STATUS@@QAU__crt_locale_pointers@@V?$c_string_character_source@_W@0@QAN@Z 3015c00f f i libucrt:atof.obj
 0001:0015b0af       ??$parse_floating_point_from_source@V?$c_string_character_source@D@__crt_strtox@@@__crt_strtox@@YA?AW4floating_point_parse_result@0@QAU__crt_locale_pointers@@AAV?$c_string_character_source@D@0@AAUfloating_point_string@0@@Z 3015c0af f i libucrt:atof.obj
 0001:0015b5e1       ??$parse_floating_point_from_source@V?$c_string_character_source@_W@__crt_strtox@@@__crt_strtox@@YA?AW4floating_point_parse_result@0@QAU__crt_locale_pointers@@AAV?$c_string_character_source@_W@0@AAUfloating_point_string@0@@Z 3015c5e1 f i libucrt:atof.obj
 0001:0015c39f       ??$parse_floating_point_possible_infinity@DV?$c_string_character_source@D@__crt_strtox@@PBD@__crt_strtox@@YA?AW4floating_point_parse_result@0@AADAAV?$c_string_character_source@D@0@PBD@Z 3015d39f f i libucrt:atof.obj
 0001:0015c47d       ??$parse_floating_point_possible_infinity@_WV?$c_string_character_source@_W@__crt_strtox@@PB_W@__crt_strtox@@YA?AW4floating_point_parse_result@0@AA_WAAV?$c_string_character_source@_W@0@PB_W@Z 3015d47d f i libucrt:atof.obj
 0001:0015c56e       ??$parse_floating_point_possible_nan@DV?$c_string_character_source@D@__crt_strtox@@PBD@__crt_strtox@@YA?AW4floating_point_parse_result@0@AADAAV?$c_string_character_source@D@0@PBD@Z 3015d56e f i libucrt:atof.obj
 0001:0015c6b3       ??$parse_floating_point_possible_nan@_WV?$c_string_character_source@_W@__crt_strtox@@PB_W@__crt_strtox@@YA?AW4floating_point_parse_result@0@AA_WAAV?$c_string_character_source@_W@0@PB_W@Z 3015d6b3 f i libucrt:atof.obj
 0001:0015c839       ??$parse_floating_point_possible_nan_is_ind@DV?$c_string_character_source@D@__crt_strtox@@@__crt_strtox@@YA_NAADAAV?$c_string_character_source@D@0@@Z 3015d839 f i libucrt:atof.obj
 0001:0015c884       ??$parse_floating_point_possible_nan_is_ind@_WV?$c_string_character_source@_W@__crt_strtox@@@__crt_strtox@@YA_NAA_WAAV?$c_string_character_source@_W@0@@Z 3015d884 f i libucrt:atof.obj
 0001:0015c8da       ??$parse_floating_point_possible_nan_is_snan@DV?$c_string_character_source@D@__crt_strtox@@@__crt_strtox@@YA_NAADAAV?$c_string_character_source@D@0@@Z 3015d8da f i libucrt:atof.obj
 0001:0015c925       ??$parse_floating_point_possible_nan_is_snan@_WV?$c_string_character_source@_W@__crt_strtox@@@__crt_strtox@@YA_NAA_WAAV?$c_string_character_source@_W@0@@Z 3015d925 f i libucrt:atof.obj
 0001:0015c97b       ??$parse_floating_point_write_result@M@__crt_strtox@@YA?AW4SLD_STATUS@@W4floating_point_parse_result@0@ABUfloating_point_string@0@QAM@Z 3015d97b f i libucrt:atof.obj
 0001:0015cb15       ??$parse_floating_point_write_result@N@__crt_strtox@@YA?AW4SLD_STATUS@@W4floating_point_parse_result@0@ABUfloating_point_string@0@QAN@Z 3015db15 f i libucrt:atof.obj
 0001:0015cc82       ??$parse_next_characters_from_source@DV?$c_string_character_source@D@__crt_strtox@@@__crt_strtox@@YA_NQBD0IAADAAV?$c_string_character_source@D@0@@Z 3015dc82 f i libucrt:atof.obj
 0001:0015ccdd       ??$parse_next_characters_from_source@_WV?$c_string_character_source@_W@__crt_strtox@@@__crt_strtox@@YA_NQB_W0IAA_WAAV?$c_string_character_source@_W@0@@Z 3015dcdd f i libucrt:atof.obj
 0001:0015cd43       ??0<lambda_32aa245da1b5b882fa96db788295c8b2>@@QAE@AAV?$c_string_character_source@D@__crt_strtox@@AADAAPBD@Z 3015dd43 f i libucrt:atof.obj
 0001:0015cd66       ??0<lambda_41cd6f1065410257e3b5bd447328b23e>@@QAE@AAV?$c_string_character_source@_W@__crt_strtox@@AA_WAAPB_W@Z 3015dd66 f i libucrt:atof.obj
 0001:0015cd89       ??0<lambda_690cf26ff5d754c94c32cf642e9f01bc>@@QAE@AAV?$c_string_character_source@D@__crt_strtox@@AADAAPBD@Z 3015dd89 f i libucrt:atof.obj
 0001:0015cdac       ??0<lambda_cbd1988beab104251e16e78b336a674a>@@QAE@AAV?$c_string_character_source@_W@__crt_strtox@@AA_WAAPB_W@Z 3015ddac f i libucrt:atof.obj
 0001:0015cdcf       ??0<lambda_e128a58a467199df1f46ac2193393add>@@QAE@AAV?$c_string_character_source@_W@__crt_strtox@@AA_WAAPB_W@Z 3015ddcf f i libucrt:atof.obj
 0001:0015cdf2       ??0<lambda_e51f7abad2595a5950d3223319845217>@@QAE@AAV?$c_string_character_source@D@__crt_strtox@@AADAAPBD@Z 3015ddf2 f i libucrt:atof.obj
 0001:0015ce15       ??0?$c_string_character_source@D@__crt_strtox@@QAE@QBDQAPBD@Z 3015de15 f i libucrt:atof.obj
 0001:0015ce38       ??0?$c_string_character_source@_W@__crt_strtox@@QAE@QB_WQAPB_W@Z 3015de38 f i libucrt:atof.obj
 0001:0015ce5b       ??0_LocaleUpdate@@QAE@QAU__crt_locale_pointers@@@Z 3015de5b f i libucrt:atof.obj
 0001:0015cf00       ??0big_integer@__crt_strtox@@QAE@ABU01@@Z 3015df00 f i libucrt:atof.obj
 0001:0015cf40       ??0big_integer@__crt_strtox@@QAE@XZ 3015df40 f i libucrt:atof.obj
 0001:0015cf4b       ??0floating_point_value@__crt_strtox@@QAE@QAM@Z 3015df4b f i libucrt:atof.obj
 0001:0015cf64       ??0floating_point_value@__crt_strtox@@QAE@QAN@Z 3015df64 f i libucrt:atof.obj
 0001:0015cf7d       ??1?$c_string_character_source@D@__crt_strtox@@QAE@XZ 3015df7d f i libucrt:atof.obj
 0001:0015cf8c       ??1?$c_string_character_source@_W@__crt_strtox@@QAE@XZ 3015df8c f i libucrt:atof.obj
 0001:0015cf9b       ??1_LocaleUpdate@@QAE@XZ   3015df9b f i libucrt:atof.obj
 0001:0015cfb0       ??4big_integer@__crt_strtox@@QAEAAU01@ABU01@@Z 3015dfb0 f i libucrt:atof.obj
 0001:0015cff0       ??M__crt_strtox@@YA_NABUbig_integer@0@0@Z 3015dff0 f i libucrt:atof.obj
 0001:0015d05b       ??R<lambda_32aa245da1b5b882fa96db788295c8b2>@@QBE@XZ 3015e05b f i libucrt:atof.obj
 0001:0015d08a       ??R<lambda_41cd6f1065410257e3b5bd447328b23e>@@QBE@XZ 3015e08a f i libucrt:atof.obj
 0001:0015d0bc       ??R<lambda_690cf26ff5d754c94c32cf642e9f01bc>@@QBE@XZ 3015e0bc f i libucrt:atof.obj
 0001:0015d0eb       ??R<lambda_cbd1988beab104251e16e78b336a674a>@@QBE@XZ 3015e0eb f i libucrt:atof.obj
 0001:0015d11d       ??R<lambda_e128a58a467199df1f46ac2193393add>@@QBE@XZ 3015e11d f i libucrt:atof.obj
 0001:0015d14f       ??R<lambda_e51f7abad2595a5950d3223319845217>@@QBE@XZ 3015e14f f i libucrt:atof.obj
 0001:0015d17e       ?GetLocaleT@_LocaleUpdate@@QAEPAU__crt_locale_pointers@@XZ 3015e17e f i libucrt:atof.obj
 0001:0015d182       ?accumulate_decimal_digits_into_big_integer@__crt_strtox@@YAXQBE0AAUbig_integer@1@@Z 3015e182 f i libucrt:atof.obj
 0001:0015d9b0       ?add@__crt_strtox@@YA_NAAUbig_integer@1@I@Z 3015e9b0 f i libucrt:atof.obj
 0001:0015da50       ?add_carry@__crt_strtox@@YAIAAIII@Z 3015ea50 f i libucrt:atof.obj
 0001:0015da80       ?add_multiply_carry@__crt_strtox@@YAIAAIIII@Z 3015ea80 f i libucrt:atof.obj
 0001:0015daad       ?as_double@floating_point_value@__crt_strtox@@QBEAANXZ 3015eaad f i libucrt:atof.obj
 0001:0015dadb       ?as_float@floating_point_value@__crt_strtox@@QBEAAMXZ 3015eadb f i libucrt:atof.obj
 0001:0015db09       ?assemble_floating_point_infinity@__crt_strtox@@YAX_NABVfloating_point_value@1@@Z 3015eb09 f i libucrt:atof.obj
 0001:0015db59       ?assemble_floating_point_value@__crt_strtox@@YA?AW4SLD_STATUS@@_KH_N1ABVfloating_point_value@1@@Z 3015eb59 f i libucrt:atof.obj
 0001:0015dfd8       ?assemble_floating_point_value_from_big_integer@__crt_strtox@@YA?AW4SLD_STATUS@@ABUbig_integer@1@I_N1ABVfloating_point_value@1@@Z 3015efd8 f i libucrt:atof.obj
 0001:0015e1dc       ?assemble_floating_point_zero@__crt_strtox@@YAX_NABVfloating_point_value@1@@Z 3015f1dc f i libucrt:atof.obj
 0001:0015e220       ?bit_scan_reverse@__crt_strtox@@YAIABUbig_integer@1@@Z 3015f220 f i libucrt:atof.obj
 0001:0015e270       ?bit_scan_reverse@__crt_strtox@@YAII@Z 3015f270 f i libucrt:atof.obj
 0001:0015e2a0       ?bit_scan_reverse@__crt_strtox@@YAI_K@Z 3015f2a0 f i libucrt:atof.obj
 0001:0015e2f8       ?convert_decimal_string_to_floating_type_common@__crt_strtox@@YA?AW4SLD_STATUS@@ABUfloating_point_string@1@ABVfloating_point_value@1@@Z 3015f2f8 f i libucrt:atof.obj
 0001:00160736       ?convert_hexadecimal_string_to_floating_type_common@__crt_strtox@@YA?AW4SLD_STATUS@@ABUfloating_point_string@1@ABVfloating_point_value@1@@Z 30161736 f i libucrt:atof.obj
 0001:00160820       ?count_sequential_high_zeroes@__crt_strtox@@YAII@Z 30161820 f i libucrt:atof.obj
 0001:00160841       ?denormal_mantissa_mask@floating_point_value@__crt_strtox@@QBE_KXZ 30161841 f i libucrt:atof.obj
 0001:00160860       ?divide@__crt_strtox@@YA_KAAUbig_integer@1@ABU21@@Z 30161860 f i libucrt:atof.obj
 0001:00160e6c       ?exponent_bias@floating_point_value@__crt_strtox@@QBEHXZ 30161e6c f i libucrt:atof.obj
 0001:00160e80       ?get@?$c_string_character_source@D@__crt_strtox@@QAEDXZ 30161e80 f i libucrt:atof.obj
 0001:00160e8a       ?get@?$c_string_character_source@_W@__crt_strtox@@QAE_WXZ 30161e8a f i libucrt:atof.obj
 0001:00160e97       ?is_digit_or_nondigit@__crt_strtox@@YA_NH@Z 30161e97 f i libucrt:atof.obj
 0001:00160ece       ?is_double@floating_point_value@__crt_strtox@@QBE_NXZ 30161ece f i libucrt:atof.obj
 0001:00160ed2       ?is_space@__crt_strtox@@YA_NDQAU__crt_locale_pointers@@@Z 30161ed2 f i libucrt:atof.obj
 0001:00160ef7       ?is_space@__crt_strtox@@YA_N_WPAU__crt_locale_pointers@@@Z 30161ef7 f i libucrt:atof.obj
 0001:00160f20       ?make_big_integer@__crt_strtox@@YA?AUbig_integer@1@_K@Z 30161f20 f i libucrt:atof.obj
 0001:00160f48       ?mantissa_bits@floating_point_value@__crt_strtox@@QBEHXZ 30161f48 f i libucrt:atof.obj
 0001:00160f59       ?maximum_binary_exponent@floating_point_value@__crt_strtox@@QBEHXZ 30161f59 f i libucrt:atof.obj
 0001:00160f6d       ?minimum_binary_exponent@floating_point_value@__crt_strtox@@QBEHXZ 30161f6d f i libucrt:atof.obj
 0001:00160f90       ?multiply@__crt_strtox@@YA_NAAUbig_integer@1@ABU21@@Z 30161f90 f i libucrt:atof.obj
 0001:001613b0       ?multiply@__crt_strtox@@YA_NAAUbig_integer@1@I@Z 301623b0 f i libucrt:atof.obj
 0001:001614b0       ?multiply_64_32@__crt_strtox@@YA_K_KI@Z 301624b0 f i libucrt:atof.obj
 0001:001614d0       ?multiply_by_power_of_ten@__crt_strtox@@YA_NAAUbig_integer@1@I@Z 301624d0 f i libucrt:atof.obj
 0001:00161c20       ?multiply_core@__crt_strtox@@YAIQAIII@Z 30162c20 f i libucrt:atof.obj
 0001:00161c6d       ?normal_mantissa_mask@floating_point_value@__crt_strtox@@QBE_KXZ 30162c6d f i libucrt:atof.obj
 0001:00161c89       ?parse_digit@__crt_strtox@@YAID@Z 30162c89 f i libucrt:atof.obj
 0001:00161cd1       ?parse_digit@__crt_strtox@@YAI_W@Z 30162cd1 f i libucrt:atof.obj
 0001:00161f0c       ?restore_state@?$c_string_character_source@D@__crt_strtox@@QAE_NQBD@Z 30162f0c f i libucrt:atof.obj
 0001:00161f20       ?restore_state@?$c_string_character_source@_W@__crt_strtox@@QAE_NQB_W@Z 30162f20 f i libucrt:atof.obj
 0001:00161f34       ?right_shift_with_rounding@__crt_strtox@@YA_K_N_KI0@Z 30162f34 f i libucrt:atof.obj
 0001:00162072       ?save_state@?$c_string_character_source@D@__crt_strtox@@QBEPBDXZ 30163072 f i libucrt:atof.obj
 0001:00162075       ?save_state@?$c_string_character_source@_W@__crt_strtox@@QBEPB_WXZ 30163075 f i libucrt:atof.obj
 0001:00162080       ?shift_left@__crt_strtox@@YA_NAAUbig_integer@1@I@Z 30163080 f i libucrt:atof.obj
 0001:001621fa       ?should_round_up@__crt_strtox@@YA_N_N000@Z 301631fa f i libucrt:atof.obj
 0001:0016225b       ?unget@?$c_string_character_source@D@__crt_strtox@@QAEXD@Z 3016325b f i libucrt:atof.obj
 0001:0016228e       ?unget@?$c_string_character_source@_W@__crt_strtox@@QAEX_W@Z 3016328e f i libucrt:atof.obj
 0001:001622c7       ?validate@?$c_string_character_source@D@__crt_strtox@@QBE_NXZ 301632c7 f i libucrt:atof.obj
 0001:001622e8       ?validate@?$c_string_character_source@_W@__crt_strtox@@QBE_NXZ 301632e8 f i libucrt:atof.obj
 0001:00162309       ?wide_character_to_digit@__crt_strtox@@YAH_W@Z 30163309 f i libucrt:atof.obj
 0001:00162512       ___acrt_disable_global_locale_sync 30163512 f i libucrt:atof.obj
 0001:00162529       ___acrt_enable_global_locale_sync 30163529 f i libucrt:atof.obj
 0001:00162543       ___acrt_get_locale_data_prefix 30163543 f i libucrt:atof.obj
 0001:00162552       ___acrt_locale_changed     30163552 f i libucrt:atof.obj
 0001:0016255f       ___acrt_locale_get_ctype_array_value 3016355f f i libucrt:atof.obj
 0001:00162589       ___ascii_iswalpha          30163589 f i libucrt:atof.obj
 0001:001625b4       ___ascii_toupper           301635b4 f i libucrt:atof.obj
 0001:001625cf       ___ascii_towupper          301635cf f i libucrt:atof.obj
 0001:001625ea       __atodbl                   301635ea f   libucrt:atof.obj
 0001:00162606       __atodbl_l                 30163606 f   libucrt:atof.obj
 0001:00162613       __atof_l                   30163613 f   libucrt:atof.obj
 0001:00162620       __atoflt                   30163620 f   libucrt:atof.obj
 0001:0016263c       __atoflt_l                 3016363c f   libucrt:atof.obj
 0001:00162649       __chvalidchk_l             30163649 f i libucrt:atof.obj
 0001:0016267b       __ischartype_l             3016367b f i libucrt:atof.obj
 0001:001626e7       __wtof                     301636e7 f   libucrt:atof.obj
 0001:001626fe       __wtof_l                   301636fe f   libucrt:atof.obj
 0001:0016270b       _atof                      3016370b f   libucrt:atof.obj
 0001:001627c3       _rand                      301637c3 f   libucrt:rand.obj
 0001:001627ec       _srand                     301637ec f   libucrt:rand.obj
 0001:00162802       ??$is_overflow_condition@K@__crt_strtox@@YA_NIK@Z 30163802 f i libucrt:atox.obj
 0001:00162843       ??$is_overflow_condition@_K@__crt_strtox@@YA_NI_K@Z 30163843 f i libucrt:atox.obj
 0001:00162894       ??$parse_integer@KV?$c_string_character_source@D@__crt_strtox@@$00@__crt_strtox@@YAKAAV__crt_cached_ptd_host@@V?$c_string_character_source@D@0@H_N@Z 30163894 f i libucrt:atox.obj
 0001:00162b71       ??$parse_integer@KV?$c_string_character_source@_W@__crt_strtox@@$00@__crt_strtox@@YAKAAV__crt_cached_ptd_host@@V?$c_string_character_source@_W@0@H_N@Z 30163b71 f i libucrt:atox.obj
 0001:0016331c       ??$parse_integer@_KV?$c_string_character_source@D@__crt_strtox@@$00@__crt_strtox@@YA_KAAV__crt_cached_ptd_host@@V?$c_string_character_source@D@0@H_N@Z 3016431c f i libucrt:atox.obj
 0001:00163678       ??$parse_integer@_KV?$c_string_character_source@_W@__crt_strtox@@$00@__crt_strtox@@YA_KAAV__crt_cached_ptd_host@@V?$c_string_character_source@_W@0@H_N@Z 30164678 f i libucrt:atox.obj
 0001:00163dba       ??$parse_integer_from_string@JD$$T@__crt_strtox@@YAJQBD$$THQAU__crt_locale_pointers@@@Z 30164dba f i libucrt:atox.obj
 0001:00163e12       ??$parse_integer_from_string@J_W$$T@__crt_strtox@@YAJQB_W$$THQAU__crt_locale_pointers@@@Z 30164e12 f i libucrt:atox.obj
 0001:00163e6a       ??$parse_integer_from_string@_JD$$T@__crt_strtox@@YA_JQBD$$THQAU__crt_locale_pointers@@@Z 30164e6a f i libucrt:atox.obj
 0001:00163eca       ??$parse_integer_from_string@_J_W$$T@__crt_strtox@@YA_JQB_W$$THQAU__crt_locale_pointers@@@Z 30164eca f i libucrt:atox.obj
 0001:00163f2a       ??0?$cached@H@__crt_cached_ptd_host@@QAE@XZ 30164f2a f i libucrt:atox.obj
 0001:00163f31       ??0?$cached@K@__crt_cached_ptd_host@@QAE@XZ 30164f31 f i libucrt:atox.obj
 0001:00163f40       ??0__crt_cached_ptd_host@@QAE@QAU__crt_locale_pointers@@@Z 30164f40 f i libucrt:atox.obj
 0001:00163fb4       ??0__crt_scoped_get_last_error_reset@@QAE@XZ 30164fb4 f i libucrt:atox.obj
 0001:00163fd0       ??1__crt_cached_ptd_host@@QAE@XZ 30164fd0 f i libucrt:atox.obj
 0001:0016401b       ??1__crt_scoped_get_last_error_reset@@QAE@XZ 3016501b f i libucrt:atox.obj
 0001:00164030       ?check_synchronize_global_state_index@__crt_cached_ptd_host@@AAEIABV__crt_scoped_get_last_error_reset@@@Z 30165030 f i libucrt:atox.obj
 0001:00164060       ?check_synchronize_per_thread_data@__crt_cached_ptd_host@@AAEPAU__acrt_ptd@@XZ 30165060 f i libucrt:atox.obj
 0001:001640e0       ?force_synchronize_global_state_index@__crt_cached_ptd_host@@AAEIABV__crt_scoped_get_last_error_reset@@@Z 301650e0 f i libucrt:atox.obj
 0001:00164100       ?force_synchronize_per_thread_data@__crt_cached_ptd_host@@AAEPAU__acrt_ptd@@XZ 30165100 f i libucrt:atox.obj
 0001:00164160       ?get_current_state_index@__crt_state_management@@YAIABV__crt_scoped_get_last_error_reset@@@Z 30165160 f i libucrt:atox.obj
 0001:00164170       ?get_errno@__crt_cached_ptd_host@@QAE@XZ 30165170 f i libucrt:atox.obj
 0001:00164180       ?get_locale@__crt_cached_ptd_host@@QAEPAU__crt_locale_pointers@@XZ 30165180 f i libucrt:atox.obj
 0001:001641a0       ?get_raw_ptd@__crt_cached_ptd_host@@QAEPAU__acrt_ptd@@XZ 301651a0 f i libucrt:atox.obj
 0001:00164213       ?maximum_signed_value@__crt_strtox@@YAJK@Z 30165213 f i libucrt:atox.obj
 0001:00164219       ?maximum_signed_value@__crt_strtox@@YA_J_K@Z 30165219 f i libucrt:atox.obj
 0001:00164224       ?minimum_signed_value@__crt_strtox@@YAJK@Z 30165224 f i libucrt:atox.obj
 0001:0016422a       ?minimum_signed_value@__crt_strtox@@YA_J_K@Z 3016522a f i libucrt:atox.obj
 0001:00164234       ?set@?$cached@H@__crt_cached_ptd_host@@QAEHH@Z 30165234 f i libucrt:atox.obj
 0001:0016424a       ?unsafe_value@?$cached@H@__crt_cached_ptd_host@@QAEHXZ 3016524a f i libucrt:atox.obj
 0001:0016424d       ?unsafe_value@?$cached@K@__crt_cached_ptd_host@@QAEKXZ 3016524d f i libucrt:atox.obj
 0001:00164250       ?update_locale@__crt_cached_ptd_host@@AAEXXZ 30165250 f i libucrt:atox.obj
 0001:00164260       ?update_locale_slow@__crt_cached_ptd_host@@AAEXXZ 30165260 f i libucrt:atox.obj
 0001:001642d1       ?valid@?$cached@H@__crt_cached_ptd_host@@QBE_NXZ 301652d1 f i libucrt:atox.obj
 0001:001642d5       ?valid@?$cached@K@__crt_cached_ptd_host@@QBE_NXZ 301652d5 f i libucrt:atox.obj
 0001:001642d9       __atoi64                   301652d9 f   libucrt:atox.obj
 0001:0016432f       __atoi64_l                 3016532f f   libucrt:atox.obj
 0001:00164386       __atoi_l                   30165386 f   libucrt:atox.obj
 0001:001643d6       __atol_l                   301653d6 f   libucrt:atox.obj
 0001:00164426       __atoll_l                  30165426 f   libucrt:atox.obj
 0001:0016447d       __wtoi                     3016547d f   libucrt:atox.obj
 0001:001644cb       __wtoi64                   301654cb f   libucrt:atox.obj
 0001:00164521       __wtoi64_l                 30165521 f   libucrt:atox.obj
 0001:00164578       __wtoi_l                   30165578 f   libucrt:atox.obj
 0001:001645c8       __wtol                     301655c8 f   libucrt:atox.obj
 0001:00164616       __wtol_l                   30165616 f   libucrt:atox.obj
 0001:00164666       __wtoll                    30165666 f   libucrt:atox.obj
 0001:001646bc       __wtoll_l                  301656bc f   libucrt:atox.obj
 0001:00164713       _atoi                      30165713 f   libucrt:atox.obj
 0001:00164761       _atol                      30165761 f   libucrt:atox.obj
 0001:001647af       _atoll                     301657af f   libucrt:atox.obj
 0001:00164810       __libm_sse2_cos_precise    30165810 f   libucrt:cos_sse2_precise.obj
 0001:00164a40       __libm_sse2_sin_precise    30165a40 f   libucrt:sin_sse2_precise.obj
 0001:00164c80       _calloc                    30165c80 f   libucrt:calloc.obj
 0001:00164c90       _free                      30165c90 f   libucrt:free.obj
 0001:00164d33       ?get_doserrno@__crt_cached_ptd_host@@QAE@XZ 30165d33 f i libucrt:errno.obj
 0001:00164d37       ?set@?$cached@K@__crt_cached_ptd_host@@QAEKK@Z 30165d37 f i libucrt:errno.obj
 0001:00164d4d       ___acrt_errno_from_os_error 30165d4d f   libucrt:errno.obj
 0001:00164dc3       ___acrt_errno_map_os_error 30165dc3 f   libucrt:errno.obj
 0001:00164dee       ___acrt_errno_map_os_error_ptd 30165dee f   libucrt:errno.obj
 0001:00164e1b       ___doserrno                30165e1b f   libucrt:errno.obj
 0001:00164e35       __errno                    30165e35 f   libucrt:errno.obj
 0001:00164e4f       __get_doserrno             30165e4f f   libucrt:errno.obj
 0001:00164e7d       __get_errno                30165e7d f   libucrt:errno.obj
 0001:00164eab       __set_doserrno             30165eab f   libucrt:errno.obj
 0001:00164ed4       __set_errno                30165ed4 f   libucrt:errno.obj
 0001:001651df       ??$make_c_string_character_source@DPAPAD@__crt_strtox@@YA?AV?$c_string_character_source@D@0@QBDQAPAD@Z 301661df f i libucrt:strtod.obj
 0001:00165200       ??$make_c_string_character_source@_WPAPA_W@__crt_strtox@@YA?AV?$c_string_character_source@_W@0@QB_WQAPA_W@Z 30166200 f i libucrt:strtod.obj
 0001:00165221       ??$parse_floating_point@V?$c_string_character_source@_W@__crt_strtox@@M@__crt_strtox@@YA?AW4SLD_STATUS@@QAU__crt_locale_pointers@@V?$c_string_character_source@_W@0@QAM@Z 30166221 f i libucrt:strtod.obj
 0001:001652c1       __strtod_l                 301662c1 f   libucrt:strtod.obj
 0001:001652ce       __strtof_l                 301662ce f   libucrt:strtod.obj
 0001:001652db       __strtold_l                301662db f   libucrt:strtod.obj
 0001:001652e8       __wcstod_l                 301662e8 f   libucrt:strtod.obj
 0001:001652f5       __wcstof_l                 301662f5 f   libucrt:strtod.obj
 0001:00165302       __wcstold_l                30166302 f   libucrt:strtod.obj
 0001:001653b0       _strtod                    301663b0 f   libucrt:strtod.obj
 0001:001653cc       _strtof                    301663cc f   libucrt:strtod.obj
 0001:001653e8       _strtold                   301663e8 f   libucrt:strtod.obj
 0001:00165404       _wcstod                    30166404 f   libucrt:strtod.obj
 0001:00165420       _wcstof                    30166420 f   libucrt:strtod.obj
 0001:0016543c       _wcstold                   3016643c f   libucrt:strtod.obj
 0001:00165458       _localeconv                30166458 f   libucrt:localeconv.obj
 0001:00165490       __libm_sse2_sqrt_precise   30166490 f   libucrt:sqrt_sse2_precise.obj
 0001:001655d0       ??1scoped_global_state_reset@__crt_state_management@@QAE@XZ 301665d0 f i libucrt:qsort.obj
 0001:001656d0       _qsort                     301666d0 f   libucrt:qsort.obj
 0001:00165c20       __decomp                   30166c20 f i libucrt:frexp.obj
 0001:00165d80       __set_exp                  30166d80 f i libucrt:frexp.obj
 0001:00165dd0       __sptype                   30166dd0 f i libucrt:frexp.obj
 0001:00165e90       _frexp                     30166e90 f   libucrt:frexp.obj
 0001:001660f1       ??$?0ABV?$stream_output_adapter@D@__crt_stdio_output@@AB_KABQBDAAV__crt_cached_ptd_host@@ABQAD@?$format_validation_base@DV?$stream_output_adapter@D@__crt_stdio_output@@@__crt_stdio_output@@IAE@ABV?$stream_output_adapter@D@1@AB_KABQBDAAV__crt_cached_ptd_host@@ABQAD@Z 301670f1 f i libucrt:output.obj
 0001:0016611c       ??$?0ABV?$stream_output_adapter@D@__crt_stdio_output@@AB_KABQBDAAV__crt_cached_ptd_host@@ABQAD@?$positional_parameter_base@DV?$stream_output_adapter@D@__crt_stdio_output@@@__crt_stdio_output@@IAE@ABV?$stream_output_adapter@D@1@AB_KABQBDAAV__crt_cached_ptd_host@@ABQAD@Z 3016711c f i libucrt:output.obj
 0001:00166176       ??$?0ABV?$stream_output_adapter@D@__crt_stdio_output@@AB_KABQBDAAV__crt_cached_ptd_host@@ABQAD@?$standard_base@DV?$stream_output_adapter@D@__crt_stdio_output@@@__crt_stdio_output@@IAE@ABV?$stream_output_adapter@D@1@AB_KABQBDAAV__crt_cached_ptd_host@@ABQAD@Z 30167176 f i libucrt:output.obj
 0001:001661b5       ??$?0ABV?$stream_output_adapter@_W@__crt_stdio_output@@AB_KABQB_WAAV__crt_cached_ptd_host@@ABQAD@?$format_validation_base@_WV?$stream_output_adapter@_W@__crt_stdio_output@@@__crt_stdio_output@@IAE@ABV?$stream_output_adapter@_W@1@AB_KABQB_WAAV__crt_cached_ptd_host@@ABQAD@Z 301671b5 f i libucrt:output.obj
 0001:001661e0       ??$?0ABV?$stream_output_adapter@_W@__crt_stdio_output@@AB_KABQB_WAAV__crt_cached_ptd_host@@ABQAD@?$positional_parameter_base@_WV?$stream_output_adapter@_W@__crt_stdio_output@@@__crt_stdio_output@@IAE@ABV?$stream_output_adapter@_W@1@AB_KABQB_WAAV__crt_cached_ptd_host@@ABQAD@Z 301671e0 f i libucrt:output.obj
 0001:0016623a       ??$?0ABV?$stream_output_adapter@_W@__crt_stdio_output@@AB_KABQB_WAAV__crt_cached_ptd_host@@ABQAD@?$standard_base@_WV?$stream_output_adapter@_W@__crt_stdio_output@@@__crt_stdio_output@@IAE@ABV?$stream_output_adapter@_W@1@AB_KABQB_WAAV__crt_cached_ptd_host@@ABQAD@Z 3016723a f i libucrt:output.obj
 0001:00166279       ??$?0ABV?$string_output_adapter@D@__crt_stdio_output@@AB_KABQBDAAV__crt_cached_ptd_host@@ABQAD@?$format_validation_base@DV?$string_output_adapter@D@__crt_stdio_output@@@__crt_stdio_output@@IAE@ABV?$string_output_adapter@D@1@AB_KABQBDAAV__crt_cached_ptd_host@@ABQAD@Z 30167279 f i libucrt:output.obj
 0001:001662a4       ??$?0ABV?$string_output_adapter@D@__crt_stdio_output@@AB_KABQBDAAV__crt_cached_ptd_host@@ABQAD@?$positional_parameter_base@DV?$string_output_adapter@D@__crt_stdio_output@@@__crt_stdio_output@@IAE@ABV?$string_output_adapter@D@1@AB_KABQBDAAV__crt_cached_ptd_host@@ABQAD@Z 301672a4 f i libucrt:output.obj
 0001:001662fe       ??$?0ABV?$string_output_adapter@D@__crt_stdio_output@@AB_KABQBDAAV__crt_cached_ptd_host@@ABQAD@?$standard_base@DV?$string_output_adapter@D@__crt_stdio_output@@@__crt_stdio_output@@IAE@ABV?$string_output_adapter@D@1@AB_KABQBDAAV__crt_cached_ptd_host@@ABQAD@Z 301672fe f i libucrt:output.obj
 0001:0016633d       ??$?0ABV?$string_output_adapter@_W@__crt_stdio_output@@AB_KABQB_WAAV__crt_cached_ptd_host@@ABQAD@?$format_validation_base@_WV?$string_output_adapter@_W@__crt_stdio_output@@@__crt_stdio_output@@IAE@ABV?$string_output_adapter@_W@1@AB_KABQB_WAAV__crt_cached_ptd_host@@ABQAD@Z 3016733d f i libucrt:output.obj
 0001:00166368       ??$?0ABV?$string_output_adapter@_W@__crt_stdio_output@@AB_KABQB_WAAV__crt_cached_ptd_host@@ABQAD@?$positional_parameter_base@_WV?$string_output_adapter@_W@__crt_stdio_output@@@__crt_stdio_output@@IAE@ABV?$string_output_adapter@_W@1@AB_KABQB_WAAV__crt_cached_ptd_host@@ABQAD@Z 30167368 f i libucrt:output.obj
 0001:001663c2       ??$?0ABV?$string_output_adapter@_W@__crt_stdio_output@@AB_KABQB_WAAV__crt_cached_ptd_host@@ABQAD@?$standard_base@_WV?$string_output_adapter@_W@__crt_stdio_output@@@__crt_stdio_output@@IAE@ABV?$string_output_adapter@_W@1@AB_KABQB_WAAV__crt_cached_ptd_host@@ABQAD@Z 301673c2 f i libucrt:output.obj
 0001:001667c1       ??$__crt_interlocked_read@J@@YAJPDJ@Z 301677c1 f i libucrt:output.obj
 0001:001667d1       ??$_tcstol_internal@DPAPAD$0A@@@YAJAAV__crt_cached_ptd_host@@QBDQAPADH@Z 301677d1 f i libucrt:output.obj
 0001:00166806       ??$_tcstol_internal@_WPAPA_W$0A@@@YAJAAV__crt_cached_ptd_host@@QB_WQAPA_WH@Z 30167806 f i libucrt:output.obj
 0001:00167b2f       ??$count@D@formatting_buffer@__crt_stdio_output@@QBEIXZ 30168b2f f i libucrt:output.obj
 0001:00167b4d       ??$count@_W@formatting_buffer@__crt_stdio_output@@QBEIXZ 30168b4d f i libucrt:output.obj
 0001:00167b6c       ??$data@D@formatting_buffer@__crt_stdio_output@@QAEPADXZ 30168b6c f i libucrt:output.obj
 0001:00167b7b       ??$data@_W@formatting_buffer@__crt_stdio_output@@QAEPA_WXZ 30168b7b f i libucrt:output.obj
 0001:00167b8a       ??$ensure_buffer_is_big_enough@D@formatting_buffer@__crt_stdio_output@@QAE_NIAAV__crt_cached_ptd_host@@@Z 30168b8a f i libucrt:output.obj
 0001:00167c2a       ??$ensure_buffer_is_big_enough@_W@formatting_buffer@__crt_stdio_output@@QAE_NIAAV__crt_cached_ptd_host@@@Z 30168c2a f i libucrt:output.obj
 0001:00167ccb       ??$extract_argument_from_va_list@C_J@?$positional_parameter_base@DV?$stream_output_adapter@D@__crt_stdio_output@@@__crt_stdio_output@@IAE_NAA_J@Z 30168ccb f i libucrt:output.obj
 0001:00167d7d       ??$extract_argument_from_va_list@C_J@?$positional_parameter_base@DV?$string_output_adapter@D@__crt_stdio_output@@@__crt_stdio_output@@IAE_NAA_J@Z 30168d7d f i libucrt:output.obj
 0001:00167e2f       ??$extract_argument_from_va_list@C_J@?$positional_parameter_base@_WV?$stream_output_adapter@_W@__crt_stdio_output@@@__crt_stdio_output@@IAE_NAA_J@Z 30168e2f f i libucrt:output.obj
 0001:00167ee3       ??$extract_argument_from_va_list@C_J@?$positional_parameter_base@_WV?$string_output_adapter@_W@__crt_stdio_output@@@__crt_stdio_output@@IAE_NAA_J@Z 30168ee3 f i libucrt:output.obj
 0001:00167f97       ??$extract_argument_from_va_list@C_J@?$standard_base@DV?$stream_output_adapter@D@__crt_stdio_output@@@__crt_stdio_output@@IAE_NAA_J@Z 30168f97 f i libucrt:output.obj
 0001:00167fbf       ??$extract_argument_from_va_list@C_J@?$standard_base@DV?$string_output_adapter@D@__crt_stdio_output@@@__crt_stdio_output@@IAE_NAA_J@Z 30168fbf f i libucrt:output.obj
 0001:00167fe7       ??$extract_argument_from_va_list@C_J@?$standard_base@_WV?$stream_output_adapter@_W@__crt_stdio_output@@@__crt_stdio_output@@IAE_NAA_J@Z 30168fe7 f i libucrt:output.obj
 0001:0016800f       ??$extract_argument_from_va_list@C_J@?$standard_base@_WV?$string_output_adapter@_W@__crt_stdio_output@@@__crt_stdio_output@@IAE_NAA_J@Z 3016900f f i libucrt:output.obj
 0001:00168037       ??$extract_argument_from_va_list@E_J@?$positional_parameter_base@DV?$stream_output_adapter@D@__crt_stdio_output@@@__crt_stdio_output@@IAE_NAA_J@Z 30169037 f i libucrt:output.obj
 0001:001680e9       ??$extract_argument_from_va_list@E_J@?$positional_parameter_base@DV?$string_output_adapter@D@__crt_stdio_output@@@__crt_stdio_output@@IAE_NAA_J@Z 301690e9 f i libucrt:output.obj
 0001:0016819b       ??$extract_argument_from_va_list@E_J@?$positional_parameter_base@_WV?$stream_output_adapter@_W@__crt_stdio_output@@@__crt_stdio_output@@IAE_NAA_J@Z 3016919b f i libucrt:output.obj
 0001:0016824f       ??$extract_argument_from_va_list@E_J@?$positional_parameter_base@_WV?$string_output_adapter@_W@__crt_stdio_output@@@__crt_stdio_output@@IAE_NAA_J@Z 3016924f f i libucrt:output.obj
 0001:00168303       ??$extract_argument_from_va_list@E_J@?$standard_base@DV?$stream_output_adapter@D@__crt_stdio_output@@@__crt_stdio_output@@IAE_NAA_J@Z 30169303 f i libucrt:output.obj
